 TControlSvr

 Timestamp is 64a5d17a (Wed Jul  5 23:24:26 2023)

 Preferred load address is 00400000

 Start         Length     Name                   Class
 0001:00000000 000002e0H .text$di                CODE
 0001:000002e0 0004f1b0H .text$mn                CODE
 0001:0004f490 00002820H .text$x                 CODE
 0001:00051cb0 000001e7H .text$yd                CODE
 0002:00000000 000002c0H .idata$5                DATA
 0002:000002c0 00000008H .00cfg                  DATA
 0002:000002c8 00000004H .CRT$XCA                DATA
 0002:000002cc 00000004H .CRT$XCAA               DATA
 0002:000002d0 0000002cH .CRT$XCC                DATA
 0002:000002fc 0000000cH .CRT$XCL                DATA
 0002:00000308 00000020H .CRT$XCU                DATA
 0002:00000328 00000004H .CRT$XCZ                DATA
 0002:0000032c 00000004H .CRT$XIA                DATA
 0002:00000330 00000004H .CRT$XIAA               DATA
 0002:00000334 00000004H .CRT$XIAC               DATA
 0002:00000338 00000018H .CRT$XIC                DATA
 0002:00000350 00000004H .CRT$XIZ                DATA
 0002:00000354 00000004H .CRT$XLA                DATA
 0002:00000358 00000004H .CRT$XLZ                DATA
 0002:0000035c 00000004H .CRT$XPA                DATA
 0002:00000360 00000008H .CRT$XPX                DATA
 0002:00000368 00000004H .CRT$XPXA               DATA
 0002:0000036c 00000004H .CRT$XPZ                DATA
 0002:00000370 00000004H .CRT$XTA                DATA
 0002:00000374 0000000cH .CRT$XTZ                DATA
 0002:00000378 00000000H .gfids$y                DATA
 0002:00000380 0000d4c0H .rdata                  DATA
 0002:0000d840 00000000H .rdata$CastGuardVftablesA DATA
 0002:0000d840 00000000H .rdata$CastGuardVftablesC DATA
 0002:0000d840 00000018H .rdata$T                DATA
 0002:0000d858 00001738H .rdata$r                DATA
 0002:0000ef90 00000228H .rdata$sxdata           DATA
 0002:0000f1b8 00000100H .rdata$voltmd           DATA
 0002:0000f2b8 00000458H .rdata$zzzdbg           DATA
 0002:0000f710 00000004H .rtc$IAA                DATA
 0002:0000f714 00000004H .rtc$IZZ                DATA
 0002:0000f718 00000004H .rtc$TAA                DATA
 0002:0000f71c 00000004H .rtc$TZZ                DATA
 0002:0000f720 00000004H .tls                    DATA
 0002:0000f724 00000004H .tls$                   DATA
 0002:0000f728 00000008H .tls$ZZZ                DATA
 0002:0000f730 00002d98H .xdata$x                DATA
 0002:000124c8 00000000H ATL$__a                 DATA
 0002:000124c8 00000000H ATL$__z                 DATA
 0002:000124c8 00000000H .edata                  DATA
 0002:000124c8 000000a0H .idata$2                DATA
 0002:00012568 00000014H .idata$3                DATA
 0002:0001257c 000002c0H .idata$4                DATA
 0002:0001283c 00000a7aH .idata$6                DATA
 0003:00000000 00000adcH .data                   DATA
 0003:00000adc 000001acH .data$r                 DATA
 0003:00000c88 00000958H .data$rs                DATA
 0003:000015e0 00011860H .bss                    DATA
 0004:00000000 000001a0H .rsrc$01                DATA
 0004:000001a0 000009d8H .rsrc$02                DATA

  Address         Publics by Value              Rva+Base       Lib:Object

 0000:00000000       ___AbsoluteZero            00000000     <absolute>
 0000:00000000       ___arm64x_extra_rfe_table  00000000     <absolute>
 0000:00000000       ___arm64x_extra_rfe_table_size 00000000     <absolute>
 0000:00000000       ___arm64x_native_entrypoint 00000000     <absolute>
 0000:00000000       ___arm64x_redirection_metadata 00000000     <absolute>
 0000:00000000       ___arm64x_redirection_metadata_count 00000000     <absolute>
 0000:00000000       ___dynamic_value_reloc_table 00000000     <absolute>
 0000:00000000       ___enclave_config          00000000     <absolute>
 0000:00000000       ___guard_check_icall_a64n_fptr 00000000     <absolute>
 0000:00000000       ___guard_eh_cont_count     00000000     <absolute>
 0000:00000000       ___guard_eh_cont_table     00000000     <absolute>
 0000:00000000       ___guard_fids_count        00000000     <absolute>
 0000:00000000       ___guard_fids_table        00000000     <absolute>
 0000:00000000       ___guard_iat_count         00000000     <absolute>
 0000:00000000       ___guard_iat_table         00000000     <absolute>
 0000:00000000       ___guard_longjmp_count     00000000     <absolute>
 0000:00000000       ___guard_longjmp_table     00000000     <absolute>
 0000:00000000       ___hybrid_auxiliary_delayload_iat 00000000     <absolute>
 0000:00000000       ___hybrid_auxiliary_delayload_iat_copy 00000000     <absolute>
 0000:00000000       ___hybrid_auxiliary_iat    00000000     <absolute>
 0000:00000000       ___hybrid_auxiliary_iat_copy 00000000     <absolute>
 0000:00000000       ___hybrid_code_map         00000000     <absolute>
 0000:00000000       ___hybrid_code_map_count   00000000     <absolute>
 0000:00000000       ___x64_code_ranges_to_entry_points 00000000     <absolute>
 0000:00000000       ___x64_code_ranges_to_entry_points_count 00000000     <absolute>
 0000:00000000       __except_list              00000000     <absolute>
 0000:0000002c       __tls_array                0000002c     <absolute>
 0000:0000008a       ___safe_se_handler_count   0000008a     <absolute>
 0000:00000100       ___guard_flags             00000100     <absolute>
 0000:00000000       ___ImageBase               00400000     <linker-defined>
 0001:000002e0       ___local_stdio_printf_options 004012e0 f i TServerSystem:TServerSystem.obj
 0001:000002f0       ??0exception@std@@QAE@QBD@Z 004012f0 f i TServerSystem:TServerSystem.obj
 0001:00000340       ??0exception@std@@QAE@ABV01@@Z 00401340 f i TServerSystem:TServerSystem.obj
 0001:00000370       ?what@exception@std@@UBEPBDXZ 00401370 f i TServerSystem:TServerSystem.obj
 0001:00000380       ??_Ebad_alloc@std@@UAEPAXI@Z 00401380 f i * CIL library *:* CIL module *
 0001:00000380       ??_Ebad_array_new_length@std@@UAEPAXI@Z 00401380 f i * CIL library *:* CIL module *
 0001:00000380       ??_Eexception@std@@UAEPAXI@Z 00401380 f i * CIL library *:* CIL module *
 0001:00000380       ??_Eruntime_error@std@@UAEPAXI@Z 00401380 f i * CIL library *:* CIL module *
 0001:00000380       ??_Gbad_alloc@std@@UAEPAXI@Z 00401380 f i TServerSystem:TServerSystem.obj
 0001:00000380       ??_Gbad_array_new_length@std@@UAEPAXI@Z 00401380 f i TServerSystem:TServerSystem.obj
 0001:00000380       ??_Gexception@std@@UAEPAXI@Z 00401380 f i TServerSystem:TServerSystem.obj
 0001:00000380       ??_Gruntime_error@std@@UAEPAXI@Z 00401380 f i TServerSystem:TServerSystem.obj
 0001:000003b0       ??1bad_alloc@std@@UAE@XZ   004013b0 f i TServerSystem:TServerSystem.obj
 0001:000003b0       ??1bad_array_new_length@std@@UAE@XZ 004013b0 f i TServerSystem:TServerSystem.obj
 0001:000003b0       ??1bad_exception@std@@UAE@XZ 004013b0 f i libvcruntime:frame.obj
 0001:000003b0       ??1failure@ios_base@std@@UAE@XZ 004013b0 f i TServerSystem:TServerSystem.obj
 0001:000003b0       ??1invalid_argument@std@@UAE@XZ 004013b0 f i libcpmt:xthrow.obj
 0001:000003b0       ??1length_error@std@@UAE@XZ 004013b0 f i libcpmt:xthrow.obj
 0001:000003b0       ??1out_of_range@std@@UAE@XZ 004013b0 f i libcpmt:xthrow.obj
 0001:000003b0       ??1runtime_error@std@@UAE@XZ 004013b0 f i TServerSystem:TServerSystem.obj
 0001:000003d0       ??0bad_array_new_length@std@@QAE@XZ 004013d0 f i TServerSystem:TServerSystem.obj
 0001:000003f0       ?_Throw_bad_array_new_length@std@@YAXXZ 004013f0 f i TServerSystem:TServerSystem.obj
 0001:000003f0       ?__scrt_throw_std_bad_array_new_length@@YAXXZ 004013f0 f i LIBCMT:throw_bad_alloc.obj
 0001:00000410       ??0bad_array_new_length@std@@QAE@ABV01@@Z 00401410 f i TServerSystem:TServerSystem.obj
 0001:00000450       ??0bad_alloc@std@@QAE@ABV01@@Z 00401450 f i TServerSystem:TServerSystem.obj
 0001:00000490       ?_Xlen_string@std@@YAXXZ   00401490 f i TServerSystem:TServerSystem.obj
 0001:000004a0       ??0runtime_error@std@@QAE@ABV01@@Z 004014a0 f i TServerSystem:TServerSystem.obj
 0001:000004e0       ?default_error_condition@error_category@std@@UBE?AVerror_condition@2@H@Z 004014e0 f i TServerSystem:TServerSystem.obj
 0001:00000500       ?equivalent@error_category@std@@UBE_NHABVerror_condition@2@@Z 00401500 f i TServerSystem:TServerSystem.obj
 0001:00000540       ?equivalent@error_category@std@@UBE_NABVerror_code@2@H@Z 00401540 f i TServerSystem:TServerSystem.obj
 0001:00000570       ?make_error_code@std@@YA?AVerror_code@1@W4io_errc@1@@Z 00401570 f i TServerSystem:TServerSystem.obj
 0001:00000590       ??0_System_error@std@@IAE@Verror_code@1@ABV?$basic_string@DU?$char_traits@D@std@@V?$allocator@D@2@@1@@Z 00401590 f i TServerSystem:TServerSystem.obj
 0001:000007b0       ??_E_System_error@std@@UAEPAXI@Z 004017b0 f i * CIL library *:* CIL module *
 0001:000007b0       ??_Efailure@ios_base@std@@UAEPAXI@Z 004017b0 f i * CIL library *:* CIL module *
 0001:000007b0       ??_Esystem_error@std@@UAEPAXI@Z 004017b0 f i * CIL library *:* CIL module *
 0001:000007b0       ??_G_System_error@std@@UAEPAXI@Z 004017b0 f i TServerSystem:TServerSystem.obj
 0001:000007b0       ??_Gfailure@ios_base@std@@UAEPAXI@Z 004017b0 f i TServerSystem:TServerSystem.obj
 0001:000007b0       ??_Gsystem_error@std@@UAEPAXI@Z 004017b0 f i TServerSystem:TServerSystem.obj
 0001:000007e0       ??0system_error@std@@QAE@ABV01@@Z 004017e0 f i TServerSystem:TServerSystem.obj
 0001:00000830       ??0_System_error@std@@QAE@ABV01@@Z 00401830 f i TServerSystem:TServerSystem.obj
 0001:00000880       ?name@_Iostream_error_category2@std@@UBEPBDXZ 00401880 f i TServerSystem:TServerSystem.obj
 0001:00000890       ?message@_Iostream_error_category2@std@@UBE?AV?$basic_string@DU?$char_traits@D@std@@V?$allocator@D@2@@2@H@Z 00401890 f i TServerSystem:TServerSystem.obj
 0001:00000910       ??_E_Iostream_error_category2@std@@UAEPAXI@Z 00401910 f i * CIL library *:* CIL module *
 0001:00000910       ??_G_Iostream_error_category2@std@@UAEPAXI@Z 00401910 f i TServerSystem:TServerSystem.obj
 0001:00000930       ??_E_Facet_base@std@@UAEPAXI@Z 00401930 f i * CIL library *:* CIL module *
 0001:00000930       ??_G_Facet_base@std@@UAEPAXI@Z 00401930 f i TServerSystem:TServerSystem.obj
 0001:00000960       ??0_Locinfo@std@@QAE@PBD@Z 00401960 f i TServerSystem:TServerSystem.obj
 0001:00000a10       ??1_Locinfo@std@@QAE@XZ    00401a10 f i TServerSystem:TServerSystem.obj
 0001:00000af0       ?_Incref@facet@locale@std@@UAEXXZ 00401af0 f i TServerSystem:TServerSystem.obj
 0001:00000b00       ?_Decref@facet@locale@std@@UAEPAV_Facet_base@3@XZ 00401b00 f i TServerSystem:TServerSystem.obj
 0001:00000b20       ??1facet@locale@std@@MAE@XZ 00401b20 f i TServerSystem:TServerSystem.obj
 0001:00000b30       ??1locale@std@@QAE@XZ      00401b30 f i TServerSystem:TServerSystem.obj
 0001:00000b50       ?GetNumParam@CTBLIPAddr@@UAEHXZ 00401b50 f i DBAccess.obj
 0001:00000b50       ?do_encoding@codecvt_base@std@@MBEHXZ 00401b50 f i TServerSystem:TServerSystem.obj
 0001:00000b50       ?do_max_length@codecvt_base@std@@MBEHXZ 00401b50 f i TServerSystem:TServerSystem.obj
 0001:00000b60       ?do_tolower@?$ctype@D@std@@MBEDD@Z 00401b60 f i TServerSystem:TServerSystem.obj
 0001:00000b80       ?do_tolower@?$ctype@D@std@@MBEPBDPADPBD@Z 00401b80 f i TServerSystem:TServerSystem.obj
 0001:00000bb0       ?do_toupper@?$ctype@D@std@@MBEDD@Z 00401bb0 f i TServerSystem:TServerSystem.obj
 0001:00000bd0       ?do_toupper@?$ctype@D@std@@MBEPBDPADPBD@Z 00401bd0 f i TServerSystem:TServerSystem.obj
 0001:00000c00       ?do_widen@?$ctype@D@std@@MBEDD@Z 00401c00 f i TServerSystem:TServerSystem.obj
 0001:00000c10       ?do_widen@?$ctype@D@std@@MBEPBDPBD0PAD@Z 00401c10 f i TServerSystem:TServerSystem.obj
 0001:00000c40       ?do_narrow@?$ctype@D@std@@MBEDDD@Z 00401c40 f i TServerSystem:TServerSystem.obj
 0001:00000c50       ?do_narrow@?$ctype@D@std@@MBEPBDPBD0DPAD@Z 00401c50 f i TServerSystem:TServerSystem.obj
 0001:00000c80       ??_E?$ctype@D@std@@MAEPAXI@Z 00401c80 f i * CIL library *:* CIL module *
 0001:00000c80       ??_G?$ctype@D@std@@MAEPAXI@Z 00401c80 f i TServerSystem:TServerSystem.obj
 0001:00000ce0       ??0failure@ios_base@std@@QAE@PBDABVerror_code@2@@Z 00401ce0 f i TServerSystem:TServerSystem.obj
 0001:00000dd0       ?clear@ios_base@std@@QAEXH_N@Z 00401dd0 f i TServerSystem:TServerSystem.obj
 0001:00000e50       ??0failure@ios_base@std@@QAE@ABV012@@Z 00401e50 f i TServerSystem:TServerSystem.obj
 0001:00000ea0       ??_Eios_base@std@@UAEPAXI@Z 00401ea0 f i * CIL library *:* CIL module *
 0001:00000ea0       ??_Gios_base@std@@UAEPAXI@Z 00401ea0 f i TServerSystem:TServerSystem.obj
 0001:00000f10       ?_Throw_tree_length_error@std@@YAXXZ 00401f10 f i TServerSystem:TServerSystem.obj
 0001:00000f20       ??$_Fputc@D@std@@YA_NDPAU_iobuf@@@Z 00401f20 f i TServerSystem:TServerSystem.obj
 0001:00000f40       ??0TServerSystem@@QAE@V?$basic_string@DU?$char_traits@D@std@@V?$allocator@D@2@@std@@0@Z 00401f40 f   TServerSystem:TServerSystem.obj
 0001:00001470       ??1TServerSystem@@QAE@XZ   00402470 f   TServerSystem:TServerSystem.obj
 0001:000015b0       ?SSLogInfo@TServerSystem@@IAEXV?$basic_string@DU?$char_traits@D@std@@V?$allocator@D@2@@std@@H@Z 004025b0 f   TServerSystem:TServerSystem.obj
 0001:000016f0       ?SSLogInfo@TServerSystem@@IAEXPADH@Z 004026f0 f   TServerSystem:TServerSystem.obj
 0001:00001750       ?SSLogEvent@TServerSystem@@IAAXPBDZZ 00402750 f   TServerSystem:TServerSystem.obj
 0001:00001870       ?SSLogEvent@TServerSystem@@IAAXIPBDZZ 00402870 f   TServerSystem:TServerSystem.obj
 0001:00001990       ?SSLogError@TServerSystem@@IAEXV?$basic_string@DU?$char_traits@D@std@@V?$allocator@D@2@@std@@H@Z 00402990 f   TServerSystem:TServerSystem.obj
 0001:00001ad0       ?DisplayIni@TServerSystem@@IAEXXZ 00402ad0 f   TServerSystem:TServerSystem.obj
 0001:00001ee0       ?LoadIntFromIni@TServerSystem@@IAEXV?$basic_string@DU?$char_traits@D@std@@V?$allocator@D@2@@std@@HAAH@Z 00402ee0 f   TServerSystem:TServerSystem.obj
 0001:000022b0       ?LoadStringFromIni@TServerSystem@@IAEXV?$basic_string@DU?$char_traits@D@std@@V?$allocator@D@2@@std@@0AAV23@@Z 004032b0 f   TServerSystem:TServerSystem.obj
 0001:00002550       ?OnEnter@TServerSystem@@MAEKXZ 00403550 f   TServerSystem:TServerSystem.obj
 0001:00002560       ?OnExit@TServerSystem@@MAEXXZ 00403560 f   TServerSystem:TServerSystem.obj
 0001:000025a0       ?StartServer@TServerSystem@@QAEXXZ 004035a0 f   TServerSystem:TServerSystem.obj
 0001:000025f0       ?ExitServer@TServerSystem@@QAEXXZ 004035f0 f   TServerSystem:TServerSystem.obj
 0001:00002600       ?StartupError@TServerSystem@@IAEXK@Z 00403600 f   TServerSystem:TServerSystem.obj
 0001:000027d0       ??1?$vector@V?$basic_string@DU?$char_traits@D@std@@V?$allocator@D@2@@std@@V?$allocator@V?$basic_string@DU?$char_traits@D@std@@V?$allocator@D@2@@std@@@2@@std@@QAE@XZ 004037d0 f i TServerSystem:TServerSystem.obj
 0001:000027e0       ??0?$vector@V?$basic_string@DU?$char_traits@D@std@@V?$allocator@D@2@@std@@V?$allocator@V?$basic_string@DU?$char_traits@D@std@@V?$allocator@D@2@@std@@@2@@std@@QAE@ABV01@@Z 004037e0 f i TServerSystem:TServerSystem.obj
 0001:00002930       ?imbue@?$basic_filebuf@DU?$char_traits@D@std@@@std@@MAEXABVlocale@2@@Z 00403930 f i TServerSystem:TServerSystem.obj
 0001:00002950       ?sync@?$basic_filebuf@DU?$char_traits@D@std@@@std@@MAEHXZ 00403950 f i TServerSystem:TServerSystem.obj
 0001:00002980       ?setbuf@?$basic_filebuf@DU?$char_traits@D@std@@@std@@MAEPAV?$basic_streambuf@DU?$char_traits@D@std@@@2@PAD_J@Z 00403980 f i TServerSystem:TServerSystem.obj
 0001:000029e0       ?seekpos@?$basic_filebuf@DU?$char_traits@D@std@@@std@@MAE?AV?$fpos@U_Mbstatet@@@2@V32@H@Z 004039e0 f i TServerSystem:TServerSystem.obj
 0001:00002ac0       ?seekoff@?$basic_filebuf@DU?$char_traits@D@std@@@std@@MAE?AV?$fpos@U_Mbstatet@@@2@_JHH@Z 00403ac0 f i TServerSystem:TServerSystem.obj
 0001:00002be0       ?xsputn@?$basic_filebuf@DU?$char_traits@D@std@@@std@@MAE_JPBD_J@Z 00403be0 f i TServerSystem:TServerSystem.obj
 0001:00002da0       ?xsgetn@?$basic_filebuf@DU?$char_traits@D@std@@@std@@MAE_JPAD_J@Z 00403da0 f i TServerSystem:TServerSystem.obj
 0001:00002f60       ?uflow@?$basic_filebuf@DU?$char_traits@D@std@@@std@@MAEHXZ 00403f60 f i TServerSystem:TServerSystem.obj
 0001:000031d0       ?underflow@?$basic_filebuf@DU?$char_traits@D@std@@@std@@MAEHXZ 004041d0 f i TServerSystem:TServerSystem.obj
 0001:00003210       ?pbackfail@?$basic_filebuf@DU?$char_traits@D@std@@@std@@MAEHH@Z 00404210 f i TServerSystem:TServerSystem.obj
 0001:000032c0       ?overflow@?$basic_filebuf@DU?$char_traits@D@std@@@std@@MAEHH@Z 004042c0 f i TServerSystem:TServerSystem.obj
 0001:00003440       ?_Unlock@?$basic_filebuf@DU?$char_traits@D@std@@@std@@UAEXXZ 00404440 f i TServerSystem:TServerSystem.obj
 0001:00003450       ?_Lock@?$basic_filebuf@DU?$char_traits@D@std@@@std@@UAEXXZ 00404450 f i TServerSystem:TServerSystem.obj
 0001:00003460       ??1?$basic_filebuf@DU?$char_traits@D@std@@@std@@UAE@XZ 00404460 f i TServerSystem:TServerSystem.obj
 0001:000035b0       ?OnERROR@CTControlSvrModule@@MAEXK@Z 004045b0 f i TControlSvr.obj
 0001:000035b0       ?imbue@?$basic_streambuf@DU?$char_traits@D@std@@@std@@MAEXABVlocale@2@@Z 004045b0 f i TServerSystem:TServerSystem.obj
 0001:000035c0       ?BindColumns@CSqlQuery@@UAEFXZ 004045c0 f i TNetLib:SqlQuery.obj
 0001:000035c0       ?GetNumCol@CSqlBase@@UAEHXZ 004045c0 f i TNetLib:SqlBase.obj
 0001:000035c0       ?GetNumParam@CSqlBase@@UAEHXZ 004045c0 f i TNetLib:SqlBase.obj
 0001:000035c0       ?sync@?$basic_streambuf@DU?$char_traits@D@std@@@std@@MAEHXZ 004045c0 f i TServerSystem:TServerSystem.obj
 0001:000035c0       ___scrt_exe_initialize_mta 004045c0 f i LIBCMT:utility_desktop.obj
 0001:000035c0       ___scrt_initialize_winrt   004045c0 f i LIBCMT:utility_desktop.obj
 0001:000035c0       ___scrt_stub_for_initialize_mta 004045c0 f i LIBCMT:utility_desktop.obj
 0001:000035c0       __get_startup_commit_mode  004045c0 f i LIBCMT:commit_mode.obj
 0001:000035c0       __get_startup_new_mode     004045c0 f i LIBCMT:new_mode.obj
 0001:000035c0       __get_startup_thread_locale_mode 004045c0 f i LIBCMT:thread_locale.obj
 0001:000035c0       __matherr                  004045c0 f i LIBCMT:matherr.obj
 0001:000035d0       ?setbuf@?$basic_streambuf@DU?$char_traits@D@std@@@std@@MAEPAV12@PAD_J@Z 004045d0 f i TServerSystem:TServerSystem.obj
 0001:000035e0       ?seekpos@?$basic_streambuf@DU?$char_traits@D@std@@@std@@MAE?AV?$fpos@U_Mbstatet@@@2@V32@H@Z 004045e0 f i TServerSystem:TServerSystem.obj
 0001:00003610       ?seekoff@?$basic_streambuf@DU?$char_traits@D@std@@@std@@MAE?AV?$fpos@U_Mbstatet@@@2@_JHH@Z 00404610 f i TServerSystem:TServerSystem.obj
 0001:00003640       ?xsputn@?$basic_streambuf@DU?$char_traits@D@std@@@std@@MAE_JPBD_J@Z 00404640 f i TServerSystem:TServerSystem.obj
 0001:00003720       ?xsgetn@?$basic_streambuf@DU?$char_traits@D@std@@@std@@MAE_JPAD_J@Z 00404720 f i TServerSystem:TServerSystem.obj
 0001:00003800       ?uflow@?$basic_streambuf@DU?$char_traits@D@std@@@std@@MAEHXZ 00404800 f i TServerSystem:TServerSystem.obj
 0001:00003830       ?underflow@?$basic_streambuf@DU?$char_traits@D@std@@@std@@MAEHXZ 00404830 f i TServerSystem:TServerSystem.obj
 0001:00003840       ?showmanyc@?$basic_streambuf@DU?$char_traits@D@std@@@std@@MAE_JXZ 00404840 f i TServerSystem:TServerSystem.obj
 0001:00003850       ?overflow@?$basic_streambuf@DU?$char_traits@D@std@@@std@@MAEHH@Z 00404850 f i TServerSystem:TServerSystem.obj
 0001:00003850       ?pbackfail@?$basic_streambuf@DU?$char_traits@D@std@@@std@@MAEHH@Z 00404850 f i TServerSystem:TServerSystem.obj
 0001:00003860       ?_Lock@?$basic_streambuf@DU?$char_traits@D@std@@@std@@UAEXXZ 00404860 f i TServerSystem:TServerSystem.obj
 0001:00003860       ?_Unlock@?$basic_streambuf@DU?$char_traits@D@std@@@std@@UAEXXZ 00404860 f i TServerSystem:TServerSystem.obj
 0001:00003860       @_guard_check_icall_nop@4  00404860 f i LIBCMT:guard_support.obj
 0001:00003860       __initialize_denormal_control 00404860 f i LIBCMT:denormal_control.obj
 0001:00003860       __initialize_invalid_parameter_handler 00404860 f i LIBCMT:invalid_parameter_handler.obj
 0001:00003870       ??1?$basic_streambuf@DU?$char_traits@D@std@@@std@@UAE@XZ 00404870 f i TServerSystem:TServerSystem.obj
 0001:000038b0       ??1?$basic_ios@DU?$char_traits@D@std@@@std@@UAE@XZ 004048b0 f i TServerSystem:TServerSystem.obj
 0001:00003900       ??1?$vector@V?$vector@V?$basic_string@DU?$char_traits@D@std@@V?$allocator@D@2@@std@@V?$allocator@V?$basic_string@DU?$char_traits@D@std@@V?$allocator@D@2@@std@@@2@@std@@V?$allocator@V?$vector@V?$basic_string@DU?$char_traits@D@std@@V?$allocator@D@2@@std@@V?$allocator@V?$basic_string@DU?$char_traits@D@std@@V?$allocator@D@2@@std@@@2@@std@@@2@@std@@QAE@XZ 00404900 f i TServerSystem:TServerSystem.obj
 0001:00003980       ??1?$_Yarn@D@std@@QAE@XZ   00404980 f i TServerSystem:TServerSystem.obj
 0001:00003980       ??1?$_Yarn@_W@std@@QAE@XZ  00404980 f i TServerSystem:TServerSystem.obj
 0001:000039a0       ??1?$basic_string@DU?$char_traits@D@std@@V?$allocator@D@2@@std@@QAE@XZ 004049a0 f i TServerSystem:TServerSystem.obj
 0001:000039a0       ??1?$pair@$$CBV?$basic_string@DU?$char_traits@D@std@@V?$allocator@D@2@@std@@PAVCSqlQuery@@@std@@QAE@XZ 004049a0 f i TNetLib:SqlDatabase.obj
 0001:000039f0       ??4?$basic_string@DU?$char_traits@D@std@@V?$allocator@D@2@@std@@QAEAAV01@$$QAV01@@Z 004049f0 f i TServerSystem:TServerSystem.obj
 0001:00003a70       ??0?$basic_string@DU?$char_traits@D@std@@V?$allocator@D@2@@std@@QAE@ID@Z 00404a70 f i TServerSystem:TServerSystem.obj
 0001:00003b30       ??0?$basic_string@DU?$char_traits@D@std@@V?$allocator@D@2@@std@@QAE@QBD@Z 00404b30 f i TServerSystem:TServerSystem.obj
 0001:00003b70       ??0?$basic_string@DU?$char_traits@D@std@@V?$allocator@D@2@@std@@QAE@ABV01@@Z 00404b70 f i TServerSystem:TServerSystem.obj
 0001:00003c20       ??_E?$basic_filebuf@DU?$char_traits@D@std@@@std@@UAEPAXI@Z 00404c20 f i * CIL library *:* CIL module *
 0001:00003c20       ??_G?$basic_filebuf@DU?$char_traits@D@std@@@std@@UAEPAXI@Z 00404c20 f i TServerSystem:TServerSystem.obj
 0001:00003c50       ??_E?$basic_streambuf@DU?$char_traits@D@std@@@std@@UAEPAXI@Z 00404c50 f i * CIL library *:* CIL module *
 0001:00003c50       ??_G?$basic_streambuf@DU?$char_traits@D@std@@@std@@UAEPAXI@Z 00404c50 f i TServerSystem:TServerSystem.obj
 0001:00003ca0       ??_E?$basic_ostream@DU?$char_traits@D@std@@@std@@UAEPAXI@Z 00404ca0 f i * CIL library *:* CIL module *
 0001:00003ca0       ??_G?$basic_ostream@DU?$char_traits@D@std@@@std@@UAEPAXI@Z 00404ca0 f i TServerSystem:TServerSystem.obj
 0001:00003d30       ??_E?$basic_ios@DU?$char_traits@D@std@@@std@@UAEPAXI@Z 00404d30 f i * CIL library *:* CIL module *
 0001:00003d30       ??_G?$basic_ios@DU?$char_traits@D@std@@@std@@UAEPAXI@Z 00404d30 f i TServerSystem:TServerSystem.obj
 0001:00003da0       ??_D?$basic_ostream@DU?$char_traits@D@std@@@std@@QAEXXZ 00404da0 f i TServerSystem:TServerSystem.obj
 0001:00003e10       ??1sentry@?$basic_ostream@DU?$char_traits@D@std@@@std@@QAE@XZ 00404e10 f i TServerSystem:TServerSystem.obj
 0001:00003e80       ??0sentry@?$basic_ostream@DU?$char_traits@D@std@@@std@@QAE@AAV12@@Z 00404e80 f i TServerSystem:TServerSystem.obj
 0001:00003f20       ?do_length@?$codecvt@DDU_Mbstatet@@@std@@MBEHAAU_Mbstatet@@PBD1I@Z 00404f20 f i TServerSystem:TServerSystem.obj
 0001:00003f40       ?do_unshift@?$codecvt@DDU_Mbstatet@@@std@@MBEHAAU_Mbstatet@@PAD1AAPAD@Z 00404f40 f i TServerSystem:TServerSystem.obj
 0001:00003f60       ?do_in@?$codecvt@DDU_Mbstatet@@@std@@MBEHAAU_Mbstatet@@PBD1AAPBDPAD3AAPAD@Z 00404f60 f i TServerSystem:TServerSystem.obj
 0001:00003f60       ?do_out@?$codecvt@DDU_Mbstatet@@@std@@MBEHAAU_Mbstatet@@PBD1AAPBDPAD3AAPAD@Z 00404f60 f i TServerSystem:TServerSystem.obj
 0001:00003f80       ?do_always_noconv@?$codecvt@DDU_Mbstatet@@@std@@MBE_NXZ 00404f80 f i TServerSystem:TServerSystem.obj
 0001:00003f80       ___acrt_uninitialize_command_line 00404f80 f i libucrt:argv_data.obj
 0001:00003f80       __should_initialize_environment 00404f80 f i LIBCMT:env_mode.obj
 0001:00003f90       ?_Xrange@?$vector@UtagPATCHFILE@@V?$allocator@UtagPATCHFILE@@@std@@@std@@CAXXZ 00404f90 f i Sender.obj
 0001:00003f90       ?_Xrange@?$vector@UtagTCASHITEM@@V?$allocator@UtagTCASHITEM@@@std@@@std@@CAXXZ 00404f90 f i Sender.obj
 0001:00003f90       ?_Xrange@?$vector@UtagTCASHITEMSALE@@V?$allocator@UtagTCASHITEMSALE@@@std@@@std@@CAXXZ 00404f90 f i TServer.obj
 0001:00003f90       ?_Xrange@?$vector@V?$basic_string@DU?$char_traits@D@std@@V?$allocator@D@2@@std@@V?$allocator@V?$basic_string@DU?$char_traits@D@std@@V?$allocator@D@2@@std@@@2@@std@@CAXXZ 00404f90 f i TServerSystem:TServerSystem.obj
 0001:00003f90       ?_Xrange@?$vector@V?$vector@V?$basic_string@DU?$char_traits@D@std@@V?$allocator@D@2@@std@@V?$allocator@V?$basic_string@DU?$char_traits@D@std@@V?$allocator@D@2@@std@@@2@@std@@V?$allocator@V?$vector@V?$basic_string@DU?$char_traits@D@std@@V?$allocator@D@2@@std@@V?$allocator@V?$basic_string@DU?$char_traits@D@std@@V?$allocator@D@2@@std@@@2@@std@@@2@@std@@CAXXZ 00404f90 f i TServerSystem:TServerSystem.obj
 0001:00003fa0       ?_Tidy@?$vector@V?$basic_string@DU?$char_traits@D@std@@V?$allocator@D@2@@std@@V?$allocator@V?$basic_string@DU?$char_traits@D@std@@V?$allocator@D@2@@std@@@2@@std@@AAEXXZ 00404fa0 f i TServerSystem:TServerSystem.obj
 0001:00004010       ?_Initcvt@?$basic_filebuf@DU?$char_traits@D@std@@@std@@IAEXABV?$codecvt@DDU_Mbstatet@@@2@@Z 00405010 f i TServerSystem:TServerSystem.obj
 0001:000040a0       ?_Endwrite@?$basic_filebuf@DU?$char_traits@D@std@@@std@@IAE_NXZ 004050a0 f i TServerSystem:TServerSystem.obj
 0001:00004170       ?_Init@?$basic_filebuf@DU?$char_traits@D@std@@@std@@IAEXPAU_iobuf@@W4_Initfl@12@@Z 00405170 f i TServerSystem:TServerSystem.obj
 0001:00004280       ?_Pnavail@?$basic_streambuf@DU?$char_traits@D@std@@@std@@IBE_JXZ 00405280 f i TServerSystem:TServerSystem.obj
 0001:000042a0       ?_Gnavail@?$basic_streambuf@DU?$char_traits@D@std@@@std@@IBE_JXZ 004052a0 f i TServerSystem:TServerSystem.obj
 0001:000042c0       ??0?$basic_ostream@DU?$char_traits@D@std@@@std@@QAE@PAV?$basic_streambuf@DU?$char_traits@D@std@@@1@_N@Z 004052c0 f i TServerSystem:TServerSystem.obj
 0001:00004470       ?setstate@?$basic_ios@DU?$char_traits@D@std@@@std@@QAEXH_N@Z 00405470 f i TServerSystem:TServerSystem.obj
 0001:000044a0       ?push_back@?$basic_string@DU?$char_traits@D@std@@V?$allocator@D@2@@std@@QAEXD@Z 004054a0 f i TServerSystem:TServerSystem.obj
 0001:000044f0       ?append@?$basic_string@DU?$char_traits@D@std@@V?$allocator@D@2@@std@@QAEAAV12@QBDI@Z 004054f0 f i TServerSystem:TServerSystem.obj
 0001:00004550       ??_E?$codecvt@DDU_Mbstatet@@@std@@MAEPAXI@Z 00405550 f i * CIL library *:* CIL module *
 0001:00004550       ??_E?$num_get@DV?$istreambuf_iterator@DU?$char_traits@D@std@@@std@@@std@@MAEPAXI@Z 00405550 f i TControlSvr.obj
 0001:00004550       ??_G?$codecvt@DDU_Mbstatet@@@std@@MAEPAXI@Z 00405550 f i TServerSystem:TServerSystem.obj
 0001:00004550       ??_G?$num_get@DV?$istreambuf_iterator@DU?$char_traits@D@std@@@std@@@std@@MAEPAXI@Z 00405550 f i TControlSvr.obj
 0001:00004580       ?do_truename@?$numpunct@D@std@@MBE?AV?$basic_string@DU?$char_traits@D@std@@V?$allocator@D@2@@2@XZ 00405580 f i TServerSystem:TServerSystem.obj
 0001:000045d0       ?do_falsename@?$numpunct@D@std@@MBE?AV?$basic_string@DU?$char_traits@D@std@@V?$allocator@D@2@@2@XZ 004055d0 f i TServerSystem:TServerSystem.obj
 0001:00004620       ?do_grouping@?$numpunct@D@std@@MBE?AV?$basic_string@DU?$char_traits@D@std@@V?$allocator@D@2@@2@XZ 00405620 f i TServerSystem:TServerSystem.obj
 0001:00004670       ?do_thousands_sep@?$numpunct@D@std@@MBEDXZ 00405670 f i TServerSystem:TServerSystem.obj
 0001:00004680       ?do_decimal_point@?$numpunct@D@std@@MBEDXZ 00405680 f i TServerSystem:TServerSystem.obj
 0001:00004690       ??1_Sentry_base@?$basic_istream@DU?$char_traits@D@std@@@std@@QAE@XZ 00405690 f i TControlSvr.obj
 0001:00004690       ??1_Sentry_base@?$basic_ostream@DU?$char_traits@D@std@@@std@@QAE@XZ 00405690 f i TServerSystem:TServerSystem.obj
 0001:000046e0       ?deallocate@?$allocator@V?$basic_string@DU?$char_traits@D@std@@V?$allocator@D@2@@std@@@std@@QAEXQAV?$basic_string@DU?$char_traits@D@std@@V?$allocator@D@2@@2@I@Z 004056e0 f i TServerSystem:TServerSystem.obj
 0001:00004720       ??0?$basic_streambuf@DU?$char_traits@D@std@@@std@@IAE@XZ 00405720 f i TServerSystem:TServerSystem.obj
 0001:000047f0       ?flush@?$basic_ostream@DU?$char_traits@D@std@@@std@@QAEAAV12@XZ 004057f0 f i TServerSystem:TServerSystem.obj
 0001:00004900       ?_Osfx@?$basic_ostream@DU?$char_traits@D@std@@@std@@QAEXXZ 00405900 f i TServerSystem:TServerSystem.obj
 0001:00004990       ?deallocate@?$allocator@V?$vector@V?$basic_string@DU?$char_traits@D@std@@V?$allocator@D@2@@std@@V?$allocator@V?$basic_string@DU?$char_traits@D@std@@V?$allocator@D@2@@std@@@2@@std@@@std@@QAEXQAV?$vector@V?$basic_string@DU?$char_traits@D@std@@V?$allocator@D@2@@std@@V?$allocator@V?$basic_string@DU?$char_traits@D@std@@V?$allocator@D@2@@std@@@2@@2@I@Z 00405990 f i TServerSystem:TServerSystem.obj
 0001:000049d0       ?assign@?$basic_string@DU?$char_traits@D@std@@V?$allocator@D@2@@std@@QAEAAV12@QBDI@Z 004059d0 f i TServerSystem:TServerSystem.obj
 0001:00004b00       ?deallocate@?$allocator@D@std@@QAEXQADI@Z 00405b00 f i TServerSystem:TServerSystem.obj
 0001:00004b40       ??_E?$numpunct@D@std@@MAEPAXI@Z 00405b40 f i * CIL library *:* CIL module *
 0001:00004b40       ??_G?$numpunct@D@std@@MAEPAXI@Z 00405b40 f i TServerSystem:TServerSystem.obj
 0001:00004b90       ??$use_facet@V?$ctype@D@std@@@std@@YAABV?$ctype@D@0@ABVlocale@0@@Z 00405b90 f i TServerSystem:TServerSystem.obj
 0001:00004d20       ??$_Integral_to_string@DH@std@@YA?AV?$basic_string@DU?$char_traits@D@std@@V?$allocator@D@2@@0@H@Z 00405d20 f i TServerSystem:TServerSystem.obj
 0001:00004e70       ??1?$CSimpleIniTempl@DU?$SI_NoCase@D@@V?$SI_ConvertA@D@@@@QAE@XZ 00405e70 f i TServerSystem:TServerSystem.obj
 0001:00004ed0       ??$?6U?$char_traits@D@std@@@std@@YAAAV?$basic_ostream@DU?$char_traits@D@std@@@0@AAV10@PBD@Z 00405ed0 f i TServerSystem:TServerSystem.obj
 0001:00005170       ??$endl@DU?$char_traits@D@std@@@std@@YAAAV?$basic_ostream@DU?$char_traits@D@std@@@0@AAV10@@Z 00406170 f i TServerSystem:TServerSystem.obj
 0001:00005210       ??$use_facet@V?$codecvt@DDU_Mbstatet@@@std@@@std@@YAABV?$codecvt@DDU_Mbstatet@@@0@ABVlocale@0@@Z 00406210 f i TServerSystem:TServerSystem.obj
 0001:00005370       ??$_Construct@$00PBD@?$basic_string@DU?$char_traits@D@std@@V?$allocator@D@2@@std@@AAEXQBDI@Z 00406370 f i TServerSystem:TServerSystem.obj
 0001:00005410       ??$use_facet@V?$numpunct@D@std@@@std@@YAABV?$numpunct@D@0@ABVlocale@0@@Z 00406410 f i TServerSystem:TServerSystem.obj
 0001:00005660       ??$_Destroy_range@V?$allocator@V?$basic_string@DU?$char_traits@D@std@@V?$allocator@D@2@@std@@@std@@@std@@YAXPAV?$basic_string@DU?$char_traits@D@std@@V?$allocator@D@2@@0@QAV10@AAV?$allocator@V?$basic_string@DU?$char_traits@D@std@@V?$allocator@D@2@@std@@@0@@Z 00406660 f i TServerSystem:TServerSystem.obj
 0001:000056d0       ??$_Destroy_range@V?$allocator@V?$vector@V?$basic_string@DU?$char_traits@D@std@@V?$allocator@D@2@@std@@V?$allocator@V?$basic_string@DU?$char_traits@D@std@@V?$allocator@D@2@@std@@@2@@std@@@std@@@std@@YAXPAV?$vector@V?$basic_string@DU?$char_traits@D@std@@V?$allocator@D@2@@std@@V?$allocator@V?$basic_string@DU?$char_traits@D@std@@V?$allocator@D@2@@std@@@2@@0@QAV10@AAV?$allocator@V?$vector@V?$basic_string@DU?$char_traits@D@std@@V?$allocator@D@2@@std@@V?$allocator@V?$basic_string@DU?$char_traits@D@std@@V?$allocator@D@2@@std@@@2@@std@@@0@@Z 004066d0 f i TServerSystem:TServerSystem.obj
 0001:00005700       ??$_Reallocate_grow_by@V<lambda_1>@?1??push_back@?$basic_string@DU?$char_traits@D@std@@V?$allocator@D@2@@std@@QAEXD@Z@D@?$basic_string@DU?$char_traits@D@std@@V?$allocator@D@2@@std@@AAEAAV01@IV<lambda_1>@?1??push_back@01@QAEXD@Z@D@Z 00406700 f i TServerSystem:TServerSystem.obj
 0001:00005840       ??$_Reallocate_grow_by@V<lambda_1>@?1??append@?$basic_string@DU?$char_traits@D@std@@V?$allocator@D@2@@std@@QAEAAV34@QBDI@Z@PBDI@?$basic_string@DU?$char_traits@D@std@@V?$allocator@D@2@@std@@AAEAAV01@IV<lambda_1>@?1??append@01@QAEAAV01@QBDI@Z@PBDI@Z 00406840 f i TServerSystem:TServerSystem.obj
 0001:000059a0       ??1?$map@UEntry@?$CSimpleIniTempl@DU?$SI_NoCase@D@@V?$SI_ConvertA@D@@@@V?$multimap@UEntry@?$CSimpleIniTempl@DU?$SI_NoCase@D@@V?$SI_ConvertA@D@@@@PBDUKeyOrder@12@V?$allocator@U?$pair@$$CBUEntry@?$CSimpleIniTempl@DU?$SI_NoCase@D@@V?$SI_ConvertA@D@@@@PBD@std@@@std@@@std@@UKeyOrder@12@V?$allocator@U?$pair@$$CBUEntry@?$CSimpleIniTempl@DU?$SI_NoCase@D@@V?$SI_ConvertA@D@@@@V?$multimap@UEntry@?$CSimpleIniTempl@DU?$SI_NoCase@D@@V?$SI_ConvertA@D@@@@PBDUKeyOrder@12@V?$allocator@U?$pair@$$CBUEntry@?$CSimpleIniTempl@DU?$SI_NoCase@D@@V?$SI_ConvertA@D@@@@PBD@std@@@std@@@std@@@std@@@4@@std@@QAE@XZ 004069a0 f i TServerSystem:TServerSystem.obj
 0001:000059c0       ??1?$_Tidy_guard@V?$vector@V?$basic_string@DU?$char_traits@D@std@@V?$allocator@D@2@@std@@V?$allocator@V?$basic_string@DU?$char_traits@D@std@@V?$allocator@D@2@@std@@@2@@std@@@std@@QAE@XZ 004069c0 f i TServerSystem:TServerSystem.obj
 0001:000059d0       ?sputn@?$basic_streambuf@DU?$char_traits@D@std@@@std@@QAE_JPBD_J@Z 004069d0 f i TServerSystem:TServerSystem.obj
 0001:000059f0       ?put@?$basic_ostream@DU?$char_traits@D@std@@@std@@QAEAAV12@D@Z 004069f0 f i TServerSystem:TServerSystem.obj
 0001:00005b80       ??1?$unique_ptr@V_Facet_base@std@@U?$default_delete@V_Facet_base@std@@@2@@std@@QAE@XZ 00406b80 f i TServerSystem:TServerSystem.obj
 0001:00005b90       ??0?$basic_string@DU?$char_traits@D@std@@V?$allocator@D@2@@std@@QAE@U_String_constructor_concat_tag@1@ABV01@QBDI2I@Z 00406b90 f i TServerSystem:TServerSystem.obj
 0001:00005c90       ?allocate@?$allocator@D@std@@QAEPADI@Z 00406c90 f i TServerSystem:TServerSystem.obj
 0001:00005cf0       ?_Xlength@?$vector@EV?$allocator@E@std@@@std@@CAXXZ 00406cf0 f i Handler.obj
 0001:00005cf0       ?_Xlength@?$vector@GV?$allocator@G@std@@@std@@CAXXZ 00406cf0 f i Handler.obj
 0001:00005cf0       ?_Xlength@?$vector@IV?$allocator@I@std@@@std@@CAXXZ 00406cf0 f i TControlSvr.obj
 0001:00005cf0       ?_Xlength@?$vector@UtagLOTTERY@@V?$allocator@UtagLOTTERY@@@std@@@std@@CAXXZ 00406cf0 f i Handler.obj
 0001:00005cf0       ?_Xlength@?$vector@UtagMONREGEN@@V?$allocator@UtagMONREGEN@@@std@@@std@@CAXXZ 00406cf0 f i Handler.obj
 0001:00005cf0       ?_Xlength@?$vector@UtagPATCHFILE@@V?$allocator@UtagPATCHFILE@@@std@@@std@@CAXXZ 00406cf0 f i Handler.obj
 0001:00005cf0       ?_Xlength@?$vector@UtagTCASHITEM@@V?$allocator@UtagTCASHITEM@@@std@@@std@@CAXXZ 00406cf0 f i Handler.obj
 0001:00005cf0       ?_Xlength@?$vector@UtagTCASHITEMSALE@@V?$allocator@UtagTCASHITEMSALE@@@std@@@std@@CAXXZ 00406cf0 f i Handler.obj
 0001:00005cf0       ?_Xlength@?$vector@V?$CStringT@DV?$StrTraitATL@DV?$ChTraitsCRT@D@ATL@@@ATL@@@ATL@@V?$allocator@V?$CStringT@DV?$StrTraitATL@DV?$ChTraitsCRT@D@ATL@@@ATL@@@ATL@@@std@@@std@@CAXXZ 00406cf0 f i TControlSvr.obj
 0001:00005cf0       ?_Xlength@?$vector@V?$basic_string@DU?$char_traits@D@std@@V?$allocator@D@2@@std@@V?$allocator@V?$basic_string@DU?$char_traits@D@std@@V?$allocator@D@2@@std@@@2@@std@@CAXXZ 00406cf0 f i TServerSystem:TServerSystem.obj
 0001:00005cf0       ?_Xlength@?$vector@V?$vector@V?$basic_string@DU?$char_traits@D@std@@V?$allocator@D@2@@std@@V?$allocator@V?$basic_string@DU?$char_traits@D@std@@V?$allocator@D@2@@std@@@2@@std@@V?$allocator@V?$vector@V?$basic_string@DU?$char_traits@D@std@@V?$allocator@D@2@@std@@V?$allocator@V?$basic_string@DU?$char_traits@D@std@@V?$allocator@D@2@@std@@@2@@std@@@2@@std@@CAXXZ 00406cf0 f i TServerSystem:TServerSystem.obj
 0001:00005d00       ?allocate@?$allocator@U?$_Tree_node@U?$pair@$$CBKPAUtagTSVRTEMP@@@std@@PAX@std@@@std@@QAEPAU?$_Tree_node@U?$pair@$$CBKPAUtagTSVRTEMP@@@std@@PAX@2@I@Z 00406d00 f i TControlSvr.obj
 0001:00005d00       ?allocate@?$allocator@UtagMONREGEN@@@std@@QAEPAUtagMONREGEN@@I@Z 00406d00 f i Handler.obj
 0001:00005d00       ?allocate@?$allocator@V?$basic_string@DU?$char_traits@D@std@@V?$allocator@D@2@@std@@@std@@QAEPAV?$basic_string@DU?$char_traits@D@std@@V?$allocator@D@2@@2@I@Z 00406d00 f i TServerSystem:TServerSystem.obj
 0001:00005d60       ??1?$_Tidy_guard@V?$numpunct@D@std@@@std@@QAE@XZ 00406d60 f i TServerSystem:TServerSystem.obj
 0001:00005d90       ?Reset@?$CSimpleIniTempl@DU?$SI_NoCase@D@@V?$SI_ConvertA@D@@@@QAEXXZ 00406d90 f i TServerSystem:TServerSystem.obj
 0001:00005ef0       ??$_Insert_string@DU?$char_traits@D@std@@I@std@@YAAAV?$basic_ostream@DU?$char_traits@D@std@@@0@AAV10@QBDI@Z 00406ef0 f i TServerSystem:TServerSystem.obj
 0001:00006140       ??$_Emplace_reallocate@V?$basic_string@DU?$char_traits@D@std@@V?$allocator@D@2@@std@@@?$vector@V?$basic_string@DU?$char_traits@D@std@@V?$allocator@D@2@@std@@V?$allocator@V?$basic_string@DU?$char_traits@D@std@@V?$allocator@D@2@@std@@@2@@std@@AAEPAV?$basic_string@DU?$char_traits@D@std@@V?$allocator@D@2@@1@QAV21@$$QAV21@@Z 00407140 f i TServerSystem:TServerSystem.obj
 0001:00006250       ??$_Emplace_reallocate@ABV?$basic_string@DU?$char_traits@D@std@@V?$allocator@D@2@@std@@@?$vector@V?$basic_string@DU?$char_traits@D@std@@V?$allocator@D@2@@std@@V?$allocator@V?$basic_string@DU?$char_traits@D@std@@V?$allocator@D@2@@std@@@2@@std@@AAEPAV?$basic_string@DU?$char_traits@D@std@@V?$allocator@D@2@@1@QAV21@ABV21@@Z 00407250 f i TServerSystem:TServerSystem.obj
 0001:00006390       ??$_Emplace_reallocate@ABV?$vector@V?$basic_string@DU?$char_traits@D@std@@V?$allocator@D@2@@std@@V?$allocator@V?$basic_string@DU?$char_traits@D@std@@V?$allocator@D@2@@std@@@2@@std@@@?$vector@V?$vector@V?$basic_string@DU?$char_traits@D@std@@V?$allocator@D@2@@std@@V?$allocator@V?$basic_string@DU?$char_traits@D@std@@V?$allocator@D@2@@std@@@2@@std@@V?$allocator@V?$vector@V?$basic_string@DU?$char_traits@D@std@@V?$allocator@D@2@@std@@V?$allocator@V?$basic_string@DU?$char_traits@D@std@@V?$allocator@D@2@@std@@@2@@std@@@2@@std@@AAEPAV?$vector@V?$basic_string@DU?$char_traits@D@std@@V?$allocator@D@2@@std@@V?$allocator@V?$basic_string@DU?$char_traits@D@std@@V?$allocator@D@2@@std@@@2@@1@QAV21@ABV21@@Z 00407390 f i TServerSystem:TServerSystem.obj
 0001:000065a0       ??$_Find@UEntry@?$CSimpleIniTempl@DU?$SI_NoCase@D@@V?$SI_ConvertA@D@@@@@?$_Tree@V?$_Tmap_traits@UEntry@?$CSimpleIniTempl@DU?$SI_NoCase@D@@V?$SI_ConvertA@D@@@@PBDUKeyOrder@12@V?$allocator@U?$pair@$$CBUEntry@?$CSimpleIniTempl@DU?$SI_NoCase@D@@V?$SI_ConvertA@D@@@@PBD@std@@@std@@$00@std@@@std@@ABEPAU?$_Tree_node@U?$pair@$$CBUEntry@?$CSimpleIniTempl@DU?$SI_NoCase@D@@V?$SI_ConvertA@D@@@@PBD@std@@PAX@1@ABUEntry@?$CSimpleIniTempl@DU?$SI_NoCase@D@@V?$SI_ConvertA@D@@@@@Z 004075a0 f i TServerSystem:TServerSystem.obj
 0001:00006610       ??1?$_Uninitialized_backout_al@V?$allocator@V?$basic_string@DU?$char_traits@D@std@@V?$allocator@D@2@@std@@@std@@@std@@QAE@XZ 00407610 f i TServerSystem:TServerSystem.obj
 0001:00006620       ?_Change_array@?$vector@V?$basic_string@DU?$char_traits@D@std@@V?$allocator@D@2@@std@@V?$allocator@V?$basic_string@DU?$char_traits@D@std@@V?$allocator@D@2@@std@@@2@@std@@AAEXQAV?$basic_string@DU?$char_traits@D@std@@V?$allocator@D@2@@2@II@Z 00407620 f i TServerSystem:TServerSystem.obj
 0001:000066a0       ?_Extract@?$_Tree_val@U?$_Tree_simple_types@U?$pair@$$CBUEntry@?$CSimpleIniTempl@DU?$SI_NoCase@D@@V?$SI_ConvertA@D@@@@V?$multimap@UEntry@?$CSimpleIniTempl@DU?$SI_NoCase@D@@V?$SI_ConvertA@D@@@@PBDUKeyOrder@12@V?$allocator@U?$pair@$$CBUEntry@?$CSimpleIniTempl@DU?$SI_NoCase@D@@V?$SI_ConvertA@D@@@@PBD@std@@@std@@@std@@@std@@@std@@@std@@QAEPAU?$_Tree_node@U?$pair@$$CBUEntry@?$CSimpleIniTempl@DU?$SI_NoCase@D@@V?$SI_ConvertA@D@@@@V?$multimap@UEntry@?$CSimpleIniTempl@DU?$SI_NoCase@D@@V?$SI_ConvertA@D@@@@PBDUKeyOrder@12@V?$allocator@U?$pair@$$CBUEntry@?$CSimpleIniTempl@DU?$SI_NoCase@D@@V?$SI_ConvertA@D@@@@PBD@std@@@std@@@std@@@std@@PAX@2@V?$_Tree_unchecked_const_iterator@V?$_Tree_val@U?$_Tree_simple_types@U?$pair@$$CBUEntry@?$CSimpleIniTempl@DU?$SI_NoCase@D@@V?$SI_ConvertA@D@@@@V?$multimap@UEntry@?$CSimpleIniTempl@DU?$SI_NoCase@D@@V?$SI_ConvertA@D@@@@PBDUKeyOrder@12@V?$allocator@U?$pair@$$CBUEntry@?$CSimpleIniTempl@DU?$SI_NoCase@D@@V?$SI_ConvertA@D@@@@PBD@std@@@std@@@std@@@std@@@std@@@std@@U_Iterator_base0@2@@2@@Z 004076a0 f i TServerSystem:TServerSystem.obj
 0001:000069f0       ?_Rrotate@?$_Tree_val@U?$_Tree_simple_types@U?$pair@$$CBKPAUtagBANINFO@@@std@@@std@@@std@@QAEXPAU?$_Tree_node@U?$pair@$$CBKPAUtagBANINFO@@@std@@PAX@2@@Z 004079f0 f i Handler.obj
 0001:000069f0       ?_Rrotate@?$_Tree_val@U?$_Tree_simple_types@U?$pair@$$CBKPAVCTManager@@@std@@@std@@@std@@QAEXPAU?$_Tree_node@U?$pair@$$CBKPAVCTManager@@@std@@PAX@2@@Z 004079f0 f i TControlSvr.obj
 0001:000069f0       ?_Rrotate@?$_Tree_val@U?$_Tree_simple_types@U?$pair@$$CBKUtagEVENTINFO@@@std@@@std@@@std@@QAEXPAU?$_Tree_node@U?$pair@$$CBKUtagEVENTINFO@@@std@@PAX@2@@Z 004079f0 f i Handler.obj
 0001:000069f0       ?_Rrotate@?$_Tree_val@U?$_Tree_simple_types@U?$pair@$$CBUEntry@?$CSimpleIniTempl@DU?$SI_NoCase@D@@V?$SI_ConvertA@D@@@@V?$multimap@UEntry@?$CSimpleIniTempl@DU?$SI_NoCase@D@@V?$SI_ConvertA@D@@@@PBDUKeyOrder@12@V?$allocator@U?$pair@$$CBUEntry@?$CSimpleIniTempl@DU?$SI_NoCase@D@@V?$SI_ConvertA@D@@@@PBD@std@@@std@@@std@@@std@@@std@@@std@@QAEXPAU?$_Tree_node@U?$pair@$$CBUEntry@?$CSimpleIniTempl@DU?$SI_NoCase@D@@V?$SI_ConvertA@D@@@@V?$multimap@UEntry@?$CSimpleIniTempl@DU?$SI_NoCase@D@@V?$SI_ConvertA@D@@@@PBDUKeyOrder@12@V?$allocator@U?$pair@$$CBUEntry@?$CSimpleIniTempl@DU?$SI_NoCase@D@@V?$SI_ConvertA@D@@@@PBD@std@@@std@@@std@@@std@@PAX@2@@Z 004079f0 f i TServerSystem:TServerSystem.obj
 0001:000069f0       ?_Rrotate@?$_Tree_val@U?$_Tree_simple_types@U?$pair@$$CBV?$basic_string@DU?$char_traits@D@std@@V?$allocator@D@2@@std@@PAVCSqlQuery@@@std@@@std@@@std@@QAEXPAU?$_Tree_node@U?$pair@$$CBV?$basic_string@DU?$char_traits@D@std@@V?$allocator@D@2@@std@@PAVCSqlQuery@@@std@@PAX@2@@Z 004079f0 f i TNetLib:SqlDatabase.obj
 0001:00006a50       ?_Lrotate@?$_Tree_val@U?$_Tree_simple_types@U?$pair@$$CBKPAUtagBANINFO@@@std@@@std@@@std@@QAEXPAU?$_Tree_node@U?$pair@$$CBKPAUtagBANINFO@@@std@@PAX@2@@Z 00407a50 f i Handler.obj
 0001:00006a50       ?_Lrotate@?$_Tree_val@U?$_Tree_simple_types@U?$pair@$$CBKPAVCTManager@@@std@@@std@@@std@@QAEXPAU?$_Tree_node@U?$pair@$$CBKPAVCTManager@@@std@@PAX@2@@Z 00407a50 f i TControlSvr.obj
 0001:00006a50       ?_Lrotate@?$_Tree_val@U?$_Tree_simple_types@U?$pair@$$CBKUtagEVENTINFO@@@std@@@std@@@std@@QAEXPAU?$_Tree_node@U?$pair@$$CBKUtagEVENTINFO@@@std@@PAX@2@@Z 00407a50 f i Handler.obj
 0001:00006a50       ?_Lrotate@?$_Tree_val@U?$_Tree_simple_types@U?$pair@$$CBUEntry@?$CSimpleIniTempl@DU?$SI_NoCase@D@@V?$SI_ConvertA@D@@@@V?$multimap@UEntry@?$CSimpleIniTempl@DU?$SI_NoCase@D@@V?$SI_ConvertA@D@@@@PBDUKeyOrder@12@V?$allocator@U?$pair@$$CBUEntry@?$CSimpleIniTempl@DU?$SI_NoCase@D@@V?$SI_ConvertA@D@@@@PBD@std@@@std@@@std@@@std@@@std@@@std@@QAEXPAU?$_Tree_node@U?$pair@$$CBUEntry@?$CSimpleIniTempl@DU?$SI_NoCase@D@@V?$SI_ConvertA@D@@@@V?$multimap@UEntry@?$CSimpleIniTempl@DU?$SI_NoCase@D@@V?$SI_ConvertA@D@@@@PBDUKeyOrder@12@V?$allocator@U?$pair@$$CBUEntry@?$CSimpleIniTempl@DU?$SI_NoCase@D@@V?$SI_ConvertA@D@@@@PBD@std@@@std@@@std@@@std@@PAX@2@@Z 00407a50 f i TServerSystem:TServerSystem.obj
 0001:00006a50       ?_Lrotate@?$_Tree_val@U?$_Tree_simple_types@U?$pair@$$CBV?$basic_string@DU?$char_traits@D@std@@V?$allocator@D@2@@std@@PAVCSqlQuery@@@std@@@std@@@std@@QAEXPAU?$_Tree_node@U?$pair@$$CBV?$basic_string@DU?$char_traits@D@std@@V?$allocator@D@2@@std@@PAVCSqlQuery@@@std@@PAX@2@@Z 00407a50 f i TNetLib:SqlDatabase.obj
 0001:00006ab0       ?LoadData@?$CSimpleIniTempl@DU?$SI_NoCase@D@@V?$SI_ConvertA@D@@@@QAE?AW4SI_Error@@PBDI@Z 00407ab0 f i TServerSystem:TServerSystem.obj
 0001:00006c30       ??$_Uninitialized_move@PAV?$basic_string@DU?$char_traits@D@std@@V?$allocator@D@2@@std@@V?$allocator@V?$basic_string@DU?$char_traits@D@std@@V?$allocator@D@2@@std@@@2@@std@@YAPAV?$basic_string@DU?$char_traits@D@std@@V?$allocator@D@2@@0@QAV10@0PAV10@AAV?$allocator@V?$basic_string@DU?$char_traits@D@std@@V?$allocator@D@2@@std@@@0@@Z 00407c30 f i TServerSystem:TServerSystem.obj
 0001:00006ca0       ??$_Uninitialized_move@PAV?$vector@V?$basic_string@DU?$char_traits@D@std@@V?$allocator@D@2@@std@@V?$allocator@V?$basic_string@DU?$char_traits@D@std@@V?$allocator@D@2@@std@@@2@@std@@V?$allocator@V?$vector@V?$basic_string@DU?$char_traits@D@std@@V?$allocator@D@2@@std@@V?$allocator@V?$basic_string@DU?$char_traits@D@std@@V?$allocator@D@2@@std@@@2@@std@@@2@@std@@YAPAV?$vector@V?$basic_string@DU?$char_traits@D@std@@V?$allocator@D@2@@std@@V?$allocator@V?$basic_string@DU?$char_traits@D@std@@V?$allocator@D@2@@std@@@2@@0@QAV10@0PAV10@AAV?$allocator@V?$vector@V?$basic_string@DU?$char_traits@D@std@@V?$allocator@D@2@@std@@V?$allocator@V?$basic_string@DU?$char_traits@D@std@@V?$allocator@D@2@@std@@@2@@std@@@0@@Z 00407ca0 f i TServerSystem:TServerSystem.obj
 0001:00006d00       ??$_Find_lower_bound@UEntry@?$CSimpleIniTempl@DU?$SI_NoCase@D@@V?$SI_ConvertA@D@@@@@?$_Tree@V?$_Tmap_traits@UEntry@?$CSimpleIniTempl@DU?$SI_NoCase@D@@V?$SI_ConvertA@D@@@@V?$multimap@UEntry@?$CSimpleIniTempl@DU?$SI_NoCase@D@@V?$SI_ConvertA@D@@@@PBDUKeyOrder@12@V?$allocator@U?$pair@$$CBUEntry@?$CSimpleIniTempl@DU?$SI_NoCase@D@@V?$SI_ConvertA@D@@@@PBD@std@@@std@@@std@@UKeyOrder@12@V?$allocator@U?$pair@$$CBUEntry@?$CSimpleIniTempl@DU?$SI_NoCase@D@@V?$SI_ConvertA@D@@@@V?$multimap@UEntry@?$CSimpleIniTempl@DU?$SI_NoCase@D@@V?$SI_ConvertA@D@@@@PBDUKeyOrder@12@V?$allocator@U?$pair@$$CBUEntry@?$CSimpleIniTempl@DU?$SI_NoCase@D@@V?$SI_ConvertA@D@@@@PBD@std@@@std@@@std@@@std@@@4@$0A@@std@@@std@@IBE?AU?$_Tree_find_result@PAU?$_Tree_node@U?$pair@$$CBUEntry@?$CSimpleIniTempl@DU?$SI_NoCase@D@@V?$SI_ConvertA@D@@@@V?$multimap@UEntry@?$CSimpleIniTempl@DU?$SI_NoCase@D@@V?$SI_ConvertA@D@@@@PBDUKeyOrder@12@V?$allocator@U?$pair@$$CBUEntry@?$CSimpleIniTempl@DU?$SI_NoCase@D@@V?$SI_ConvertA@D@@@@PBD@std@@@std@@@std@@@std@@PAX@std@@@1@ABUEntry@?$CSimpleIniTempl@DU?$SI_NoCase@D@@V?$SI_ConvertA@D@@@@@Z 00407d00 f i TServerSystem:TServerSystem.obj
 0001:00006d60       ??$_Erase_tree@V?$allocator@U?$_Tree_node@U?$pair@$$CBUEntry@?$CSimpleIniTempl@DU?$SI_NoCase@D@@V?$SI_ConvertA@D@@@@V?$multimap@UEntry@?$CSimpleIniTempl@DU?$SI_NoCase@D@@V?$SI_ConvertA@D@@@@PBDUKeyOrder@12@V?$allocator@U?$pair@$$CBUEntry@?$CSimpleIniTempl@DU?$SI_NoCase@D@@V?$SI_ConvertA@D@@@@PBD@std@@@std@@@std@@@std@@PAX@std@@@std@@@?$_Tree_val@U?$_Tree_simple_types@U?$pair@$$CBUEntry@?$CSimpleIniTempl@DU?$SI_NoCase@D@@V?$SI_ConvertA@D@@@@V?$multimap@UEntry@?$CSimpleIniTempl@DU?$SI_NoCase@D@@V?$SI_ConvertA@D@@@@PBDUKeyOrder@12@V?$allocator@U?$pair@$$CBUEntry@?$CSimpleIniTempl@DU?$SI_NoCase@D@@V?$SI_ConvertA@D@@@@PBD@std@@@std@@@std@@@std@@@std@@@std@@QAEXAAV?$allocator@U?$_Tree_node@U?$pair@$$CBUEntry@?$CSimpleIniTempl@DU?$SI_NoCase@D@@V?$SI_ConvertA@D@@@@V?$multimap@UEntry@?$CSimpleIniTempl@DU?$SI_NoCase@D@@V?$SI_ConvertA@D@@@@PBDUKeyOrder@12@V?$allocator@U?$pair@$$CBUEntry@?$CSimpleIniTempl@DU?$SI_NoCase@D@@V?$SI_ConvertA@D@@@@PBD@std@@@std@@@std@@@std@@PAX@std@@@1@PAU?$_Tree_node@U?$pair@$$CBUEntry@?$CSimpleIniTempl@DU?$SI_NoCase@D@@V?$SI_ConvertA@D@@@@V?$multimap@UEntry@?$CSimpleIniTempl@DU?$SI_NoCase@D@@V?$SI_ConvertA@D@@@@PBDUKeyOrder@12@V?$allocator@U?$pair@$$CBUEntry@?$CSimpleIniTempl@DU?$SI_NoCase@D@@V?$SI_ConvertA@D@@@@PBD@std@@@std@@@std@@@std@@PAX@1@@Z 00407d60 f i TServerSystem:TServerSystem.obj
 0001:00006df0       ??$_Freenode@V?$allocator@U?$_Tree_node@U?$pair@$$CBUEntry@?$CSimpleIniTempl@DU?$SI_NoCase@D@@V?$SI_ConvertA@D@@@@V?$multimap@UEntry@?$CSimpleIniTempl@DU?$SI_NoCase@D@@V?$SI_ConvertA@D@@@@PBDUKeyOrder@12@V?$allocator@U?$pair@$$CBUEntry@?$CSimpleIniTempl@DU?$SI_NoCase@D@@V?$SI_ConvertA@D@@@@PBD@std@@@std@@@std@@@std@@PAX@std@@@std@@@?$_Tree_node@U?$pair@$$CBUEntry@?$CSimpleIniTempl@DU?$SI_NoCase@D@@V?$SI_ConvertA@D@@@@V?$multimap@UEntry@?$CSimpleIniTempl@DU?$SI_NoCase@D@@V?$SI_ConvertA@D@@@@PBDUKeyOrder@12@V?$allocator@U?$pair@$$CBUEntry@?$CSimpleIniTempl@DU?$SI_NoCase@D@@V?$SI_ConvertA@D@@@@PBD@std@@@std@@@std@@@std@@PAX@std@@SAXAAV?$allocator@U?$_Tree_node@U?$pair@$$CBUEntry@?$CSimpleIniTempl@DU?$SI_NoCase@D@@V?$SI_ConvertA@D@@@@V?$multimap@UEntry@?$CSimpleIniTempl@DU?$SI_NoCase@D@@V?$SI_ConvertA@D@@@@PBDUKeyOrder@12@V?$allocator@U?$pair@$$CBUEntry@?$CSimpleIniTempl@DU?$SI_NoCase@D@@V?$SI_ConvertA@D@@@@PBD@std@@@std@@@std@@@std@@PAX@std@@@1@PAU01@@Z 00407df0 f i TServerSystem:TServerSystem.obj
 0001:00006e40       ?FindEntry@?$CSimpleIniTempl@DU?$SI_NoCase@D@@V?$SI_ConvertA@D@@@@ABE_NAAPADAAPBD111@Z 00407e40 f i TServerSystem:TServerSystem.obj
 0001:000070f0       ?AddEntry@?$CSimpleIniTempl@DU?$SI_NoCase@D@@V?$SI_ConvertA@D@@@@AAE?AW4SI_Error@@PBD000_N1@Z 004080f0 f i TServerSystem:TServerSystem.obj
 0001:00007430       ??1?$multimap@UEntry@?$CSimpleIniTempl@DU?$SI_NoCase@D@@V?$SI_ConvertA@D@@@@PBDUKeyOrder@12@V?$allocator@U?$pair@$$CBUEntry@?$CSimpleIniTempl@DU?$SI_NoCase@D@@V?$SI_ConvertA@D@@@@PBD@std@@@std@@@std@@QAE@XZ 00408430 f i TServerSystem:TServerSystem.obj
 0001:00007470       ??1?$pair@$$CBUEntry@?$CSimpleIniTempl@DU?$SI_NoCase@D@@V?$SI_ConvertA@D@@@@V?$multimap@UEntry@?$CSimpleIniTempl@DU?$SI_NoCase@D@@V?$SI_ConvertA@D@@@@PBDUKeyOrder@12@V?$allocator@U?$pair@$$CBUEntry@?$CSimpleIniTempl@DU?$SI_NoCase@D@@V?$SI_ConvertA@D@@@@PBD@std@@@std@@@std@@@std@@QAE@XZ 00408470 f i TServerSystem:TServerSystem.obj
 0001:000074b0       ?SkipNewLine@?$CSimpleIniTempl@DU?$SI_NoCase@D@@V?$SI_ConvertA@D@@@@ABEXAAPAD@Z 004084b0 f i TServerSystem:TServerSystem.obj
 0001:000074e0       ?IsSpace@?$CSimpleIniTempl@DU?$SI_NoCase@D@@V?$SI_ConvertA@D@@@@ABE_ND@Z 004084e0 f i TServerSystem:TServerSystem.obj
 0001:00007510       ?Clone@CAtlStringMgr@ATL@@UAEPAUIAtlStringMgr@2@XZ 00408510 f i DebugSocket.obj
 0001:00007510       ?EnsureLinked@CAtlStringMgrStaticInitializer@ATLImplementationDetails@ATL@@QAEPAXXZ 00408510 f i DebugSocket.obj
 0001:00007510       ?_Getal@?$_Tree@V?$_Tmap_traits@UEntry@?$CSimpleIniTempl@DU?$SI_NoCase@D@@V?$SI_ConvertA@D@@@@PBDUKeyOrder@12@V?$allocator@U?$pair@$$CBUEntry@?$CSimpleIniTempl@DU?$SI_NoCase@D@@V?$SI_ConvertA@D@@@@PBD@std@@@std@@$00@std@@@std@@IAEAAV?$allocator@U?$_Tree_node@U?$pair@$$CBUEntry@?$CSimpleIniTempl@DU?$SI_NoCase@D@@V?$SI_ConvertA@D@@@@PBD@std@@PAX@std@@@2@XZ 00408510 f i TServerSystem:TServerSystem.obj
 0001:00007520       ?CopyString@?$CSimpleIniTempl@DU?$SI_NoCase@D@@V?$SI_ConvertA@D@@@@AAE?AW4SI_Error@@AAPBD@Z 00408520 f i TServerSystem:TServerSystem.obj
 0001:000075f0       ?LoadMultiLineText@?$CSimpleIniTempl@DU?$SI_NoCase@D@@V?$SI_ConvertA@D@@@@ABE_NAAPADAAPBDPBD_N@Z 004085f0 f i TServerSystem:TServerSystem.obj
 0001:00007790       ?IsNewLineChar@?$CSimpleIniTempl@DU?$SI_NoCase@D@@V?$SI_ConvertA@D@@@@ABE_ND@Z 00408790 f i TServerSystem:TServerSystem.obj
 0001:000077b0       ??$_Erase_head@V?$allocator@U?$_Tree_node@U?$pair@$$CBUEntry@?$CSimpleIniTempl@DU?$SI_NoCase@D@@V?$SI_ConvertA@D@@@@PBD@std@@PAX@std@@@std@@@?$_Tree_val@U?$_Tree_simple_types@U?$pair@$$CBUEntry@?$CSimpleIniTempl@DU?$SI_NoCase@D@@V?$SI_ConvertA@D@@@@PBD@std@@@std@@@std@@QAEXAAV?$allocator@U?$_Tree_node@U?$pair@$$CBUEntry@?$CSimpleIniTempl@DU?$SI_NoCase@D@@V?$SI_ConvertA@D@@@@PBD@std@@PAX@std@@@1@@Z 004087b0 f i TServerSystem:TServerSystem.obj
 0001:00007800       ??$_Erase_tree@V?$allocator@U?$_Tree_node@U?$pair@$$CBUEntry@?$CSimpleIniTempl@DU?$SI_NoCase@D@@V?$SI_ConvertA@D@@@@PBD@std@@PAX@std@@@std@@@?$_Tree_val@U?$_Tree_simple_types@U?$pair@$$CBUEntry@?$CSimpleIniTempl@DU?$SI_NoCase@D@@V?$SI_ConvertA@D@@@@PBD@std@@@std@@@std@@QAEXAAV?$allocator@U?$_Tree_node@U?$pair@$$CBUEntry@?$CSimpleIniTempl@DU?$SI_NoCase@D@@V?$SI_ConvertA@D@@@@PBD@std@@PAX@std@@@1@PAU?$_Tree_node@U?$pair@$$CBUEntry@?$CSimpleIniTempl@DU?$SI_NoCase@D@@V?$SI_ConvertA@D@@@@PBD@std@@PAX@1@@Z 00408800 f i TServerSystem:TServerSystem.obj
 0001:00007800       ??$_Erase_tree_and_orphan@V?$allocator@U?$_Tree_node@U?$pair@$$CBUEntry@?$CSimpleIniTempl@DU?$SI_NoCase@D@@V?$SI_ConvertA@D@@@@PBD@std@@PAX@std@@@std@@@?$_Tree_val@U?$_Tree_simple_types@U?$pair@$$CBUEntry@?$CSimpleIniTempl@DU?$SI_NoCase@D@@V?$SI_ConvertA@D@@@@PBD@std@@@std@@@std@@QAEXAAV?$allocator@U?$_Tree_node@U?$pair@$$CBUEntry@?$CSimpleIniTempl@DU?$SI_NoCase@D@@V?$SI_ConvertA@D@@@@PBD@std@@PAX@std@@@1@PAU?$_Tree_node@U?$pair@$$CBUEntry@?$CSimpleIniTempl@DU?$SI_NoCase@D@@V?$SI_ConvertA@D@@@@PBD@std@@PAX@1@@Z 00408800 f i TServerSystem:TServerSystem.obj
 0001:00007840       ??1?$_Alloc_construct_ptr@V?$allocator@U?$_List_node@UEntry@?$CSimpleIniTempl@DU?$SI_NoCase@D@@V?$SI_ConvertA@D@@@@PAX@std@@@std@@@std@@QAE@XZ 00408840 f i TServerSystem:TServerSystem.obj
 0001:00007860       ??$_Emplace@AAU?$pair@$$CBUEntry@?$CSimpleIniTempl@DU?$SI_NoCase@D@@V?$SI_ConvertA@D@@@@V?$multimap@UEntry@?$CSimpleIniTempl@DU?$SI_NoCase@D@@V?$SI_ConvertA@D@@@@PBDUKeyOrder@12@V?$allocator@U?$pair@$$CBUEntry@?$CSimpleIniTempl@DU?$SI_NoCase@D@@V?$SI_ConvertA@D@@@@PBD@std@@@std@@@std@@@std@@@?$_Tree@V?$_Tmap_traits@UEntry@?$CSimpleIniTempl@DU?$SI_NoCase@D@@V?$SI_ConvertA@D@@@@V?$multimap@UEntry@?$CSimpleIniTempl@DU?$SI_NoCase@D@@V?$SI_ConvertA@D@@@@PBDUKeyOrder@12@V?$allocator@U?$pair@$$CBUEntry@?$CSimpleIniTempl@DU?$SI_NoCase@D@@V?$SI_ConvertA@D@@@@PBD@std@@@std@@@std@@UKeyOrder@12@V?$allocator@U?$pair@$$CBUEntry@?$CSimpleIniTempl@DU?$SI_NoCase@D@@V?$SI_ConvertA@D@@@@V?$multimap@UEntry@?$CSimpleIniTempl@DU?$SI_NoCase@D@@V?$SI_ConvertA@D@@@@PBDUKeyOrder@12@V?$allocator@U?$pair@$$CBUEntry@?$CSimpleIniTempl@DU?$SI_NoCase@D@@V?$SI_ConvertA@D@@@@PBD@std@@@std@@@std@@@std@@@4@$0A@@std@@@std@@IAE?AU?$pair@PAU?$_Tree_node@U?$pair@$$CBUEntry@?$CSimpleIniTempl@DU?$SI_NoCase@D@@V?$SI_ConvertA@D@@@@V?$multimap@UEntry@?$CSimpleIniTempl@DU?$SI_NoCase@D@@V?$SI_ConvertA@D@@@@PBDUKeyOrder@12@V?$allocator@U?$pair@$$CBUEntry@?$CSimpleIniTempl@DU?$SI_NoCase@D@@V?$SI_ConvertA@D@@@@PBD@std@@@std@@@std@@@std@@PAX@std@@_N@1@AAU?$pair@$$CBUEntry@?$CSimpleIniTempl@DU?$SI_NoCase@D@@V?$SI_ConvertA@D@@@@V?$multimap@UEntry@?$CSimpleIniTempl@DU?$SI_NoCase@D@@V?$SI_ConvertA@D@@@@PBDUKeyOrder@12@V?$allocator@U?$pair@$$CBUEntry@?$CSimpleIniTempl@DU?$SI_NoCase@D@@V?$SI_ConvertA@D@@@@PBD@std@@@std@@@std@@@1@@Z 00408860 f i TServerSystem:TServerSystem.obj
 0001:00007a00       ?_Insert_node@?$_Tree_val@U?$_Tree_simple_types@U?$pair@$$CBEPAUtagTGROUP@@@std@@@std@@@std@@QAEPAU?$_Tree_node@U?$pair@$$CBEPAUtagTGROUP@@@std@@PAX@2@U?$_Tree_id@PAU?$_Tree_node@U?$pair@$$CBEPAUtagTGROUP@@@std@@PAX@std@@@2@QAU32@@Z 00408a00 f i TControlSvr.obj
 0001:00007a00       ?_Insert_node@?$_Tree_val@U?$_Tree_simple_types@U?$pair@$$CBEPAUtagTMACHINE@@@std@@@std@@@std@@QAEPAU?$_Tree_node@U?$pair@$$CBEPAUtagTMACHINE@@@std@@PAX@2@U?$_Tree_id@PAU?$_Tree_node@U?$pair@$$CBEPAUtagTMACHINE@@@std@@PAX@std@@@2@QAU32@@Z 00408a00 f i TControlSvr.obj
 0001:00007a00       ?_Insert_node@?$_Tree_val@U?$_Tree_simple_types@U?$pair@$$CBEPAUtagTSVRTYPE@@@std@@@std@@@std@@QAEPAU?$_Tree_node@U?$pair@$$CBEPAUtagTSVRTYPE@@@std@@PAX@2@U?$_Tree_id@PAU?$_Tree_node@U?$pair@$$CBEPAUtagTSVRTYPE@@@std@@PAX@std@@@2@QAU32@@Z 00408a00 f i TControlSvr.obj
 0001:00007a00       ?_Insert_node@?$_Tree_val@U?$_Tree_simple_types@U?$pair@$$CBEPAVCPlatformUsage@@@std@@@std@@@std@@QAEPAU?$_Tree_node@U?$pair@$$CBEPAVCPlatformUsage@@@std@@PAX@2@U?$_Tree_id@PAU?$_Tree_node@U?$pair@$$CBEPAVCPlatformUsage@@@std@@PAX@std@@@2@QAU32@@Z 00408a00 f i TControlSvr.obj
 0001:00007a00       ?_Insert_node@?$_Tree_val@U?$_Tree_simple_types@U?$pair@$$CBKPAUtagBANINFO@@@std@@@std@@@std@@QAEPAU?$_Tree_node@U?$pair@$$CBKPAUtagBANINFO@@@std@@PAX@2@U?$_Tree_id@PAU?$_Tree_node@U?$pair@$$CBKPAUtagBANINFO@@@std@@PAX@std@@@2@QAU32@@Z 00408a00 f i Handler.obj
 0001:00007a00       ?_Insert_node@?$_Tree_val@U?$_Tree_simple_types@U?$pair@$$CBKPAUtagTSVRTEMP@@@std@@@std@@@std@@QAEPAU?$_Tree_node@U?$pair@$$CBKPAUtagTSVRTEMP@@@std@@PAX@2@U?$_Tree_id@PAU?$_Tree_node@U?$pair@$$CBKPAUtagTSVRTEMP@@@std@@PAX@std@@@2@QAU32@@Z 00408a00 f i TControlSvr.obj
 0001:00007a00       ?_Insert_node@?$_Tree_val@U?$_Tree_simple_types@U?$pair@$$CBKPAVCTManager@@@std@@@std@@@std@@QAEPAU?$_Tree_node@U?$pair@$$CBKPAVCTManager@@@std@@PAX@2@U?$_Tree_id@PAU?$_Tree_node@U?$pair@$$CBKPAVCTManager@@@std@@PAX@std@@@2@QAU32@@Z 00408a00 f i Handler.obj
 0001:00007a00       ?_Insert_node@?$_Tree_val@U?$_Tree_simple_types@U?$pair@$$CBKUtagEVENTINFO@@@std@@@std@@@std@@QAEPAU?$_Tree_node@U?$pair@$$CBKUtagEVENTINFO@@@std@@PAX@2@U?$_Tree_id@PAU?$_Tree_node@U?$pair@$$CBKUtagEVENTINFO@@@std@@PAX@std@@@2@QAU32@@Z 00408a00 f i Handler.obj
 0001:00007a00       ?_Insert_node@?$_Tree_val@U?$_Tree_simple_types@U?$pair@$$CBUEntry@?$CSimpleIniTempl@DU?$SI_NoCase@D@@V?$SI_ConvertA@D@@@@PBD@std@@@std@@@std@@QAEPAU?$_Tree_node@U?$pair@$$CBUEntry@?$CSimpleIniTempl@DU?$SI_NoCase@D@@V?$SI_ConvertA@D@@@@PBD@std@@PAX@2@U?$_Tree_id@PAU?$_Tree_node@U?$pair@$$CBUEntry@?$CSimpleIniTempl@DU?$SI_NoCase@D@@V?$SI_ConvertA@D@@@@PBD@std@@PAX@std@@@2@QAU32@@Z 00408a00 f i TServerSystem:TServerSystem.obj
 0001:00007a00       ?_Insert_node@?$_Tree_val@U?$_Tree_simple_types@U?$pair@$$CBUEntry@?$CSimpleIniTempl@DU?$SI_NoCase@D@@V?$SI_ConvertA@D@@@@V?$multimap@UEntry@?$CSimpleIniTempl@DU?$SI_NoCase@D@@V?$SI_ConvertA@D@@@@PBDUKeyOrder@12@V?$allocator@U?$pair@$$CBUEntry@?$CSimpleIniTempl@DU?$SI_NoCase@D@@V?$SI_ConvertA@D@@@@PBD@std@@@std@@@std@@@std@@@std@@@std@@QAEPAU?$_Tree_node@U?$pair@$$CBUEntry@?$CSimpleIniTempl@DU?$SI_NoCase@D@@V?$SI_ConvertA@D@@@@V?$multimap@UEntry@?$CSimpleIniTempl@DU?$SI_NoCase@D@@V?$SI_ConvertA@D@@@@PBDUKeyOrder@12@V?$allocator@U?$pair@$$CBUEntry@?$CSimpleIniTempl@DU?$SI_NoCase@D@@V?$SI_ConvertA@D@@@@PBD@std@@@std@@@std@@@std@@PAX@2@U?$_Tree_id@PAU?$_Tree_node@U?$pair@$$CBUEntry@?$CSimpleIniTempl@DU?$SI_NoCase@D@@V?$SI_ConvertA@D@@@@V?$multimap@UEntry@?$CSimpleIniTempl@DU?$SI_NoCase@D@@V?$SI_ConvertA@D@@@@PBDUKeyOrder@12@V?$allocator@U?$pair@$$CBUEntry@?$CSimpleIniTempl@DU?$SI_NoCase@D@@V?$SI_ConvertA@D@@@@PBD@std@@@std@@@std@@@std@@PAX@std@@@2@QAU32@@Z 00408a00 f i TServerSystem:TServerSystem.obj
 0001:00007a00       ?_Insert_node@?$_Tree_val@U?$_Tree_simple_types@U?$pair@$$CBV?$basic_string@DU?$char_traits@D@std@@V?$allocator@D@2@@std@@PAVCSqlQuery@@@std@@@std@@@std@@QAEPAU?$_Tree_node@U?$pair@$$CBV?$basic_string@DU?$char_traits@D@std@@V?$allocator@D@2@@std@@PAVCSqlQuery@@@std@@PAX@2@U?$_Tree_id@PAU?$_Tree_node@U?$pair@$$CBV?$basic_string@DU?$char_traits@D@std@@V?$allocator@D@2@@std@@PAVCSqlQuery@@@std@@PAX@std@@@2@QAU32@@Z 00408a00 f i TNetLib:SqlDatabase.obj
 0001:00007bf0       ??1?$_Alloc_construct_ptr@V?$allocator@U?$_Tree_node@U?$pair@$$CBUEntry@?$CSimpleIniTempl@DU?$SI_NoCase@D@@V?$SI_ConvertA@D@@@@V?$multimap@UEntry@?$CSimpleIniTempl@DU?$SI_NoCase@D@@V?$SI_ConvertA@D@@@@PBDUKeyOrder@12@V?$allocator@U?$pair@$$CBUEntry@?$CSimpleIniTempl@DU?$SI_NoCase@D@@V?$SI_ConvertA@D@@@@PBD@std@@@std@@@std@@@std@@PAX@std@@@std@@@std@@QAE@XZ 00408bf0 f i TServerSystem:TServerSystem.obj
 0001:00007bf0       ??1?$_Tree_temp_node_alloc@V?$allocator@U?$_Tree_node@U?$pair@$$CBUEntry@?$CSimpleIniTempl@DU?$SI_NoCase@D@@V?$SI_ConvertA@D@@@@V?$multimap@UEntry@?$CSimpleIniTempl@DU?$SI_NoCase@D@@V?$SI_ConvertA@D@@@@PBDUKeyOrder@12@V?$allocator@U?$pair@$$CBUEntry@?$CSimpleIniTempl@DU?$SI_NoCase@D@@V?$SI_ConvertA@D@@@@PBD@std@@@std@@@std@@@std@@PAX@std@@@std@@@std@@QAE@XZ 00408bf0 f i TServerSystem:TServerSystem.obj
 0001:00007c10       ??1?$_Alloc_construct_ptr@V?$allocator@U?$_Tree_node@U?$pair@$$CBUEntry@?$CSimpleIniTempl@DU?$SI_NoCase@D@@V?$SI_ConvertA@D@@@@PBD@std@@PAX@std@@@std@@@std@@QAE@XZ 00408c10 f i TServerSystem:TServerSystem.obj
 0001:00007c10       ??1?$_Tree_temp_node@V?$allocator@U?$_Tree_node@U?$pair@$$CBUEntry@?$CSimpleIniTempl@DU?$SI_NoCase@D@@V?$SI_ConvertA@D@@@@PBD@std@@PAX@std@@@std@@@std@@QAE@XZ 00408c10 f i TServerSystem:TServerSystem.obj
 0001:00007c30       ??1?$_Tree_head_scoped_ptr@V?$allocator@U?$_Tree_node@U?$pair@$$CBUEntry@?$CSimpleIniTempl@DU?$SI_NoCase@D@@V?$SI_ConvertA@D@@@@PBD@std@@PAX@std@@@std@@V?$_Tree_val@U?$_Tree_simple_types@U?$pair@$$CBUEntry@?$CSimpleIniTempl@DU?$SI_NoCase@D@@V?$SI_ConvertA@D@@@@PBD@std@@@std@@@2@@std@@QAE@XZ 00408c30 f i TServerSystem:TServerSystem.obj
 0001:00007c50       ??$_Copy_nodes@$0A@@?$_Tree@V?$_Tmap_traits@UEntry@?$CSimpleIniTempl@DU?$SI_NoCase@D@@V?$SI_ConvertA@D@@@@PBDUKeyOrder@12@V?$allocator@U?$pair@$$CBUEntry@?$CSimpleIniTempl@DU?$SI_NoCase@D@@V?$SI_ConvertA@D@@@@PBD@std@@@std@@$00@std@@@std@@IAEPAU?$_Tree_node@U?$pair@$$CBUEntry@?$CSimpleIniTempl@DU?$SI_NoCase@D@@V?$SI_ConvertA@D@@@@PBD@std@@PAX@1@PAU21@0@Z 00408c50 f i TServerSystem:TServerSystem.obj
 0001:00007d41       ??_E?$basic_ostream@DU?$char_traits@D@std@@@std@@$4PPPPPPPM@A@AEPAXI@Z 00408d41 f i TServerSystem:TServerSystem.obj
 0001:00007d50       ??0CSPUserProtectedAdd@@QAE@PAVCSqlDatabase@@V?$basic_string@DU?$char_traits@D@std@@V?$allocator@D@2@@std@@@Z 00408d50 f i DBAccess.obj
 0001:00007e00       ??_ECSPBetaToVer@@UAEPAXI@Z 00408e00 f i DBAccess.obj
 0001:00007e00       ??_ECSPDeletePreVersion@@UAEPAXI@Z 00408e00 f i DBAccess.obj
 0001:00007e00       ??_GCSPBetaToVer@@UAEPAXI@Z 00408e00 f i DBAccess.obj
 0001:00007e00       ??_GCSPDeletePreVersion@@UAEPAXI@Z 00408e00 f i DBAccess.obj
 0001:00007e30       ??_ECSPEventUpdate@@UAEPAXI@Z 00408e30 f i DBAccess.obj
 0001:00007e30       ??_GCSPEventUpdate@@UAEPAXI@Z 00408e30 f i DBAccess.obj
 0001:00007e60       ??_ECSPLoadService@@UAEPAXI@Z 00408e60 f i DBAccess.obj
 0001:00007e60       ??_ECTBLCashShopItem@@UAEPAXI@Z 00408e60 f i DBAccess.obj
 0001:00007e60       ??_ECTBLMachine@@UAEPAXI@Z 00408e60 f i DBAccess.obj
 0001:00007e60       ??_GCSPLoadService@@UAEPAXI@Z 00408e60 f i DBAccess.obj
 0001:00007e60       ??_GCTBLCashShopItem@@UAEPAXI@Z 00408e60 f i DBAccess.obj
 0001:00007e60       ??_GCTBLMachine@@UAEPAXI@Z 00408e60 f i DBAccess.obj
 0001:00007e90       ??_ECSPOPLogin@@UAEPAXI@Z  00408e90 f i DBAccess.obj
 0001:00007e90       ??_GCSPOPLogin@@UAEPAXI@Z  00408e90 f i DBAccess.obj
 0001:00007ec0       ??_ECSPSvrStatusSMS@@UAEPAXI@Z 00408ec0 f i DBAccess.obj
 0001:00007ec0       ??_GCSPSvrStatusSMS@@UAEPAXI@Z 00408ec0 f i DBAccess.obj
 0001:00007ef0       ??_ECSPUpdatePatch@@UAEPAXI@Z 00408ef0 f i DBAccess.obj
 0001:00007ef0       ??_ECSPUserProtectedAdd@@UAEPAXI@Z 00408ef0 f i DBAccess.obj
 0001:00007ef0       ??_GCSPUpdatePatch@@UAEPAXI@Z 00408ef0 f i DBAccess.obj
 0001:00007ef0       ??_GCSPUserProtectedAdd@@UAEPAXI@Z 00408ef0 f i DBAccess.obj
 0001:00007f20       ??_ECSPUpdatePrePatch@@UAEPAXI@Z 00408f20 f i DBAccess.obj
 0001:00007f20       ??_ECTBLPreVersion@@UAEPAXI@Z 00408f20 f i DBAccess.obj
 0001:00007f20       ??_GCSPUpdatePrePatch@@UAEPAXI@Z 00408f20 f i DBAccess.obj
 0001:00007f20       ??_GCTBLPreVersion@@UAEPAXI@Z 00408f20 f i DBAccess.obj
 0001:00007f50       ??_ECTBLEvent@@UAEPAXI@Z   00408f50 f i DBAccess.obj
 0001:00007f50       ??_GCTBLEvent@@UAEPAXI@Z   00408f50 f i DBAccess.obj
 0001:00007f80       ??_ECTBLGroup@@UAEPAXI@Z   00408f80 f i DBAccess.obj
 0001:00007f80       ??_ECTBLNetwork@@UAEPAXI@Z 00408f80 f i DBAccess.obj
 0001:00007f80       ??_ECTBLSvrType@@UAEPAXI@Z 00408f80 f i DBAccess.obj
 0001:00007f80       ??_GCTBLGroup@@UAEPAXI@Z   00408f80 f i DBAccess.obj
 0001:00007f80       ??_GCTBLNetwork@@UAEPAXI@Z 00408f80 f i DBAccess.obj
 0001:00007f80       ??_GCTBLSvrType@@UAEPAXI@Z 00408f80 f i DBAccess.obj
 0001:00007fb0       ??_ECTBLIPAddr@@UAEPAXI@Z  00408fb0 f i DBAccess.obj
 0001:00007fb0       ??_ECTBLManager@@UAEPAXI@Z 00408fb0 f i DBAccess.obj
 0001:00007fb0       ??_GCTBLIPAddr@@UAEPAXI@Z  00408fb0 f i DBAccess.obj
 0001:00007fb0       ??_GCTBLManager@@UAEPAXI@Z 00408fb0 f i DBAccess.obj
 0001:00007fe0       ??_ECTBLServer@@UAEPAXI@Z  00408fe0 f i DBAccess.obj
 0001:00007fe0       ??_GCTBLServer@@UAEPAXI@Z  00408fe0 f i DBAccess.obj
 0001:00008010       ?BindColumns@CTBLCashShopItem@@UAEFXZ 00409010 f i DBAccess.obj
 0001:00008050       ?BindColumns@CTBLEvent@@UAEFXZ 00409050 f i DBAccess.obj
 0001:000082b0       ?BindColumns@CTBLGroup@@UAEFXZ 004092b0 f i DBAccess.obj
 0001:000082b0       ?BindColumns@CTBLNetwork@@UAEFXZ 004092b0 f i DBAccess.obj
 0001:000082b0       ?BindColumns@CTBLSvrType@@UAEFXZ 004092b0 f i DBAccess.obj
 0001:000082f0       ?BindColumns@CTBLIPAddr@@UAEFXZ 004092f0 f i DBAccess.obj
 0001:00008330       ?BindColumns@CTBLMachine@@UAEFXZ 00409330 f i DBAccess.obj
 0001:00008390       ?BindColumns@CTBLManager@@UAEFXZ 00409390 f i DBAccess.obj
 0001:000083f0       ?BindColumns@CTBLPreVersion@@UAEFXZ 004093f0 f i DBAccess.obj
 0001:00008470       ?BindColumns@CTBLServer@@UAEFXZ 00409470 f i DBAccess.obj
 0001:00008530       ?BindParameters@CSPBetaToVer@@UAEFH@Z 00409530 f i DBAccess.obj
 0001:00008530       ?BindParameters@CSPDeletePreVersion@@UAEFH@Z 00409530 f i DBAccess.obj
 0001:000085a0       ?BindParameters@CSPEventUpdate@@UAEFH@Z 004095a0 f i DBAccess.obj
 0001:00008950       ?BindParameters@CSPLoadService@@UAEFH@Z 00409950 f i DBAccess.obj
 0001:00008a10       ?BindParameters@CSPOPLogin@@UAEFH@Z 00409a10 f i DBAccess.obj
 0001:00008ab0       ?BindParameters@CSPSvrStatusSMS@@UAEFH@Z 00409ab0 f i DBAccess.obj
 0001:00008b40       ?BindParameters@CSPUpdatePatch@@UAEFH@Z 00409b40 f i DBAccess.obj
 0001:00008c30       ?BindParameters@CSPUpdatePrePatch@@UAEFH@Z 00409c30 f i DBAccess.obj
 0001:00008d00       ?BindParameters@CSPUserProtectedAdd@@UAEFH@Z 00409d00 f i DBAccess.obj
 0001:00008e30       ?BindParameters@CTBLIPAddr@@UAEFH@Z 00409e30 f i DBAccess.obj
 0001:00008e70       ?GetNumCol@CTBLCashShopItem@@UAEHXZ 00409e70 f i DBAccess.obj
 0001:00008e70       ?GetNumCol@CTBLGroup@@UAEHXZ 00409e70 f i DBAccess.obj
 0001:00008e70       ?GetNumCol@CTBLIPAddr@@UAEHXZ 00409e70 f i DBAccess.obj
 0001:00008e70       ?GetNumCol@CTBLNetwork@@UAEHXZ 00409e70 f i DBAccess.obj
 0001:00008e70       ?GetNumCol@CTBLSvrType@@UAEHXZ 00409e70 f i DBAccess.obj
 0001:00008e70       ?GetNumParam@CSPBetaToVer@@UAEHXZ 00409e70 f i DBAccess.obj
 0001:00008e70       ?GetNumParam@CSPDeletePreVersion@@UAEHXZ 00409e70 f i DBAccess.obj
 0001:00008e80       ?GetNumCol@CTBLEvent@@UAEHXZ 00409e80 f i DBAccess.obj
 0001:00008e90       ?GetNumCol@CTBLMachine@@UAEHXZ 00409e90 f i DBAccess.obj
 0001:00008e90       ?GetNumCol@CTBLManager@@UAEHXZ 00409e90 f i DBAccess.obj
 0001:00008e90       ?GetNumParam@CSPOPLogin@@UAEHXZ 00409e90 f i DBAccess.obj
 0001:00008e90       ?GetNumParam@CSPSvrStatusSMS@@UAEHXZ 00409e90 f i DBAccess.obj
 0001:00008ea0       ?GetNumCol@CTBLPreVersion@@UAEHXZ 00409ea0 f i DBAccess.obj
 0001:00008ea0       ?GetNumParam@CSPLoadService@@UAEHXZ 00409ea0 f i DBAccess.obj
 0001:00008ea0       ?GetNumParam@CSPUpdatePrePatch@@UAEHXZ 00409ea0 f i DBAccess.obj
 0001:00008eb0       ?GetNumCol@CTBLServer@@UAEHXZ 00409eb0 f i DBAccess.obj
 0001:00008eb0       ?GetNumParam@CSPUserProtectedAdd@@UAEHXZ 00409eb0 f i DBAccess.obj
 0001:00008ec0       ?GetNumParam@CSPEventUpdate@@UAEHXZ 00409ec0 f i DBAccess.obj
 0001:00008ed0       ?GetNumParam@CSPUpdatePatch@@UAEHXZ 00409ed0 f i DBAccess.obj
 0001:00008ee0       ?InitQueryTControlSvr@@YAHPAVCSqlDatabase@@@Z 00409ee0 f   DBAccess.obj
 0001:00009af0       ??0CAtlException@ATL@@QAE@J@Z 0040aaf0 f i DebugSocket.obj
 0001:00009b00       ??0CDebugSocket@@QAE@XZ    0040ab00 f   DebugSocket.obj
 0001:00009b20       ??1?$CSimpleStringT@D$0A@@ATL@@QAE@XZ 0040ab20 f i DebugSocket.obj
 0001:00009b20       ??1?$CStringT@DV?$StrTraitATL@DV?$ChTraitsCRT@D@ATL@@@ATL@@@ATL@@QAE@XZ 0040ab20 f i DebugSocket.obj
 0001:00009b40       ??_ECAtlStringMgr@ATL@@UAEPAXI@Z 0040ab40 f i DebugSocket.obj
 0001:00009b40       ??_GCAtlStringMgr@ATL@@UAEPAXI@Z 0040ab40 f i DebugSocket.obj
 0001:00009b70       ??_ECWin32Heap@ATL@@UAEPAXI@Z 0040ab70 f i DebugSocket.obj
 0001:00009b70       ??_GCWin32Heap@ATL@@UAEPAXI@Z 0040ab70 f i DebugSocket.obj
 0001:00009bb0       ?Allocate@CAtlStringMgr@ATL@@UAEPAUCStringData@2@HH@Z 0040abb0 f i DebugSocket.obj
 0001:00009c20       ?Allocate@CWin32Heap@ATL@@UAEPAXI@Z 0040ac20 f i DebugSocket.obj
 0001:00009c40       ?AtlThrowImpl@ATL@@YGXJ@Z  0040ac40 f i DebugSocket.obj
 0001:00009c60       ?Fork@?$CSimpleStringT@D$0A@@ATL@@AAEXH@Z 0040ac60 f i DebugSocket.obj
 0001:00009d10       ?Format@?$CStringT@DV?$StrTraitATL@DV?$ChTraitsCRT@D@ATL@@@ATL@@@ATL@@QAAXPBDZZ 0040ad10 f i DebugSocket.obj
 0001:00009d30       ?FormatV@?$CStringT@DV?$StrTraitATL@DV?$ChTraitsCRT@D@ATL@@@ATL@@@ATL@@QAEXPBDPAD@Z 0040ad30 f i DebugSocket.obj
 0001:00009ea0       ?Free@CAtlStringMgr@ATL@@UAEXPAUCStringData@2@@Z 0040aea0 f i DebugSocket.obj
 0001:00009eb0       ?Free@CWin32Heap@ATL@@UAEXPAX@Z 0040aeb0 f i DebugSocket.obj
 0001:00009ed0       ?GetInstance@CAtlStringMgr@ATL@@SAPAUIAtlStringMgr@2@XZ 0040aed0 f i DebugSocket.obj
 0001:00009fd0       ?GetNilString@CAtlStringMgr@ATL@@UAEPAUCStringData@2@XZ 0040afd0 f i DebugSocket.obj
 0001:00009fe0       ?GetSize@CWin32Heap@ATL@@UAEIPAX@Z 0040afe0 f i DebugSocket.obj
 0001:0000a000       ?Initialize@CDebugSocket@@QAEHPADH@Z 0040b000 f   DebugSocket.obj
 0001:0000a080       ?LoadStringA@?$CStringT@DV?$StrTraitATL@DV?$ChTraitsCRT@D@ATL@@@ATL@@@ATL@@QAEHI@Z 0040b080 f i DebugSocket.obj
 0001:0000a1b0       ?LogAction@CDebugSocket@@QAEXV?$CStringT@DV?$StrTraitATL@DV?$ChTraitsCRT@D@ATL@@@ATL@@@ATL@@@Z 0040b1b0 f   DebugSocket.obj
 0001:0000a240       ?LogInvalidPacket@CDebugSocket@@QAEXPAD@Z 0040b240 f   DebugSocket.obj
 0001:0000a340       ?PrepareWrite2@?$CSimpleStringT@D$0A@@ATL@@AAEXH@Z 0040b340 f i DebugSocket.obj
 0001:0000a3a0       ?Reallocate@?$CSimpleStringT@D$0A@@ATL@@AAEXH@Z 0040b3a0 f i DebugSocket.obj
 0001:0000a3e0       ?Reallocate@CAtlStringMgr@ATL@@UAEPAUCStringData@2@PAU32@HH@Z 0040b3e0 f i DebugSocket.obj
 0001:0000a440       ?Reallocate@CWin32Heap@ATL@@UAEPAXPAXI@Z 0040b440 f i DebugSocket.obj
 0001:0000a480       ?SetString@?$CSimpleStringT@D$0A@@ATL@@QAEXPBDH@Z 0040b480 f i DebugSocket.obj
 0001:0000a5d0       ?ThrowMemoryException@?$CSimpleStringT@D$0A@@ATL@@KAXXZ 0040b5d0 f i DebugSocket.obj
 0001:0000a5e0       ?_AtlGetStringResourceImage@ATL@@YAPBUATLSTRINGRESOURCEIMAGE@1@PAUHINSTANCE__@@PAUHRSRC__@@I@Z 0040b5e0 f i DebugSocket.obj
 0001:0000a640       ??$_Destroy_range@V?$allocator@UtagPATCHFILE@@@std@@@std@@YAXPAUtagPATCHFILE@@QAU1@AAV?$allocator@UtagPATCHFILE@@@0@@Z 0040b640 f i Handler.obj
 0001:0000a6d0       ??$_Destroy_range@V?$allocator@UtagTCASHITEM@@@std@@@std@@YAXPAUtagTCASHITEM@@QAU1@AAV?$allocator@UtagTCASHITEM@@@0@@Z 0040b6d0 f i Handler.obj
 0001:0000a740       ??$_Emplace_reallocate@ABE@?$vector@EV?$allocator@E@std@@@std@@AAEPAEQAEABE@Z 0040b740 f i Handler.obj
 0001:0000a880       ??$_Emplace_reallocate@ABG@?$vector@GV?$allocator@G@std@@@std@@AAEPAGQAGABG@Z 0040b880 f i Handler.obj
 0001:0000a880       ??$_Emplace_reallocate@G@?$vector@GV?$allocator@G@std@@@std@@AAEPAGQAG$$QAG@Z 0040b880 f i Handler.obj
 0001:0000a950       ??$_Emplace_reallocate@ABUtagLOTTERY@@@?$vector@UtagLOTTERY@@V?$allocator@UtagLOTTERY@@@std@@@std@@AAEPAUtagLOTTERY@@QAU2@ABU2@@Z 0040b950 f i Handler.obj
 0001:0000aab0       ??$_Emplace_reallocate@ABUtagMONREGEN@@@?$vector@UtagMONREGEN@@V?$allocator@UtagMONREGEN@@@std@@@std@@AAEPAUtagMONREGEN@@QAU2@ABU2@@Z 0040bab0 f i Handler.obj
 0001:0000ac20       ??$_Emplace_reallocate@ABUtagPATCHFILE@@@?$vector@UtagPATCHFILE@@V?$allocator@UtagPATCHFILE@@@std@@@std@@AAEPAUtagPATCHFILE@@QAU2@ABU2@@Z 0040bc20 f i Handler.obj
 0001:0000aec0       ??$_Emplace_reallocate@ABUtagTCASHITEM@@@?$vector@UtagTCASHITEM@@V?$allocator@UtagTCASHITEM@@@std@@@std@@AAEPAUtagTCASHITEM@@QAU2@ABU2@@Z 0040bec0 f i Handler.obj
 0001:0000b110       ??$_Emplace_reallocate@ABUtagTCASHITEMSALE@@@?$vector@UtagTCASHITEMSALE@@V?$allocator@UtagTCASHITEMSALE@@@std@@@std@@AAEPAUtagTCASHITEMSALE@@QAU2@ABU2@@Z 0040c110 f i Handler.obj
 0001:0000b220       ??$_Erase_tree@V?$allocator@U?$_Tree_node@U?$pair@$$CBEPAUtagTGROUP@@@std@@PAX@std@@@std@@@?$_Tree_val@U?$_Tree_simple_types@U?$pair@$$CBEPAUtagTGROUP@@@std@@@std@@@std@@QAEXAAV?$allocator@U?$_Tree_node@U?$pair@$$CBEPAUtagTGROUP@@@std@@PAX@std@@@1@PAU?$_Tree_node@U?$pair@$$CBEPAUtagTGROUP@@@std@@PAX@1@@Z 0040c220 f i TControlSvr.obj
 0001:0000b220       ??$_Erase_tree@V?$allocator@U?$_Tree_node@U?$pair@$$CBEPAUtagTMACHINE@@@std@@PAX@std@@@std@@@?$_Tree_val@U?$_Tree_simple_types@U?$pair@$$CBEPAUtagTMACHINE@@@std@@@std@@@std@@QAEXAAV?$allocator@U?$_Tree_node@U?$pair@$$CBEPAUtagTMACHINE@@@std@@PAX@std@@@1@PAU?$_Tree_node@U?$pair@$$CBEPAUtagTMACHINE@@@std@@PAX@1@@Z 0040c220 f i TControlSvr.obj
 0001:0000b220       ??$_Erase_tree@V?$allocator@U?$_Tree_node@U?$pair@$$CBEPAUtagTSVRTYPE@@@std@@PAX@std@@@std@@@?$_Tree_val@U?$_Tree_simple_types@U?$pair@$$CBEPAUtagTSVRTYPE@@@std@@@std@@@std@@QAEXAAV?$allocator@U?$_Tree_node@U?$pair@$$CBEPAUtagTSVRTYPE@@@std@@PAX@std@@@1@PAU?$_Tree_node@U?$pair@$$CBEPAUtagTSVRTYPE@@@std@@PAX@1@@Z 0040c220 f i TControlSvr.obj
 0001:0000b220       ??$_Erase_tree@V?$allocator@U?$_Tree_node@U?$pair@$$CBEPAVCPlatformUsage@@@std@@PAX@std@@@std@@@?$_Tree_val@U?$_Tree_simple_types@U?$pair@$$CBEPAVCPlatformUsage@@@std@@@std@@@std@@QAEXAAV?$allocator@U?$_Tree_node@U?$pair@$$CBEPAVCPlatformUsage@@@std@@PAX@std@@@1@PAU?$_Tree_node@U?$pair@$$CBEPAVCPlatformUsage@@@std@@PAX@1@@Z 0040c220 f i TControlSvr.obj
 0001:0000b220       ??$_Erase_tree@V?$allocator@U?$_Tree_node@U?$pair@$$CBKPAUtagBANINFO@@@std@@PAX@std@@@std@@@?$_Tree_val@U?$_Tree_simple_types@U?$pair@$$CBKPAUtagBANINFO@@@std@@@std@@@std@@QAEXAAV?$allocator@U?$_Tree_node@U?$pair@$$CBKPAUtagBANINFO@@@std@@PAX@std@@@1@PAU?$_Tree_node@U?$pair@$$CBKPAUtagBANINFO@@@std@@PAX@1@@Z 0040c220 f i Handler.obj
 0001:0000b220       ??$_Erase_tree@V?$allocator@U?$_Tree_node@U?$pair@$$CBKPAUtagTSVRTEMP@@@std@@PAX@std@@@std@@@?$_Tree_val@U?$_Tree_simple_types@U?$pair@$$CBKPAUtagTSVRTEMP@@@std@@@std@@@std@@QAEXAAV?$allocator@U?$_Tree_node@U?$pair@$$CBKPAUtagTSVRTEMP@@@std@@PAX@std@@@1@PAU?$_Tree_node@U?$pair@$$CBKPAUtagTSVRTEMP@@@std@@PAX@1@@Z 0040c220 f i TControlSvr.obj
 0001:0000b220       ??$_Erase_tree@V?$allocator@U?$_Tree_node@U?$pair@$$CBKPAVCTManager@@@std@@PAX@std@@@std@@@?$_Tree_val@U?$_Tree_simple_types@U?$pair@$$CBKPAVCTManager@@@std@@@std@@@std@@QAEXAAV?$allocator@U?$_Tree_node@U?$pair@$$CBKPAVCTManager@@@std@@PAX@std@@@1@PAU?$_Tree_node@U?$pair@$$CBKPAVCTManager@@@std@@PAX@1@@Z 0040c220 f i TControlSvr.obj
 0001:0000b260       ??$_Find_lower_bound@K@?$_Tree@V?$_Tmap_traits@KPAUtagBANINFO@@U?$less@K@std@@V?$allocator@U?$pair@$$CBKPAUtagBANINFO@@@std@@@3@$0A@@std@@@std@@IBE?AU?$_Tree_find_result@PAU?$_Tree_node@U?$pair@$$CBKPAUtagBANINFO@@@std@@PAX@std@@@1@ABK@Z 0040c260 f i Handler.obj
 0001:0000b260       ??$_Find_lower_bound@K@?$_Tree@V?$_Tmap_traits@KPAUtagTSVRTEMP@@U?$less@K@std@@V?$allocator@U?$pair@$$CBKPAUtagTSVRTEMP@@@std@@@3@$0A@@std@@@std@@IBE?AU?$_Tree_find_result@PAU?$_Tree_node@U?$pair@$$CBKPAUtagTSVRTEMP@@@std@@PAX@std@@@1@ABK@Z 0040c260 f i TControlSvr.obj
 0001:0000b260       ??$_Find_lower_bound@K@?$_Tree@V?$_Tmap_traits@KPAVCTManager@@U?$less@K@std@@V?$allocator@U?$pair@$$CBKPAVCTManager@@@std@@@3@$0A@@std@@@std@@IBE?AU?$_Tree_find_result@PAU?$_Tree_node@U?$pair@$$CBKPAVCTManager@@@std@@PAX@std@@@1@ABK@Z 0040c260 f i Handler.obj
 0001:0000b260       ??$_Find_lower_bound@K@?$_Tree@V?$_Tmap_traits@KUtagEVENTINFO@@U?$less@K@std@@V?$allocator@U?$pair@$$CBKUtagEVENTINFO@@@std@@@3@$0A@@std@@@std@@IBE?AU?$_Tree_find_result@PAU?$_Tree_node@U?$pair@$$CBKUtagEVENTINFO@@@std@@PAX@std@@@1@ABK@Z 0040c260 f i Handler.obj
 0001:0000b2b0       ??$_Uninitialized_move@PAUtagPATCHFILE@@V?$allocator@UtagPATCHFILE@@@std@@@std@@YAPAUtagPATCHFILE@@QAU1@0PAU1@AAV?$allocator@UtagPATCHFILE@@@0@@Z 0040c2b0 f i Handler.obj
 0001:0000b380       ??$_Uninitialized_move@PAUtagTCASHITEM@@V?$allocator@UtagTCASHITEM@@@std@@@std@@YAPAUtagTCASHITEM@@QAU1@0PAU1@AAV?$allocator@UtagTCASHITEM@@@0@@Z 0040c380 f i Handler.obj
 0001:0000b420       ??$erase@V?$_Tree_iterator@V?$_Tree_val@U?$_Tree_simple_types@U?$pair@$$CBKPAUtagBANINFO@@@std@@@std@@@std@@@std@@$0A@@?$_Tree@V?$_Tmap_traits@KPAUtagBANINFO@@U?$less@K@std@@V?$allocator@U?$pair@$$CBKPAUtagBANINFO@@@std@@@3@$0A@@std@@@std@@QAE?AV?$_Tree_iterator@V?$_Tree_val@U?$_Tree_simple_types@U?$pair@$$CBKPAUtagBANINFO@@@std@@@std@@@std@@@1@V21@@Z 0040c420 f i Handler.obj
 0001:0000b460       ??$insert@$0A@$0A@@?$_Tree@V?$_Tmap_traits@KPAVCTManager@@U?$less@K@std@@V?$allocator@U?$pair@$$CBKPAVCTManager@@@std@@@3@$0A@@std@@@std@@QAE?AU?$pair@V?$_Tree_iterator@V?$_Tree_val@U?$_Tree_simple_types@U?$pair@$$CBKPAVCTManager@@@std@@@std@@@std@@@std@@_N@1@$$QAU?$pair@$$CBKPAVCTManager@@@1@@Z 0040c460 f i Handler.obj
 0001:0000b530       ??0?$CStringT@DV?$StrTraitATL@DV?$ChTraitsCRT@D@ATL@@@ATL@@@ATL@@QAE@XZ 0040c530 f i Handler.obj
 0001:0000b560       ??0tagEVENTINFO@@QAE@$$QAU0@@Z 0040c560 f i Handler.obj
 0001:0000b730       ??0tagEVENTINFO@@QAE@ABU0@@Z 0040c730 f i Handler.obj
 0001:0000ba70       ??0tagEVENTINFO@@QAE@XZ    0040ca70 f i Handler.obj
 0001:0000bb70       ??1?$_Alloc_construct_ptr@V?$allocator@U?$_Tree_node@U?$pair@$$CBEPAUtagTGROUP@@@std@@PAX@std@@@std@@@std@@QAE@XZ 0040cb70 f i TControlSvr.obj
 0001:0000bb70       ??1?$_Alloc_construct_ptr@V?$allocator@U?$_Tree_node@U?$pair@$$CBEPAUtagTMACHINE@@@std@@PAX@std@@@std@@@std@@QAE@XZ 0040cb70 f i TControlSvr.obj
 0001:0000bb70       ??1?$_Alloc_construct_ptr@V?$allocator@U?$_Tree_node@U?$pair@$$CBEPAUtagTSVRTYPE@@@std@@PAX@std@@@std@@@std@@QAE@XZ 0040cb70 f i TControlSvr.obj
 0001:0000bb70       ??1?$_Alloc_construct_ptr@V?$allocator@U?$_Tree_node@U?$pair@$$CBEPAVCPlatformUsage@@@std@@PAX@std@@@std@@@std@@QAE@XZ 0040cb70 f i TControlSvr.obj
 0001:0000bb70       ??1?$_Alloc_construct_ptr@V?$allocator@U?$_Tree_node@U?$pair@$$CBKPAUtagBANINFO@@@std@@PAX@std@@@std@@@std@@QAE@XZ 0040cb70 f i Handler.obj
 0001:0000bb70       ??1?$_Alloc_construct_ptr@V?$allocator@U?$_Tree_node@U?$pair@$$CBKPAUtagTSVRTEMP@@@std@@PAX@std@@@std@@@std@@QAE@XZ 0040cb70 f i TControlSvr.obj
 0001:0000bb70       ??1?$_Alloc_construct_ptr@V?$allocator@U?$_Tree_node@U?$pair@$$CBKPAVCTManager@@@std@@PAX@std@@@std@@@std@@QAE@XZ 0040cb70 f i Handler.obj
 0001:0000bb90       ??1?$_Alloc_construct_ptr@V?$allocator@U?$_Tree_node@U?$pair@$$CBKUtagEVENTINFO@@@std@@PAX@std@@@std@@@std@@QAE@XZ 0040cb90 f i Handler.obj
 0001:0000bb90       ??1?$_Tree_temp_node_alloc@V?$allocator@U?$_Tree_node@U?$pair@$$CBKUtagEVENTINFO@@@std@@PAX@std@@@std@@@std@@QAE@XZ 0040cb90 f i Handler.obj
 0001:0000bbb0       ??1?$_Uninitialized_backout_al@V?$allocator@UtagPATCHFILE@@@std@@@std@@QAE@XZ 0040cbb0 f i Handler.obj
 0001:0000bbd0       ??1?$_Uninitialized_backout_al@V?$allocator@UtagTCASHITEM@@@std@@@std@@QAE@XZ 0040cbd0 f i Handler.obj
 0001:0000bbf0       ??1?$pair@$$CBKUtagEVENTINFO@@@std@@QAE@XZ 0040cbf0 f i Handler.obj
 0001:0000bc00       ??1?$vector@EV?$allocator@E@std@@@std@@QAE@XZ 0040cc00 f i Handler.obj
 0001:0000bc50       ??1?$vector@GV?$allocator@G@std@@@std@@QAE@XZ 0040cc50 f i Handler.obj
 0001:0000bcb0       ??1?$vector@UtagLOTTERY@@V?$allocator@UtagLOTTERY@@@std@@@std@@QAE@XZ 0040ccb0 f i Handler.obj
 0001:0000bcc0       ??1?$vector@UtagMONREGEN@@V?$allocator@UtagMONREGEN@@@std@@@std@@QAE@XZ 0040ccc0 f i Handler.obj
 0001:0000bcd0       ??1?$vector@UtagPATCHFILE@@V?$allocator@UtagPATCHFILE@@@std@@@std@@QAE@XZ 0040ccd0 f i Handler.obj
 0001:0000bd30       ??1?$vector@UtagTCASHITEM@@V?$allocator@UtagTCASHITEM@@@std@@@std@@QAE@XZ 0040cd30 f i Handler.obj
 0001:0000bd90       ??1?$vector@UtagTCASHITEMSALE@@V?$allocator@UtagTCASHITEMSALE@@@std@@@std@@QAE@XZ 0040cd90 f i Handler.obj
 0001:0000bdf0       ??1CCSLock@@UAE@XZ         0040cdf0 f i Handler.obj
 0001:0000be00       ??1tagEVENTINFO@@QAE@XZ    0040ce00 f i Handler.obj
 0001:0000bf50       ??1tagMONEVENT@@QAE@XZ     0040cf50 f i Handler.obj
 0001:0000bfb0       ??1tagPATCHFILE@@QAE@XZ    0040cfb0 f i Handler.obj
 0001:0000c020       ??1tagTCASHITEM@@QAE@XZ    0040d020 f i Handler.obj
 0001:0000c080       ??4?$CStringT@DV?$StrTraitATL@DV?$ChTraitsCRT@D@ATL@@@ATL@@@ATL@@QAEAAV01@ABV01@@Z 0040d080 f i Handler.obj
 0001:0000c0f0       ??E?$_Tree_iterator@V?$_Tree_val@U?$_Tree_simple_types@U?$pair@$$CBKPAUtagTSVRTEMP@@@std@@@std@@@std@@@std@@QAE?AV01@H@Z 0040d0f0 f i Handler.obj
 0001:0000c150       ??E?$_Tree_unchecked_const_iterator@V?$_Tree_val@U?$_Tree_simple_types@U?$pair@$$CBKPAUtagBANINFO@@@std@@@std@@@std@@U_Iterator_base0@2@@std@@QAEAAV01@XZ 0040d150 f i Handler.obj
 0001:0000c150       ??E?$_Tree_unchecked_const_iterator@V?$_Tree_val@U?$_Tree_simple_types@U?$pair@$$CBKPAVCTManager@@@std@@@std@@@std@@U_Iterator_base0@2@@std@@QAEAAV01@XZ 0040d150 f i TControlSvr.obj
 0001:0000c150       ??E?$_Tree_unchecked_const_iterator@V?$_Tree_val@U?$_Tree_simple_types@U?$pair@$$CBKUtagEVENTINFO@@@std@@@std@@@std@@U_Iterator_base0@2@@std@@QAEAAV01@XZ 0040d150 f i Handler.obj
 0001:0000c150       ??E?$_Tree_unchecked_const_iterator@V?$_Tree_val@U?$_Tree_simple_types@U?$pair@$$CBV?$basic_string@DU?$char_traits@D@std@@V?$allocator@D@2@@std@@PAVCSqlQuery@@@std@@@std@@@std@@U_Iterator_base0@2@@std@@QAEAAV01@XZ 0040d150 f i TNetLib:SqlDatabase.obj
 0001:0000c1b0       ??HATL@@YA?AV?$CStringT@DV?$StrTraitATL@DV?$ChTraitsCRT@D@ATL@@@ATL@@@0@ABV10@0@Z 0040d1b0 f i Handler.obj
 0001:0000c320       ??_ECCSLock@@UAEPAXI@Z     0040d320 f i Handler.obj
 0001:0000c320       ??_GCCSLock@@UAEPAXI@Z     0040d320 f i Handler.obj
 0001:0000c350       ??_GtagBANINFO@@QAEPAXI@Z  0040d350 f i Handler.obj
 0001:0000c3f0       ?CloneData@?$CSimpleStringT@D$0A@@ATL@@CAPAUCStringData@2@PAU32@@Z 0040d3f0 f i Handler.obj
 0001:0000c4b0       ?GetDay@CTime@ATL@@QBEHXZ  0040d4b0 f i Handler.obj
 0001:0000c4f0       ?GetHour@CTime@ATL@@QBEHXZ 0040d4f0 f i Handler.obj
 0001:0000c530       ?GetMinute@CTime@ATL@@QBEHXZ 0040d530 f i Handler.obj
 0001:0000c570       ?GetSecond@CTime@ATL@@QBEHXZ 0040d570 f i Handler.obj
 0001:0000c5b0       ?LogEvent@?$CAtlServiceModuleT@VCTControlSvrModule@@$0GE@@ATL@@QAAXPBDZZ 0040d5b0 f i Handler.obj
 0001:0000c660       ?OnCT_ANNOUNCEMENT_REQ@CTControlSvrModule@@IAEKPAUtagPACKETBUF@@@Z 0040d660 f   Handler.obj
 0001:0000c970       ?OnCT_CASHITEMLIST_REQ@CTControlSvrModule@@IAEKPAUtagPACKETBUF@@@Z 0040d970 f   Handler.obj
 0001:0000cbd0       ?OnCT_CASHITEMSALE_ACK@CTControlSvrModule@@IAEKPAUtagPACKETBUF@@@Z 0040dbd0 f   Handler.obj
 0001:0000cc20       ?OnCT_CASHITEMSALE_REQ@CTControlSvrModule@@IAEKPAUtagPACKETBUF@@@Z 0040dc20 f   Handler.obj
 0001:0000cd50       ?OnCT_CASHSHOPSTOP_REQ@CTControlSvrModule@@IAEKPAUtagPACKETBUF@@@Z 0040dd50 f   Handler.obj
 0001:0000ce40       ?OnCT_CASTLEENABLE_REQ@CTControlSvrModule@@IAEKPAUtagPACKETBUF@@@Z 0040de40 f   Handler.obj
 0001:0000cf10       ?OnCT_CASTLEGUILDCHG_ACK@CTControlSvrModule@@IAEKPAUtagPACKETBUF@@@Z 0040df10 f   Handler.obj
 0001:0000cf50       ?OnCT_CASTLEGUILDCHG_REQ@CTControlSvrModule@@IAEKPAUtagPACKETBUF@@@Z 0040df50 f   Handler.obj
 0001:0000d060       ?OnCT_CASTLEINFO_ACK@CTControlSvrModule@@IAEKPAUtagPACKETBUF@@@Z 0040e060 f   Handler.obj
 0001:0000d0a0       ?OnCT_CASTLEINFO_REQ@CTControlSvrModule@@IAEKPAUtagPACKETBUF@@@Z 0040e0a0 f   Handler.obj
 0001:0000d170       ?OnCT_CHARMSG_REQ@CTControlSvrModule@@IAEKPAUtagPACKETBUF@@@Z 0040e170 f   Handler.obj
 0001:0000d540       ?OnCT_CHATBANLISTDEL_REQ@CTControlSvrModule@@IAEKPAUtagPACKETBUF@@@Z 0040e540 f   Handler.obj
 0001:0000d710       ?OnCT_CHATBANLIST_REQ@CTControlSvrModule@@IAEKPAUtagPACKETBUF@@@Z 0040e710 f   Handler.obj
 0001:0000d740       ?OnCT_CHATBAN_ACK@CTControlSvrModule@@IAEKPAUtagPACKETBUF@@@Z 0040e740 f   Handler.obj
 0001:0000d840       ?OnCT_CHATBAN_REQ@CTControlSvrModule@@IAEKPAUtagPACKETBUF@@@Z 0040e840 f   Handler.obj
 0001:0000dc10       ?OnCT_CMGIFTCHARTUPDATE_REQ@CTControlSvrModule@@IAEKPAUtagPACKETBUF@@@Z 0040ec10 f   Handler.obj
 0001:0000dce0       ?OnCT_CMGIFTLIST_ACK@CTControlSvrModule@@IAEKPAUtagPACKETBUF@@@Z 0040ece0 f   Handler.obj
 0001:0000dd20       ?OnCT_CMGIFTLIST_REQ@CTControlSvrModule@@IAEKPAUtagPACKETBUF@@@Z 0040ed20 f   Handler.obj
 0001:0000dde0       ?OnCT_CMGIFT_ACK@CTControlSvrModule@@IAEKPAUtagPACKETBUF@@@Z 0040ede0 f   Handler.obj
 0001:0000de30       ?OnCT_CMGIFT_REQ@CTControlSvrModule@@IAEKPAUtagPACKETBUF@@@Z 0040ee30 f   Handler.obj
 0001:0000dfd0       ?OnCT_EVENTCHANGE_REQ@CTControlSvrModule@@IAEKPAUtagPACKETBUF@@@Z 0040efd0 f   Handler.obj
 0001:0000e860       ?OnCT_EVENTDEL_REQ@CTControlSvrModule@@IAEKPAUtagPACKETBUF@@@Z 0040f860 f   Handler.obj
 0001:0000eaf0       ?OnCT_EVENTLIST_REQ@CTControlSvrModule@@IAEKPAUtagPACKETBUF@@@Z 0040faf0 f   Handler.obj
 0001:0000eb20       ?OnCT_EVENTMSG_REQ@CTControlSvrModule@@IAEKPAUtagPACKETBUF@@@Z 0040fb20 f   Handler.obj
 0001:0000ee70       ?OnCT_EVENTQUARTERLIST_ACK@CTControlSvrModule@@IAEKPAUtagPACKETBUF@@@Z 0040fe70 f   Handler.obj
 0001:0000eec0       ?OnCT_EVENTQUARTERLIST_REQ@CTControlSvrModule@@IAEKPAUtagPACKETBUF@@@Z 0040fec0 f   Handler.obj
 0001:0000efa0       ?OnCT_EVENTQUARTERUPDATE_ACK@CTControlSvrModule@@IAEKPAUtagPACKETBUF@@@Z 0040ffa0 f   Handler.obj
 0001:0000eff0       ?OnCT_EVENTQUARTERUPDATE_REQ@CTControlSvrModule@@IAEKPAUtagPACKETBUF@@@Z 0040fff0 f   Handler.obj
 0001:0000f0d0       ?OnCT_EVENTUPDATE_REQ@CTControlSvrModule@@IAEKPAUtagPACKETBUF@@@Z 004100d0 f   Handler.obj
 0001:0000f1f0       ?OnCT_HELPMESSAGE_REQ@CTControlSvrModule@@IAEKPAUtagPACKETBUF@@@Z 004101f0 f   Handler.obj
 0001:0000f300       ?OnCT_ITEMFIND_ACK@CTControlSvrModule@@IAEKPAUtagPACKETBUF@@@Z 00410300 f   Handler.obj
 0001:0000f460       ?OnCT_ITEMFIND_REQ@CTControlSvrModule@@IAEKPAUtagPACKETBUF@@@Z 00410460 f   Handler.obj
 0001:0000f5d0       ?OnCT_ITEMSTATE_ACK@CTControlSvrModule@@IAEKPAUtagPACKETBUF@@@Z 004105d0 f   Handler.obj
 0001:0000f610       ?OnCT_ITEMSTATE_REQ@CTControlSvrModule@@IAEKPAUtagPACKETBUF@@@Z 00410610 f   Handler.obj
 0001:0000f790       ?OnCT_MONACTION_REQ@CTControlSvrModule@@IAEKPAUtagPACKETBUF@@@Z 00410790 f   Handler.obj
 0001:0000f8c0       ?OnCT_MONSPAWNFIND_ACK@CTControlSvrModule@@IAEKPAUtagPACKETBUF@@@Z 004108c0 f   Handler.obj
 0001:0000fa80       ?OnCT_MONSPAWNFIND_REQ@CTControlSvrModule@@IAEKPAUtagPACKETBUF@@@Z 00410a80 f   Handler.obj
 0001:0000fb60       ?OnCT_NEWCONNECT_REQ@CTControlSvrModule@@IAEKPAUtagPACKETBUF@@@Z 00410b60 f   Handler.obj
 0001:0000fd60       ?OnCT_OPLOGIN_REQ@CTControlSvrModule@@IAEKPAUtagPACKETBUF@@@Z 00410d60 f   Handler.obj
 0001:00010060       ?OnCT_PLATFORM_REQ@CTControlSvrModule@@IAEKPAUtagPACKETBUF@@@Z 00411060 f   Handler.obj
 0001:00010120       ?OnCT_PREVERSIONTABLE_REQ@CTControlSvrModule@@IAEKPAUtagPACKETBUF@@@Z 00411120 f   Handler.obj
 0001:000103d0       ?OnCT_PREVERSIONUPDATE_REQ@CTControlSvrModule@@IAEKPAUtagPACKETBUF@@@Z 004113d0 f   Handler.obj
 0001:00010a20       ?OnCT_RECONNECT_REQ@CTControlSvrModule@@IAEKPAUtagPACKETBUF@@@Z 00411a20 f   Handler.obj
 0001:00010ad0       ?OnCT_RPSGAMECHANGE_REQ@CTControlSvrModule@@IAEKPAUtagPACKETBUF@@@Z 00411ad0 f   Handler.obj
 0001:00010b80       ?OnCT_RPSGAMEDATA_ACK@CTControlSvrModule@@IAEKPAUtagPACKETBUF@@@Z 00411b80 f   Handler.obj
 0001:00010c00       ?OnCT_RPSGAMEDATA_REQ@CTControlSvrModule@@IAEKPAUtagPACKETBUF@@@Z 00411c00 f   Handler.obj
 0001:00010cb0       ?OnCT_SERVICEAUTOSTART_REQ@CTControlSvrModule@@IAEKPAUtagPACKETBUF@@@Z 00411cb0 f   Handler.obj
 0001:00010d40       ?OnCT_SERVICECHANGE_REQ@CTControlSvrModule@@IAEKPAUtagPACKETBUF@@@Z 00411d40 f   Handler.obj
 0001:00010e00       ?OnCT_SERVICECONTROL_REQ@CTControlSvrModule@@IAEKPAUtagPACKETBUF@@@Z 00411e00 f   Handler.obj
 0001:00010f70       ?OnCT_SERVICEDATACLEAR_REQ@CTControlSvrModule@@IAEKPAUtagPACKETBUF@@@Z 00411f70 f   Handler.obj
 0001:00011050       ?OnCT_SERVICEMONITOR_REQ@CTControlSvrModule@@IAEKPAUtagPACKETBUF@@@Z 00412050 f   Handler.obj
 0001:00011160       ?OnCT_SERVICESTAT_REQ@CTControlSvrModule@@IAEKPAUtagPACKETBUF@@@Z 00412160 f   Handler.obj
 0001:00011180       ?OnCT_SERVICEUPLOADEND_REQ@CTControlSvrModule@@IAEKPAUtagPACKETBUF@@@Z 00412180 f   Handler.obj
 0001:00011390       ?OnCT_SERVICEUPLOADSTART_REQ@CTControlSvrModule@@IAEKPAUtagPACKETBUF@@@Z 00412390 f   Handler.obj
 0001:000116f0       ?OnCT_SERVICEUPLOAD_REQ@CTControlSvrModule@@IAEKPAUtagPACKETBUF@@@Z 004126f0 f   Handler.obj
 0001:00011800       ?OnCT_STLOGIN_REQ@CTControlSvrModule@@IAEKPAUtagPACKETBUF@@@Z 00412800 f   Handler.obj
 0001:00011a10       ?OnCT_TIMER_REQ@CTControlSvrModule@@IAEKPAUtagPACKETBUF@@@Z 00412a10 f   Handler.obj
 0001:00011c10       ?OnCT_TOURNAMENTEVENT_ACK@CTControlSvrModule@@IAEKPAUtagPACKETBUF@@@Z 00412c10 f   Handler.obj
 0001:00011c50       ?OnCT_TOURNAMENTEVENT_REQ@CTControlSvrModule@@IAEKPAUtagPACKETBUF@@@Z 00412c50 f   Handler.obj
 0001:00011cf0       ?OnCT_UPDATEPATCH_REQ@CTControlSvrModule@@IAEKPAUtagPACKETBUF@@@Z 00412cf0 f   Handler.obj
 0001:00011ef0       ?OnCT_USERKICKOUT_REQ@CTControlSvrModule@@IAEKPAUtagPACKETBUF@@@Z 00412ef0 f   Handler.obj
 0001:000120d0       ?OnCT_USERMOVE_REQ@CTControlSvrModule@@IAEKPAUtagPACKETBUF@@@Z 004130d0 f   Handler.obj
 0001:00012350       ?OnCT_USERPOSITION_REQ@CTControlSvrModule@@IAEKPAUtagPACKETBUF@@@Z 00413350 f   Handler.obj
 0001:000125e0       ?OnCT_USERPROTECTED_REQ@CTControlSvrModule@@IAEKPAUtagPACKETBUF@@@Z 004135e0 f   Handler.obj
 0001:00012890       ?OnSM_DELSESSION_REQ@CTControlSvrModule@@IAEKPAUtagPACKETBUF@@@Z 00413890 f   Handler.obj
 0001:000128b0       ?Reset@tagEVENTINFO@@QAEXXZ 004138b0 f i Handler.obj
 0001:00012980       ?WrapPacketOut@tagEVENTINFO@@QAEXPAVCPacket@@@Z 00413980 f i Handler.obj
 0001:00012c20       ?_Change_array@?$vector@GV?$allocator@G@std@@@std@@AAEXQAGII@Z 00413c20 f i Handler.obj
 0001:00012c80       ?_Extract@?$_Tree_val@U?$_Tree_simple_types@U?$pair@$$CBKPAUtagBANINFO@@@std@@@std@@@std@@QAEPAU?$_Tree_node@U?$pair@$$CBKPAUtagBANINFO@@@std@@PAX@2@V?$_Tree_unchecked_const_iterator@V?$_Tree_val@U?$_Tree_simple_types@U?$pair@$$CBKPAUtagBANINFO@@@std@@@std@@@std@@U_Iterator_base0@2@@2@@Z 00413c80 f i Handler.obj
 0001:00012c80       ?_Extract@?$_Tree_val@U?$_Tree_simple_types@U?$pair@$$CBKPAVCTManager@@@std@@@std@@@std@@QAEPAU?$_Tree_node@U?$pair@$$CBKPAVCTManager@@@std@@PAX@2@V?$_Tree_unchecked_const_iterator@V?$_Tree_val@U?$_Tree_simple_types@U?$pair@$$CBKPAVCTManager@@@std@@@std@@@std@@U_Iterator_base0@2@@2@@Z 00413c80 f i TControlSvr.obj
 0001:00012c80       ?_Extract@?$_Tree_val@U?$_Tree_simple_types@U?$pair@$$CBKUtagEVENTINFO@@@std@@@std@@@std@@QAEPAU?$_Tree_node@U?$pair@$$CBKUtagEVENTINFO@@@std@@PAX@2@V?$_Tree_unchecked_const_iterator@V?$_Tree_val@U?$_Tree_simple_types@U?$pair@$$CBKUtagEVENTINFO@@@std@@@std@@@std@@U_Iterator_base0@2@@2@@Z 00413c80 f i Handler.obj
 0001:00012c80       ?_Extract@?$_Tree_val@U?$_Tree_simple_types@U?$pair@$$CBV?$basic_string@DU?$char_traits@D@std@@V?$allocator@D@2@@std@@PAVCSqlQuery@@@std@@@std@@@std@@QAEPAU?$_Tree_node@U?$pair@$$CBV?$basic_string@DU?$char_traits@D@std@@V?$allocator@D@2@@std@@PAVCSqlQuery@@@std@@PAX@2@V?$_Tree_unchecked_const_iterator@V?$_Tree_val@U?$_Tree_simple_types@U?$pair@$$CBV?$basic_string@DU?$char_traits@D@std@@V?$allocator@D@2@@std@@PAVCSqlQuery@@@std@@@std@@@std@@U_Iterator_base0@2@@2@@Z 00413c80 f i TNetLib:SqlDatabase.obj
 0001:00012fb0       ?_Tidy@?$vector@UtagLOTTERY@@V?$allocator@UtagLOTTERY@@@std@@@std@@AAEXXZ 00413fb0 f i Handler.obj
 0001:00013020       ?_Tidy@?$vector@UtagMONREGEN@@V?$allocator@UtagMONREGEN@@@std@@@std@@AAEXXZ 00414020 f i Handler.obj
 0001:00013090       ?__TIMETODB@@YAX_JAAUtagTIMESTAMP_STRUCT@@@Z 00414090 f i Handler.obj
 0001:000131a0       ?allocate@?$allocator@G@std@@QAEPAGI@Z 004141a0 f i Handler.obj
 0001:00013200       ?allocate@?$allocator@UtagLOTTERY@@@std@@QAEPAUtagLOTTERY@@I@Z 00414200 f i Handler.obj
 0001:00013260       ?allocate@?$allocator@UtagTCASHITEMSALE@@@std@@QAEPAUtagTCASHITEMSALE@@I@Z 00414260 f i Handler.obj
 0001:000132c0       ?deallocate@?$allocator@UtagPATCHFILE@@@std@@QAEXQAUtagPATCHFILE@@I@Z 004142c0 f i Handler.obj
 0001:00013300       ?deallocate@?$allocator@UtagTCASHITEM@@@std@@QAEXQAUtagTCASHITEM@@I@Z 00414300 f i Handler.obj
 0001:00013340       ?push_back@?$vector@UtagPATCHFILE@@V?$allocator@UtagPATCHFILE@@@std@@@std@@QAEXABUtagPATCHFILE@@@Z 00414340 f i Handler.obj
 0001:000133f0       ??0CPlatformUsage@@QAE@E@Z 004143f0 f   PlatformUsage.obj
 0001:000134c0       ??_ECPlatformUsage@@UAEPAXI@Z 004144c0 f i PlatformUsage.obj
 0001:000134c0       ??_GCPlatformUsage@@UAEPAXI@Z 004144c0 f i PlatformUsage.obj
 0001:00013540       ?Close@CPlatformUsage@@QAEXXZ 00414540 f   PlatformUsage.obj
 0001:00013580       ?SetNETREG@CPlatformUsage@@QAEXPBD@Z 00414580 f   PlatformUsage.obj
 0001:000135c0       ??0?$CStringT@DV?$StrTraitATL@DV?$ChTraitsCRT@D@ATL@@@ATL@@@ATL@@QAE@ABV01@@Z 004145c0 f i Sender.obj
 0001:000136b0       ?SendCT_AUTHORITY_ACK@CTManager@@QAEXXZ 004146b0 f   Sender.obj
 0001:00013730       ?SendCT_CASHITEMLIST_ACK@CTManager@@QAEXPAV?$vector@UtagTCASHITEM@@V?$allocator@UtagTCASHITEM@@@std@@@std@@@Z 00414730 f   Sender.obj
 0001:00013820       ?SendCT_CASTLEGUILDCHG_ACK@CTManager@@QAEXPAVCPacket@@@Z 00414820 f   Sender.obj
 0001:000138b0       ?SendCT_CASTLEINFO_ACK@CTManager@@QAEXPAVCPacket@@@Z 004148b0 f   Sender.obj
 0001:00013940       ?SendCT_CHATBANLIST_ACK@CTManager@@QAEXPAV?$map@KPAUtagBANINFO@@U?$less@K@std@@V?$allocator@U?$pair@$$CBKPAUtagBANINFO@@@std@@@3@@std@@@Z 00414940 f   Sender.obj
 0001:00013a70       ?SendCT_CHATBAN_ACK@CTManager@@QAEXE@Z 00414a70 f   Sender.obj
 0001:00013b00       ?SendCT_CMGIFTLIST_ACK@CTManager@@QAEXPAVCPacket@@@Z 00414b00 f   Sender.obj
 0001:00013b90       ?SendCT_CMGIFT_ACK@CTManager@@QAEXE@Z 00414b90 f   Sender.obj
 0001:00013c20       ?SendCT_EVENTCHANGE_ACK@CTManager@@QAEXEEPAUtagEVENTINFO@@@Z 00414c20 f   Sender.obj
 0001:00013cc0       ?SendCT_EVENTLIST_ACK@CTManager@@QAEXPAV?$map@KUtagEVENTINFO@@U?$less@K@std@@V?$allocator@U?$pair@$$CBKUtagEVENTINFO@@@std@@@3@@std@@@Z 00414cc0 f   Sender.obj
 0001:00013db0       ?SendCT_EVENTQUARTERLIST_ACK@CTManager@@QAEXPAVCPacket@@@Z 00414db0 f   Sender.obj
 0001:00013e40       ?SendCT_EVENTQUARTERUPDATE_ACK@CTManager@@QAEXPAVCPacket@@@Z 00414e40 f   Sender.obj
 0001:00013ed0       ?SendCT_GROUPLIST_ACK@CTManager@@QAEXPAV?$map@EPAUtagTGROUP@@U?$less@E@std@@V?$allocator@U?$pair@$$CBEPAUtagTGROUP@@@std@@@3@@std@@@Z 00414ed0 f   Sender.obj
 0001:00013fc0       ?SendCT_ITEMFIND_ACK@CTManager@@QAEXPAVCPacket@@@Z 00414fc0 f   Sender.obj
 0001:00013fc0       ?SendCT_MONSPAWNFIND_ACK@CTManager@@QAEXPAVCPacket@@@Z 00414fc0 f   Sender.obj
 0001:00013fd0       ?SendCT_ITEMSTATE_ACK@CTManager@@QAEXPAVCPacket@@@Z 00414fd0 f   Sender.obj
 0001:00014060       ?SendCT_MACHINELIST_ACK@CTManager@@QAEXPAV?$map@EPAUtagTMACHINE@@U?$less@E@std@@V?$allocator@U?$pair@$$CBEPAUtagTMACHINE@@@std@@@3@@std@@@Z 00415060 f   Sender.obj
 0001:00014150       ?SendCT_OPLOGIN_ACK@CTManager@@QAEXEEK@Z 00415150 f   Sender.obj
 0001:000141f0       ?SendCT_PLATFORM_ACK@CTManager@@QAEXEKKM@Z 004151f0 f   Sender.obj
 0001:000142a0       ?SendCT_PREVERSIONTABLE_ACK@CTManager@@QAEXPAV?$vector@UtagPATCHFILE@@V?$allocator@UtagPATCHFILE@@@std@@@std@@@Z 004152a0 f   Sender.obj
 0001:00014420       ?SendCT_RPSGAMEDATA_ACK@CTManager@@QAEXPAVCPacket@@@Z 00415420 f   Sender.obj
 0001:000144b0       ?SendCT_SERVICEAUTOSTART_ACK@CTManager@@QAEXE@Z 004154b0 f   Sender.obj
 0001:00014540       ?SendCT_SERVICECHANGE_ACK@CTManager@@QAEXKK@Z 00415540 f   Sender.obj
 0001:000145d0       ?SendCT_SERVICECONTROL_ACK@CTManager@@QAEXE@Z 004155d0 f   Sender.obj
 0001:00014660       ?SendCT_SERVICEDATA_ACK@CTManager@@QAEXPAUtagTSVRTEMP@@KKKK@Z 00415660 f   Sender.obj
 0001:00014740       ?SendCT_SERVICESTAT_ACK@CTManager@@QAEXPAV?$map@KPAUtagTSVRTEMP@@U?$less@K@std@@V?$allocator@U?$pair@$$CBKPAUtagTSVRTEMP@@@std@@@3@@std@@@Z 00415740 f   Sender.obj
 0001:00014870       ?SendCT_SERVICEUPLOADEND_ACK@CTManager@@QAEXE@Z 00415870 f   Sender.obj
 0001:00014900       ?SendCT_SERVICEUPLOADSTART_ACK@CTManager@@QAEXE@Z 00415900 f   Sender.obj
 0001:00014990       ?SendCT_SERVICEUPLOAD_ACK@CTManager@@QAEXXZ 00415990 f   Sender.obj
 0001:00014a10       ?SendCT_STLOGIN_ACK@CTManager@@QAEXEE@Z 00415a10 f   Sender.obj
 0001:00014aa0       ?SendCT_SVRTYPELIST_ACK@CTManager@@QAEXPAV?$map@EPAUtagTSVRTYPE@@U?$less@E@std@@V?$allocator@U?$pair@$$CBEPAUtagTSVRTYPE@@@std@@@3@@std@@@Z 00415aa0 f   Sender.obj
 0001:00014b90       ?SendCT_TOURNAMENTEVENT_ACK@CTManager@@QAEXPAVCPacket@@@Z 00415b90 f   Sender.obj
 0001:00014c20       ?SendCT_USERPROTECTED_ACK@CTManager@@QAEXE@Z 00415c20 f   Sender.obj
 0001:00014cb0       ?WrapPacketIn@tagEVENTINFO@@QAEXPAVCPacket@@@Z 00415cb0 f i Sender.obj
 0001:00014fb0       ?_AtlInitializeCriticalSectionEx@ATL@@YAHPAU_RTL_CRITICAL_SECTION@@KK@Z 00415fb0 f i stdafx.obj
 0001:00014fd0       ??0CTControlSession@@QAE@XZ 00415fd0 f   TControlSession.obj
 0001:00015000       ??1CTControlSession@@UAE@XZ 00416000 f   TControlSession.obj
 0001:00015010       ??_ECTControlSession@@UAEPAXI@Z 00416010 f i TControlSession.obj
 0001:00015010       ??_GCTControlSession@@UAEPAXI@Z 00416010 f i TControlSession.obj
 0001:00015040       ??$?5DU?$char_traits@D@std@@V?$allocator@D@1@@std@@YAAAV?$basic_istream@DU?$char_traits@D@std@@@0@AAV10@AAV?$basic_string@DU?$char_traits@D@std@@V?$allocator@D@2@@0@@Z 00416040 f i TControlSvr.obj
 0001:00015270       ??$?8DU?$char_traits@D@std@@@std@@YA_NABV?$istreambuf_iterator@DU?$char_traits@D@std@@@0@0@Z 00416270 f i TControlSvr.obj
 0001:00015310       ??$_Common_extract_with_num_get@J@?$basic_istream@DU?$char_traits@D@std@@@std@@AAEAAV01@AAJ@Z 00416310 f i TControlSvr.obj
 0001:000154c0       ??$_Destroy_range@V?$allocator@V?$CStringT@DV?$StrTraitATL@DV?$ChTraitsCRT@D@ATL@@@ATL@@@ATL@@@std@@@std@@YAXPAV?$CStringT@DV?$StrTraitATL@DV?$ChTraitsCRT@D@ATL@@@ATL@@@ATL@@QAV12@AAV?$allocator@V?$CStringT@DV?$StrTraitATL@DV?$ChTraitsCRT@D@ATL@@@ATL@@@ATL@@@0@@Z 004164c0 f i TControlSvr.obj
 0001:00015530       ??$_Emplace_reallocate@I@?$vector@IV?$allocator@I@std@@@std@@AAEPAIQAI$$QAI@Z 00416530 f i TControlSvr.obj
 0001:00015690       ??$_Emplace_reallocate@V?$CStringT@DV?$StrTraitATL@DV?$ChTraitsCRT@D@ATL@@@ATL@@@ATL@@@?$vector@V?$CStringT@DV?$StrTraitATL@DV?$ChTraitsCRT@D@ATL@@@ATL@@@ATL@@V?$allocator@V?$CStringT@DV?$StrTraitATL@DV?$ChTraitsCRT@D@ATL@@@ATL@@@ATL@@@std@@@std@@AAEPAV?$CStringT@DV?$StrTraitATL@DV?$ChTraitsCRT@D@ATL@@@ATL@@@ATL@@QAV23@$$QAV23@@Z 00416690 f i TControlSvr.obj
 0001:000158d0       ??$_Erase_tree@V?$allocator@U?$_Tree_node@U?$pair@$$CBKUtagEVENTINFO@@@std@@PAX@std@@@std@@@?$_Tree_val@U?$_Tree_simple_types@U?$pair@$$CBKUtagEVENTINFO@@@std@@@std@@@std@@QAEXAAV?$allocator@U?$_Tree_node@U?$pair@$$CBKUtagEVENTINFO@@@std@@PAX@std@@@1@PAU?$_Tree_node@U?$pair@$$CBKUtagEVENTINFO@@@std@@PAX@1@@Z 004168d0 f i TControlSvr.obj
 0001:00015920       ??$_Find_lower_bound@E@?$_Tree@V?$_Tmap_traits@EPAUtagTGROUP@@U?$less@E@std@@V?$allocator@U?$pair@$$CBEPAUtagTGROUP@@@std@@@3@$0A@@std@@@std@@IBE?AU?$_Tree_find_result@PAU?$_Tree_node@U?$pair@$$CBEPAUtagTGROUP@@@std@@PAX@std@@@1@ABE@Z 00416920 f i TControlSvr.obj
 0001:00015920       ??$_Find_lower_bound@E@?$_Tree@V?$_Tmap_traits@EPAUtagTMACHINE@@U?$less@E@std@@V?$allocator@U?$pair@$$CBEPAUtagTMACHINE@@@std@@@3@$0A@@std@@@std@@IBE?AU?$_Tree_find_result@PAU?$_Tree_node@U?$pair@$$CBEPAUtagTMACHINE@@@std@@PAX@std@@@1@ABE@Z 00416920 f i TControlSvr.obj
 0001:00015920       ??$_Find_lower_bound@E@?$_Tree@V?$_Tmap_traits@EPAUtagTSVRTYPE@@U?$less@E@std@@V?$allocator@U?$pair@$$CBEPAUtagTSVRTYPE@@@std@@@3@$0A@@std@@@std@@IBE?AU?$_Tree_find_result@PAU?$_Tree_node@U?$pair@$$CBEPAUtagTSVRTYPE@@@std@@PAX@std@@@1@ABE@Z 00416920 f i TControlSvr.obj
 0001:00015970       ??$_Getloctxt@V?$istreambuf_iterator@DU?$char_traits@D@std@@@std@@D@std@@YAHAAV?$istreambuf_iterator@DU?$char_traits@D@std@@@0@0IPBDW4_Case_sensitive@0@@Z 00416970 f i TControlSvr.obj
 0001:00015d60       ??$_Uninitialized_move@PAV?$CStringT@DV?$StrTraitATL@DV?$ChTraitsCRT@D@ATL@@@ATL@@@ATL@@V?$allocator@V?$CStringT@DV?$StrTraitATL@DV?$ChTraitsCRT@D@ATL@@@ATL@@@ATL@@@std@@@std@@YAPAV?$CStringT@DV?$StrTraitATL@DV?$ChTraitsCRT@D@ATL@@@ATL@@@ATL@@QAV12@0PAV12@AAV?$allocator@V?$CStringT@DV?$StrTraitATL@DV?$ChTraitsCRT@D@ATL@@@ATL@@@ATL@@@0@@Z 00416d60 f i TControlSvr.obj
 0001:00015df0       ??$getline@DU?$char_traits@D@std@@V?$allocator@D@2@@std@@YAAAV?$basic_istream@DU?$char_traits@D@std@@@0@$$QAV10@AAV?$basic_string@DU?$char_traits@D@std@@V?$allocator@D@2@@0@D@Z 00416df0 f i TControlSvr.obj
 0001:00015ff0       ??$use_facet@V?$num_get@DV?$istreambuf_iterator@DU?$char_traits@D@std@@@std@@@std@@@std@@YAABV?$num_get@DV?$istreambuf_iterator@DU?$char_traits@D@std@@@std@@@0@ABVlocale@0@@Z 00416ff0 f i TControlSvr.obj
 0001:00016160       ??0?$basic_istream@DU?$char_traits@D@std@@@std@@QAE@PAV?$basic_streambuf@DU?$char_traits@D@std@@@1@_N@Z 00417160 f i TControlSvr.obj
 0001:00016360       ??0?$basic_stringbuf@DU?$char_traits@D@std@@V?$allocator@D@2@@std@@QAE@ABV?$basic_string@DU?$char_traits@D@std@@V?$allocator@D@2@@1@H@Z 00417360 f i TControlSvr.obj
 0001:00016530       ??0CTControlSvrModule@@QAE@XZ 00417530 f   TControlSvr.obj
 0001:00016b40       ??1?$CAtlServiceModuleT@VCTControlSvrModule@@$0GE@@ATL@@UAE@XZ 00417b40 f i TControlSvr.obj
 0001:00016b50       ??1?$_Tree@V?$_Tmap_traits@EPAUtagTGROUP@@U?$less@E@std@@V?$allocator@U?$pair@$$CBEPAUtagTGROUP@@@std@@@3@$0A@@std@@@std@@QAE@XZ 00417b50 f i TControlSvr.obj
 0001:00016b50       ??1?$_Tree@V?$_Tmap_traits@EPAUtagTMACHINE@@U?$less@E@std@@V?$allocator@U?$pair@$$CBEPAUtagTMACHINE@@@std@@@3@$0A@@std@@@std@@QAE@XZ 00417b50 f i TControlSvr.obj
 0001:00016b50       ??1?$_Tree@V?$_Tmap_traits@EPAUtagTSVRTYPE@@U?$less@E@std@@V?$allocator@U?$pair@$$CBEPAUtagTSVRTYPE@@@std@@@3@$0A@@std@@@std@@QAE@XZ 00417b50 f i TControlSvr.obj
 0001:00016b50       ??1?$_Tree@V?$_Tmap_traits@EPAVCPlatformUsage@@U?$less@E@std@@V?$allocator@U?$pair@$$CBEPAVCPlatformUsage@@@std@@@3@$0A@@std@@@std@@QAE@XZ 00417b50 f i TControlSvr.obj
 0001:00016b50       ??1?$_Tree@V?$_Tmap_traits@KPAUtagBANINFO@@U?$less@K@std@@V?$allocator@U?$pair@$$CBKPAUtagBANINFO@@@std@@@3@$0A@@std@@@std@@QAE@XZ 00417b50 f i TControlSvr.obj
 0001:00016b50       ??1?$_Tree@V?$_Tmap_traits@KPAUtagTSVRTEMP@@U?$less@K@std@@V?$allocator@U?$pair@$$CBKPAUtagTSVRTEMP@@@std@@@3@$0A@@std@@@std@@QAE@XZ 00417b50 f i TControlSvr.obj
 0001:00016b50       ??1?$_Tree@V?$_Tmap_traits@KPAVCTManager@@U?$less@K@std@@V?$allocator@U?$pair@$$CBKPAVCTManager@@@std@@@3@$0A@@std@@@std@@QAE@XZ 00417b50 f i TControlSvr.obj
 0001:00016b90       ??1?$_Uninitialized_backout_al@V?$allocator@V?$CStringT@DV?$StrTraitATL@DV?$ChTraitsCRT@D@ATL@@@ATL@@@ATL@@@std@@@std@@QAE@XZ 00417b90 f i TControlSvr.obj
 0001:00016bb0       ??1?$basic_istream@DU?$char_traits@D@std@@@std@@UAE@XZ 00417bb0 f i TControlSvr.obj
 0001:00016bd0       ??1?$basic_stringbuf@DU?$char_traits@D@std@@V?$allocator@D@2@@std@@UAE@XZ 00417bd0 f i TControlSvr.obj
 0001:00016ca0       ??1?$deque@PAUtagPACKETBUF@@V?$allocator@PAUtagPACKETBUF@@@std@@@std@@QAE@XZ 00417ca0 f i TControlSvr.obj
 0001:00016ca0       ??1?$deque@PAVCPacket@@V?$allocator@PAVCPacket@@@std@@@std@@QAE@XZ 00417ca0 f i TNetLib:Session.obj
 0001:00016d50       ??1?$map@EPAUtagTGROUP@@U?$less@E@std@@V?$allocator@U?$pair@$$CBEPAUtagTGROUP@@@std@@@3@@std@@QAE@XZ 00417d50 f i TControlSvr.obj
 0001:00016d50       ??1?$map@EPAUtagTMACHINE@@U?$less@E@std@@V?$allocator@U?$pair@$$CBEPAUtagTMACHINE@@@std@@@3@@std@@QAE@XZ 00417d50 f i TControlSvr.obj
 0001:00016d50       ??1?$map@EPAUtagTSVRTYPE@@U?$less@E@std@@V?$allocator@U?$pair@$$CBEPAUtagTSVRTYPE@@@std@@@3@@std@@QAE@XZ 00417d50 f i TControlSvr.obj
 0001:00016d50       ??1?$map@EPAVCPlatformUsage@@U?$less@E@std@@V?$allocator@U?$pair@$$CBEPAVCPlatformUsage@@@std@@@3@@std@@QAE@XZ 00417d50 f i TControlSvr.obj
 0001:00016d50       ??1?$map@KPAUtagBANINFO@@U?$less@K@std@@V?$allocator@U?$pair@$$CBKPAUtagBANINFO@@@std@@@3@@std@@QAE@XZ 00417d50 f i TControlSvr.obj
 0001:00016d50       ??1?$map@KPAUtagTSVRTEMP@@U?$less@K@std@@V?$allocator@U?$pair@$$CBKPAUtagTSVRTEMP@@@std@@@3@@std@@QAE@XZ 00417d50 f i TControlSvr.obj
 0001:00016d50       ??1?$map@KPAVCTManager@@U?$less@K@std@@V?$allocator@U?$pair@$$CBKPAVCTManager@@@std@@@3@@std@@QAE@XZ 00417d50 f i TControlSvr.obj
 0001:00016d60       ??1?$map@KUtagEVENTINFO@@U?$less@K@std@@V?$allocator@U?$pair@$$CBKUtagEVENTINFO@@@std@@@3@@std@@QAE@XZ 00417d60 f i TControlSvr.obj
 0001:00016d80       ??1?$queue@PAUtagPACKETBUF@@V?$deque@PAUtagPACKETBUF@@V?$allocator@PAUtagPACKETBUF@@@std@@@std@@@std@@QAE@XZ 00417d80 f i TControlSvr.obj
 0001:00016d80       ??1?$queue@PAVCPacket@@V?$deque@PAVCPacket@@V?$allocator@PAVCPacket@@@std@@@std@@@std@@QAE@XZ 00417d80 f i TNetLib:Session.obj
 0001:00016d90       ??1?$vector@V?$CStringT@DV?$StrTraitATL@DV?$ChTraitsCRT@D@ATL@@@ATL@@@ATL@@V?$allocator@V?$CStringT@DV?$StrTraitATL@DV?$ChTraitsCRT@D@ATL@@@ATL@@@ATL@@@std@@@std@@QAE@XZ 00417d90 f i TControlSvr.obj
 0001:00016df0       ??1CTControlSvrModule@@UAE@XZ 00417df0 f   TControlSvr.obj
 0001:00017080       ??1sentry@?$basic_istream@DU?$char_traits@D@std@@@std@@QAE@XZ 00418080 f i TControlSvr.obj
 0001:000170e0       ??E?$istreambuf_iterator@DU?$char_traits@D@std@@@std@@QAEAAV01@XZ 004180e0 f i TControlSvr.obj
 0001:00017130       ??HATL@@YA?AV?$CStringT@DV?$StrTraitATL@DV?$ChTraitsCRT@D@ATL@@@ATL@@@0@ABV10@PBD@Z 00418130 f i TControlSvr.obj
 0001:000172c0       ??_D?$basic_istringstream@DU?$char_traits@D@std@@V?$allocator@D@2@@std@@QAEXXZ 004182c0 f i TControlSvr.obj
 0001:0001734f       ??_E?$basic_istream@DU?$char_traits@D@std@@@std@@$4PPPPPPPM@A@AEPAXI@Z 0041834f f i TControlSvr.obj
 0001:00017357       ??_E?$basic_istringstream@DU?$char_traits@D@std@@V?$allocator@D@2@@std@@$4PPPPPPPM@A@AEPAXI@Z 00418357 f i TControlSvr.obj
 0001:00017360       ??_E?$basic_istream@DU?$char_traits@D@std@@@std@@UAEPAXI@Z 00418360 f i TControlSvr.obj
 0001:00017360       ??_G?$basic_istream@DU?$char_traits@D@std@@@std@@UAEPAXI@Z 00418360 f i TControlSvr.obj
 0001:000173f0       ??_E?$basic_istringstream@DU?$char_traits@D@std@@V?$allocator@D@2@@std@@UAEPAXI@Z 004183f0 f i TControlSvr.obj
 0001:000173f0       ??_G?$basic_istringstream@DU?$char_traits@D@std@@V?$allocator@D@2@@std@@UAEPAXI@Z 004183f0 f i TControlSvr.obj
 0001:00017420       ??_E?$basic_stringbuf@DU?$char_traits@D@std@@V?$allocator@D@2@@std@@UAEPAXI@Z 00418420 f i TControlSvr.obj
 0001:00017420       ??_G?$basic_stringbuf@DU?$char_traits@D@std@@V?$allocator@D@2@@std@@UAEPAXI@Z 00418420 f i TControlSvr.obj
 0001:00017450       ??_ECTControlSvrModule@@UAEPAXI@Z 00418450 f i TControlSvr.obj
 0001:00017450       ??_GCTControlSvrModule@@UAEPAXI@Z 00418450 f i TControlSvr.obj
 0001:00017480       ??_GtagTSVRTEMP@@QAEPAXI@Z 00418480 f i TControlSvr.obj
 0001:00017540       ?Accept@CTControlSvrModule@@IAEEXZ 00418540 f   TControlSvr.obj
 0001:00017710       ?AddCommonRGSReplacements@?$CAtlModuleT@VCTControlSvrModule@@@ATL@@UAEJPAUIRegistrarBase@@@Z 00418710 f i TControlSvr.obj
 0001:00017730       ?CheckEvent@CTControlSvrModule@@IAEXXZ 00418730 f   TControlSvr.obj
 0001:00017db0       ?CloseSession@CTControlSvrModule@@IAEXPAVCTControlSession@@@Z 00418db0 f   TControlSvr.obj
 0001:00017dd0       ?ClosingSession@CTControlSvrModule@@IAEXPAVCTControlSession@@@Z 00418dd0 f   TControlSvr.obj
 0001:00017f10       ?Empty@?$CSimpleStringT@D$0A@@ATL@@QAEXXZ 00418f10 f i TControlSvr.obj
 0001:00017f70       ?FindManager@CTControlSvrModule@@IAEPAVCTManager@@K@Z 00418f70 f   TControlSvr.obj
 0001:00017fc0       ?FindManager@CTControlSvrModule@@IAEPAVCTManager@@V?$CStringT@DV?$StrTraitATL@DV?$ChTraitsCRT@D@ATL@@@ATL@@@ATL@@@Z 00418fc0 f   TControlSvr.obj
 0001:00018040       ?FindService@CTControlSvrModule@@IAEPAUtagTSVRTEMP@@K@Z 00419040 f   TControlSvr.obj
 0001:00018090       ?GetGITPtr@CAtlModule@ATL@@UAEJPAPAUIGlobalInterfaceTable@@@Z 00419090 f i TControlSvr.obj
 0001:000180e0       ?GetLockCount@CAtlModule@ATL@@UAEJXZ 004190e0 f i TControlSvr.obj
 0001:000180f0       ?Left@?$CStringT@DV?$StrTraitATL@DV?$ChTraitsCRT@D@ATL@@@ATL@@@ATL@@QBE?AV12@H@Z 004190f0 f i TControlSvr.obj
 0001:000181f0       ?LoadConfig@CTControlSvrModule@@IAEKXZ 004191f0 f   TControlSvr.obj
 0001:00018410       ?LoadData@CTControlSvrModule@@IAEKXZ 00419410 f   TControlSvr.obj
 0001:00019ad0       ?Lock@?$CAtlExeModuleT@VCTControlSvrModule@@@ATL@@UAEJXZ 0041aad0 f i TControlSvr.obj
 0001:00019ae0       ?MakeStrValue@CTControlSvrModule@@IAEXAAUtagEVENTINFO@@AAV?$CStringT@DV?$StrTraitATL@DV?$ChTraitsCRT@D@ATL@@@ATL@@@ATL@@E@Z 0041aae0 f   TControlSvr.obj
 0001:0001a630       ?Mid@?$CStringT@DV?$StrTraitATL@DV?$ChTraitsCRT@D@ATL@@@ATL@@@ATL@@QBE?AV12@HH@Z 0041b630 f i TControlSvr.obj
 0001:0001a770       ?OnCloseSession@CTControlSvrModule@@IAEXPAVCTControlSession@@@Z 0041b770 f   TControlSvr.obj
 0001:0001a930       ?OnEnter@CTControlSvrModule@@MAEKXZ 0041b930 f   TControlSvr.obj
 0001:0001ae60       ?OnExit@CTControlSvrModule@@MAEXXZ 0041be60 f   TControlSvr.obj
 0001:0001b0f0       ?OnReceive@CTControlSvrModule@@IAEKPAUtagPACKETBUF@@@Z 0041c0f0 f   TControlSvr.obj
 0001:0001b6b0       ?OpenPlatform@CTControlSvrModule@@IAEXXZ 0041c6b0 f   TControlSvr.obj
 0001:0001bab0       ?ParseStrValue@CTControlSvrModule@@IAEXAAUtagEVENTINFO@@V?$CStringT@DV?$StrTraitATL@DV?$ChTraitsCRT@D@ATL@@@ATL@@@ATL@@E@Z 0041cab0 f   TControlSvr.obj
 0001:0001cbe0       ?QueryStatus@CTControlSvrModule@@IAEXXZ 0041dbe0 f   TControlSvr.obj
 0001:0001cf00       ?Right@?$CStringT@DV?$StrTraitATL@DV?$ChTraitsCRT@D@ATL@@@ATL@@@ATL@@QBE?AV12@H@Z 0041df00 f i TControlSvr.obj
 0001:0001d010       ?SayToBATCH@CTControlSvrModule@@IAEXPAUtagPACKETBUF@@@Z 0041e010 f   TControlSvr.obj
 0001:0001d060       ?SendEventToNewConnect@CTControlSvrModule@@IAEXPAUtagTSVRTEMP@@@Z 0041e060 f   TControlSvr.obj
 0001:0001d160       ?SendSvrStatusSMS@CTControlSvrModule@@IAEXEKE@Z 0041e160 f   TControlSvr.obj
 0001:0001d260       ?StartServiceA@CTControlSvrModule@@IAEEPAUtagTSVRTEMP@@@Z 0041e260 f   TControlSvr.obj
 0001:0001d2d0       ?StopService@CTControlSvrModule@@IAEEPAUtagTSVRTEMP@@@Z 0041e2d0 f   TControlSvr.obj
 0001:0001d380       ?Term@CAtlModule@ATL@@QAEXXZ 0041e380 f i TControlSvr.obj
 0001:0001d410       ?Tokenize@?$CStringT@DV?$StrTraitATL@DV?$ChTraitsCRT@D@ATL@@@ATL@@@ATL@@QBE?AV12@PBDAAH@Z 0041e410 f i TControlSvr.obj
 0001:0001d5f0       ?Unlock@?$CAtlServiceModuleT@VCTControlSvrModule@@$0GE@@ATL@@UAEJXZ 0041e5f0 f i TControlSvr.obj
 0001:0001d610       ?UpdateData@CTControlSvrModule@@IAEXXZ 0041e610 f   TControlSvr.obj
 0001:0001dad0       ?UploadEnd@CTControlSvrModule@@IAEXXZ 0041ead0 f   TControlSvr.obj
 0001:0001db10       ?WaitForConnect@CTControlSvrModule@@IAEEXZ 0041eb10 f   TControlSvr.obj
 0001:0001db90       ?WorkThread@CTControlSvrModule@@IAEKXZ 0041eb90 f   TControlSvr.obj
 0001:0001de80       ?_AtlRaiseException@ATL@@YAXKK@Z 0041ee80 f i TControlSvr.obj
 0001:0001dea0       ?_BatchThread@CTControlSvrModule@@CGKPAX@Z 0041eea0 f   TControlSvr.obj
 0001:0001dfc0       ?_ControlThread@CTControlSvrModule@@CGKPAX@Z 0041efc0 f   TControlSvr.obj
 0001:0001e0b0       ?_Getffld@?$num_get@DV?$istreambuf_iterator@DU?$char_traits@D@std@@@std@@@std@@ABAHPADAAV?$istreambuf_iterator@DU?$char_traits@D@std@@@2@1AAVios_base@2@PAH@Z 0041f0b0 f i TControlSvr.obj
 0001:0001f280       ?_Getffldx@?$num_get@DV?$istreambuf_iterator@DU?$char_traits@D@std@@@std@@@std@@ABAHPADAAV?$istreambuf_iterator@DU?$char_traits@D@std@@@2@1AAVios_base@2@PAH@Z 00420280 f i TControlSvr.obj
 0001:00020600       ?_Getifld@?$num_get@DV?$istreambuf_iterator@DU?$char_traits@D@std@@@std@@@std@@ABAHPADAAV?$istreambuf_iterator@DU?$char_traits@D@std@@@2@1HABVlocale@2@@Z 00421600 f i TControlSvr.obj
 0001:00021070       ?_Growmap@?$deque@PAUtagPACKETBUF@@V?$allocator@PAUtagPACKETBUF@@@std@@@std@@AAEXI@Z 00422070 f i TControlSvr.obj
 0001:00021070       ?_Growmap@?$deque@PAVCPacket@@V?$allocator@PAVCPacket@@@std@@@std@@AAEXI@Z 00422070 f i TNetLib:Session.obj
 0001:00021210       ?_Ipfx@?$basic_istream@DU?$char_traits@D@std@@@std@@QAE_N_N@Z 00422210 f i TControlSvr.obj
 0001:00021450       ?_SMThread@CTControlSvrModule@@CGKPAX@Z 00422450 f   TControlSvr.obj
 0001:00021540       ?_TimerThread@CTControlSvrModule@@CGKPAX@Z 00422540 f   TControlSvr.obj
 0001:00021630       ?_WorkThread@CTControlSvrModule@@CGKPAX@Z 00422630 f   TControlSvr.obj
 0001:00021640       ?_Xlen@?$deque@PAUtagPACKETBUF@@V?$allocator@PAUtagPACKETBUF@@@std@@@std@@ABEXXZ 00422640 f i TControlSvr.obj
 0001:00021640       ?_Xlen@?$deque@PAVCPacket@@V?$allocator@PAVCPacket@@@std@@@std@@ABEXXZ 00422640 f i TNetLib:Session.obj
 0001:00021650       ?clear@?$_Tree@V?$_Tmap_traits@KPAUtagTSVRTEMP@@U?$less@K@std@@V?$allocator@U?$pair@$$CBKPAUtagTSVRTEMP@@@std@@@3@$0A@@std@@@std@@QAEXXZ 00422650 f i TControlSvr.obj
 0001:00021650       ?clear@?$_Tree@V?$_Tmap_traits@KPAVCTManager@@U?$less@K@std@@V?$allocator@U?$pair@$$CBKPAVCTManager@@@std@@@3@$0A@@std@@@std@@QAEXXZ 00422650 f i TControlSvr.obj
 0001:000216a0       ?deallocate@?$allocator@V?$CStringT@DV?$StrTraitATL@DV?$ChTraitsCRT@D@ATL@@@ATL@@@ATL@@@std@@QAEXQAV?$CStringT@DV?$StrTraitATL@DV?$ChTraitsCRT@D@ATL@@@ATL@@@ATL@@I@Z 004226a0 f i TControlSvr.obj
 0001:000216e0       ?do_get@?$num_get@DV?$istreambuf_iterator@DU?$char_traits@D@std@@@std@@@std@@MBE?AV?$istreambuf_iterator@DU?$char_traits@D@std@@@2@V32@0AAVios_base@2@AAHAAG@Z 004226e0 f i TControlSvr.obj
 0001:00021830       ?do_get@?$num_get@DV?$istreambuf_iterator@DU?$char_traits@D@std@@@std@@@std@@MBE?AV?$istreambuf_iterator@DU?$char_traits@D@std@@@2@V32@0AAVios_base@2@AAHAAI@Z 00422830 f i TControlSvr.obj
 0001:00021960       ?do_get@?$num_get@DV?$istreambuf_iterator@DU?$char_traits@D@std@@@std@@@std@@MBE?AV?$istreambuf_iterator@DU?$char_traits@D@std@@@2@V32@0AAVios_base@2@AAHAAJ@Z 00422960 f i TControlSvr.obj
 0001:00021a80       ?do_get@?$num_get@DV?$istreambuf_iterator@DU?$char_traits@D@std@@@std@@@std@@MBE?AV?$istreambuf_iterator@DU?$char_traits@D@std@@@2@V32@0AAVios_base@2@AAHAAK@Z 00422a80 f i TControlSvr.obj
 0001:00021ba0       ?do_get@?$num_get@DV?$istreambuf_iterator@DU?$char_traits@D@std@@@std@@@std@@MBE?AV?$istreambuf_iterator@DU?$char_traits@D@std@@@2@V32@0AAVios_base@2@AAHAAM@Z 00422ba0 f i TControlSvr.obj
 0001:00021d20       ?do_get@?$num_get@DV?$istreambuf_iterator@DU?$char_traits@D@std@@@std@@@std@@MBE?AV?$istreambuf_iterator@DU?$char_traits@D@std@@@2@V32@0AAVios_base@2@AAHAAN@Z 00422d20 f i TControlSvr.obj
 0001:00021e90       ?do_get@?$num_get@DV?$istreambuf_iterator@DU?$char_traits@D@std@@@std@@@std@@MBE?AV?$istreambuf_iterator@DU?$char_traits@D@std@@@2@V32@0AAVios_base@2@AAHAAO@Z 00422e90 f i TControlSvr.obj
 0001:00022050       ?do_get@?$num_get@DV?$istreambuf_iterator@DU?$char_traits@D@std@@@std@@@std@@MBE?AV?$istreambuf_iterator@DU?$char_traits@D@std@@@2@V32@0AAVios_base@2@AAHAAPAX@Z 00423050 f i TControlSvr.obj
 0001:00022170       ?do_get@?$num_get@DV?$istreambuf_iterator@DU?$char_traits@D@std@@@std@@@std@@MBE?AV?$istreambuf_iterator@DU?$char_traits@D@std@@@2@V32@0AAVios_base@2@AAHAA_J@Z 00423170 f i TControlSvr.obj
 0001:000222a0       ?do_get@?$num_get@DV?$istreambuf_iterator@DU?$char_traits@D@std@@@std@@@std@@MBE?AV?$istreambuf_iterator@DU?$char_traits@D@std@@@2@V32@0AAVios_base@2@AAHAA_K@Z 004232a0 f i TControlSvr.obj
 0001:000223d0       ?do_get@?$num_get@DV?$istreambuf_iterator@DU?$char_traits@D@std@@@std@@@std@@MBE?AV?$istreambuf_iterator@DU?$char_traits@D@std@@@2@V32@0AAVios_base@2@AAHAA_N@Z 004233d0 f i TControlSvr.obj
 0001:000227b0       ?erase@?$_Tree@V?$_Tmap_traits@KPAVCTManager@@U?$less@K@std@@V?$allocator@U?$pair@$$CBKPAVCTManager@@@std@@@3@$0A@@std@@@std@@QAEIABK@Z 004237b0 f i TControlSvr.obj
 0001:000228d0       ?overflow@?$basic_stringbuf@DU?$char_traits@D@std@@V?$allocator@D@2@@std@@MAEHH@Z 004238d0 f i TControlSvr.obj
 0001:00022a20       ?pbackfail@?$basic_stringbuf@DU?$char_traits@D@std@@V?$allocator@D@2@@std@@MAEHH@Z 00423a20 f i TControlSvr.obj
 0001:00022a80       ?push@?$queue@PAUtagPACKETBUF@@V?$deque@PAUtagPACKETBUF@@V?$allocator@PAUtagPACKETBUF@@@std@@@std@@@std@@QAEXABQAUtagPACKETBUF@@@Z 00423a80 f i TControlSvr.obj
 0001:00022b00       ?seekoff@?$basic_stringbuf@DU?$char_traits@D@std@@V?$allocator@D@2@@std@@MAE?AV?$fpos@U_Mbstatet@@@2@_JHH@Z 00423b00 f i TControlSvr.obj
 0001:00022c90       ?seekpos@?$basic_stringbuf@DU?$char_traits@D@std@@V?$allocator@D@2@@std@@MAE?AV?$fpos@U_Mbstatet@@@2@V32@H@Z 00423c90 f i TControlSvr.obj
 0001:00022db0       ?snextc@?$basic_streambuf@DU?$char_traits@D@std@@@std@@QAEHXZ 00423db0 f i TControlSvr.obj
 0001:00022e20       ?underflow@?$basic_stringbuf@DU?$char_traits@D@std@@V?$allocator@D@2@@std@@MAEHXZ 00423e20 f i TControlSvr.obj
 0001:00022e90       _main                      00423e90 f   TControlSvr.obj
 0001:00023250       ??0CTManager@@QAE@XZ       00424250 f   TManager.obj
 0001:000232f0       ??_ECTManager@@UAEPAXI@Z   004242f0 f i TManager.obj
 0001:000232f0       ??_GCTManager@@UAEPAXI@Z   004242f0 f i TManager.obj
 0001:00023370       ?CheckAuthority@CTManager@@QAEEE@Z 00424370 f   TManager.obj
 0001:000233a0       ??HATL@@YA?AV?$CStringT@DV?$StrTraitATL@DV?$ChTraitsCRT@D@ATL@@@ATL@@@0@PBDABV10@@Z 004243a0 f i TMiniDump.obj
 0001:00023520       ?SetOption@CTMiniDump@@SAXW4_MINIDUMP_TYPE@@@Z 00424520 f   TMiniDump.obj
 0001:00023530       ?TopLevelExceptionFilter@CTMiniDump@@SGJPAU_EXCEPTION_POINTERS@@@Z 00424530 f   TMiniDump.obj
 0001:00023e70       ??0CTServer@@QAE@XZ        00424e70 f   TServer.obj
 0001:00023ec0       ??_ECTServer@@UAEPAXI@Z    00424ec0 f i TServer.obj
 0001:00023ec0       ??_GCTServer@@UAEPAXI@Z    00424ec0 f i TServer.obj
 0001:00023ef0       ?SendCT_ANNOUNCEMENT_ACK@CTServer@@QAEXV?$CStringT@DV?$StrTraitATL@DV?$ChTraitsCRT@D@ATL@@@ATL@@@ATL@@@Z 00424ef0 f   TServer.obj
 0001:00023fa0       ?SendCT_CASHITEMSALE_REQ@CTServer@@QAEXKGPAV?$vector@UtagTCASHITEMSALE@@V?$allocator@UtagTCASHITEMSALE@@@std@@@std@@@Z 00424fa0 f   TServer.obj
 0001:000240a0       ?SendCT_CASHSHOPSTOP_REQ@CTServer@@QAEXE@Z 004250a0 f   TServer.obj
 0001:00024130       ?SendCT_CASTLEENABLE_REQ@CTServer@@QAEXEEK@Z 00425130 f   TServer.obj
 0001:000241d0       ?SendCT_CASTLEGUILDCHG_REQ@CTServer@@QAEXGKKK_J@Z 004251d0 f   TServer.obj
 0001:00024280       ?SendCT_CASTLEINFO_REQ@CTServer@@QAEXK@Z 00425280 f   TServer.obj
 0001:00024310       ?SendCT_CHARMSG_ACK@CTServer@@QAEXV?$CStringT@DV?$StrTraitATL@DV?$ChTraitsCRT@D@ATL@@@ATL@@@ATL@@0@Z 00425310 f   TServer.obj
 0001:000243e0       ?SendCT_CHATBAN_REQ@CTServer@@QAEXV?$CStringT@DV?$StrTraitATL@DV?$ChTraitsCRT@D@ATL@@@ATL@@@ATL@@GKK@Z 004253e0 f   TServer.obj
 0001:000244b0       ?SendCT_CMGIFTCHARTUPDATE_REQ@CTServer@@QAEXPAVCPacket@@K@Z 004254b0 f   TServer.obj
 0001:00024540       ?SendCT_CMGIFTLIST_REQ@CTServer@@QAEXK@Z 00425540 f   TServer.obj
 0001:000245d0       ?SendCT_CMGIFT_REQ@CTServer@@QAEXV?$CStringT@DV?$StrTraitATL@DV?$ChTraitsCRT@D@ATL@@@ATL@@@ATL@@GK@Z 004255d0 f   TServer.obj
 0001:00024690       ?SendCT_CTRLSVR_REQ@CTServer@@QAEXXZ 00425690 f   TServer.obj
 0001:00024710       ?SendCT_EVENTMSG_REQ@CTServer@@QAEXEEV?$CStringT@DV?$StrTraitATL@DV?$ChTraitsCRT@D@ATL@@@ATL@@@ATL@@@Z 00425710 f   TServer.obj
 0001:000247d0       ?SendCT_EVENTQUARTERLIST_REQ@CTServer@@QAEXPAVCPacket@@@Z 004257d0 f   TServer.obj
 0001:00024860       ?SendCT_EVENTQUARTERUPDATE_REQ@CTServer@@QAEXPAVCPacket@@@Z 00425860 f   TServer.obj
 0001:000248f0       ?SendCT_EVENTUPDATE_REQ@CTServer@@QAEXEGPAUtagEVENTINFO@@@Z 004258f0 f   TServer.obj
 0001:00024990       ?SendCT_HELPMESSAGE_REQ@CTServer@@QAEXPAVCPacket@@@Z 00425990 f   TServer.obj
 0001:00024a20       ?SendCT_ITEMFIND_REQ@CTServer@@QAEXKGV?$CStringT@DV?$StrTraitATL@DV?$ChTraitsCRT@D@ATL@@@ATL@@@ATL@@@Z 00425a20 f   TServer.obj
 0001:00024ae0       ?SendCT_ITEMSTATE_REQ@CTServer@@QAEXPAVCPacket@@@Z 00425ae0 f   TServer.obj
 0001:00024b60       ?SendCT_MONACTION_ACK@CTServer@@QAEXEGKEKKKEG@Z 00425b60 f   TServer.obj
 0001:00024c40       ?SendCT_MONSPAWNFIND_ACK@CTServer@@QAEXKEGG@Z 00425c40 f   TServer.obj
 0001:00024cf0       ?SendCT_RPSGAMECHANGE_REQ@CTServer@@QAEXPAVCPacket@@@Z 00425cf0 f   TServer.obj
 0001:00024d80       ?SendCT_RPSGAMEDATA_REQ@CTServer@@QAEXPAVCPacket@@@Z 00425d80 f   TServer.obj
 0001:00024e10       ?SendCT_SERVICEDATACLEAR_ACK@CTServer@@QAEXXZ 00425e10 f   TServer.obj
 0001:00024e90       ?SendCT_SERVICEMONITOR_ACK@CTServer@@QAEXK@Z 00425e90 f   TServer.obj
 0001:00024f20       ?SendCT_TOURNAMENTEVENT_REQ@CTServer@@QAEXPAVCPacket@@@Z 00425f20 f   TServer.obj
 0001:00024fb0       ?SendCT_USERKICKOUT_ACK@CTServer@@QAEXV?$CStringT@DV?$StrTraitATL@DV?$ChTraitsCRT@D@ATL@@@ATL@@@ATL@@@Z 00425fb0 f   TServer.obj
 0001:00025060       ?SendCT_USERMOVE_ACK@CTServer@@QAEXV?$CStringT@DV?$StrTraitATL@DV?$ChTraitsCRT@D@ATL@@@ATL@@@ATL@@EGMMM@Z 00426060 f   TServer.obj
 0001:00025160       ?SendCT_USERPOSITION_ACK@CTServer@@QAEXV?$CStringT@DV?$StrTraitATL@DV?$ChTraitsCRT@D@ATL@@@ATL@@@ATL@@0@Z 00426160 f   TServer.obj
 0001:0002522e       _AcceptEx@32               0042622e f   mswsock:MSWSOCK.dll
 0001:00025240       ??0CSqlBase@@QAE@PAVCSqlDatabase@@PBD@Z 00426240 f   TNetLib:SqlBase.obj
 0001:000252d0       ??1CSqlBase@@UAE@XZ        004262d0 f   TNetLib:SqlBase.obj
 0001:00025300       ??_ECSqlBase@@UAEPAXI@Z    00426300 f i TNetLib:SqlBase.obj
 0001:00025300       ??_GCSqlBase@@UAEPAXI@Z    00426300 f i TNetLib:SqlBase.obj
 0001:00025350       ?AllocStatement@CSqlBase@@UAEHXZ 00426350 f   TNetLib:SqlBase.obj
 0001:000253c0       ?BindCol@CSqlBase@@QAEFFPAE@Z 004263c0 f   TNetLib:SqlBase.obj
 0001:000253f0       ?BindCol@CSqlBase@@QAEFFPAG@Z 004263f0 f   TNetLib:SqlBase.obj
 0001:00025420       ?BindCol@CSqlBase@@QAEFFPAK@Z 00426420 f   TNetLib:SqlBase.obj
 0001:00025450       ?BindCol@CSqlBase@@QAEFFPAUtagTIMESTAMP_STRUCT@@@Z 00426450 f   TNetLib:SqlBase.obj
 0001:00025480       ?BindColStr@CSqlBase@@QAEFFPADJ@Z 00426480 f   TNetLib:SqlBase.obj
 0001:000254b0       ?BindParam@CSqlBase@@QAEFFFPAE@Z 004264b0 f   TNetLib:SqlBase.obj
 0001:000254e0       ?BindParam@CSqlBase@@QAEFFFPAG@Z 004264e0 f   TNetLib:SqlBase.obj
 0001:00025510       ?BindParam@CSqlBase@@QAEFFFPAH@Z 00426510 f   TNetLib:SqlBase.obj
 0001:00025510       ?BindParam@CSqlBase@@QAEFFFPAK@Z 00426510 f   TNetLib:SqlBase.obj
 0001:00025540       ?BindParam@CSqlBase@@QAEFFFPAUtagTIMESTAMP_STRUCT@@@Z 00426540 f   TNetLib:SqlBase.obj
 0001:00025570       ?BindParamStr@CSqlBase@@QAEFFFPADJ@Z 00426570 f   TNetLib:SqlBase.obj
 0001:000255a0       ?Call@CSqlBase@@QAEHXZ     004265a0 f   TNetLib:SqlBase.obj
 0001:000255b0       ?Close@CSqlBase@@QAEXXZ    004265b0 f   TNetLib:SqlBase.obj
 0001:000255c0       ?Fetch@CSqlBase@@QAEHXZ    004265c0 f   TNetLib:SqlBase.obj
 0001:000257d0       ?FreeStatement@CSqlBase@@QAEXXZ 004267d0 f   TNetLib:SqlBase.obj
 0001:00025800       ?Open@CSqlBase@@QAEHH@Z    00426800 f   TNetLib:SqlBase.obj
 0001:00025b30       ??0CSqlQuery@@QAE@PAVCSqlDatabase@@V?$basic_string@DU?$char_traits@D@std@@V?$allocator@D@2@@std@@PBD@Z 00426b30 f   TNetLib:SqlQuery.obj
 0001:00025f30       ??1CSqlQuery@@UAE@XZ       00426f30 f   TNetLib:SqlQuery.obj
 0001:00026100       ??_ECSqlQuery@@UAEPAXI@Z   00427100 f i TNetLib:SqlQuery.obj
 0001:00026100       ??_GCSqlQuery@@UAEPAXI@Z   00427100 f i TNetLib:SqlQuery.obj
 0001:00026130       ?AllocStatement@CSqlQuery@@UAEHXZ 00427130 f   TNetLib:SqlQuery.obj
 0001:00026230       ?BindParameters@CSqlQuery@@UAEFH@Z 00427230 f   TNetLib:SqlQuery.obj
 0001:00026240       ?ResetKey@CSqlQuery@@QAEXXZ 00427240 f   TNetLib:SqlQuery.obj
 0001:00026260       ??$_Erase_tree@V?$allocator@U?$_Tree_node@U?$pair@$$CBV?$basic_string@DU?$char_traits@D@std@@V?$allocator@D@2@@std@@PAVCSqlQuery@@@std@@PAX@std@@@std@@@?$_Tree_val@U?$_Tree_simple_types@U?$pair@$$CBV?$basic_string@DU?$char_traits@D@std@@V?$allocator@D@2@@std@@PAVCSqlQuery@@@std@@@std@@@std@@QAEXAAV?$allocator@U?$_Tree_node@U?$pair@$$CBV?$basic_string@DU?$char_traits@D@std@@V?$allocator@D@2@@std@@PAVCSqlQuery@@@std@@PAX@std@@@1@PAU?$_Tree_node@U?$pair@$$CBV?$basic_string@DU?$char_traits@D@std@@V?$allocator@D@2@@std@@PAVCSqlQuery@@@std@@PAX@1@@Z 00427260 f i TNetLib:SqlDatabase.obj
 0001:000262f0       ??$_Find_lower_bound@V?$basic_string@DU?$char_traits@D@std@@V?$allocator@D@2@@std@@@?$_Tree@V?$_Tmap_traits@V?$basic_string@DU?$char_traits@D@std@@V?$allocator@D@2@@std@@PAVCSqlQuery@@U?$less@V?$basic_string@DU?$char_traits@D@std@@V?$allocator@D@2@@std@@@2@V?$allocator@U?$pair@$$CBV?$basic_string@DU?$char_traits@D@std@@V?$allocator@D@2@@std@@PAVCSqlQuery@@@std@@@2@$0A@@std@@@std@@IBE?AU?$_Tree_find_result@PAU?$_Tree_node@U?$pair@$$CBV?$basic_string@DU?$char_traits@D@std@@V?$allocator@D@2@@std@@PAVCSqlQuery@@@std@@PAX@std@@@1@ABV?$basic_string@DU?$char_traits@D@std@@V?$allocator@D@2@@1@@Z 004272f0 f i TNetLib:SqlDatabase.obj
 0001:000263e0       ??$_Freenode@V?$allocator@U?$_Tree_node@U?$pair@$$CBV?$basic_string@DU?$char_traits@D@std@@V?$allocator@D@2@@std@@PAVCSqlQuery@@@std@@PAX@std@@@std@@@?$_Tree_node@U?$pair@$$CBV?$basic_string@DU?$char_traits@D@std@@V?$allocator@D@2@@std@@PAVCSqlQuery@@@std@@PAX@std@@SAXAAV?$allocator@U?$_Tree_node@U?$pair@$$CBV?$basic_string@DU?$char_traits@D@std@@V?$allocator@D@2@@std@@PAVCSqlQuery@@@std@@PAX@std@@@1@PAU01@@Z 004273e0 f i TNetLib:SqlDatabase.obj
 0001:00026440       ??0CSqlDatabase@@QAE@XZ    00427440 f   TNetLib:SqlDatabase.obj
 0001:000264a0       ??1?$_Alloc_construct_ptr@V?$allocator@U?$_Tree_node@U?$pair@$$CBV?$basic_string@DU?$char_traits@D@std@@V?$allocator@D@2@@std@@PAVCSqlQuery@@@std@@PAX@std@@@std@@@std@@QAE@XZ 004274a0 f i TNetLib:SqlDatabase.obj
 0001:000264a0       ??1?$_Tree_temp_node_alloc@V?$allocator@U?$_Tree_node@U?$pair@$$CBV?$basic_string@DU?$char_traits@D@std@@V?$allocator@D@2@@std@@PAVCSqlQuery@@@std@@PAX@std@@@std@@@std@@QAE@XZ 004274a0 f i TNetLib:SqlDatabase.obj
 0001:000264c0       ??1CSqlDatabase@@UAE@XZ    004274c0 f   TNetLib:SqlDatabase.obj
 0001:00026530       ??R?$less@V?$basic_string@DU?$char_traits@D@std@@V?$allocator@D@2@@std@@@std@@QBE_NABV?$basic_string@DU?$char_traits@D@std@@V?$allocator@D@2@@1@0@Z 00427530 f i TNetLib:SqlDatabase.obj
 0001:000265e0       ??_ECSqlDatabase@@UAEPAXI@Z 004275e0 f i TNetLib:SqlDatabase.obj
 0001:000265e0       ??_GCSqlDatabase@@UAEPAXI@Z 004275e0 f i TNetLib:SqlDatabase.obj
 0001:00026660       ?AddQuery@CSqlDatabase@@QAEHPAVCSqlQuery@@V?$basic_string@DU?$char_traits@D@std@@V?$allocator@D@2@@std@@@Z 00427660 f   TNetLib:SqlDatabase.obj
 0001:00026810       ?Close@CSqlDatabase@@QAEXXZ 00427810 f   TNetLib:SqlDatabase.obj
 0001:000268d0       ?DelQuery@CSqlDatabase@@QAEPAVCSqlQuery@@V?$basic_string@DU?$char_traits@D@std@@V?$allocator@D@2@@std@@@Z 004278d0 f   TNetLib:SqlDatabase.obj
 0001:00026970       ?GetQuery@CSqlDatabase@@QAEPAVCSqlQuery@@V?$basic_string@DU?$char_traits@D@std@@V?$allocator@D@2@@std@@@Z 00427970 f   TNetLib:SqlDatabase.obj
 0001:00026a00       ?HDBC@CSqlDatabase@@QAEPAXXZ 00427a00 f   TNetLib:SqlDatabase.obj
 0001:00026a10       ?Open@CSqlDatabase@@QAEHPBD00@Z 00427a10 f   TNetLib:SqlDatabase.obj
 0001:00026ae0       ??0COverlappedEx@@QAE@XZ   00427ae0 f   TNetLib:Packet.obj
 0001:00026b10       ??0CPacket@@QAE@XZ         00427b10 f   TNetLib:Packet.obj
 0001:00026bd0       ??1COverlappedEx@@UAE@XZ   00427bd0 f   TNetLib:Packet.obj
 0001:00026be0       ??1CPacket@@UAE@XZ         00427be0 f   TNetLib:Packet.obj
 0001:00026c00       ??5CPacket@@QAEAAV0@AAE@Z  00427c00 f   TNetLib:Packet.obj
 0001:00026c50       ??5CPacket@@QAEAAV0@AAG@Z  00427c50 f   TNetLib:Packet.obj
 0001:00026cb0       ??5CPacket@@QAEAAV0@AAK@Z  00427cb0 f   TNetLib:Packet.obj
 0001:00026cb0       ??5CPacket@@QAEAAV0@AAM@Z  00427cb0 f   TNetLib:Packet.obj
 0001:00026d00       ??5CPacket@@QAEAAV0@AAV?$CStringT@DV?$StrTraitATL@DV?$ChTraitsCRT@D@ATL@@@ATL@@@ATL@@@Z 00427d00 f   TNetLib:Packet.obj
 0001:00026dc0       ??5CPacket@@QAEAAV0@AA_J@Z 00427dc0 f   TNetLib:Packet.obj
 0001:00026e20       ??6CPacket@@QAEAAV0@E@Z    00427e20 f   TNetLib:Packet.obj
 0001:00026e90       ??6CPacket@@QAEAAV0@G@Z    00427e90 f   TNetLib:Packet.obj
 0001:00026f00       ??6CPacket@@QAEAAV0@K@Z    00427f00 f   TNetLib:Packet.obj
 0001:00026f00       ??6CPacket@@QAEAAV0@M@Z    00427f00 f   TNetLib:Packet.obj
 0001:00026f70       ??6CPacket@@QAEAAV0@PBD@Z  00427f70 f   TNetLib:Packet.obj
 0001:00026ff0       ??6CPacket@@QAEAAV0@_J@Z   00427ff0 f   TNetLib:Packet.obj
 0001:00027060       ??_ECOverlappedEx@@UAEPAXI@Z 00428060 f i TNetLib:Packet.obj
 0001:00027060       ??_GCOverlappedEx@@UAEPAXI@Z 00428060 f i TNetLib:Packet.obj
 0001:00027090       ??_ECPacket@@UAEPAXI@Z     00428090 f i TNetLib:Packet.obj
 0001:00027090       ??_GCPacket@@UAEPAXI@Z     00428090 f i TNetLib:Packet.obj
 0001:000270d0       ?Clear@CPacket@@QAEXXZ     004280d0 f   TNetLib:Packet.obj
 0001:00027110       ?Copy@CPacket@@QAEXPAV1@@Z 00428110 f   TNetLib:Packet.obj
 0001:000271b0       ?CopyData@CPacket@@QAEXPAV1@G@Z 004281b0 f   TNetLib:Packet.obj
 0001:00027270       ?Decrypt@CPacket@@QAEH_J@Z 00428270 f   TNetLib:Packet.obj
 0001:000273f0       ?DecryptHeader@CPacket@@QAEX_J@Z 004283f0 f   TNetLib:Packet.obj
 0001:00027440       ?Encrypt@CPacket@@QAEX_J@Z 00428440 f   TNetLib:Packet.obj
 0001:000275b0       ?EncryptHeader@CPacket@@QAEX_J@Z 004285b0 f   TNetLib:Packet.obj
 0001:00027600       ?ExpandIoBuffer@CPacket@@QAEKK@Z 00428600 f   TNetLib:Packet.obj
 0001:00027680       ?Flush@CPacket@@QAEXXZ     00428680 f   TNetLib:Packet.obj
 0001:000276f0       ?GetBuffer@CPacket@@QAEPAEXZ 004286f0 f   TNetLib:Packet.obj
 0001:00027700       ?GetID@CPacket@@QAEGXZ     00428700 f   TNetLib:Packet.obj
 0001:00027720       ?GetReadBytes@CPacket@@QAEKXZ 00428720 f   TNetLib:Packet.obj
 0001:00027730       ?GetSize@CPacket@@QAEGXZ   00428730 f   TNetLib:Packet.obj
 0001:00027750       ?IsReadBufferFull@CPacket@@QAEHXZ 00428750 f   TNetLib:Packet.obj
 0001:00027780       ?Read@CPacket@@QAEXPAXH@Z  00428780 f   TNetLib:Packet.obj
 0001:000277e0       ?ReadBytes@CPacket@@QAEHK@Z 004287e0 f   TNetLib:Packet.obj
 0001:00027800       ?Rewind@CPacket@@QAEXH@Z   00428800 f   TNetLib:Packet.obj
 0001:00027830       ?SetID@CPacket@@QAEAAV1@G@Z 00428830 f   TNetLib:Packet.obj
 0001:00027850       ?Write@CPacket@@QAEXPAXH@Z 00428850 f   TNetLib:Packet.obj
 0001:000278d0       ??0CSession@@QAE@XZ        004288d0 f   TNetLib:Session.obj
 0001:00027a70       ??1CSession@@UAE@XZ        00428a70 f   TNetLib:Session.obj
 0001:00027b90       ??_ECSession@@UAEPAXI@Z    00428b90 f i TNetLib:Session.obj
 0001:00027b90       ??_GCSession@@UAEPAXI@Z    00428b90 f i TNetLib:Session.obj
 0001:00027cd0       ?CheckMessage@CSession@@QAEHXZ 00428cd0 f   TNetLib:Session.obj
 0001:00027db0       ?Close@CSession@@UAEXXZ    00428db0 f   TNetLib:Session.obj
 0001:00027e50       ?CloseSession@CSession@@QAEHXZ 00428e50 f   TNetLib:Session.obj
 0001:00027ea0       ?Connect@CSession@@QAEHPBDG0@Z 00428ea0 f   TNetLib:Session.obj
 0001:00027ff0       ?CreateSocket@CSession@@SAHAAI@Z 00428ff0 f   TNetLib:Session.obj
 0001:000280c0       ?Decrypt@CSession@@AAEHPAVCPacket@@@Z 004290c0 f   TNetLib:Session.obj
 0001:00028290       ?Flush@CSession@@QAEXXZ    00429290 f   TNetLib:Session.obj
 0001:00028300       ?Listen@CSession@@QAEHG@Z  00429300 f   TNetLib:Session.obj
 0001:000283a0       ?OnInvalidSession@CSession@@QAEHXZ 004293a0 f   TNetLib:Session.obj
 0001:00028420       ?Open@CSession@@UAEHIAAVCPacket@@@Z 00429420 f   TNetLib:Session.obj
 0001:00028460       ?Post@CSession@@QAEHXZ     00429460 f   TNetLib:Session.obj
 0001:000285e0       ?Read@CSession@@QAEHK@Z    004295e0 f   TNetLib:Session.obj
 0001:00028670       ?Say@CSession@@UAEHPAVCPacket@@@Z 00429670 f   TNetLib:Session.obj
 0001:000287e0       ?SendComplete@CSession@@QAEHK@Z 004297e0 f   TNetLib:Session.obj
 0001:000288e0       ?WaitForMessage@CSession@@QAEHXZ 004298e0 f   TNetLib:Session.obj
 0001:00028a00       ?EncryptBuffer@@YAHIPAEAAK0K0K@Z 00429a00 f   TNetLib:CryptographyExt.obj
 0001:00028bb0       ?TraceLastError@@YAXPBD0K@Z 00429bb0 f   TNetLib:CryptographyExt.obj
 0001:00028c82       ??0CAtlBaseModule@ATL@@QAE@XZ 00429c82 f   atls:atlbase.obj
 0001:00028cd5       ??0_ATL_BASE_MODULE70@ATL@@QAE@XZ 00429cd5 f i atls:atlbase.obj
 0001:00028cf8       ??1CAtlBaseModule@ATL@@QAE@XZ 00429cf8 f   atls:atlbase.obj
 0001:00028d0e       ??A?$CSimpleArray@PAUHINSTANCE__@@V?$CSimpleArrayEqualHelper@PAUHINSTANCE__@@@ATL@@@ATL@@QAEAAPAUHINSTANCE__@@H@Z 00429d0e f i atls:atlbase.obj
 0001:00028d31       ?GetHInstanceAt@CAtlBaseModule@ATL@@QAEPAUHINSTANCE__@@H@Z 00429d31 f   atls:atlbase.obj
 0001:00028d76       ?Init@CComCriticalSection@ATL@@QAEJXZ 00429d76 f i atls:atlbase.obj
 0001:00028da1       ?RemoveAll@?$CSimpleArray@PAUHINSTANCE__@@V?$CSimpleArrayEqualHelper@PAUHINSTANCE__@@@ATL@@@ATL@@QAEXXZ 00429da1 f i atls:atlbase.obj
 0001:00028dbe       ??0bad_alloc@std@@QAE@XZ   00429dbe f i libcpmt:xthrow.obj
 0001:00028dd6       ??0invalid_argument@std@@QAE@ABV01@@Z 00429dd6 f i libcpmt:xthrow.obj
 0001:00028df1       ??0invalid_argument@std@@QAE@PBD@Z 00429df1 f i libcpmt:xthrow.obj
 0001:00028e10       ??0length_error@std@@QAE@ABV01@@Z 00429e10 f i libcpmt:xthrow.obj
 0001:00028e2b       ??0length_error@std@@QAE@PBD@Z 00429e2b f i libcpmt:xthrow.obj
 0001:00028e4a       ??0logic_error@std@@QAE@ABV01@@Z 00429e4a f i libcpmt:xthrow.obj
 0001:00028e65       ??0out_of_range@std@@QAE@ABV01@@Z 00429e65 f i libcpmt:xthrow.obj
 0001:00028e80       ??0out_of_range@std@@QAE@PBD@Z 00429e80 f i libcpmt:xthrow.obj
 0001:00028e9f       ??0runtime_error@std@@QAE@PBD@Z 00429e9f f i libcpmt:xthrow.obj
 0001:00028ebe       ??_Ebad_exception@std@@UAEPAXI@Z 00429ebe f i libvcruntime:frame.obj
 0001:00028ebe       ??_Einvalid_argument@std@@UAEPAXI@Z 00429ebe f i libcpmt:xthrow.obj
 0001:00028ebe       ??_Elength_error@std@@UAEPAXI@Z 00429ebe f i libcpmt:xthrow.obj
 0001:00028ebe       ??_Elogic_error@std@@UAEPAXI@Z 00429ebe f i libcpmt:xthrow.obj
 0001:00028ebe       ??_Eout_of_range@std@@UAEPAXI@Z 00429ebe f i libcpmt:xthrow.obj
 0001:00028ebe       ??_Gbad_exception@std@@UAEPAXI@Z 00429ebe f i libvcruntime:frame.obj
 0001:00028ebe       ??_Ginvalid_argument@std@@UAEPAXI@Z 00429ebe f i libcpmt:xthrow.obj
 0001:00028ebe       ??_Glength_error@std@@UAEPAXI@Z 00429ebe f i libcpmt:xthrow.obj
 0001:00028ebe       ??_Glogic_error@std@@UAEPAXI@Z 00429ebe f i libcpmt:xthrow.obj
 0001:00028ebe       ??_Gout_of_range@std@@UAEPAXI@Z 00429ebe f i libcpmt:xthrow.obj
 0001:00028eeb       ?_Xbad_alloc@std@@YAXXZ    00429eeb f   libcpmt:xthrow.obj
 0001:00028eeb       ?__scrt_throw_std_bad_alloc@@YAXXZ 00429eeb f   LIBCMT:throw_bad_alloc.obj
 0001:00028f08       ?_Xinvalid_argument@std@@YAXPBD@Z 00429f08 f   libcpmt:xthrow.obj
 0001:00028f28       ?_Xlength_error@std@@YAXPBD@Z 00429f28 f   libcpmt:xthrow.obj
 0001:00028f48       ?_Xout_of_range@std@@YAXPBD@Z 00429f48 f   libcpmt:xthrow.obj
 0001:00028f68       ?_Xruntime_error@std@@YAXPBD@Z 00429f68 f   libcpmt:xthrow.obj
 0001:00028f88       ??0_Init_locks@std@@QAE@XZ 00429f88 f   libcpmt:xlock.obj
 0001:00028fb5       ??0_Lockit@std@@QAE@H@Z    00429fb5 f   libcpmt:xlock.obj
 0001:00028fe6       ??1_Init_locks@std@@QAE@XZ 00429fe6 f   libcpmt:xlock.obj
 0001:0002900d       ??1_Lockit@std@@QAE@XZ     0042a00d f   libcpmt:xlock.obj
 0001:0002902c       ?uncaught_exception@std@@YA_NXZ 0042a02c f   libcpmt:uncaught_exception.obj
 0001:00029040       ___std_find_trivial_1@12   0042a040 f   libcpmt:vector_algorithms.obj
 0001:00029106       ?_Syserror_map@std@@YAPBDH@Z 0042a106 f   libcpmt:syserror.obj
 0001:0002912b       ??0_Locimp@locale@std@@AAE@_N@Z 0042a12b f i libcpmt:locale0.obj
 0001:0002916c       ??1_Fac_node@std@@QAE@XZ   0042a16c f i libcpmt:locale0.obj
 0001:0002919d       ??1_Fac_tidy_reg_t@std@@QAE@XZ 0042a19d f i libcpmt:locale0.obj
 0001:000291c4       ??1_Locimp@locale@std@@MAE@XZ 0042a1c4 f i libcpmt:locale0.obj
 0001:000291ef       ??4?$_Yarn@D@std@@QAEAAV01@PBD@Z 0042a1ef f i libcpmt:locale0.obj
 0001:00029243       ??_E_Locimp@locale@std@@MAEPAXI@Z 0042a243 f i libcpmt:locale0.obj
 0001:00029243       ??_G_Locimp@locale@std@@MAEPAXI@Z 0042a243 f i libcpmt:locale0.obj
 0001:00029265       ?_Facet_Register@std@@YAXPAV_Facet_base@1@@Z 0042a265 f   libcpmt:locale0.obj
 0001:00029291       ?_Getgloballocale@locale@std@@CAPAV_Locimp@12@XZ 0042a291 f   libcpmt:locale0.obj
 0001:00029297       ?_Init@locale@std@@CAPAV_Locimp@12@_N@Z 0042a297 f   libcpmt:locale0.obj
 0001:00029324       ?_Locimp_dtor@_Locimp@locale@std@@CAXPAV123@@Z 0042a324 f   libcpmt:locale0.obj
 0001:00029394       ?_Locinfo_ctor@_Locinfo@std@@SAXPAV12@PBD@Z 0042a394 f   libcpmt:locale0.obj
 0001:000293df       ?_Locinfo_dtor@_Locinfo@std@@SAXPAV12@@Z 0042a3df f   libcpmt:locale0.obj
 0001:000293f9       ?_New_Locimp@_Locimp@locale@std@@CAPAV123@_N@Z 0042a3f9 f   libcpmt:locale0.obj
 0001:0002941c       ?_Setgloballocale@locale@std@@CAXPAX@Z 0042a41c f   libcpmt:locale0.obj
 0001:00029444       __Deletegloballocale       0042a444 f   libcpmt:locale0.obj
 0001:000294a9       __Getctype                 0042a4a9 f   libcpmt:_tolower.obj
 0001:00029514       __Tolower                  0042a514 f   libcpmt:_tolower.obj
 0001:00029620       __Getcvt                   0042a620 f   libcpmt:xwctomb.obj
 0001:00029693       __Toupper                  0042a693 f   libcpmt:_toupper.obj
 0001:0002979f       ?_Addstd@ios_base@std@@SAXPAV12@@Z 0042a79f f   libcpmt:ios.obj
 0001:000297f1       ?_Callfns@ios_base@std@@AAEXW4event@12@@Z 0042a7f1 f i libcpmt:ios.obj
 0001:00029824       ?_Ios_base_dtor@ios_base@std@@CAXPAV12@@Z 0042a824 f   libcpmt:ios.obj
 0001:00029864       ?_Tidy@ios_base@std@@AAEXXZ 0042a864 f i libcpmt:ios.obj
 0001:000298df       __Stolx                    0042a8df f   libcpmt:xstol.obj
 0001:00029983       __Stoulx                   0042a983 f   libcpmt:xstoul.obj
 0001:00029af5       __Stollx                   0042aaf5 f   libcpmt:xstoll.obj
 0001:00029bc0       __Stoullx                  0042abc0 f   libcpmt:xstoull.obj
 0001:00029d83       ??_D?$basic_istream@DU?$char_traits@D@std@@@std@@QAEXXZ 0042ad83 f i libcpmt:cin.obj
 0001:00029de4       ??0_Init_cout@std@@QAE@XZ  0042ade4 f i libcpmt:cout.obj
 0001:00029e24       __Mtxdst                   0042ae24 f   libcpmt:xmtx.obj
 0001:00029e32       __Mtxinit                  0042ae32 f   libcpmt:xmtx.obj
 0001:00029e47       __Mtxlock                  0042ae47 f   libcpmt:xmtx.obj
 0001:00029e55       __Mtxunlock                0042ae55 f   libcpmt:xmtx.obj
 0001:00029e63       ??1_Init_atexit@@QAE@XZ    0042ae63 f i libcpmt:iosptrs.obj
 0001:00029ecb       ?_Atexit@@YAXP6AXXZ@Z      0042aecb f   libcpmt:iosptrs.obj
 0001:00029efa       ??1?$__crt_scoped_stack_ptr@_W@@QAE@XZ 0042aefa f i libcpmt:StlLCMapStringA.obj
 0001:00029f13       ___crtLCMapStringA         0042af13 f   libcpmt:StlLCMapStringA.obj
 0001:0002a0df       __freea_crt                0042b0df f i libcpmt:StlLCMapStringA.obj
 0001:0002a0fd       _PdhRemoveCounter@4        0042b0fd f   pdh:pdh.dll
 0001:0002a103       _PdhCloseQuery@4           0042b103 f   pdh:pdh.dll
 0001:0002a109       ??2@YAPAXI@Z               0042b109 f   LIBCMT:new_scalar.obj
 0001:0002a139       ??3@YAXPAXI@Z              0042b139 f   LIBCMT:delete_scalar_size.obj
 0001:0002a147       @__security_check_cookie@4 0042b147 f   LIBCMT:secchk.obj
 0001:0002a155       ??_Etype_info@@UAEPAXI@Z   0042b155 f i LIBCMT:std_type_info_static.obj
 0001:0002a155       ??_Gtype_info@@UAEPAXI@Z   0042b155 f i LIBCMT:std_type_info_static.obj
 0001:0002a178       ??3@YAXPAX@Z               0042b178 f   LIBCMT:delete_scalar.obj
 0001:0002a1c1       ___scrt_acquire_startup_lock 0042b1c1 f   LIBCMT:utility.obj
 0001:0002a1f3       ___scrt_initialize_crt     0042b1f3 f   LIBCMT:utility.obj
 0001:0002a22c       ___scrt_initialize_onexit_tables 0042b22c f   LIBCMT:utility.obj
 0001:0002a2b3       ___scrt_is_nonwritable_in_current_image 0042b2b3 f   LIBCMT:utility.obj
 0001:0002a347       ___scrt_release_startup_lock 0042b347 f   LIBCMT:utility.obj
 0001:0002a364       ___scrt_uninitialize_crt   0042b364 f   LIBCMT:utility.obj
 0001:0002a38c       __onexit                   0042b38c f   LIBCMT:utility.obj
 0001:0002a3b9       _atexit                    0042b3b9 f   LIBCMT:utility.obj
 0001:0002a493       __Init_thread_footer       0042b493 f   LIBCMT:thread_safe_statics.obj
 0001:0002a4dd       __Init_thread_header       0042b4dd f   LIBCMT:thread_safe_statics.obj
 0001:0002a52f       __Init_thread_notify       0042b52f f   LIBCMT:thread_safe_statics.obj
 0001:0002a565       __Init_thread_wait         0042b565 f   LIBCMT:thread_safe_statics.obj
 0001:0002a5b3       ??_L@YGXPAXIIP6EX0@Z1@Z    0042b5b3 f   LIBCMT:ehvecctr.obj
 0001:0002a627       ??_M@YGXPAXIIP6EX0@Z@Z     0042b627 f   LIBCMT:ehvecdtr.obj
 0001:0002a6ac       ?__ArrayUnwind@@YGXPAXIIP6EX0@Z@Z 0042b6ac f   LIBCMT:ehvecdtr.obj
 0001:0002a740       ??_V@YAXPAX@Z              0042b740 f   LIBCMT:delete_array.obj
 0001:0002a750       __allmul                   0042b750 f   LIBCMT:llmul.obj
 0001:0002a9cb       _mainCRTStartup            0042b9cb f   LIBCMT:exe_main.obj
 0001:0002a9d5       ??_U@YAPAXI@Z              0042b9d5 f   LIBCMT:new_array.obj
 0001:0002a9de       ___raise_securityfailure   0042b9de f   LIBCMT:gs_report.obj
 0001:0002aa06       ___report_gsfailure        0042ba06 f   LIBCMT:gs_report.obj
 0001:0002ab00       ___report_rangecheckfailure 0042bb00 f   LIBCMT:gs_report.obj
 0001:0002ab0c       ___report_securityfailure  0042bb0c f   LIBCMT:gs_report.obj
 0001:0002abe0       __alloca_probe             0042bbe0 f   LIBCMT:chkstk.obj
 0001:0002abe0       __chkstk                   0042bbe0 f   LIBCMT:chkstk.obj
 0001:0002ac0b       ___isa_available_init      0042bc0b f   LIBCMT:cpu_disp.obj
 0001:0002addf       __EH_epilog3               0042bddf f   LIBCMT:ehprolg3.obj
 0001:0002adf3       __EH_epilog3_GS            0042bdf3 f   LIBCMT:ehprolg3.obj
 0001:0002ae02       __EH_prolog3               0042be02 f   LIBCMT:ehprolg3.obj
 0001:0002ae35       __EH_prolog3_GS            0042be35 f   LIBCMT:ehprolg3.obj
 0001:0002ae6b       __EH_prolog3_catch         0042be6b f   LIBCMT:ehprolg3.obj
 0001:0002aeb0       __aulldiv                  0042beb0 f   LIBCMT:ulldiv.obj
 0001:0002af20       __alloca_probe_16          0042bf20 f   LIBCMT:alloca16.obj
 0001:0002af36       __alloca_probe_8           0042bf36     LIBCMT:alloca16.obj
 0001:0002af4c       __get_startup_argv_mode    0042bf4c f   LIBCMT:argv_mode.obj
 0001:0002af50       ___scrt_is_ucrt_dll_in_use 0042bf50 f   LIBCMT:ucrt_detection.obj
 0001:0002af5c       ___scrt_fastfail           0042bf5c f   LIBCMT:utility_desktop.obj
 0001:0002b077       ___scrt_initialize_mta     0042c077 f   LIBCMT:utility_desktop.obj
 0001:0002b07c       ___scrt_is_managed_app     0042c07c f   LIBCMT:utility_desktop.obj
 0001:0002b0be       ___scrt_set_unhandled_exception_filter 0042c0be f   LIBCMT:utility_desktop.obj
 0001:0002b0ca       ___scrt_unhandled_exception_filter@4 0042c0ca f   LIBCMT:utility_desktop.obj
 0001:0002b120       __crt_debugger_hook        0042c120 f   LIBCMT:utility_desktop.obj
 0001:0002b130       __SEH_prolog4              0042c130 f   LIBCMT:sehprolg4.obj
 0001:0002b1c2       ___security_init_cookie    0042c1c2 f   LIBCMT:gs_support.obj
 0001:0002b20d       __get_startup_file_mode    0042c20d f   LIBCMT:file_mode.obj
 0001:0002b213       ?__scrt_initialize_type_info@@YAXXZ 0042c213 f   LIBCMT:tncleanup.obj
 0001:0002b21f       __initialize_default_precision 0042c21f f   LIBCMT:default_precision.obj
 0001:0002b240       ___local_stdio_scanf_options 0042c240 f i LIBCMT:default_local_stdio_options.obj
 0001:0002b246       ___scrt_initialize_default_local_stdio_options 0042c246 f   LIBCMT:default_local_stdio_options.obj
 0001:0002b263       ___scrt_is_user_matherr_present 0042c263 f   LIBCMT:matherr_detection.obj
 0001:0002b26f       ___scrt_get_dyn_tls_init_callback 0042c26f f   LIBCMT:dyn_tls_init.obj
 0001:0002b275       ___scrt_get_dyn_tls_dtor_callback 0042c275 f   LIBCMT:dyn_tls_dtor.obj
 0001:0002b27b       __RTC_Initialize           0042c27b f   LIBCMT:initsect.obj
 0001:0002b2a7       __RTC_Terminate            0042c2a7 f   LIBCMT:initsect.obj
 0001:0002b2d3       ___std_exception_copy      0042c2d3 f   libvcruntime:std_exception.obj
 0001:0002b336       ___std_exception_destroy   0042c336 f   libvcruntime:std_exception.obj
 0001:0002b355       __CxxThrowException@8      0042c355 f   libvcruntime:throw.obj
 0001:0002b3c1       ?GetRangeOfTrysToCheck@__FrameHandler3@@SA?AU?$pair@Viterator@TryBlockMap@__FrameHandler3@@V123@@std@@AAVTryBlockMap@1@HPAXPBU_s_FuncInfo@@H@Z 0042c3c1 f   libvcruntime:trnsctrl.obj
 0001:0002b431       ?_CallCatchBlock2@@YAPAXPAUEHRegistrationNode@@PBU_s_FuncInfo@@PAXHK@Z 0042c431 f   libvcruntime:trnsctrl.obj
 0001:0002b48e       ?_CallSETranslator@@YAHPAUEHExceptionRecord@@PAUEHRegistrationNode@@PAX2PBU_s_FuncInfo@@H1@Z 0042c48e f   libvcruntime:trnsctrl.obj
 0001:0002b584       ?_JumpToContinuation@@YGXPAXPAUEHRegistrationNode@@@Z 0042c584 f   libvcruntime:trnsctrl.obj
 0001:0002b5b4       ?_UnwindNestedFrames@@YGXPAUEHRegistrationNode@@PAUEHExceptionRecord@@@Z 0042c5b4 f   libvcruntime:trnsctrl.obj
 0001:0002b607       __CatchGuardHandler        0042c607 f   libvcruntime:trnsctrl.obj
 0001:0002b638       __CreateFrameInfo          0042c638 f   libvcruntime:trnsctrl.obj
 0001:0002b65c       __FindAndUnlinkFrame       0042c65c f   libvcruntime:trnsctrl.obj
 0001:0002b6a4       __TranslatorGuardHandler   0042c6a4 f   libvcruntime:trnsctrl.obj
 0001:0002b741       ___CxxFrameHandler3        0042c741 f   libvcruntime:trnsctrl.obj
 0001:0002b780       _memcpy                    0042c780 f   libvcruntime:memcpy.obj
 0001:0002b780       _memmove                   0042c780 f   libvcruntime:memmove.obj
 0001:0002bd00       _memset                    0042cd00 f   libvcruntime:memset.obj
 0001:0002be5a       ___DestructExceptionObject 0042ce5a f   libvcruntime:ehhelpers.obj
 0001:0002befb       ?_CallMemberFunction0@@YGXQAX0@Z 0042cefb f i libvcruntime:ehhelpers.obj
 0001:0002bf60       __IsExceptionObjectToBeDestroyed 0042cf60 f   libvcruntime:ehhelpers.obj
 0001:0002bf86       ___AdjustPointer           0042cf86 f   libvcruntime:ehhelpers.obj
 0001:0002bfab       ___FrameUnwindFilter       0042cfab f   libvcruntime:ehhelpers.obj
 0001:0002c001       ___current_exception       0042d001 f   libvcruntime:ehhelpers.obj
 0001:0002c00a       ___current_exception_context 0042d00a f   libvcruntime:ehhelpers.obj
 0001:0002c013       ___std_terminate           0042d013 f   libvcruntime:ehhelpers.obj
 0001:0002c018       __get_purecall_handler     0042d018 f   libvcruntime:purevirt.obj
 0001:0002c01f       __purecall                 0042d01f f   libvcruntime:purevirt.obj
 0001:0002c040       _strrchr                   0042d040 f   libvcruntime:strrchr.obj
 0001:0002c1c0       __except_handler4          0042d1c0 f   libvcruntime:chandler4.obj
 0001:0002c31e       ___uncaught_exception      0042d31e f   libvcruntime:uncaught_exception.obj
 0001:0002c340       _memchr                    0042d340 f   libvcruntime:memchr.obj
 0001:0002c3ed       _memcmp                    0042d3ed f   libvcruntime:memcmp.obj
 0001:0002da69       ___vcrt_initialize         0042ea69 f   libvcruntime:initialization.obj
 0001:0002da88       ___vcrt_uninitialize       0042ea88 f   libvcruntime:initialization.obj
 0001:0002da9f       ___std_type_info_compare   0042ea9f f   libvcruntime:std_type_info.obj
 0001:0002dadb       ___vcrt_freefls@4          0042eadb f   libvcruntime:per_thread_data.obj
 0001:0002daf7       ___vcrt_getptd             0042eaf7 f   libvcruntime:per_thread_data.obj
 0001:0002db05       ___vcrt_getptd_noexit      0042eb05 f   libvcruntime:per_thread_data.obj
 0001:0002db97       ___vcrt_getptd_noinit      0042eb97 f   libvcruntime:per_thread_data.obj
 0001:0002dbce       ___vcrt_initialize_ptd     0042ebce f   libvcruntime:per_thread_data.obj
 0001:0002dc01       ___vcrt_uninitialize_ptd   0042ec01 f   libvcruntime:per_thread_data.obj
 0001:0002e34e       ??$TypeMatchHelper@V__FrameHandler3@@@@YAHPBU_s_HandlerType@@PBU_s_CatchableType@@PBU_s_ThrowInfo@@@Z 0042f34e f i libvcruntime:frame.obj
 0001:0002e3dc       ??$__InternalCxxFrameHandler@V__FrameHandler3@@@@YA?AW4_EXCEPTION_DISPOSITION@@PAUEHExceptionRecord@@PAUEHRegistrationNode@@PAU_CONTEXT@@PAXPBU_s_FuncInfo@@H1E@Z 0042f3dc f i libvcruntime:frame.obj
 0001:0002e4de       ??$__InternalCxxFrameHandlerWrapper@V__FrameHandler3@@@@YA?AW4_EXCEPTION_DISPOSITION@@PAUEHExceptionRecord@@PAUEHRegistrationNode@@PAU_CONTEXT@@PAXPBU_s_FuncInfo@@H1E@Z 0042f4de f i libvcruntime:frame.obj
 0001:0002e4e7       ??0bad_exception@std@@QAE@ABV01@@Z 0042f4e7 f i libvcruntime:frame.obj
 0001:0002e502       ??0bad_exception@std@@QAE@XZ 0042f502 f i libvcruntime:frame.obj
 0001:0002e51a       ??8type_info@@QBE_NABV0@@Z 0042f51a f i libvcruntime:frame.obj
 0001:0002e791       ?FrameUnwindToEmptyState@__FrameHandler3@@SAXPAUEHRegistrationNode@@PAXPBU_s_FuncInfo@@@Z 0042f791 f   libvcruntime:frame.obj
 0001:0002e7a9       ?FrameUnwindToState@__FrameHandler3@@SAXPAUEHRegistrationNode@@PAXPBU_s_FuncInfo@@H@Z 0042f7a9 f   libvcruntime:frame.obj
 0001:0002e92b       ?_CallMemberFunction1@@YGXQAX00@Z 0042f92b f i libvcruntime:frame.obj
 0001:0002e93b       ?_CallMemberFunction2@@YGXQAX00H@Z 0042f93b f i libvcruntime:frame.obj
 0001:0002e94e       ?getESTypes@__FrameHandler3@@SAPBU_s_ESTypeList@@PBU_s_FuncInfo@@@Z 0042f94e f i libvcruntime:frame.obj
 0001:0002e960       __CallSettingFrame@12      0042f960 f   libvcruntime:lowhelpr.obj
 0001:0002e987       __NLG_Return               0042f987     libvcruntime:lowhelpr.obj
 0001:0002e9ac       ___except_validate_context_record 0042f9ac f   libvcruntime:jbcxrval.obj
 0001:0002e9e0       __local_unwind4            0042f9e0 f   libvcruntime:exsup4.obj
 0001:0002ead0       @_EH4_CallFilterFunc@8     0042fad0 f   libvcruntime:exsup4.obj
 0001:0002eaf0       @_EH4_TransferToHandler@8  0042faf0 f   libvcruntime:exsup4.obj
 0001:0002eb10       @_EH4_GlobalUnwind2@8      0042fb10 f   libvcruntime:exsup4.obj
 0001:0002eb30       @_EH4_LocalUnwind@16       0042fb30 f   libvcruntime:exsup4.obj
 0001:0002eb47       ___vcrt_initialize_locks   0042fb47 f   libvcruntime:locks.obj
 0001:0002eb83       ___vcrt_uninitialize_locks 0042fb83 f   libvcruntime:locks.obj
 0001:0002ec9d       ___vcrt_FlsAlloc           0042fc9d f   libvcruntime:winapi_downlevel.obj
 0001:0002ecd8       ___vcrt_FlsFree            0042fcd8 f   libvcruntime:winapi_downlevel.obj
 0001:0002ed13       ___vcrt_FlsGetValue        0042fd13 f   libvcruntime:winapi_downlevel.obj
 0001:0002ed4e       ___vcrt_FlsSetValue        0042fd4e f   libvcruntime:winapi_downlevel.obj
 0001:0002ed8c       ___vcrt_InitializeCriticalSectionEx 0042fd8c f   libvcruntime:winapi_downlevel.obj
 0001:0002edd3       _unexpected                0042fdd3 f   libvcruntime:unexpected.obj
 0001:0002edf0       ?GetCurrentState@__FrameHandler3@@SAHPAUEHRegistrationNode@@PAXPBU_s_FuncInfo@@@Z 0042fdf0 f   libvcruntime:ehstate.obj
 0001:0002ee0d       ?SetState@__FrameHandler3@@SAXPAUEHRegistrationNode@@PBU_s_FuncInfo@@H@Z 0042fe0d f   libvcruntime:ehstate.obj
 0001:0002ee20       __NLG_Notify1              0042fe20 f   libvcruntime:exsup.obj
 0001:0002ee30       __NLG_Notify               0042fe30 f   libvcruntime:exsup.obj
 0001:0002ee47       __NLG_Dispatch             0042fe47     libvcruntime:exsup.obj
 0001:0002ee47       __NLG_Dispatch2            0042fe47     libvcruntime:exsup.obj
 0001:0002ee50       __NLG_Call                 0042fe50 f   libvcruntime:exsup.obj
 0001:0002ee52       __NLG_Return2              0042fe52     libvcruntime:exsup.obj
 0001:0002ee53       ___acrt_call_reportfault   0042fe53 f   libucrt:invalid_parameter.obj
 0001:0002ef8c       ___acrt_initialize_invalid_parameter_handler 0042ff8c f   libucrt:invalid_parameter.obj
 0001:0002ef9b       __invalid_parameter        0042ff9b f   libucrt:invalid_parameter.obj
 0001:0002efff       __invalid_parameter_noinfo 0042ffff f   libucrt:invalid_parameter.obj
 0001:0002f00f       __invalid_parameter_noinfo_noreturn 0043000f f   libucrt:invalid_parameter.obj
 0001:0002f02c       __invoke_watson            0043002c f   libucrt:invalid_parameter.obj
 0001:0002f060       ___acrt_errno_from_os_error 00430060 f   libucrt:errno.obj
 0001:0002f0a3       ___acrt_errno_map_os_error 004300a3 f   libucrt:errno.obj
 0001:0002f0c6       ___doserrno                004300c6 f   libucrt:errno.obj
 0001:0002f0d9       __errno                    004300d9 f   libucrt:errno.obj
 0001:0002f55f       ??$count@D@formatting_buffer@__crt_stdio_output@@QBEIXZ 0043055f f i libucrt:output.obj
 0001:0002f577       ??$ensure_buffer_is_big_enough@D@formatting_buffer@__crt_stdio_output@@QAE_NI@Z 00430577 f i libucrt:output.obj
 0001:0002f5f4       ??$is_wide_character_specifier@D@__crt_stdio_output@@YA_N_KDW4length_modifier@0@@Z 004305f4 f i libucrt:output.obj
 0001:0002f625       ??$scratch_data@D@formatting_buffer@__crt_stdio_output@@QAEPADXZ 00430625 f i libucrt:output.obj
 0001:0002f643       ??$type_case_integer_parse_into_buffer@I@?$output_processor@DV?$string_output_adapter@D@__crt_stdio_output@@V?$format_validation_base@DV?$string_output_adapter@D@__crt_stdio_output@@@2@@__crt_stdio_output@@AAEXII_N@Z 00430643 f i libucrt:output.obj
 0001:0002f643       ??$type_case_integer_parse_into_buffer@I@?$output_processor@DV?$string_output_adapter@D@__crt_stdio_output@@V?$standard_base@DV?$string_output_adapter@D@__crt_stdio_output@@@2@@__crt_stdio_output@@AAEXII_N@Z 00430643 f i libucrt:output.obj
 0001:0002f6b6       ??$type_case_integer_parse_into_buffer@_K@?$output_processor@DV?$string_output_adapter@D@__crt_stdio_output@@V?$format_validation_base@DV?$string_output_adapter@D@__crt_stdio_output@@@2@@__crt_stdio_output@@AAEX_KI_N@Z 004306b6 f i libucrt:output.obj
 0001:0002f6b6       ??$type_case_integer_parse_into_buffer@_K@?$output_processor@DV?$string_output_adapter@D@__crt_stdio_output@@V?$standard_base@DV?$string_output_adapter@D@__crt_stdio_output@@@2@@__crt_stdio_output@@AAEX_KI_N@Z 004306b6 f i libucrt:output.obj
 0001:0002f744       ??$write_multiple_characters@V?$string_output_adapter@D@__crt_stdio_output@@D@__crt_stdio_output@@YAXABV?$string_output_adapter@D@0@DHQAH@Z 00430744 f i libucrt:output.obj
 0001:0002f770       ??0?$common_data@D@__crt_stdio_output@@IAE@XZ 00430770 f i libucrt:output.obj
 0001:0002f7b5       ??0?$output_adapter_data@DV?$string_output_adapter@D@__crt_stdio_output@@@__crt_stdio_output@@IAE@ABV?$string_output_adapter@D@1@_KQBDQAU__crt_locale_pointers@@QAD@Z 004307b5 f i libucrt:output.obj
 0001:0002f7f1       ??0_LocaleUpdate@@QAE@QAU__crt_locale_pointers@@@Z 004307f1 f i libucrt:output.obj
 0001:0002f874       ??1_LocaleUpdate@@QAE@XZ   00430874 f i libucrt:output.obj
 0001:0002f884       ??1formatting_buffer@__crt_stdio_output@@QAE@XZ 00430884 f i libucrt:output.obj
 0001:0002f89e       ??4?$__crt_unique_heap_ptr@DU__crt_internal_free_policy@@@@QAEAAV0@$$QAV0@@Z 0043089e f i libucrt:output.obj
 0001:0002f8d0       ?crop_zeroes@__crt_stdio_output@@YAXPADQAU__crt_locale_pointers@@@Z 004308d0 f i libucrt:output.obj
 0001:0002f951       ?find_next_state@?$output_processor@DV?$string_output_adapter@D@__crt_stdio_output@@V?$format_validation_base@DV?$string_output_adapter@D@__crt_stdio_output@@@2@@__crt_stdio_output@@ABE?AW4state@2@DW432@@Z 00430951 f i libucrt:output.obj
 0001:0002f988       ?find_next_state@?$output_processor@DV?$string_output_adapter@D@__crt_stdio_output@@V?$standard_base@DV?$string_output_adapter@D@__crt_stdio_output@@@2@@__crt_stdio_output@@ABE?AW4state@2@DW432@@Z 00430988 f i libucrt:output.obj
 0001:0002f9c0       ?force_decimal_point@__crt_stdio_output@@YAXPADQAU__crt_locale_pointers@@@Z 004309c0 f i libucrt:output.obj
 0001:0002fa25       ?parse_int_from_format_string@?$output_processor@DV?$string_output_adapter@D@__crt_stdio_output@@V?$format_validation_base@DV?$string_output_adapter@D@__crt_stdio_output@@@2@@__crt_stdio_output@@AAE_NQAH@Z 00430a25 f i libucrt:output.obj
 0001:0002fa25       ?parse_int_from_format_string@?$output_processor@DV?$string_output_adapter@D@__crt_stdio_output@@V?$standard_base@DV?$string_output_adapter@D@__crt_stdio_output@@@2@@__crt_stdio_output@@AAE_NQAH@Z 00430a25 f i libucrt:output.obj
 0001:0002fa99       ?process@?$output_processor@DV?$string_output_adapter@D@__crt_stdio_output@@V?$format_validation_base@DV?$string_output_adapter@D@__crt_stdio_output@@@2@@__crt_stdio_output@@QAEHXZ 00430a99 f i libucrt:output.obj
 0001:0002fbbd       ?process@?$output_processor@DV?$string_output_adapter@D@__crt_stdio_output@@V?$standard_base@DV?$string_output_adapter@D@__crt_stdio_output@@@2@@__crt_stdio_output@@QAEHXZ 00430bbd f i libucrt:output.obj
 0001:0002fcd1       ?state_case_flag@?$output_processor@DV?$string_output_adapter@D@__crt_stdio_output@@V?$format_validation_base@DV?$string_output_adapter@D@__crt_stdio_output@@@2@@__crt_stdio_output@@AAE_NXZ 00430cd1 f i libucrt:output.obj
 0001:0002fcd1       ?state_case_flag@?$output_processor@DV?$string_output_adapter@D@__crt_stdio_output@@V?$standard_base@DV?$string_output_adapter@D@__crt_stdio_output@@@2@@__crt_stdio_output@@AAE_NXZ 00430cd1 f i libucrt:output.obj
 0001:0002fd0e       ?state_case_normal@?$output_processor@DV?$string_output_adapter@D@__crt_stdio_output@@V?$format_validation_base@DV?$string_output_adapter@D@__crt_stdio_output@@@2@@__crt_stdio_output@@AAE_NXZ 00430d0e f i libucrt:output.obj
 0001:0002fd0e       ?state_case_normal@?$output_processor@DV?$string_output_adapter@D@__crt_stdio_output@@V?$standard_base@DV?$string_output_adapter@D@__crt_stdio_output@@@2@@__crt_stdio_output@@AAE_NXZ 00430d0e f i libucrt:output.obj
 0001:0002fd2d       ?state_case_normal_common@?$output_processor@DV?$string_output_adapter@D@__crt_stdio_output@@V?$format_validation_base@DV?$string_output_adapter@D@__crt_stdio_output@@@2@@__crt_stdio_output@@AAE_NXZ 00430d2d f i libucrt:output.obj
 0001:0002fd2d       ?state_case_normal_common@?$output_processor@DV?$string_output_adapter@D@__crt_stdio_output@@V?$standard_base@DV?$string_output_adapter@D@__crt_stdio_output@@@2@@__crt_stdio_output@@AAE_NXZ 00430d2d f i libucrt:output.obj
 0001:0002fd57       ?state_case_normal_tchar@?$output_processor@DV?$string_output_adapter@D@__crt_stdio_output@@V?$format_validation_base@DV?$string_output_adapter@D@__crt_stdio_output@@@2@@__crt_stdio_output@@AAE_ND@Z 00430d57 f i libucrt:output.obj
 0001:0002fd57       ?state_case_normal_tchar@?$output_processor@DV?$string_output_adapter@D@__crt_stdio_output@@V?$standard_base@DV?$string_output_adapter@D@__crt_stdio_output@@@2@@__crt_stdio_output@@AAE_ND@Z 00430d57 f i libucrt:output.obj
 0001:0002fdbb       ?state_case_precision@?$output_processor@DV?$string_output_adapter@D@__crt_stdio_output@@V?$format_validation_base@DV?$string_output_adapter@D@__crt_stdio_output@@@2@@__crt_stdio_output@@AAE_NXZ 00430dbb f i libucrt:output.obj
 0001:0002fdbb       ?state_case_precision@?$output_processor@DV?$string_output_adapter@D@__crt_stdio_output@@V?$standard_base@DV?$string_output_adapter@D@__crt_stdio_output@@@2@@__crt_stdio_output@@AAE_NXZ 00430dbb f i libucrt:output.obj
 0001:0002fde1       ?state_case_size@?$output_processor@DV?$string_output_adapter@D@__crt_stdio_output@@V?$format_validation_base@DV?$string_output_adapter@D@__crt_stdio_output@@@2@@__crt_stdio_output@@AAE_NXZ 00430de1 f i libucrt:output.obj
 0001:0002fde1       ?state_case_size@?$output_processor@DV?$string_output_adapter@D@__crt_stdio_output@@V?$standard_base@DV?$string_output_adapter@D@__crt_stdio_output@@@2@@__crt_stdio_output@@AAE_NXZ 00430de1 f i libucrt:output.obj
 0001:0002ff2f       ?state_case_type@?$output_processor@DV?$string_output_adapter@D@__crt_stdio_output@@V?$format_validation_base@DV?$string_output_adapter@D@__crt_stdio_output@@@2@@__crt_stdio_output@@AAE_NXZ 00430f2f f i libucrt:output.obj
 0001:0002ff2f       ?state_case_type@?$output_processor@DV?$string_output_adapter@D@__crt_stdio_output@@V?$standard_base@DV?$string_output_adapter@D@__crt_stdio_output@@@2@@__crt_stdio_output@@AAE_NXZ 00430f2f f i libucrt:output.obj
 0001:00030161       ?state_case_width@?$output_processor@DV?$string_output_adapter@D@__crt_stdio_output@@V?$format_validation_base@DV?$string_output_adapter@D@__crt_stdio_output@@@2@@__crt_stdio_output@@AAE_NXZ 00431161 f i libucrt:output.obj
 0001:00030161       ?state_case_width@?$output_processor@DV?$string_output_adapter@D@__crt_stdio_output@@V?$standard_base@DV?$string_output_adapter@D@__crt_stdio_output@@@2@@__crt_stdio_output@@AAE_NXZ 00431161 f i libucrt:output.obj
 0001:00030190       ?to_integer_size@__crt_stdio_output@@YAIW4length_modifier@1@@Z 00431190 f i libucrt:output.obj
 0001:000301ec       ?type_case_Z@?$output_processor@DV?$string_output_adapter@D@__crt_stdio_output@@V?$format_validation_base@DV?$string_output_adapter@D@__crt_stdio_output@@@2@@__crt_stdio_output@@AAE_NXZ 004311ec f i libucrt:output.obj
 0001:000301ec       ?type_case_Z@?$output_processor@DV?$string_output_adapter@D@__crt_stdio_output@@V?$standard_base@DV?$string_output_adapter@D@__crt_stdio_output@@@2@@__crt_stdio_output@@AAE_NXZ 004311ec f i libucrt:output.obj
 0001:00030246       ?type_case_a@?$output_processor@DV?$string_output_adapter@D@__crt_stdio_output@@V?$format_validation_base@DV?$string_output_adapter@D@__crt_stdio_output@@@2@@__crt_stdio_output@@AAE_NXZ 00431246 f i libucrt:output.obj
 0001:00030246       ?type_case_a@?$output_processor@DV?$string_output_adapter@D@__crt_stdio_output@@V?$standard_base@DV?$string_output_adapter@D@__crt_stdio_output@@@2@@__crt_stdio_output@@AAE_NXZ 00431246 f i libucrt:output.obj
 0001:00030397       ?type_case_c_tchar@?$output_processor@DV?$string_output_adapter@D@__crt_stdio_output@@V?$format_validation_base@DV?$string_output_adapter@D@__crt_stdio_output@@@2@@__crt_stdio_output@@AAE_ND@Z 00431397 f i libucrt:output.obj
 0001:00030397       ?type_case_c_tchar@?$output_processor@DV?$string_output_adapter@D@__crt_stdio_output@@V?$standard_base@DV?$string_output_adapter@D@__crt_stdio_output@@@2@@__crt_stdio_output@@AAE_ND@Z 00431397 f i libucrt:output.obj
 0001:0003042a       ?type_case_integer@?$output_processor@DV?$string_output_adapter@D@__crt_stdio_output@@V?$format_validation_base@DV?$string_output_adapter@D@__crt_stdio_output@@@2@@__crt_stdio_output@@AAE_NI_N@Z 0043142a f i libucrt:output.obj
 0001:0003042a       ?type_case_integer@?$output_processor@DV?$string_output_adapter@D@__crt_stdio_output@@V?$standard_base@DV?$string_output_adapter@D@__crt_stdio_output@@@2@@__crt_stdio_output@@AAE_NI_N@Z 0043142a f i libucrt:output.obj
 0001:0003057b       ?type_case_n@?$output_processor@DV?$string_output_adapter@D@__crt_stdio_output@@V?$format_validation_base@DV?$string_output_adapter@D@__crt_stdio_output@@@2@@__crt_stdio_output@@AAE_NXZ 0043157b f i libucrt:output.obj
 0001:0003057b       ?type_case_n@?$output_processor@DV?$string_output_adapter@D@__crt_stdio_output@@V?$standard_base@DV?$string_output_adapter@D@__crt_stdio_output@@@2@@__crt_stdio_output@@AAE_NXZ 0043157b f i libucrt:output.obj
 0001:000305ef       ?type_case_o@?$output_processor@DV?$string_output_adapter@D@__crt_stdio_output@@V?$format_validation_base@DV?$string_output_adapter@D@__crt_stdio_output@@@2@@__crt_stdio_output@@AAE_NXZ 004315ef f i libucrt:output.obj
 0001:000305ef       ?type_case_o@?$output_processor@DV?$string_output_adapter@D@__crt_stdio_output@@V?$standard_base@DV?$string_output_adapter@D@__crt_stdio_output@@@2@@__crt_stdio_output@@AAE_NXZ 004315ef f i libucrt:output.obj
 0001:0003060e       ?type_case_p@?$output_processor@DV?$string_output_adapter@D@__crt_stdio_output@@V?$format_validation_base@DV?$string_output_adapter@D@__crt_stdio_output@@@2@@__crt_stdio_output@@AAE_NXZ 0043160e f i libucrt:output.obj
 0001:0003060e       ?type_case_p@?$output_processor@DV?$string_output_adapter@D@__crt_stdio_output@@V?$standard_base@DV?$string_output_adapter@D@__crt_stdio_output@@@2@@__crt_stdio_output@@AAE_NXZ 0043160e f i libucrt:output.obj
 0001:00030626       ?type_case_s@?$output_processor@DV?$string_output_adapter@D@__crt_stdio_output@@V?$format_validation_base@DV?$string_output_adapter@D@__crt_stdio_output@@@2@@__crt_stdio_output@@AAE_NXZ 00431626 f i libucrt:output.obj
 0001:00030626       ?type_case_s@?$output_processor@DV?$string_output_adapter@D@__crt_stdio_output@@V?$standard_base@DV?$string_output_adapter@D@__crt_stdio_output@@@2@@__crt_stdio_output@@AAE_NXZ 00431626 f i libucrt:output.obj
 0001:00030697       ?validate@?$c_string_character_source@D@__crt_strtox@@QBE_NXZ 00431697 f i libucrt:atof.obj
 0001:00030697       ?validate@?$c_string_character_source@_W@__crt_strtox@@QBE_NXZ 00431697 f i libucrt:atof.obj
 0001:00030697       ?validate@?$string_output_adapter@D@__crt_stdio_output@@QBE_NXZ 00431697 f i libucrt:output.obj
 0001:000306b2       ?validate_and_update_state_at_end_of_format_string@?$format_validation_base@DV?$string_output_adapter@D@__crt_stdio_output@@@__crt_stdio_output@@IBE_NXZ 004316b2 f i libucrt:output.obj
 0001:000306d4       ?write_character@?$string_output_adapter@D@__crt_stdio_output@@QBE_NDQAH@Z 004316d4 f i libucrt:output.obj
 0001:00030716       ?write_stored_string_tchar@?$output_processor@DV?$string_output_adapter@D@__crt_stdio_output@@V?$format_validation_base@DV?$string_output_adapter@D@__crt_stdio_output@@@2@@__crt_stdio_output@@AAE_ND@Z 00431716 f i libucrt:output.obj
 0001:00030716       ?write_stored_string_tchar@?$output_processor@DV?$string_output_adapter@D@__crt_stdio_output@@V?$standard_base@DV?$string_output_adapter@D@__crt_stdio_output@@@2@@__crt_stdio_output@@AAE_ND@Z 00431716 f i libucrt:output.obj
 0001:000307bb       ?write_string@?$string_output_adapter@D@__crt_stdio_output@@QBEXQBDHQAHAAV__crt_deferred_errno_cache@@@Z 004317bb f i libucrt:output.obj
 0001:00030822       ___acrt_locale_get_ctype_array_value 00431822 f i libucrt:output.obj
 0001:00030844       ___stdio_common_vsnprintf_s 00431844 f   libucrt:output.obj
 0001:0003086b       ___stdio_common_vsprintf   0043186b f   libucrt:output.obj
 0001:0003088f       ___stdio_common_vsprintf_s 0043188f f   libucrt:output.obj
 0001:00030b42       __localtime64              00431b42 f   libucrt:localtime.obj
 0001:00030b69       __localtime64_s            00431b69 f   libucrt:localtime.obj
 0001:00030b74       __time64                   00431b74 f   libucrt:time.obj
 0001:00030bd2       __fclose_nolock            00431bd2 f   libucrt:fclose.obj
 0001:00030c49       _fclose                    00431c49 f   libucrt:fclose.obj
 0001:00030ccd       _feof                      00431ccd f   libucrt:feoferr.obj
 0001:00030db0       _fopen                     00431db0 f   libucrt:fopen.obj
 0001:00030dc7       _fopen_s                   00431dc7 f   libucrt:fopen.obj
 0001:00030e0e       __fread_nolock_s           00431e0e f   libucrt:fread.obj
 0001:00030ff4       _fread                     00431ff4 f   libucrt:fread.obj
 0001:00031011       _fread_s                   00432011 f   libucrt:fread.obj
 0001:000311cd       __fwrite_nolock            004321cd f   libucrt:fwrite.obj
 0001:0003134e       _fwrite                    0043234e f   libucrt:fwrite.obj
 0001:0003146b       _puts                      0043246b f   libucrt:puts.obj
 0001:00031559       _free                      00432559 f   libucrt:free.obj
 0001:00031574       _calloc                    00432574 f   libucrt:calloc.obj
 0001:0003157f       ??$assemble_floating_point_snan@N@__crt_strtox@@YAX_NAAN@Z 0043257f f i libucrt:atof.obj
 0001:000315a0       ??$assemble_floating_point_value_t@M@__crt_strtox@@YA?AW4SLD_STATUS@@_NH_KAAM@Z 004325a0 f i libucrt:atof.obj
 0001:000315d0       ??$assemble_floating_point_value_t@N@__crt_strtox@@YA?AW4SLD_STATUS@@_NH_KAAN@Z 004325d0 f i libucrt:atof.obj
 0001:00031676       ??$convert_decimal_string_to_floating_type@M@__crt_strtox@@YA?AW4SLD_STATUS@@ABUfloating_point_string@0@AAM@Z 00432676 f i libucrt:atof.obj
 0001:00031697       ??$convert_decimal_string_to_floating_type@N@__crt_strtox@@YA?AW4SLD_STATUS@@ABUfloating_point_string@0@AAN@Z 00432697 f i libucrt:atof.obj
 0001:000316b8       ??$convert_hexadecimal_string_to_floating_type@M@__crt_strtox@@YA?AW4SLD_STATUS@@ABUfloating_point_string@0@AAM@Z 004326b8 f i libucrt:atof.obj
 0001:000316d9       ??$convert_hexadecimal_string_to_floating_type@N@__crt_strtox@@YA?AW4SLD_STATUS@@ABUfloating_point_string@0@AAN@Z 004326d9 f i libucrt:atof.obj
 0001:000316fa       ??$parse_floating_point@V?$c_string_character_source@D@__crt_strtox@@M@__crt_strtox@@YA?AW4SLD_STATUS@@QAU__crt_locale_pointers@@V?$c_string_character_source@D@0@QAM@Z 004326fa f i libucrt:atof.obj
 0001:0003176e       ??$parse_floating_point@V?$c_string_character_source@D@__crt_strtox@@N@__crt_strtox@@YA?AW4SLD_STATUS@@QAU__crt_locale_pointers@@V?$c_string_character_source@D@0@QAN@Z 0043276e f i libucrt:atof.obj
 0001:000317e2       ??$parse_floating_point_from_source@V?$c_string_character_source@D@__crt_strtox@@@__crt_strtox@@YA?AW4floating_point_parse_result@0@QAU__crt_locale_pointers@@AAV?$c_string_character_source@D@0@AAUfloating_point_string@0@@Z 004327e2 f i libucrt:atof.obj
 0001:00031bcb       ??$parse_floating_point_possible_infinity@DV?$c_string_character_source@D@__crt_strtox@@PBD@__crt_strtox@@YA?AW4floating_point_parse_result@0@AADAAV?$c_string_character_source@D@0@PBD@Z 00432bcb f i libucrt:atof.obj
 0001:00031c6d       ??$parse_floating_point_possible_nan@DV?$c_string_character_source@D@__crt_strtox@@PBD@__crt_strtox@@YA?AW4floating_point_parse_result@0@AADAAV?$c_string_character_source@D@0@PBD@Z 00432c6d f i libucrt:atof.obj
 0001:00031d7c       ??$parse_floating_point_possible_nan_is_ind@DV?$c_string_character_source@D@__crt_strtox@@@__crt_strtox@@YA_NAADAAV?$c_string_character_source@D@0@@Z 00432d7c f i libucrt:atof.obj
 0001:00031db8       ??$parse_floating_point_possible_nan_is_snan@DV?$c_string_character_source@D@__crt_strtox@@@__crt_strtox@@YA_NAADAAV?$c_string_character_source@D@0@@Z 00432db8 f i libucrt:atof.obj
 0001:00031df4       ??$parse_floating_point_write_result@M@__crt_strtox@@YA?AW4SLD_STATUS@@W4floating_point_parse_result@0@ABUfloating_point_string@0@QAM@Z 00432df4 f i libucrt:atof.obj
 0001:00031f60       ??$parse_floating_point_write_result@N@__crt_strtox@@YA?AW4SLD_STATUS@@W4floating_point_parse_result@0@ABUfloating_point_string@0@QAN@Z 00432f60 f i libucrt:atof.obj
 0001:000320aa       ?as_double@floating_point_value@__crt_strtox@@QBEAANXZ 004330aa f i libucrt:atof.obj
 0001:000320cf       ?as_float@floating_point_value@__crt_strtox@@QBEAAMXZ 004330cf f i libucrt:atof.obj
 0001:000320f4       ?assemble_floating_point_infinity@__crt_strtox@@YAX_NABVfloating_point_value@1@@Z 004330f4 f i libucrt:atof.obj
 0001:00032134       ?assemble_floating_point_value@__crt_strtox@@YA?AW4SLD_STATUS@@_KH_N1ABVfloating_point_value@1@@Z 00433134 f i libucrt:atof.obj
 0001:00032489       ?assemble_floating_point_value_from_big_integer@__crt_strtox@@YA?AW4SLD_STATUS@@ABUbig_integer@1@I_N1ABVfloating_point_value@1@@Z 00433489 f i libucrt:atof.obj
 0001:0003261d       ?assemble_floating_point_zero@__crt_strtox@@YAX_NABVfloating_point_value@1@@Z 0043361d f i libucrt:atof.obj
 0001:00032652       ?convert_decimal_string_to_floating_type_common@__crt_strtox@@YA?AW4SLD_STATUS@@ABUfloating_point_string@1@ABVfloating_point_value@1@@Z 00433652 f i libucrt:atof.obj
 0001:00034326       ?convert_hexadecimal_string_to_floating_type_common@__crt_strtox@@YA?AW4SLD_STATUS@@ABUfloating_point_string@1@ABVfloating_point_value@1@@Z 00435326 f i libucrt:atof.obj
 0001:000343cc       ?denormal_mantissa_mask@floating_point_value@__crt_strtox@@QBE_KXZ 004353cc f i libucrt:atof.obj
 0001:000343f0       ?divide@__crt_strtox@@YA_KAAUbig_integer@1@ABU21@@Z 004353f0 f i libucrt:atof.obj
 0001:00034888       ?normal_mantissa_mask@floating_point_value@__crt_strtox@@QBE_KXZ 00435888 f i libucrt:atof.obj
 0001:0003489f       ?unget@?$c_string_character_source@D@__crt_strtox@@QAEXD@Z 0043589f f i libucrt:atof.obj
 0001:000348c8       ?unget@?$c_string_character_source@_W@__crt_strtox@@QAEX_W@Z 004358c8 f i libucrt:atof.obj
 0001:000348f6       __ischartype_l             004358f6 f i libucrt:atof.obj
 0001:0003494a       _atof                      0043594a f   libucrt:atof.obj
 0001:0003495d       ??$is_overflow_condition@K@__crt_strtox@@YA_NIK@Z 0043595d f i libucrt:atox.obj
 0001:0003498e       ??$parse_integer@KV?$c_string_character_source@D@__crt_strtox@@@__crt_strtox@@YAKQAU__crt_locale_pointers@@V?$c_string_character_source@D@0@H_N@Z 0043598e f i libucrt:atox.obj
 0001:00034bb1       ??$parse_integer@KV?$c_string_character_source@_W@__crt_strtox@@@__crt_strtox@@YAKQAU__crt_locale_pointers@@V?$c_string_character_source@_W@0@H_N@Z 00435bb1 f i libucrt:atox.obj
 0001:000351b9       __wtol                     004361b9 f   libucrt:atox.obj
 0001:000351dc       _atoi                      004361dc f   libucrt:atox.obj
 0001:00035317       ??$make_c_string_character_source@DPAPAD@__crt_strtox@@YA?AV?$c_string_character_source@D@0@QBDQAPAD@Z 00436317 f i libucrt:strtod.obj
 0001:00035317       ??$make_c_string_character_source@_WPAPA_W@__crt_strtox@@YA?AV?$c_string_character_source@_W@0@QB_WQAPA_W@Z 00436317 f i libucrt:strtod.obj
 0001:00035332       _strtod                    00436332 f   libucrt:strtod.obj
 0001:00035349       _strtof                    00436349 f   libucrt:strtod.obj
 0001:00035360       ??$__crt_time_elapsed_leap_years@_J@@YA_J_J@Z 00436360 f i libucrt:mktime.obj
 0001:000353c4       ??$__crt_time_is_leap_year@_J@@YA_N_J@Z 004363c4 f i libucrt:mktime.obj
 0001:000357d5       __mktime64                 004367d5 f   libucrt:mktime.obj
 0001:000357e8       __mbscmp                   004367e8 f   libucrt:mbscmp.obj
 0001:000357ff       __mbscmp_l                 004367ff f   libucrt:mbscmp.obj
 0001:000358e4       __mbscspn                  004368e4 f   libucrt:mbscspn.obj
 0001:000358fb       __mbscspn_l                004368fb f   libucrt:mbscspn.obj
 0001:000359d0       __mbsspn                   004369d0 f   libucrt:mbsspn.obj
 0001:000359e7       __mbsspn_l                 004369e7 f   libucrt:mbsspn.obj
 0001:00035abd       __mbsstr                   00436abd f   libucrt:mbsstr.obj
 0001:00035ad4       __mbsstr_l                 00436ad4 f   libucrt:mbsstr.obj
 0001:00035bc3       _ldexp                     00436bc3 f   libucrt:ldexp.obj
 0001:00035db5       _localeconv                00436db5 f   libucrt:localeconv.obj
 0001:00035de0       __libm_sse2_pow_precise    00436de0 f   libucrt:pow_sse2_precise.obj
 0001:00036930       _strnlen                   00437930 f   libucrt:strnlen.obj
 0001:00036a52       _wcsnlen                   00437a52 f   libucrt:strnlen.obj
 0001:00036c02       __mbsrchr                  00437c02 f   libucrt:mbsrchr.obj
 0001:00036c19       __mbsrchr_l                00437c19 f   libucrt:mbsrchr.obj
 0001:00036e29       ??$__acrt_mbs_to_wcs_cp@U__crt_win32_buffer_internal_dynamic_resizing@@@@YAHQBDAAV?$__crt_win32_buffer@_WU__crt_win32_buffer_internal_dynamic_resizing@@@@I@Z 00437e29 f i libucrt:strftime.obj
 0001:00036e46       ??$__acrt_wcs_to_mbs_cp@U__crt_win32_buffer_no_resizing@@@@YAHQB_WAAV?$__crt_win32_buffer@DU__crt_win32_buffer_no_resizing@@@@I@Z 00437e46 f i libucrt:strftime.obj
 0001:00036e63       ?_deallocate@?$__crt_win32_buffer@DU__crt_win32_buffer_internal_dynamic_resizing@@@@AAEXXZ 00437e63 f i libucrt:argv_wildcards.obj
 0001:00036e63       ?_deallocate@?$__crt_win32_buffer@_WU__crt_win32_buffer_internal_dynamic_resizing@@@@AAEXXZ 00437e63 f i libucrt:strftime.obj
 0001:00036e7d       ?allocate@?$__crt_win32_buffer@DU__crt_win32_buffer_no_resizing@@@@QAEHI@Z 00437e7d f i libucrt:strftime.obj
 0001:00036ea4       ?allocate@?$__crt_win32_buffer@_WU__crt_win32_buffer_internal_dynamic_resizing@@@@QAEHI@Z 00437ea4 f i libucrt:strftime.obj
 0001:00036ee3       ?allocate@__crt_win32_buffer_internal_dynamic_resizing@@SAHQAPAXIABV__crt_win32_buffer_empty_debug_info@@@Z 00437ee3 f i libucrt:strftime.obj
 0001:00036f02       ?set_to_nullptr@?$__crt_win32_buffer@DU__crt_win32_buffer_no_resizing@@@@QAEXXZ 00437f02 f i libucrt:strftime.obj
 0001:00036f16       __Strftime_l               00437f16 f   libucrt:strftime.obj
 0001:00037013       _strftime                  00438013 f   libucrt:strftime.obj
 0001:0003769f       __ftelli64                 0043869f f   libucrt:ftell.obj
 0001:000376aa       __ftelli64_nolock          004386aa f   libucrt:ftell.obj
 0001:000376b5       _ftell                     004386b5 f   libucrt:ftell.obj
 0001:000376c0       __fputc_nolock             004386c0 f   libucrt:fputc.obj
 0001:000376e9       _fputc                     004386e9 f   libucrt:fputc.obj
 0001:000377f3       __tolower_l                004387f3 f   libucrt:tolower_toupper.obj
 0001:000378f7       __toupper_l                004388f7 f   libucrt:tolower_toupper.obj
 0001:000379fc       _tolower                   004389fc f   libucrt:tolower_toupper.obj
 0001:00037a2c       _toupper                   00438a2c f   libucrt:tolower_toupper.obj
 0001:00037a5c       ___ascii_wcsicmp           00438a5c f   libucrt:wcsicmp.obj
 0001:00037a99       __towlower_internal        00438a99 f i libucrt:wcsicmp.obj
 0001:00037ad8       __wcsicmp                  00438ad8 f   libucrt:wcsicmp.obj
 0001:00037b21       __wcsicmp_l                00438b21 f   libucrt:wcsicmp.obj
 0001:00037e16       ___acrt_stdio_flush_nolock 00438e16 f   libucrt:fflush.obj
 0001:00037e7b       __fflush_nolock            00438e7b f   libucrt:fflush.obj
 0001:00037ec3       __flushall                 00438ec3 f   libucrt:fflush.obj
 0001:00037ecc       _fflush                    00438ecc f   libucrt:fflush.obj
 0001:00037f21       ?LongLongSub@@YAJ_J0PA_J@Z 00438f21 f i libucrt:fseek.obj
 0001:000381dd       __fseeki64                 004391dd f   libucrt:fseek.obj
 0001:000381f8       _fseek                     004391f8 f   libucrt:fseek.obj
 0001:00038220       _strcspn                   00439220 f   libucrt:strcspn.obj
 0001:00038266       __fgetc_nolock             00439266 f   libucrt:fgetc.obj
 0001:000382a2       _fgetc                     004392a2 f   libucrt:fgetc.obj
 0001:000383aa       ___acrt_initialize_stdio   004393aa f   libucrt:_file.obj
 0001:00038472       ___acrt_iob_func           00439472 f   libucrt:_file.obj
 0001:00038482       ___acrt_uninitialize_stdio 00439482 f   libucrt:_file.obj
 0001:000384ce       __get_stream_buffer_pointers 004394ce f   libucrt:_file.obj
 0001:00038514       __lock_file                00439514 f   libucrt:_file.obj
 0001:00038528       __unlock_file              00439528 f   libucrt:_file.obj
 0001:0003853c       _strtol                    0043953c f   libucrt:strtox.obj
 0001:00038566       _wcstol                    00439566 f   libucrt:strtox.obj
 0001:00038590       _fgetpos                   00439590 f   libucrt:fgetpos.obj
 0001:00038716       _setvbuf                   00439716 f   libucrt:setvbuf.obj
 0001:00038798       __ungetc_nolock            00439798 f   libucrt:ungetc.obj
 0001:00038892       _ungetc                    00439892 f   libucrt:ungetc.obj
 0001:00038905       _fsetpos                   00439905 f   libucrt:fsetpos.obj
 0001:00038940       __mbsicmp                  00439940 f   libucrt:mbsicmp.obj
 0001:00038957       __mbsicmp_l                00439957 f   libucrt:mbsicmp.obj
 0001:00038af9       __recalloc_base            00439af9 f   libucrt:recalloc.obj
 0001:00038b66       ___acrt_initialize_locks   00439b66 f   libucrt:locks.obj
 0001:00038ba7       ___acrt_lock               00439ba7 f   libucrt:locks.obj
 0001:00038bbe       ___acrt_uninitialize_locks 00439bbe f   libucrt:locks.obj
 0001:00038bef       ___acrt_unlock             00439bef f   libucrt:locks.obj
 0001:00038c06       __lock_locales             00439c06 f   libucrt:locks.obj
 0001:00038c14       __unlock_locales           00439c14 f   libucrt:locks.obj
 0001:00038c1d       _malloc                    00439c1d f   libucrt:malloc.obj
 0001:00038e7d       _setlocale                 00439e7d f   libucrt:setlocale.obj
 0001:00038eb5       ___pctype_func             00439eb5 f   libucrt:ctype.obj
 0001:00038ee0       _islower                   00439ee0 f   libucrt:_ctype.obj
 0001:00038f70       _isspace                   00439f70 f   libucrt:_ctype.obj
 0001:00039000       _isupper                   0043a000 f   libucrt:_ctype.obj
 0001:00039084       ____lc_codepage_func       0043a084 f   libucrt:initctype.obj
 0001:000390a9       ____lc_locale_name_func    0043a0a9 f   libucrt:initctype.obj
 0001:000390d0       ____mb_cur_max_func        0043a0d0 f   libucrt:initctype.obj
 0001:000390f5       ___acrt_locale_initialize_ctype 0043a0f5 f   libucrt:initctype.obj
 0001:00039553       __wcsdup                   0043a553 f   libucrt:wcsdup.obj
 0001:000395c0       __CIpow                    0043a5c0 f   libucrt:pow_impl.obj
 0001:000395fb       __CIpow_default            0043a5fb f   libucrt:pow_impl.obj
 0001:00039614       __pow_default              0043a614     libucrt:pow_impl.obj
 0001:00039809       _abort                     0043a809 f   libucrt:abort.obj
 0001:0003984d       ___strncnt                 0043a84d f   libucrt:strncnt.obj
 0001:00039869       ??$__crt_time_is_leap_year@H@@YA_NH@Z 0043a869 f i libucrt:wcsftime.obj
 0001:0003a8ef       __Wcsftime_l               0043b8ef f   libucrt:wcsftime.obj
 0001:0003aa60       ___acrt_initialize_new_handler 0043ba60 f   libucrt:new_handler.obj
 0001:0003aa6f       __callnewh                 0043ba6f f   libucrt:new_handler.obj
 0001:0003aa9c       __query_new_handler        0043ba9c f   libucrt:new_handler.obj
 0001:0003aaf8       __seh_filter_exe           0043baf8 f   libucrt:exception_filter.obj
 0001:0003ac9d       ??$__crt_fast_encode_pointer@P6AHPAU_exception@@@Z@@YAP6AHPAU_exception@@@ZQ6AH0@Z@Z 0043bc9d f i libucrt:matherr.obj
 0001:0003ac9d       ??$__crt_fast_encode_pointer@P6AHXZ@@YAP6AHXZQ6AHXZ@Z 0043bc9d f i libucrt:onexit.obj
 0001:0003ac9d       ??$__crt_fast_encode_pointer@P6GHPA_WKJ@Z@@YAP6GHPA_WKJ@ZQ6GH0KJ@Z@Z 0043bc9d f i libucrt:winapi_thunks.obj
 0001:0003ac9d       ??$__crt_fast_encode_pointer@P6GXPAXK0@Z@@YAP6GXPAXK0@ZQ6GX0K0@Z@Z 0043bc9d f i libucrt:exit.obj
 0001:0003ac9d       ??$__crt_fast_encode_pointer@PAP6AXXZ@@YAPAP6AXXZQAP6AXXZ@Z 0043bc9d f i libucrt:onexit.obj
 0001:0003ac9d       ??$__crt_fast_encode_pointer@PAX@@YAPAXQAX@Z 0043bc9d f i libucrt:initialization.obj
 0001:0003aee5       ___acrt_initialize_thread_local_exit_callback 0043bee5 f   libucrt:exit.obj
 0001:0003aef4       __c_exit                   0043bef4 f   libucrt:exit.obj
 0001:0003af03       __cexit                    0043bf03 f   libucrt:exit.obj
 0001:0003af12       __exit                     0043bf12 f   libucrt:exit.obj
 0001:0003af28       __register_thread_local_exe_atexit_callback 0043bf28 f   libucrt:exit.obj
 0001:0003af4e       _exit                      0043bf4e f   libucrt:exit.obj
 0001:0003b20e       ___acrt_allocate_buffer_for_argv 0043c20e f   libucrt:argv_parsing.obj
 0001:0003b25d       __configure_narrow_argv    0043c25d f   libucrt:argv_parsing.obj
 0001:0003b66d       ??$uninitialize@A6AXAAPAPAD@Z@?$dual_state_global@PAPAD@__crt_state_management@@QAEXA6AXAAPAPAD@Z@Z 0043c66d f i libucrt:environment_initialization.obj
 0001:0003b66d       ??$uninitialize@A6AXAAPAPA_W@Z@?$dual_state_global@PAPA_W@__crt_state_management@@QAEXA6AXAAPAPA_W@Z@Z 0043c66d f i libucrt:environment_initialization.obj
 0001:0003b6cc       ___dcrt_get_or_create_narrow_environment_nolock 0043c6cc f   libucrt:environment_initialization.obj
 0001:0003b6d1       ___dcrt_get_or_create_wide_environment_nolock 0043c6d1 f   libucrt:environment_initialization.obj
 0001:0003b6d6       ___dcrt_uninitialize_environments_nolock 0043c6d6 f   libucrt:environment_initialization.obj
 0001:0003b70d       __get_initial_narrow_environment 0043c70d f   libucrt:environment_initialization.obj
 0001:0003b721       __initialize_narrow_environment 0043c721 f   libucrt:environment_initialization.obj
 0001:0003b9df       __crt_atexit               0043c9df f   libucrt:onexit.obj
 0001:0003b9f5       __execute_onexit_table     0043c9f5 f   libucrt:onexit.obj
 0001:0003ba22       __initialize_onexit_table  0043ca22 f   libucrt:onexit.obj
 0001:0003ba4b       __register_onexit_function 0043ca4b f   libucrt:onexit.obj
 0001:0003bb79       ___acrt_initialize         0043cb79 f   libucrt:initialization.obj
 0001:0003bb8b       ___acrt_uninitialize       0043cb8b f   libucrt:initialization.obj
 0001:0003bbbb       _terminate                 0043cbbb f   libucrt:terminate.obj
 0001:0003bbf7       __errcode                  0043cbf7 f   libucrt:fpexcept.obj
 0001:0003bc2b       __except1                  0043cc2b f   libucrt:fpexcept.obj
 0001:0003bcf9       __except2                  0043ccf9 f   libucrt:fpexcept.obj
 0001:0003bddb       __handle_exc               0043cddb f   libucrt:fpexcept.obj
 0001:0003bfc6       __handle_qnan2             0043cfc6 f   libucrt:fpexcept.obj
 0001:0003bfd3       __raise_exc                0043cfd3 f   libucrt:fpexcept.obj
 0001:0003bff6       __raise_exc_ex             0043cff6 f   libucrt:fpexcept.obj
 0001:0003c2ec       __set_errno_from_matherr   0043d2ec f   libucrt:fpexcept.obj
 0001:0003c31b       __umatherr                 0043d31b f   libucrt:fpexcept.obj
 0001:0003c3bb       __query_app_type           0043d3bb f   libucrt:report_runtime_error.obj
 0001:0003c3c1       __set_app_type             0043d3c1 f   libucrt:report_runtime_error.obj
 0001:0003c3d0       ___acrt_has_user_matherr   0043d3d0 f   libucrt:matherr.obj
 0001:0003c3e8       ___acrt_initialize_user_matherr 0043d3e8 f   libucrt:matherr.obj
 0001:0003c3f7       ___acrt_invoke_user_matherr 0043d3f7 f   libucrt:matherr.obj
 0001:0003c429       ___setusermatherr          0043d429 f   libucrt:matherr.obj
 0001:0003c43e       __initterm                 0043d43e f   libucrt:initterm.obj
 0001:0003c483       __initterm_e               0043d483 f   libucrt:initterm.obj
 0001:0003c4b1       __get_fmode                0043d4b1 f   libucrt:setmode.obj
 0001:0003c4de       __set_fmode                0043d4de f   libucrt:setmode.obj
 0001:0003c51b       __setmode_nolock           0043d51b f   libucrt:setmode.obj
 0001:0003c5ea       ___acrt_initialize_command_line 0043d5ea f   libucrt:argv_data.obj
 0001:0003c603       ___p___argc                0043d603 f   libucrt:argv_data.obj
 0001:0003c609       ___p___argv                0043d609 f   libucrt:argv_data.obj
 0001:0003c70f       ??0_expandlocale_locale_name_cache@@QAE@QA_WIQAU__crt_qualified_locale_data@@@Z 0043d70f f i libucrt:wsetlocale.obj
 0001:0003c759       ??1_expandlocale_locale_name_cache@@QAE@XZ 0043d759 f i libucrt:wsetlocale.obj
 0001:0003c8f1       ?commit_locale_name@_expandlocale_locale_name_cache@@QAEXQB_WI@Z 0043d8f1 f i libucrt:wsetlocale.obj
 0001:0003c935       ?commit_locale_name_cache_already_updated@_expandlocale_locale_name_cache@@QAEXQB_WI@Z 0043d935 f i libucrt:wsetlocale.obj
 0001:0003c96a       ___acrt_copy_locale_name   0043d96a f   libucrt:wsetlocale.obj
 0001:0003c9ca       ___acrt_set_locale_changed 0043d9ca f   libucrt:wsetlocale.obj
 0001:0003c9d5       ___acrt_uninitialize_locale 0043d9d5 f   libucrt:wsetlocale.obj
 0001:0003c9fc       ___lc_lctowcs              0043d9fc f   libucrt:wsetlocale.obj
 0001:0003ca6c       ___lc_wcstolc              0043da6c f   libucrt:wsetlocale.obj
 0001:0003cbbc       __configthreadlocale       0043dbbc f   libucrt:wsetlocale.obj
 0001:0003d013       __wcscats                  0043e013 f   libucrt:wsetlocale.obj
 0001:0003d054       __wsetlocale               0043e054 f   libucrt:wsetlocale.obj
 0001:0003dd37       __query_new_mode           0043ed37 f   libucrt:new_mode.obj
 0001:0003dd3e       __set_new_mode             0043ed3e f   libucrt:new_mode.obj
 0001:0003dd6d       ___p__commode              0043ed6d f   libucrt:ncommode.obj
 0001:0003dd73       __controlfp_s              0043ed73 f   libucrt:contrlfp.obj
 0001:0003ddd2       _strcpy_s                  0043edd2 f   libucrt:strcpy_s.obj
 0001:0003de30       _strncmp                   0043ee30 f   libucrt:strncmp.obj
 0001:0003dea8       _wcsncmp                   0043eea8 f   libucrt:wcsncmp.obj
 0001:0003e220       ___acrt_getptd             0043f220 f   libucrt:per_thread_data.obj
 0001:0003e2dd       ___acrt_getptd_head        0043f2dd f   libucrt:per_thread_data.obj
 0001:0003e377       ___acrt_getptd_noexit      0043f377 f   libucrt:per_thread_data.obj
 0001:0003e42c       ___acrt_initialize_ptd     0043f42c f   libucrt:per_thread_data.obj
 0001:0003e458       ___acrt_uninitialize_ptd   0043f458 f   libucrt:per_thread_data.obj
 0001:0003e472       __free_base                0043f472 f   libucrt:free_base.obj
 0001:0003e4ac       __malloc_base              0043f4ac f   libucrt:malloc_base.obj
 0001:0003e4fa       __mbtowc_l                 0043f4fa f   libucrt:mbtowc.obj
 0001:0003e63c       _mbtowc                    0043f63c f   libucrt:mbtowc.obj
 0001:0003e656       __wctomb_s_l               0043f656 f   libucrt:wctomb.obj
 0001:0003e7b1       ___acrt_update_locale_info 0043f7b1 f   libucrt:locale_update.obj
 0001:0003e7de       ___acrt_update_multibyte_info 0043f7de f   libucrt:locale_update.obj
 0001:0003e80b       ?__acrt_fp_classify@@YA?AW4__acrt_fp_class@@ABN@Z 0043f80b f i libucrt:cvt.obj
 0001:0003f1be       ___acrt_fp_format          004401be f   libucrt:cvt.obj
 0001:0003f31a       __fileno                   0044031a f   libucrt:fileno.obj
 0001:0003f341       __get_printf_count_output  00440341 f   libucrt:printf_count_output.obj
 0001:0003f356       ___acrt_should_use_temporary_buffer 00440356 f   libucrt:_sftbuf.obj
 0001:0003f391       ___acrt_stdio_begin_temporary_buffering_nolock 00440391 f   libucrt:_sftbuf.obj
 0001:0003f43d       ___acrt_stdio_end_temporary_buffering_nolock 0044043d f   libucrt:_sftbuf.obj
 0001:0003f5e1       ___acrt_initialize_lowio   004405e1 f   libucrt:ioinit.obj
 0001:0003f641       ___acrt_uninitialize_lowio 00440641 f   libucrt:ioinit.obj
 0001:0003f66d       ___acrt_initialize_timeset 0044066d f   libucrt:timeset.obj
 0001:0003f6a2       ___daylight                004406a2 f   libucrt:timeset.obj
 0001:0003f6a8       ___dstbias                 004406a8 f   libucrt:timeset.obj
 0001:0003f6ae       ___timezone                004406ae f   libucrt:timeset.obj
 0001:0003f6b4       ___tzname                  004406b4 f   libucrt:timeset.obj
 0001:0003f6ba       ___wide_tzname             004406ba f   libucrt:timeset.obj
 0001:0003f6c0       __get_daylight             004406c0 f   libucrt:timeset.obj
 0001:0003f6ec       __get_dstbias              004406ec f   libucrt:timeset.obj
 0001:0003f718       __get_timezone             00440718 f   libucrt:timeset.obj
 0001:0003f744       ??$__crt_time_elapsed_leap_years@H@@YAHH@Z 00440744 f i libucrt:gmtime.obj
 0001:0003f981       ___getgmtimebuf            00440981 f   libucrt:gmtime.obj
 0001:0003f9bf       __gmtime64_s               004409bf f   libucrt:gmtime.obj
 0001:0003f9ca       ?__acrt_get_utf8_acp_compatibility_codepage@@YAIXZ 004409ca f i libucrt:tzset.obj
 0001:000402cc       ___tzset                   004412cc f   libucrt:tzset.obj
 0001:00040329       __isindst                  00441329 f   libucrt:tzset.obj
 0001:0004069d       ___acrt_AppPolicyGetProcessTerminationMethodInternal@4 0044169d f   libucrt:winapi_thunks.obj
 0001:000406dd       ___acrt_AreFileApisANSI@0  004416dd f   libucrt:winapi_thunks.obj
 0001:000406fc       ___acrt_CompareStringEx@36 004416fc f   libucrt:winapi_thunks.obj
 0001:00040759       ___acrt_EnumSystemLocalesEx@16 00441759 f   libucrt:winapi_thunks.obj
 0001:000407ad       ___acrt_FlsAlloc@4         004417ad f   libucrt:winapi_thunks.obj
 0001:000407ec       ___acrt_FlsFree@4          004417ec f   libucrt:winapi_thunks.obj
 0001:0004082b       ___acrt_FlsGetValue@4      0044182b f   libucrt:winapi_thunks.obj
 0001:0004086a       ___acrt_FlsSetValue@8      0044186a f   libucrt:winapi_thunks.obj
 0001:000408ac       ___acrt_GetDateFormatEx@28 004418ac f   libucrt:winapi_thunks.obj
 0001:00040903       ___acrt_GetLocaleInfoEx@16 00441903 f   libucrt:winapi_thunks.obj
 0001:00040942       ___acrt_GetTimeFormatEx@24 00441942 f   libucrt:winapi_thunks.obj
 0001:00040987       ___acrt_GetUserDefaultLocaleName@8 00441987 f   libucrt:winapi_thunks.obj
 0001:000409c3       ___acrt_InitializeCriticalSectionEx@12 004419c3 f   libucrt:winapi_thunks.obj
 0001:00040a0e       ___acrt_IsValidLocaleName@4 00441a0e f   libucrt:winapi_thunks.obj
 0001:00040a46       ___acrt_LCIDToLocaleName@16 00441a46 f   libucrt:winapi_thunks.obj
 0001:00040a85       ___acrt_LCMapStringEx@36   00441a85 f   libucrt:winapi_thunks.obj
 0001:00040ae2       ___acrt_LocaleNameToLCID@8 00441ae2 f   libucrt:winapi_thunks.obj
 0001:00040b13       ___acrt_can_use_vista_locale_apis 00441b13 f   libucrt:winapi_thunks.obj
 0001:00040b1e       ___acrt_eagerly_load_locale_apis 00441b1e f   libucrt:winapi_thunks.obj
 0001:00040b55       ___acrt_initialize_winapi_thunks 00441b55 f   libucrt:winapi_thunks.obj
 0001:00040b80       ___acrt_uninitialize_winapi_thunks 00441b80 f   libucrt:winapi_thunks.obj
 0001:00040c42       __close                    00441c42 f   libucrt:close.obj
 0001:00040ccf       __close_nolock             00441ccf f   libucrt:close.obj
 0001:00040d6b       ?__acrt_stdio_allocate_stream@@YA?AV__crt_stdio_stream@@XZ 00441d6b f   libucrt:stream.obj
 0001:00040dd4       ?__acrt_stdio_free_stream@@YAXV__crt_stdio_stream@@@Z 00441dd4 f   libucrt:stream.obj
 0001:00040ed1       ___acrt_stdio_free_buffer_nolock 00441ed1 f   libucrt:_freebuf.obj
 0001:00040f11       ??$__acrt_stdio_parse_mode@D@@YA?AU__acrt_stdio_stream_mode@@QBD@Z 00441f11 f i libucrt:openfile.obj
 0001:000411be       ?__acrt_stdio_parse_mode_D@@YA_NAAU__acrt_stdio_stream_mode@@@Z 004421be f i libucrt:openfile.obj
 0001:000411d9       ?__acrt_stdio_parse_mode_T@@YA_NAAU__acrt_stdio_stream_mode@@@Z 004421d9 f i libucrt:openfile.obj
 0001:000411f8       ?__acrt_stdio_parse_mode_b@@YA_NAAU__acrt_stdio_stream_mode@@@Z 004421f8 f i libucrt:openfile.obj
 0001:00041218       ?__acrt_stdio_parse_mode_c@@YA_NAAU__acrt_stdio_stream_mode@@AA_N@Z 00442218 f i libucrt:openfile.obj
 0001:0004123a       ?__acrt_stdio_parse_mode_n@@YA_NAAU__acrt_stdio_stream_mode@@AA_N@Z 0044223a f i libucrt:openfile.obj
 0001:0004125c       ?__acrt_stdio_parse_mode_plus@@YA_NAAU__acrt_stdio_stream_mode@@AA_N@Z 0044225c f i libucrt:openfile.obj
 0001:00041292       ?__acrt_stdio_parse_mode_t@@YA_NAAU__acrt_stdio_stream_mode@@@Z 00442292 f i libucrt:openfile.obj
 0001:000412b2       ?__acrt_stdio_parse_mode_x@@YA_NAAU__acrt_stdio_stream_mode@@@Z 004422b2 f i libucrt:openfile.obj
 0001:000412d2       __openfile                 004422d2 f   libucrt:openfile.obj
 0001:000417b2       __read                     004427b2 f   libucrt:read.obj
 0001:000418c6       __read_nolock              004428c6 f   libucrt:read.obj
 0001:00041e00       ___acrt_stdio_refill_and_read_narrow_nolock 00442e00 f   libucrt:_filbuf.obj
 0001:00042586       __write                    00443586 f   libucrt:write.obj
 0001:00042678       __write_nolock             00443678 f   libucrt:write.obj
 0001:00042a93       ___acrt_stdio_flush_and_write_narrow_nolock 00443a93 f   libucrt:_flsbuf.obj
 0001:00042a9e       __calloc_base              00443a9e f   libucrt:calloc_base.obj
 0001:00042afb       _iswctype                  00443afb f   libucrt:iswctype.obj
 0001:00042b64       __isctype_l                00443b64 f   libucrt:isctype.obj
 0001:00042c2f       _fegetround                00443c2f f   libucrt:fegetround.obj
 0001:00042c40       _strspn                    00443c40 f   libucrt:strspn.obj
 0001:00042c86       __copysign                 00443c86 f   libucrt:ieeemisc.obj
 0001:00042ca9       __fpclass                  00443ca9 f   libucrt:ieeemisc.obj
 0001:00042d4d       __decomp                   00443d4d f   libucrt:util.obj
 0001:00042e1f       __set_exp                  00443e1f f   libucrt:util.obj
 0001:00042e4c       __sptype                   00443e4c f   libucrt:util.obj
 0001:00042eaa       ___set_fpsr_sse2           00443eaa f   libucrt:fpctrl.obj
 0001:00042f2a       __clrfp                    00443f2a f   libucrt:fpctrl.obj
 0001:00042f3b       __ctrlfp                   00443f3b f   libucrt:fpctrl.obj
 0001:00042f65       __set_statfp               00443f65 f   libucrt:fpctrl.obj
 0001:00042fbe       __statfp                   00443fbe f   libucrt:fpctrl.obj
 0001:00042fce       ___libm_error_support      00443fce f   libucrt:libm_error.obj
 0001:000431c2       ___acrt_MultiByteToWideChar 004441c2 f   libucrt:multibytetowidechar.obj
 0001:0004323e       ___acrt_WideCharToMultiByte 0044423e f   libucrt:widechartomultibyte.obj
 0001:0004347d       __lseeki64                 0044447d f   libucrt:lseek.obj
 0001:00043498       __lseeki64_nolock          00444498 f   libucrt:lseek.obj
 0001:000434b3       __isleadbyte_l             004444b3 f i libucrt:_wctype.obj
 0001:000436d7       ___acrt_LCMapStringA       004446d7 f   libucrt:lcmapstringa.obj
 0001:00043720       __towlower_l               00444720 f   libucrt:towlower.obj
 0001:00043864       __commit                   00444864 f   libucrt:commit.obj
 0001:000438e1       __fcloseall                004448e1 f   libucrt:closeall.obj
 0001:0004398c       ___acrt_stdio_allocate_buffer_nolock 0044498c f   libucrt:_getbuf.obj
 0001:000439e8       __stricmp_l                004449e8 f   libucrt:stricmp.obj
 0001:00043a76       __msize_base               00444a76 f   libucrt:msize.obj
 0001:00043aa9       __realloc_base             00444aa9 f   libucrt:realloc_base.obj
 0001:00043cb5       __mbstowcs_s_l             00444cb5 f   libucrt:mbstowcs.obj
 0001:00043d95       _mbstowcs_s                00444d95 f   libucrt:mbstowcs.obj
 0001:00044054       __wcstombs_s_l             00445054 f   libucrt:wcstombs.obj
 0001:000441fa       ___acrt_GetLocaleInfoA     004451fa f   libucrt:getlocaleinfoa.obj
 0001:000443aa       ___acrt_GetStringTypeA     004453aa f   libucrt:getstringtypea.obj
 0001:000444ad       _wcscpy_s                  004454ad f   libucrt:wcscpy_s.obj
 0001:00044511       ___acrt_initialize_sse2    00445511 f   libucrt:mathfcns.obj
 0001:00044530       __CIpow_pentium4           00445530 f   libucrt:pow_pentium4.obj
 0001:00044549       __pow_pentium4             00445549     libucrt:pow_pentium4.obj
 0001:00045070       __fFEXP                    00446070 f   libucrt:87tran.obj
 0001:000450c7       __rtinfpopse               004460c7     libucrt:87tran.obj
 0001:000450c9       __rtinfnpopse              004460c9     libucrt:87tran.obj
 0001:000450d9       __fFLN                     004460d9     libucrt:87tran.obj
 0001:0004518e       __rtinfpop                 0044618e     libucrt:87tran.obj
 0001:00045190       __rtinfnpop                00446190     libucrt:87tran.obj
 0001:000451a0       __rtforexpinf              004461a0 f   libucrt:87tran.obj
 0001:000451ad       __ffexpm1                  004461ad     libucrt:87tran.obj
 0001:00045260       __trandisp1                00446260 f   libucrt:87disp.obj
 0001:000452d5       __trandisp2                004462d5 f   libucrt:87disp.obj
 0001:0004536f       __rttospopde               0044636f     libucrt:87disp.obj
 0001:00045374       __rttospop                 00446374     libucrt:87disp.obj
 0001:00045380       __rtnospop                 00446380 f   libucrt:87disp.obj
 0001:00045390       __rttosnpop                00446390 f   libucrt:87disp.obj
 0001:00045391       __rtnospopde               00446391     libucrt:87disp.obj
 0001:00045398       __rtzeropop                00446398     libucrt:87disp.obj
 0001:0004539a       __rtzeronpop               0044639a     libucrt:87disp.obj
 0001:000453a0       __rtzerospop               004463a0 f   libucrt:87disp.obj
 0001:000453ad       __rtonepop                 004463ad     libucrt:87disp.obj
 0001:000453b0       __rtonenpop                004463b0 f   libucrt:87disp.obj
 0001:000453c0       __tosnan1                  004463c0 f   libucrt:87disp.obj
 0001:000453f0       __nosnan2                  004463f0 f   libucrt:87disp.obj
 0001:00045400       __tosnan2                  00446400 f   libucrt:87disp.obj
 0001:00045430       __nan2                     00446430 f   libucrt:87disp.obj
 0001:00045470       __rtindfpop                00446470 f   libucrt:87disp.obj
 0001:00045472       __rtindfnpop               00446472     libucrt:87disp.obj
 0001:00045483       __rttosnpopde              00446483     libucrt:87disp.obj
 0001:00045490       __rtatan2inf               00446490 f   libucrt:87disp.obj
 0001:000454ad       __rtchsifneg               004464ad     libucrt:87disp.obj
 0001:000454c0       __startTwoArgErrorHandling 004464c0 f   libucrt:genexcep.obj
 0001:000454d7       __startOneArgErrorHandling 004464d7 f   libucrt:genexcep.obj
 0001:00045520       __twoToTOS                 00446520 f   libucrt:common.obj
 0001:00045535       __load_CW                  00446535 f   libucrt:common.obj
 0001:0004554c       __convertTOStoQNaN         0044654c f   libucrt:common.obj
 0001:00045565       __fload_withFB             00446565 f   libucrt:common.obj
 0001:000455a8       __checkTOS_withFB          004465a8 f   libucrt:common.obj
 0001:000455be       __fast_exit                004465be f   libucrt:common.obj
 0001:000455cb       __math_exit                004465cb f   libucrt:common.obj
 0001:000455f5       __check_overflow_exit      004465f5 f   libucrt:common.obj
 0001:00045609       __check_range_exit         00446609 f   libucrt:common.obj
 0001:000456ac       __d_inttype                004466ac f   libucrt:powhlp.obj
 0001:00045714       __powhlp                   00446714 f   libucrt:powhlp.obj
 0001:0004590d       ___acrt_get_sigabrt_handler 0044690d f   libucrt:signal.obj
 0001:00045934       ___acrt_initialize_signal_handlers 00446934 f   libucrt:signal.obj
 0001:00045952       _raise                     00446952 f   libucrt:signal.obj
 0001:00045b45       ___acrt_get_process_end_policy 00446b45 f   libucrt:win_policies.obj
 0001:00046154       ?allocate@?$__crt_win32_buffer@DU__crt_win32_buffer_internal_dynamic_resizing@@@@QAEHI@Z 00447154 f i libucrt:argv_wildcards.obj
 0001:00046217       ___acrt_expand_narrow_argv_wildcards 00447217 f   libucrt:argv_wildcards.obj
 0001:00046222       ___acrt_GetModuleFileNameA 00447222 f   libucrt:getmodulefilenamea.obj
 0001:000467db       ___acrt_initialize_multibyte 004477db f   libucrt:mbctype.obj
 0001:00046823       ___acrt_update_thread_multibyte_data 00447823 f   libucrt:mbctype.obj
 0001:00046836       __setmbcp_nolock           00447836 f   libucrt:mbctype.obj
 0001:00046a80       __ismbblead                00447a80 f   libucrt:ismbbyte.obj
 0001:00046acf       ___dcrt_get_narrow_environment_from_os 00447acf f   libucrt:get_environment_from_os.obj
 0001:00046b53       ___dcrt_get_wide_environment_from_os 00447b53 f   libucrt:get_environment_from_os.obj
 0001:00047283       ___dcrt_set_variable_in_narrow_environment_nolock 00448283 f   libucrt:setenv.obj
 0001:0004728e       ___dcrt_set_variable_in_wide_environment_nolock 0044828e f   libucrt:setenv.obj
 0001:00047299       ___acrt_initialize_heap    00448299 f   libucrt:heap_handle.obj
 0001:000472aa       ___acrt_uninitialize_heap  004482aa f   libucrt:heap_handle.obj
 0001:000472b4       ___acrt_execute_initializers 004482b4 f   libucrt:shared_initialization.obj
 0001:0004731c       ___acrt_execute_uninitializers 0044831c f   libucrt:shared_initialization.obj
 0001:0004734d       _wcscat_s                  0044834d f   libucrt:wcscat_s.obj
 0001:0004748d       _wcsncpy_s                 0044848d f   libucrt:wcsncpy_s.obj
 0001:00047498       ___acrt_lowio_create_handle_array 00448498 f   libucrt:osfinfo.obj
 0001:00047513       ___acrt_lowio_destroy_handle_array 00448513 f   libucrt:osfinfo.obj
 0001:00047548       ___acrt_lowio_ensure_fh_exists 00448548 f   libucrt:osfinfo.obj
 0001:000475e6       ___acrt_lowio_lock_fh      004485e6 f   libucrt:osfinfo.obj
 0001:00047609       ___acrt_lowio_set_os_handle 00448609 f   libucrt:osfinfo.obj
 0001:0004769b       ___acrt_lowio_unlock_fh    0044869b f   libucrt:osfinfo.obj
 0001:000476be       __alloc_osfhnd             004486be f   libucrt:osfinfo.obj
 0001:000477d1       __free_osfhnd              004487d1 f   libucrt:osfinfo.obj
 0001:00047862       __get_osfhandle            00448862 f   libucrt:osfinfo.obj
 0001:000478cc       ___acrt_initialize_fmode   004488cc f   libucrt:txtmode.obj
 0001:000478e2       ___acrt_locale_free_monetary 004488e2 f   libucrt:initmon.obj
 0001:000479e0       ___acrt_locale_initialize_monetary 004489e0 f   libucrt:initmon.obj
 0001:00047d96       ___acrt_locale_free_numeric 00448d96 f   libucrt:initnum.obj
 0001:00047dff       ___acrt_locale_initialize_numeric 00448dff f   libucrt:initnum.obj
 0001:000482c1       ___acrt_locale_free_time   004492c1 f   libucrt:inittime.obj
 0001:000483a5       ___acrt_locale_initialize_time 004493a5 f   libucrt:inittime.obj
 0001:00048507       _wcsncat_s                 00449507 f   libucrt:wcsncat_s.obj
 0001:00048512       _wcscspn                   00449512 f   libucrt:wcscspn.obj
 0001:0004856b       _wcspbrk                   0044956b f   libucrt:wcspbrk.obj
 0001:000485b9       ___acrt_add_locale_ref     004495b9 f   libucrt:locale_refcounting.obj
 0001:00048636       ___acrt_free_locale        00449636 f   libucrt:locale_refcounting.obj
 0001:0004877e       ___acrt_locale_add_lc_time_reference 0044977e f   libucrt:locale_refcounting.obj
 0001:000487a7       ___acrt_locale_free_lc_time_if_unreferenced 004497a7 f   libucrt:locale_refcounting.obj
 0001:000487d8       ___acrt_locale_release_lc_time_reference 004497d8 f   libucrt:locale_refcounting.obj
 0001:00048801       ___acrt_release_locale_ref 00449801 f   libucrt:locale_refcounting.obj
 0001:00048882       ___acrt_update_thread_locale_data 00449882 f   libucrt:locale_refcounting.obj
 0001:00048903       __updatetlocinfoEx_nolock  00449903 f   libucrt:locale_refcounting.obj
 0001:0004904f       ___acrt_get_qualified_locale 0044a04f f   libucrt:get_qualified_locale.obj
 0001:000499b0       ___acrt_get_qualified_locale_downlevel 0044a9b0 f   libucrt:getqloc_downlevel.obj
 0001:00049c4c       __clearfp                  0044ac4c f   libucrt:ieee87.obj
 0001:00049d2a       __control87                0044ad2a f   libucrt:ieee87.obj
 0001:0004a0f5       ?__mbrtowc_utf8@__crt_mbstring@@YAIPA_WPBDIPAU_Mbstatet@@@Z 0044b0f5 f   libucrt:mbrtowc.obj
 0001:0004a135       ?__mbsrtowcs_utf8@__crt_mbstring@@YAIPA_WPAPBDIPAU_Mbstatet@@@Z 0044b135 f   libucrt:mbrtowc.obj
 0001:0004a230       ?__c32rtomb_utf8@__crt_mbstring@@YAIPAD_UPAU_Mbstatet@@@Z 0044b230 f   libucrt:c32rtomb.obj
 0001:0004a2db       ?return_illegal_sequence@__crt_mbstring@@YAIPAU_Mbstatet@@@Z 0044b2db f i libucrt:c32rtomb.obj
 0001:0004a2fa       _c32rtomb                  0044b2fa f   libucrt:c32rtomb.obj
 0001:0004a37f       ___acrt_fp_strflt_to_string 0044b37f f   libucrt:_fptostr.obj
 0001:0004a45b       ___acrt_fltout             0044b45b f   libucrt:cfout.obj
 0001:0004b962       __isatty                   0044c962 f   libucrt:isatty.obj
 0001:0004bb52       __wgetenv_s                0044cb52 f   libucrt:getenv.obj
 0001:0004bbad       ___acrt_DownlevelLCIDToLocaleName 0044cbad f   libucrt:lcidtoname_downlevel.obj
 0001:0004bc57       ___acrt_DownlevelLocaleNameToLCID 0044cc57 f   libucrt:lcidtoname_downlevel.obj
 0001:0004bc83       ___ascii_wcsnicmp          0044cc83 f   libucrt:wcsnicmp.obj
 0001:0004bcd2       __wcsnicmp                 0044ccd2 f   libucrt:wcsnicmp.obj
 0001:0004bd1e       __wcsnicmp_l               0044cd1e f   libucrt:wcsnicmp.obj
 0001:0004bdf1       __strnicmp                 0044cdf1 f   libucrt:strnicmp.obj
 0001:0004be5e       __strnicmp_l               0044ce5e f   libucrt:strnicmp.obj
 0001:0004c4f4       __sopen_nolock             0044d4f4 f   libucrt:open.obj
 0001:0004c562       __sopen_s                  0044d562 f   libucrt:open.obj
 0001:0004c582       __wsopen_nolock            0044d582 f   libucrt:open.obj
 0001:0004c8ac       __putwch_nolock            0044d8ac f   libucrt:putwch.obj
 0001:0004c8de       ___acrt_GetStringTypeW     0044d8de f   libucrt:getstringtypew.obj
 0001:0004cc14       ___acrt_fenv_get_common_round_control 0044dc14 f   libucrt:_fenvutils.obj
 0001:0004cc36       ___acrt_fenv_get_control   0044dc36 f   libucrt:_fenvutils.obj
 0001:0004ccb6       ___acrt_fenv_get_status    0044dcb6 f   libucrt:_fenvutils.obj
 0001:0004cd6e       ___acrt_fenv_set_control   0044dd6e f   libucrt:_fenvutils.obj
 0001:0004cdd6       ___acrt_fenv_set_status    0044ddd6 f   libucrt:_fenvutils.obj
 0001:0004cecd       ___acrt_LCMapStringW       0044decd f   libucrt:lcmapstringw.obj
 0001:0004cf0b       ?__wcsrtombs_utf8@__crt_mbstring@@YAIPADPAPB_WIPAU_Mbstatet@@@Z 0044df0b f   libucrt:wcrtomb.obj
 0001:0004d0bc       _strncpy_s                 0044e0bc f   libucrt:strncpy_s.obj
 0001:0004d0c7       __87except                 0044e0c7 f   libucrt:87except.obj
 0001:0004d1d1       __frnd                     0044e1d1 f   libucrt:frnd.obj
 0001:0004d1f0       _qsort                     0044e1f0 f   libucrt:qsort.obj
 0001:0004d6e0       _strpbrk                   0044e6e0 f   libucrt:strpbrk.obj
 0001:0004d720       __mbsdec                   0044e720 f   libucrt:mbsdec.obj
 0001:0004d737       __mbsdec_l                 0044e737 f   libucrt:mbsdec.obj
 0001:0004d7d3       __wcsnicoll                0044e7d3 f   libucrt:wcsnicol.obj
 0001:0004d840       __wcsnicoll_l              0044e840 f   libucrt:wcsnicol.obj
 0001:0004d900       __strnicoll                0044e900 f   libucrt:strnicol.obj
 0001:0004d929       __strnicoll_l              0044e929 f   libucrt:strnicol.obj
 0001:0004d9f1       ___acrt_SetEnvironmentVariableA 0044e9f1 f   libucrt:setenvironmentvariablea.obj
 0001:0004dbab       __itow_s                   0044ebab f   libucrt:xtoa.obj
 0001:0004dbde       ?__mbrtoc32_utf8@__crt_mbstring@@YAIPA_UPBDIPAU_Mbstatet@@@Z 0044ebde f   libucrt:mbrtoc32.obj
 0001:0004dd85       _fegetenv                  0044ed85 f   libucrt:fegetenv.obj
 0001:0004dda2       _fesetenv                  0044eda2 f   libucrt:fesetenv.obj
 0001:0004dded       _feholdexcept              0044eded f   libucrt:feholdexcept.obj
 0001:0004de40       __CIlog10                  0044ee40 f   libucrt:log10_impl.obj
 0001:0004de7b       __CIlog10_default          0044ee7b f   libucrt:log10_impl.obj
 0001:0004de8f       __log10_default            0044ee8f     libucrt:log10_impl.obj
 0001:0004df50       _ceil                      0044ef50 f   libucrt:ceil_pentium4.obj
 0001:0004df90       __ceil_pentium4            0044ef90 f   libucrt:ceil_pentium4.obj
 0001:0004e070       ___ascii_strnicmp          0044f070 f   libucrt:_strnicm.obj
 0001:0004e0d1       ??0__crt_seek_guard@@QAE@H_J@Z 0044f0d1 f i libucrt:chsize.obj
 0001:0004e11e       __chsize_nolock            0044f11e f   libucrt:chsize.obj
 0001:0004e2ad       ___dcrt_lowio_ensure_console_output_initialized 0044f2ad f   libucrt:initcon.obj
 0001:0004e2cc       ___dcrt_terminate_console_output 0044f2cc f   libucrt:initcon.obj
 0001:0004e2e3       ___dcrt_write_console      0044f2e3 f   libucrt:initcon.obj
 0001:0004e338       ?__c16rtomb_utf8@__crt_mbstring@@YAIPAD_SPAU_Mbstatet@@@Z 0044f338 f   libucrt:c16rtomb.obj
 0001:0004e3d2       ___acrt_CompareStringW     0044f3d2 f   libucrt:comparestringw.obj
 0001:0004e6c2       ___acrt_CompareStringA     0044f6c2 f   libucrt:comparestringa.obj
 0001:0004e710       __CIlog10_pentium4         0044f710 f   libucrt:log10_pentium4.obj
 0001:0004e728       __log10_pentium4           0044f728     libucrt:log10_pentium4.obj
 0001:0004e9a0       __ceil_default             0044f9a0 f   libucrt:ceil.obj
 0001:0004ea55       _SQLAllocHandle@12         0044fa55 f   odbc32:ODBC32.dll
 0001:0004ea5b       _SQLBindCol@24             0044fa5b f   odbc32:ODBC32.dll
 0001:0004ea61       _SQLCloseCursor@4          0044fa61 f   odbc32:ODBC32.dll
 0001:0004ea67       _SQLExecute@4              0044fa67 f   odbc32:ODBC32.dll
 0001:0004ea6d       _SQLFetch@4                0044fa6d f   odbc32:ODBC32.dll
 0001:0004ea73       _SQLFreeHandle@8           0044fa73 f   odbc32:ODBC32.dll
 0001:0004ea79       _SQLGetDiagRec@32          0044fa79 f   odbc32:ODBC32.dll
 0001:0004ea7f       _SQLPrepare@12             0044fa7f f   odbc32:ODBC32.dll
 0001:0004ea85       _SQLMoreResults@4          0044fa85 f   odbc32:ODBC32.dll
 0001:0004ea8b       _SQLBindParameter@40       0044fa8b f   odbc32:ODBC32.dll
 0001:0004ea91       _SQLConnect@28             0044fa91 f   odbc32:ODBC32.dll
 0001:0004ea97       _SQLDisconnect@4           0044fa97 f   odbc32:ODBC32.dll
 0001:0004ea9d       _SQLSetEnvAttr@16          0044fa9d f   odbc32:ODBC32.dll
 0001:0004eab0       __FindPESection            0044fab0 f   LIBCMT:pesect.obj
 0001:0004eb00       __IsNonwritableInCurrentImage 0044fb00 f   LIBCMT:pesect.obj
 0001:0004ebc0       __ValidateImageBase        0044fbc0 f   LIBCMT:pesect.obj
 0001:0004ec00       __aulldvrm                 0044fc00 f   LIBCMT:ulldvrm.obj
 0001:0004eca0       __alldiv                   0044fca0 f   LIBCMT:lldiv.obj
 0001:0004ed50       __allrem                   0044fd50 f   LIBCMT:llrem.obj
 0001:0004ee10       __alldvrm                  0044fe10 f   LIBCMT:lldvrm.obj
 0001:0004eef0       __allshl                   0044fef0 f   LIBCMT:llshl.obj
 0001:0004ef10       __aullshr                  0044ff10 f   LIBCMT:ullshr.obj
 0001:0004ef30       __ftol2_sse                0044ff30 f   LIBCMT:ftol2.obj
 0001:0004ef40       __ftoi2                    0044ff40 f   LIBCMT:ftol2.obj
 0001:0004efc0       _strstr                    0044ffc0 f   libvcruntime:strstr.obj
 0001:0004f230       _strchr                    00450230 f   libvcruntime:strchr.obj
 0001:0004f29e       ___from_strstr_to_strchr   0045029e     libvcruntime:strchr.obj
 0001:0004f35b       _wcschr                    0045035b f   libvcruntime:wcschr.obj
 0001:0004f40b       __filter_x86_sse2_floating_point_exception 0045040b f   LIBCMT:x86_exception_filter.obj
 0001:0004f40b       __filter_x86_sse2_floating_point_exception_default 0045040b f   LIBCMT:x86_exception_filter.obj
 0001:00051cb0       ??__FstrHeap@?1??GetInstance@CAtlStringMgr@ATL@@SAPAUIAtlStringMgr@2@XZ@YAXXZ 00452cb0 f i DebugSocket.obj
 0001:00051ce0       ??__FstrMgr@?1??GetInstance@CAtlStringMgr@ATL@@SAPAUIAtlStringMgr@2@XZ@YAXXZ 00452ce0 f i DebugSocket.obj
 0002:00000000       __imp__CryptDestroyHash@4  00453000     advapi32:ADVAPI32.dll
 0002:00000004       __imp__CryptHashData@16    00453004     advapi32:ADVAPI32.dll
 0002:00000008       __imp__CryptCreateHash@20  00453008     advapi32:ADVAPI32.dll
 0002:0000000c       __imp__CryptEncrypt@28     0045300c     advapi32:ADVAPI32.dll
 0002:00000010       __imp__CryptDestroyKey@4   00453010     advapi32:ADVAPI32.dll
 0002:00000014       __imp__CryptDeriveKey@20   00453014     advapi32:ADVAPI32.dll
 0002:00000018       __imp__CryptReleaseContext@8 00453018     advapi32:ADVAPI32.dll
 0002:0000001c       __imp__CryptAcquireContextA@20 0045301c     advapi32:ADVAPI32.dll
 0002:00000020       __imp__StartServiceA@12    00453020     advapi32:ADVAPI32.dll
 0002:00000024       __imp__OpenServiceA@12     00453024     advapi32:ADVAPI32.dll
 0002:00000028       __imp__OpenSCManagerA@12   00453028     advapi32:ADVAPI32.dll
 0002:0000002c       __imp__ControlService@12   0045302c     advapi32:ADVAPI32.dll
 0002:00000030       __imp__CloseServiceHandle@4 00453030     advapi32:ADVAPI32.dll
 0002:00000034       __imp__ReportEventA@36     00453034     advapi32:ADVAPI32.dll
 0002:00000038       __imp__RegisterEventSourceA@8 00453038     advapi32:ADVAPI32.dll
 0002:0000003c       __imp__DeregisterEventSource@4 0045303c     advapi32:ADVAPI32.dll
 0002:00000040       \177ADVAPI32_NULL_THUNK_DATA 00453040     advapi32:ADVAPI32.dll
 0002:00000044       __imp__InitializeCriticalSection@4 00453044     kernel32:KERNEL32.dll
 0002:00000048       __imp__EnterCriticalSection@4 00453048     kernel32:KERNEL32.dll
 0002:0000004c       __imp__LeaveCriticalSection@4 0045304c     kernel32:KERNEL32.dll
 0002:00000050       __imp__DeleteCriticalSection@4 00453050     kernel32:KERNEL32.dll
 0002:00000054       __imp__FindResourceExW@16  00453054     kernel32:KERNEL32.dll
 0002:00000058       __imp__LoadResource@8      00453058     kernel32:KERNEL32.dll
 0002:0000005c       __imp__LockResource@4      0045305c     kernel32:KERNEL32.dll
 0002:00000060       __imp__SizeofResource@8    00453060     kernel32:KERNEL32.dll
 0002:00000064       __imp__FindResourceW@12    00453064     kernel32:KERNEL32.dll
 0002:00000068       __imp__lstrcpyA@8          00453068     kernel32:KERNEL32.dll
 0002:0000006c       __imp__WideCharToMultiByte@32 0045306c     kernel32:KERNEL32.dll
 0002:00000070       __imp__CloseHandle@4       00453070     kernel32:KERNEL32.dll
 0002:00000074       __imp__GetLastError@0      00453074     kernel32:KERNEL32.dll
 0002:00000078       __imp__CreateIoCompletionPort@16 00453078     kernel32:KERNEL32.dll
 0002:0000007c       __imp__PostQueuedCompletionStatus@16 0045307c     kernel32:KERNEL32.dll
 0002:00000080       __imp__GetTickCount@0      00453080     kernel32:KERNEL32.dll
 0002:00000084       __imp__DecodePointer@4     00453084     kernel32:KERNEL32.dll
 0002:00000088       __imp__InitializeCriticalSectionEx@12 00453088     kernel32:KERNEL32.dll
 0002:0000008c       __imp__RaiseException@16   0045308c     kernel32:KERNEL32.dll
 0002:00000090       __imp__GetQueuedCompletionStatus@20 00453090     kernel32:KERNEL32.dll
 0002:00000094       __imp__InitializeCriticalSectionAndSpinCount@8 00453094     kernel32:KERNEL32.dll
 0002:00000098       __imp__SetEvent@4          00453098     kernel32:KERNEL32.dll
 0002:0000009c       __imp__WaitForSingleObject@8 0045309c     kernel32:KERNEL32.dll
 0002:000000a0       __imp__CreateEventA@16     004530a0     kernel32:KERNEL32.dll
 0002:000000a4       __imp__WaitForMultipleObjects@16 004530a4     kernel32:KERNEL32.dll
 0002:000000a8       __imp__CreateThread@24     004530a8     kernel32:KERNEL32.dll
 0002:000000ac       __imp__ResumeThread@4      004530ac     kernel32:KERNEL32.dll
 0002:000000b0       __imp__GetProcessHeap@0    004530b0     kernel32:KERNEL32.dll
 0002:000000b4       __imp__lstrcmpA@8          004530b4     kernel32:KERNEL32.dll
 0002:000000b8       __imp__CreateFileA@28      004530b8     kernel32:KERNEL32.dll
 0002:000000bc       __imp__SetUnhandledExceptionFilter@4 004530bc     kernel32:KERNEL32.dll
 0002:000000c0       __imp__GetCurrentProcess@0 004530c0     kernel32:KERNEL32.dll
 0002:000000c4       __imp__GetCurrentProcessId@0 004530c4     kernel32:KERNEL32.dll
 0002:000000c8       __imp__GetCurrentThreadId@0 004530c8     kernel32:KERNEL32.dll
 0002:000000cc       __imp__GetLocalTime@4      004530cc     kernel32:KERNEL32.dll
 0002:000000d0       __imp__GetModuleFileNameA@12 004530d0     kernel32:KERNEL32.dll
 0002:000000d4       __imp__GetProcAddress@8    004530d4     kernel32:KERNEL32.dll
 0002:000000d8       __imp__LoadLibraryA@4      004530d8     kernel32:KERNEL32.dll
 0002:000000dc       __imp__IsBadReadPtr@8      004530dc     kernel32:KERNEL32.dll
 0002:000000e0       __imp__lstrlenA@4          004530e0     kernel32:KERNEL32.dll
 0002:000000e4       __imp__OutputDebugStringA@4 004530e4     kernel32:KERNEL32.dll
 0002:000000e8       __imp__LocalFree@4         004530e8     kernel32:KERNEL32.dll
 0002:000000ec       __imp__FormatMessageA@28   004530ec     kernel32:KERNEL32.dll
 0002:000000f0       __imp__SetConsoleTextAttribute@8 004530f0     kernel32:KERNEL32.dll
 0002:000000f4       __imp__SetConsoleTitleA@4  004530f4     kernel32:KERNEL32.dll
 0002:000000f8       __imp__GetStdHandle@4      004530f8     kernel32:KERNEL32.dll
 0002:000000fc       __imp__LCMapStringW@24     004530fc     kernel32:KERNEL32.dll
 0002:00000100       __imp__CompareStringW@24   00453100     kernel32:KERNEL32.dll
 0002:00000104       __imp__GetTimeFormatW@24   00453104     kernel32:KERNEL32.dll
 0002:00000108       __imp__GetDateFormatW@24   00453108     kernel32:KERNEL32.dll
 0002:0000010c       __imp__HeapSize@12         0045310c     kernel32:KERNEL32.dll
 0002:00000110       __imp__HeapFree@12         00453110     kernel32:KERNEL32.dll
 0002:00000114       __imp__HeapReAlloc@16      00453114     kernel32:KERNEL32.dll
 0002:00000118       __imp__HeapAlloc@12        00453118     kernel32:KERNEL32.dll
 0002:0000011c       __imp__HeapDestroy@4       0045311c     kernel32:KERNEL32.dll
 0002:00000120       __imp__GetLocaleInfoW@16   00453120     kernel32:KERNEL32.dll
 0002:00000124       __imp__IsValidLocale@8     00453124     kernel32:KERNEL32.dll
 0002:00000128       __imp__SetEndOfFile@4      00453128     kernel32:KERNEL32.dll
 0002:0000012c       __imp__GetUserDefaultLCID@0 0045312c     kernel32:KERNEL32.dll
 0002:00000130       __imp__EnumSystemLocalesW@8 00453130     kernel32:KERNEL32.dll
 0002:00000134       __imp__GetConsoleMode@8    00453134     kernel32:KERNEL32.dll
 0002:00000138       __imp__ReadConsoleW@20     00453138     kernel32:KERNEL32.dll
 0002:0000013c       __imp__GetConsoleOutputCP@0 0045313c     kernel32:KERNEL32.dll
 0002:00000140       __imp__GetFileSizeEx@8     00453140     kernel32:KERNEL32.dll
 0002:00000144       __imp__SetFilePointerEx@20 00453144     kernel32:KERNEL32.dll
 0002:00000148       __imp__FlushFileBuffers@4  00453148     kernel32:KERNEL32.dll
 0002:0000014c       __imp__WriteConsoleW@20    0045314c     kernel32:KERNEL32.dll
 0002:00000150       __imp__GetSystemInfo@4     00453150     kernel32:KERNEL32.dll
 0002:00000154       __imp__CreateFileW@28      00453154     kernel32:KERNEL32.dll
 0002:00000158       __imp__SetStdHandle@8      00453158     kernel32:KERNEL32.dll
 0002:0000015c       __imp__SetEnvironmentVariableW@8 0045315c     kernel32:KERNEL32.dll
 0002:00000160       __imp__FreeEnvironmentStringsW@4 00453160     kernel32:KERNEL32.dll
 0002:00000164       __imp__GetTimeZoneInformation@4 00453164     kernel32:KERNEL32.dll
 0002:00000168       __imp__GetEnvironmentStringsW@0 00453168     kernel32:KERNEL32.dll
 0002:0000016c       __imp__GetOEMCP@0          0045316c     kernel32:KERNEL32.dll
 0002:00000170       __imp__GetACP@0            00453170     kernel32:KERNEL32.dll
 0002:00000174       __imp__IsValidCodePage@4   00453174     kernel32:KERNEL32.dll
 0002:00000178       __imp__FindNextFileW@8     00453178     kernel32:KERNEL32.dll
 0002:0000017c       __imp__FindFirstFileExW@24 0045317c     kernel32:KERNEL32.dll
 0002:00000180       __imp__GetFileType@4       00453180     kernel32:KERNEL32.dll
 0002:00000184       __imp__GetCommandLineW@0   00453184     kernel32:KERNEL32.dll
 0002:00000188       __imp__GetCommandLineA@0   00453188     kernel32:KERNEL32.dll
 0002:0000018c       __imp__WriteFile@20        0045318c     kernel32:KERNEL32.dll
 0002:00000190       __imp__GetModuleFileNameW@12 00453190     kernel32:KERNEL32.dll
 0002:00000194       __imp__GetModuleHandleExW@12 00453194     kernel32:KERNEL32.dll
 0002:00000198       __imp__ExitProcess@4       00453198     kernel32:KERNEL32.dll
 0002:0000019c       __imp__ReadFile@20         0045319c     kernel32:KERNEL32.dll
 0002:000001a0       __imp__LoadLibraryExW@12   004531a0     kernel32:KERNEL32.dll
 0002:000001a4       __imp__FreeLibrary@4       004531a4     kernel32:KERNEL32.dll
 0002:000001a8       __imp__TlsFree@4           004531a8     kernel32:KERNEL32.dll
 0002:000001ac       __imp__TlsSetValue@8       004531ac     kernel32:KERNEL32.dll
 0002:000001b0       __imp__TlsGetValue@4       004531b0     kernel32:KERNEL32.dll
 0002:000001b4       __imp__TlsAlloc@0          004531b4     kernel32:KERNEL32.dll
 0002:000001b8       __imp__SetLastError@4      004531b8     kernel32:KERNEL32.dll
 0002:000001bc       __imp__RtlUnwind@16        004531bc     kernel32:KERNEL32.dll
 0002:000001c0       __imp__InitializeSListHead@4 004531c0     kernel32:KERNEL32.dll
 0002:000001c4       __imp__GetSystemTimeAsFileTime@4 004531c4     kernel32:KERNEL32.dll
 0002:000001c8       __imp__QueryPerformanceCounter@4 004531c8     kernel32:KERNEL32.dll
 0002:000001cc       __imp__GetStartupInfoW@4   004531cc     kernel32:KERNEL32.dll
 0002:000001d0       __imp__IsProcessorFeaturePresent@4 004531d0     kernel32:KERNEL32.dll
 0002:000001d4       __imp__IsDebuggerPresent@0 004531d4     kernel32:KERNEL32.dll
 0002:000001d8       __imp__OutputDebugStringW@4 004531d8     kernel32:KERNEL32.dll
 0002:000001dc       __imp__EncodePointer@4     004531dc     kernel32:KERNEL32.dll
 0002:000001e0       __imp__MultiByteToWideChar@24 004531e0     kernel32:KERNEL32.dll
 0002:000001e4       __imp__LCMapStringEx@36    004531e4     kernel32:KERNEL32.dll
 0002:000001e8       __imp__GetStringTypeW@16   004531e8     kernel32:KERNEL32.dll
 0002:000001ec       __imp__GetCPInfo@8         004531ec     kernel32:KERNEL32.dll
 0002:000001f0       __imp__ResetEvent@4        004531f0     kernel32:KERNEL32.dll
 0002:000001f4       __imp__WaitForSingleObjectEx@12 004531f4     kernel32:KERNEL32.dll
 0002:000001f8       __imp__CreateEventW@16     004531f8     kernel32:KERNEL32.dll
 0002:000001fc       __imp__GetModuleHandleW@4  004531fc     kernel32:KERNEL32.dll
 0002:00000200       __imp__UnhandledExceptionFilter@4 00453200     kernel32:KERNEL32.dll
 0002:00000204       __imp__TerminateProcess@8  00453204     kernel32:KERNEL32.dll
 0002:00000208       __imp__FindClose@4         00453208     kernel32:KERNEL32.dll
 0002:0000020c       \177KERNEL32_NULL_THUNK_DATA 0045320c     kernel32:KERNEL32.dll
 0002:00000210       __imp__AcceptEx@32         00453210     mswsock:MSWSOCK.dll
 0002:00000214       \177MSWSOCK_NULL_THUNK_DATA 00453214     mswsock:MSWSOCK.dll
 0002:00000218       __imp__SQLAllocHandle@12   00453218     odbc32:ODBC32.dll
 0002:0000021c       __imp__SQLBindCol@24       0045321c     odbc32:ODBC32.dll
 0002:00000220       __imp__SQLCloseCursor@4    00453220     odbc32:ODBC32.dll
 0002:00000224       __imp__SQLExecute@4        00453224     odbc32:ODBC32.dll
 0002:00000228       __imp__SQLFetch@4          00453228     odbc32:ODBC32.dll
 0002:0000022c       __imp__SQLFreeHandle@8     0045322c     odbc32:ODBC32.dll
 0002:00000230       __imp__SQLSetEnvAttr@16    00453230     odbc32:ODBC32.dll
 0002:00000234       __imp__SQLDisconnect@4     00453234     odbc32:ODBC32.dll
 0002:00000238       __imp__SQLConnect@28       00453238     odbc32:ODBC32.dll
 0002:0000023c       __imp__SQLBindParameter@40 0045323c     odbc32:ODBC32.dll
 0002:00000240       __imp__SQLMoreResults@4    00453240     odbc32:ODBC32.dll
 0002:00000244       __imp__SQLPrepare@12       00453244     odbc32:ODBC32.dll
 0002:00000248       __imp__SQLGetDiagRec@32    00453248     odbc32:ODBC32.dll
 0002:0000024c       \177ODBC32_NULL_THUNK_DATA 0045324c     odbc32:ODBC32.dll
 0002:00000250       __imp__LoadStringA@16      00453250     user32:USER32.dll
 0002:00000254       \177USER32_NULL_THUNK_DATA 00453254     user32:USER32.dll
 0002:00000258       __imp__ioctlsocket@12      00453258     ws2_32:WS2_32.dll
 0002:0000025c       __imp__closesocket@4       0045325c     ws2_32:WS2_32.dll
 0002:00000260       __imp__select@20           00453260     ws2_32:WS2_32.dll
 0002:00000264       __imp__bind@12             00453264     ws2_32:WS2_32.dll
 0002:00000268       __imp__setsockopt@20       00453268     ws2_32:WS2_32.dll
 0002:0000026c       __imp__listen@8            0045326c     ws2_32:WS2_32.dll
 0002:00000270       __imp__WSARecv@28          00453270     ws2_32:WS2_32.dll
 0002:00000274       __imp__WSASend@28          00453274     ws2_32:WS2_32.dll
 0002:00000278       __imp__WSAGetLastError@0   00453278     ws2_32:WS2_32.dll
 0002:0000027c       __imp__WSACleanup@0        0045327c     ws2_32:WS2_32.dll
 0002:00000280       __imp__WSAStartup@8        00453280     ws2_32:WS2_32.dll
 0002:00000284       __imp__inet_ntoa@4         00453284     ws2_32:WS2_32.dll
 0002:00000288       __imp__socket@12           00453288     ws2_32:WS2_32.dll
 0002:0000028c       __imp__send@16             0045328c     ws2_32:WS2_32.dll
 0002:00000290       __imp__inet_addr@4         00453290     ws2_32:WS2_32.dll
 0002:00000294       __imp__htons@4             00453294     ws2_32:WS2_32.dll
 0002:00000298       __imp__connect@12          00453298     ws2_32:WS2_32.dll
 0002:0000029c       __imp__WSASocketA@24       0045329c     ws2_32:WS2_32.dll
 0002:000002a0       \177WS2_32_NULL_THUNK_DATA 004532a0     ws2_32:WS2_32.dll
 0002:000002a4       __imp__CoReleaseServerProcess@0 004532a4     ole32:ole32.dll
 0002:000002a8       __imp__CoCreateInstance@20 004532a8     ole32:ole32.dll
 0002:000002ac       __imp__CoAddRefServerProcess@0 004532ac     ole32:ole32.dll
 0002:000002b0       \177ole32_NULL_THUNK_DATA  004532b0     ole32:ole32.dll
 0002:000002b4       __imp__PdhCloseQuery@4     004532b4     pdh:pdh.dll
 0002:000002b8       __imp__PdhRemoveCounter@4  004532b8     pdh:pdh.dll
 0002:000002bc       \177pdh_NULL_THUNK_DATA    004532bc     pdh:pdh.dll
 0002:000002c0       ___guard_check_icall_fptr  004532c0     LIBCMT:guard_support.obj
 0002:000002c4       ___castguard_check_failure_os_handled_fptr 004532c4     LIBCMT:guard_support.obj
 0002:000002c8       ___xc_a                    004532c8     LIBCMT:initializers.obj
 0002:00000328       ___xc_z                    00453328     LIBCMT:initializers.obj
 0002:0000032c       ___xi_a                    0045332c     LIBCMT:initializers.obj
 0002:0000033c       ___acrt_stdio_initializer  0045333c     libucrt:stdio_initializer.obj
 0002:00000340       ___acrt_timeset_initializer 00453340     libucrt:timeset_initializer.obj
 0002:00000344       ___acrt_tran_sse2_initializer 00453344     libucrt:sse2_initializer.obj
 0002:00000348       ___acrt_multibyte_initializer 00453348     libucrt:multibyte_initializer.obj
 0002:0000034c       ___acrt_fmode_initializer  0045334c     libucrt:fmode_initializer.obj
 0002:00000350       ___xi_z                    00453350     LIBCMT:initializers.obj
 0002:00000354       ___xl_a                    00453354     LIBCMT:tlssup.obj
 0002:00000358       ___xl_z                    00453358     LIBCMT:tlssup.obj
 0002:0000035c       ___xp_a                    0045335c     LIBCMT:initializers.obj
 0002:00000360       ___acrt_locale_terminator  00453360     libucrt:locale_initializer.obj
 0002:00000364       ___dcrt_console_output_terminator 00453364     libucrt:console_output_initializer.obj
 0002:00000368       ___acrt_stdio_terminator   00453368     libucrt:stdio_initializer.obj
 0002:0000036c       ___xp_z                    0045336c     LIBCMT:initializers.obj
 0002:00000370       ___xt_a                    00453370     LIBCMT:initializers.obj
 0002:00000374       ___xt_z                    00453374     LIBCMT:initializers.obj
 0002:00000388       ??_7exception@std@@6B@     00453388     DBAccess.obj
 0002:00000394       ??_7bad_alloc@std@@6B@     00453394     DBAccess.obj
 0002:000003a0       ??_7bad_array_new_length@std@@6B@ 004533a0     DBAccess.obj
 0002:000003ac       ??_7CTBLMachine@@6B@       004533ac     DBAccess.obj
 0002:000003c4       ??_C@_0DC@KCBFKODM@SELECT?5bMachineID?0?5szName?0?5bRou@ 004533c4     DBAccess.obj
 0002:000003fc       ??_7CTBLNetwork@@6B@       004533fc     DBAccess.obj
 0002:00000414       ??_C@_0CL@JHHHMODB@SELECT?5bMachineID?0?5szNetwork?5FR@ 00453414     DBAccess.obj
 0002:00000444       ??_7CTBLGroup@@6B@         00453444     DBAccess.obj
 0002:0000045c       ??_C@_0CE@NAMDJJMH@SELECT?5bGroupID?0?5szName?5FROM?5TG@ 0045345c     DBAccess.obj
 0002:00000484       ??_7CTBLSvrType@@6B@       00453484     DBAccess.obj
 0002:0000049c       ??_C@_0DG@DNMNECGE@SELECT?5bType?0?5szName?5FROM?5TSVRT@ 0045349c     DBAccess.obj
 0002:000004d8       ??_7CTBLServer@@6B@        004534d8     DBAccess.obj
 0002:000004f0       ??_C@_0FL@IAHCANBE@SELECT?5bGroupID?0?5bServerID?0?5bTy@ 004534f0     DBAccess.obj
 0002:00000550       ??_7CTBLIPAddr@@6B@        00453550     DBAccess.obj
 0002:00000568       ??_C@_0EN@EENJEFM@SELECT?5szIPAddr?0?5szPriAddr?5FROM@ 00453568     DBAccess.obj
 0002:000005bc       ??_7CTBLManager@@6B@       004535bc     DBAccess.obj
 0002:000005d4       ??_C@_0DA@EKOCNMJJ@SELECT?5szID?0?5szPasswd?0?5bAuthori@ 004535d4     DBAccess.obj
 0002:00000608       ??_7CTBLEvent@@6B@         00453608     DBAccess.obj
 0002:00000620       ??_C@_0ND@KAAOJLLI@SELECT?5?5?5?5?5dwIndex?0?5?7bID?0?5?7szTi@ 00453620     DBAccess.obj
 0002:000006f8       ??_7CTBLCashShopItem@@6B@  004536f8     DBAccess.obj
 0002:00000710       ??_C@_0EC@COMPOKEK@SELECT?5?7wID?0?5?7szName?5?7FROM?5TCAS@ 00453710     DBAccess.obj
 0002:00000758       ??_7CTBLPreVersion@@6B@    00453758     DBAccess.obj
 0002:00000770       ??_C@_0DK@EABOMOHI@SELECT?5dwBetaVer?0?5szPath?0?5szNam@ 00453770     DBAccess.obj
 0002:000007b0       ??_7CSPUpdatePatch@@6B@    004537b0     DBAccess.obj
 0002:000007c8       ??_C@_0CE@FBIFPNAM@?$HL?5?$DP?5?$DN?5CALL?5TUpdateVersion?$CI?$DP?0?$DP?0?$DP@ 004537c8     DBAccess.obj
 0002:000007f0       ??_7CSPUpdatePrePatch@@6B@ 004537f0     DBAccess.obj
 0002:00000808       ??_C@_0CF@GFEFIOGF@?$HL?5?$DP?5?$DN?5CALL?5TUpdatePreVersion?$CI?$DP?0@ 00453808     DBAccess.obj
 0002:00000834       ??_7CSPBetaToVer@@6B@      00453834     DBAccess.obj
 0002:0000084c       ??_C@_0BO@IKNPNFPF@?$HL?5?$DP?5?$DN?5CALL?5TBetaToVersion?$CI?$DP?$CJ?$HN@ 0045384c     DBAccess.obj
 0002:00000870       ??_7CSPDeletePreVersion@@6B@ 00453870     DBAccess.obj
 0002:00000888       ??_C@_0CB@KIOFIDDC@?$HL?5?$DP?5?$DN?5CALL?5TDeletePreVersion?$CI?$DP?$CJ@ 00453888     DBAccess.obj
 0002:000008b0       ??_7CSPUserProtectedAdd@@6B@ 004538b0     DBAccess.obj
 0002:000008c8       ??_C@_0CJ@PFDJJNOD@?$HL?5?$DP?5?$DN?5CALL?5TUserProtectedAdd?$CI?$DP?0@ 004538c8     DBAccess.obj
 0002:000008f8       ??_7CSPSvrStatusSMS@@6B@   004538f8     DBAccess.obj
 0002:00000910       ??_C@_0CE@DJBPMLNA@?$HL?5CALL?5OPTool_SMSEmergency?$CI?$DP?0?$DP?0@ 00453910     DBAccess.obj
 0002:00000938       ??_7CSPLoadService@@6B@    00453938     DBAccess.obj
 0002:00000950       ??_C@_0BN@FKLLIGDD@?$HLCALL?5TLoadService?$CI?$DP?0?$DP?0?$DP?0?$DP?$CJ?$HN@ 00453950     DBAccess.obj
 0002:00000974       ??_7CSPOPLogin@@6B@        00453974     DBAccess.obj
 0002:0000098c       ??_C@_0BJ@ODNMBHDP@?$HL?$DP?5?$DN?5CALL?5TOPLogin?$CI?$DP?0?$DP?$CJ?$HN@ 0045398c     DBAccess.obj
 0002:000009ac       ??_7CSPEventUpdate@@6B@    004539ac     DBAccess.obj
 0002:000009c4       ??_C@_0DN@JJBDGJHG@?$HL?$DP?5?$DN?5CALL?5TEventUpdate?$CI?$DP?0?$DP?0?$DP?0?$DP?0@ 004539c4     DBAccess.obj
 0002:00000a04       ??_C@_0M@NMPMFOM@CTBLMachine@ 00453a04     DBAccess.obj
 0002:00000a10       ??_C@_0M@CFLIPMCK@CTBLNetwork@ 00453a10     DBAccess.obj
 0002:00000a1c       ??_C@_09CBFKFMKO@CTBLGroup@ 00453a1c     DBAccess.obj
 0002:00000a28       ??_C@_0M@CMHNBJOJ@CTBLSvrType@ 00453a28     DBAccess.obj
 0002:00000a34       ??_C@_0L@DBCMNIHP@CTBLServer@ 00453a34     DBAccess.obj
 0002:00000a40       ??_C@_0L@LLGGLKJE@CTBLIPAddr@ 00453a40     DBAccess.obj
 0002:00000a4c       ??_C@_0M@FFEIKIAH@CTBLManager@ 00453a4c     DBAccess.obj
 0002:00000a58       ??_C@_09ICLADCJE@CTBLEvent@ 00453a58     DBAccess.obj
 0002:00000a64       ??_C@_0P@PFMHOGAK@CTBLPreVersion@ 00453a64     DBAccess.obj
 0002:00000a74       ??_C@_0P@DCAEHDBG@CSPUpdatePatch@ 00453a74     DBAccess.obj
 0002:00000a84       ??_C@_0BE@MFEICKNN@CSPUserProtectedAdd@ 00453a84     DBAccess.obj
 0002:00000a98       ??_C@_0BA@FLJPGKEH@CSPSvrStatusSMS@ 00453a98     DBAccess.obj
 0002:00000aa8       ??_C@_0P@EOMPGPJC@CSPLoadService@ 00453aa8     DBAccess.obj
 0002:00000ab8       ??_C@_0L@FBLKCHIB@CSPOPLogin@ 00453ab8     DBAccess.obj
 0002:00000ac4       ??_C@_0P@EKPNLDEH@CSPEventUpdate@ 00453ac4     DBAccess.obj
 0002:00000ad4       ??_C@_0BB@CKCJFDDH@CTBLCashShopItem@ 00453ad4     DBAccess.obj
 0002:00000ae8       ??_C@_0BC@KEFPCEAB@CSPUpdatePrePatch@ 00453ae8     DBAccess.obj
 0002:00000afc       ??_C@_0N@HLPJDCDB@CSPBetaToVer@ 00453afc     DBAccess.obj
 0002:00000b0c       ??_C@_0BE@HLGEHHLP@CSPDeletePreVersion@ 00453b0c     DBAccess.obj
 0002:00000b24       ??_7CWin32Heap@ATL@@6B@    00453b24     DebugSocket.obj
 0002:00000b3c       ??_7CAtlStringMgr@ATL@@6B@ 00453b3c     DebugSocket.obj
 0002:00000b54       ??_C@_0BE@FDFBBBDD@TCONTROL?5is?5online?$CB@ 00453b54     DebugSocket.obj
 0002:00000b68       ??_C@_0DA@OGGPMCGK@TCONTROL?3?5Invalid?5Packet?5logged@ 00453b68     DebugSocket.obj
 0002:00000ba0       ??_7CCSLock@@6B@           00453ba0     Handler.obj
 0002:00000ba4       ??_C@_08FLIFJJFM@ret?5fail@ 00453ba4     Handler.obj
 0002:00000bb0       ??_C@_0BE@CGMFCHBD@User?3?5?$CFs?5logged?5in?$CB@ 00453bb0     Handler.obj
 0002:00000bc4       ??_C@_0O@DJKCNPFH@Close?5session@ 00453bc4     Handler.obj
 0002:00000bd4       ??_C@_0BF@DAINNPCJ@start?5SvrControl?3?5?$CFs@ 00453bd4     Handler.obj
 0002:00000bec       ??_C@_0BE@FFPPINBN@Stop?5SvrControl?3?5?$CFs@ 00453bec     Handler.obj
 0002:00000c00       ??_C@_0BJ@MHEBDDEP@Connect?5Error?5?$CFs?0?5?$CFd?0?5?$CFd@ 00453c00     Handler.obj
 0002:00000c1c       ??_C@_0BG@BMDMCDBC@Iocp?5Error?5?$CFs?0?5?$CFd?0?5?$CFd@ 00453c1c     Handler.obj
 0002:00000c34       ??_C@_0CA@OKOEHAEP@WaitForMessage?5Error?5?$CFs?0?5?$CFd?0?5?$CFd@ 00453c34     Handler.obj
 0002:00000c54       ??_C@_0CF@KMGGOKBK@CT_NEWCONNECT_REQ?5SUCCESS?5?$CI?5?$CFd?0@ 00453c54     Handler.obj
 0002:00000c7c       ??_C@_0P@KCNDHKLD@TIMER_REQ?51MIN@ 00453c7c     Handler.obj
 0002:00000c8c       ??_C@_02GMLFBBN@wb@        00453c8c     Handler.obj
 0002:00000c90       ??_C@_0BC@MAICDHAC@__ServiceTemp?4hpy@ 00453c90     Handler.obj
 0002:00000ca4       ??_C@_08JLBBHJMM@Services@ 00453ca4     Handler.obj
 0002:00000cb0       ??_C@_0M@KBPJBIDM@?2?2?$CFs?2c$?2?$CFs?2@ 00453cb0     Handler.obj
 0002:00000cbc       ??_C@_08JKDDDAD@?$CFd?$CFd?$CFd?$CFd@ 00453cbc     Handler.obj
 0002:00000cc8       ??_C@_0BE@HJAEENCP@New?5Patch?5Count?3?5?$CFd@ 00453cc8     Handler.obj
 0002:00000cdc       ??_C@_0BH@GHNDBFCE@TCONTROL?3?5?$CFs?5kicked?5?$CFs@ 00453cdc     Handler.obj
 0002:00000cf4       ??_C@_0BH@MLGMJHFF@Kick?5sent?5to?5a?5server?$CB@ 00453cf4     Handler.obj
 0002:00000d0c       ??_C@_0BG@LOPGLEOK@TCONTROL?3?5?$CFs?5moved?5?$CFs@ 00453d0c     Handler.obj
 0002:00000d24       ??_C@_0BM@OAJPJLIG@TCONTROL?3?5?$CFs?5moved?5?$CFs?5to?5?$CFs@ 00453d24     Handler.obj
 0002:00000d40       ??_C@_0EA@MMLHJGAD@TCONTROL?3?5?$CFs?5banned?5?$CFs?5for?5?$CFd?5d@ 00453d40     Handler.obj
 0002:00000d80       ??_C@_0BM@HHBLOHIJ@TCONTROL?3?5?$CFs?5wrote?5?$CFs?5to?5?$CFs@ 00453d80     Handler.obj
 0002:00000d9c       ??_C@_0DK@FFPCHLE@TCONTROL?3?5?$CFs?5banned?5?$CFs?5?8s?5chat?5@ 00453d9c     Handler.obj
 0002:00000dd8       ??_C@_0BP@JNLFKKIJ@CTRL?5MESSAGE?5RECV?5?9?5bGroup?3?5?$CFd@ 00453dd8     Handler.obj
 0002:00000df8       ??_C@_0BH@JHJONJK@m_mapTSVRTEMP?5size?3?5?$CFd@ 00453df8     Handler.obj
 0002:00000e10       ??_C@_0BC@FNKJMAHH@CONNECTION?5?$DN?5NULL@ 00453e10     Handler.obj
 0002:00000e24       ??_C@_0BC@DLOLMPPD@HELP?5MESSAGE?5SENT@ 00453e24     Handler.obj
 0002:00000e38       ??_C@_0L@FGNNOBBA@Gift?5sent?$CB@ 00453e38     Handler.obj
 0002:00000e48       ??_7CPlatformUsage@@6B@    00453e48     PlatformUsage.obj
 0002:00000e4c       ??_C@_0CE@EKAADEFB@?2Processor?$CI_Total?$CJ?2?$CF?5Processor?5@ 00453e4c     PlatformUsage.obj
 0002:00000e70       ??_C@_0CB@GLGFEGFP@?2Memory?2?$CF?5Committed?5Bytes?5In?5Us@ 00453e70     PlatformUsage.obj
 0002:00000e94       ??_C@_0BK@GHJAEMKO@Need?5a?5network?5reg?5string@ 00453e94     PlatformUsage.obj
 0002:00000eb4       ??_7CTControlSession@@6B@  00453eb4     TControlSession.obj
 0002:00000ec8       __GUID_00000146_0000_0000_c000_000000000046 00453ec8     TControlSvr.obj
 0002:00000ed8       ??_C@_02DPKJAMEF@?$CFd@    00453ed8     TControlSvr.obj
 0002:00000edc       ??_C@_1M@PPPPCDEP@?$AAA?$AAP?$AAP?$AAI?$AAD@ 00453edc     TControlSvr.obj
 0002:00000eec       ??_7runtime_error@std@@6B@ 00453eec     TControlSvr.obj
 0002:00000ef8       ??_7_System_error@std@@6B@ 00453ef8     TControlSvr.obj
 0002:00000f04       ??_7system_error@std@@6B@  00453f04     TControlSvr.obj
 0002:00000f10       ??_7_Iostream_error_category2@std@@6B@ 00453f10     TControlSvr.obj
 0002:00000f2c       ??_7_Facet_base@std@@6B@   00453f2c     TControlSvr.obj
 0002:00000f3c       ??_7?$ctype@D@std@@6B@     00453f3c     TControlSvr.obj
 0002:00000f6c       ??_7failure@ios_base@std@@6B@ 00453f6c     TControlSvr.obj
 0002:00000f78       ??_7ios_base@std@@6B@      00453f78     TControlSvr.obj
 0002:00000f80       ??_7CTControlSvrModule@@6B?$CAtlServiceModuleT@VCTControlSvrModule@@$0GE@@ATL@@@ 00453f80     TControlSvr.obj
 0002:00000fa0       ??_7CTControlSvrModule@@6BTServerSystem@@@ 00453fa0     TControlSvr.obj
 0002:00000fa8       ??_C@_1EO@DHBCHLCP@?$AA?$HL?$AAA?$AA6?$AA6?$AA6?$AAC?$AA7?$AA7?$AA8?$AA?9?$AA2?$AA3?$AA0?$AA8?$AA?9@ 00453fa8     TControlSvr.obj
 0002:00000ffc       ??_7?$basic_ios@DU?$char_traits@D@std@@@std@@6B@ 00453ffc     TControlSvr.obj
 0002:00001004       ??_7?$basic_istream@DU?$char_traits@D@std@@@std@@6B@ 00454004     TControlSvr.obj
 0002:00001008       ??_8?$basic_istream@DU?$char_traits@D@std@@@std@@7B@ 00454008     TControlSvr.obj
 0002:00001014       ??_7?$basic_streambuf@DU?$char_traits@D@std@@@std@@6B@ 00454014     TControlSvr.obj
 0002:00001054       ??_7?$basic_stringbuf@DU?$char_traits@D@std@@V?$allocator@D@2@@std@@6B@ 00454054     TControlSvr.obj
 0002:00001094       ??_7?$basic_istringstream@DU?$char_traits@D@std@@V?$allocator@D@2@@std@@6B@ 00454094     TControlSvr.obj
 0002:00001098       ??_8?$basic_istringstream@DU?$char_traits@D@std@@V?$allocator@D@2@@std@@7B@ 00454098     TControlSvr.obj
 0002:000010a0       ??_C@_03LPPJIELD@?$CJ?3?5@ 004540a0     TControlSvr.obj
 0002:000010a4       ??_C@_04MJDGPBII@5816@     004540a4     TControlSvr.obj
 0002:000010ac       ??_C@_0BM@BCNMMGBB@MAP?5SERVICE?5PORT?$CIDEFAULT?5?9?5@ 004540ac     TControlSvr.obj
 0002:000010c8       ??_C@_05ELMLNFKM@?1exit@   004540c8     TControlSvr.obj
 0002:000010d0       ??_C@_05FKOINJOM@1?41?40@  004540d0     TControlSvr.obj
 0002:000010d8       ??_C@_08JJPNOKKN@TControl@ 004540d8     TControlSvr.obj
 0002:000010e4       ??_C@_0BG@PNNBJHKC@Load?5configuration?4?4?4@ 004540e4     TControlSvr.obj
 0002:000010fc       ??_C@_0BL@DNIIBJED@Database?5initialization?4?4?4@ 004540fc     TControlSvr.obj
 0002:00001118       ??_C@_0BA@GBBNPNIN@Loading?5data?4?4?4@ 00454118     TControlSvr.obj
 0002:00001128       ??_C@_0BC@ILOOIJMF@Create?5threads?4?4?4@ 00454128     TControlSvr.obj
 0002:0000113c       ??_C@_0BA@JNICLIJA@Init?5network?4?4?4@ 0045413c     TControlSvr.obj
 0002:0000114c       ??_C@_06EJEJDOGD@Ready?$CB@ 0045414c     TControlSvr.obj
 0002:00001154       ??_C@_0M@FIBGPLBO@TGLOBAL_GSP@ 00454154     TControlSvr.obj
 0002:00001160       ??_C@_03MKMNBNOL@DSN@      00454160     TControlSvr.obj
 0002:00001164       ??_C@_02CKOPKKAC@sa@       00454164     TControlSvr.obj
 0002:00001168       ??_C@_06EKCLIHPK@DBUser@   00454168     TControlSvr.obj
 0002:00001170       ??_C@_08JNNMFBCC@as123654@ 00454170     TControlSvr.obj
 0002:0000117c       ??_C@_08IGJKAMJJ@DBPasswd@ 0045417c     TControlSvr.obj
 0002:00001188       ??_C@_0M@MJFHNFOG@ControlPort@ 00454188     TControlSvr.obj
 0002:00001194       ??_C@_09PFCHIMEP@127?40?40?41@ 00454194     TControlSvr.obj
 0002:000011a0       ??_C@_0CI@CGEKHJBI@DebugSocket?5could?5not?5be?5initia@ 004541a0     TControlSvr.obj
 0002:000011c8       ??_C@_0N@DIELJKMK@Svr?5Close?5?$CFd@ 004541c8     TControlSvr.obj
 0002:000011d8       ??_C@_0BC@HNBGGKHI@?$CJ?2Bytes?5Total?1sec@ 004541d8     TControlSvr.obj
 0002:000011ec       ??_C@_0BE@JJEMEPHL@?2Network?5Interface?$CI@ 004541ec     TControlSvr.obj
 0002:00001200       ??_C@_0BH@LNCFKLMM@WaitForConnect?5?3?5Error@ 00454200     TControlSvr.obj
 0002:00001218       ??_C@_0P@LDKKAPGC@Accept?5?3?5Error@ 00454218     TControlSvr.obj
 0002:00001228       ??_C@_0CD@KOLOPAN@WorkThread?5CompletionStatus?5?$CFd?5@ 00454228     TControlSvr.obj
 0002:0000124c       ??_C@_0BN@JKPDGGF@OnSendComplete?5Valid?5?$CFd?0?5?$CFd?6@ 0045424c     TControlSvr.obj
 0002:0000126c       ??_C@_0BF@OJKIHKDE@Connect?5Error?5?$CFd?0?5?$CFd@ 0045426c     TControlSvr.obj
 0002:00001284       ??_C@_04EAHJEPCC@3?5?$CFd@ 00454284     TControlSvr.obj
 0002:0000128c       ??_C@_0P@IOMPEBMC@Msg?5Invalid?5?$CFd@ 0045428c     TControlSvr.obj
 0002:0000129c       ??_C@_0BE@BGKHBJEE@TSvrStatusSMS?5Error@ 0045429c     TControlSvr.obj
 0002:000012b0       ??_C@_01ICJEACDI@?$DL@     004542b0     TControlSvr.obj
 0002:000012b4       ??_C@_01JOAMLHOP@?9@       004542b4     TControlSvr.obj
 0002:000012b8       ??_C@_04GEFJINEE@?$CF?42f@ 004542b8     TControlSvr.obj
 0002:000012c0       ??_C@_01FJMABOPO@x@        004542c0     TControlSvr.obj
 0002:000012c4       ??_C@_01DNKMNLPK@?$HM@     004542c4     TControlSvr.obj
 0002:000012cc       ??_7?$num_get@DV?$istreambuf_iterator@DU?$char_traits@D@std@@@std@@@std@@6B@ 004542cc     TControlSvr.obj
 0002:00001308       ??_7?$numpunct@D@std@@6B@  00454308     TControlSvr.obj
 0002:00001328       ?_Src@?1??_Getffld@?$num_get@DV?$istreambuf_iterator@DU?$char_traits@D@std@@@std@@@std@@ABAHPADAAV?$istreambuf_iterator@DU?$char_traits@D@std@@@3@1AAVios_base@3@PAH@Z@4QBDB 00454328     TControlSvr.obj
 0002:00001338       ?_Src@?1??_Getifld@?$num_get@DV?$istreambuf_iterator@DU?$char_traits@D@std@@@std@@@std@@ABAHPADAAV?$istreambuf_iterator@DU?$char_traits@D@std@@@3@1HABVlocale@3@@Z@4QBDB 00454338     TControlSvr.obj
 0002:00001354       ??_C@_0BC@KBDMBKEH@deque?$DMT?$DO?5too?5long@ 00454354     TControlSvr.obj
 0002:00001368       ?_Src@?1??_Getffldx@?$num_get@DV?$istreambuf_iterator@DU?$char_traits@D@std@@@std@@@std@@ABAHPADAAV?$istreambuf_iterator@DU?$char_traits@D@std@@@3@1AAVios_base@3@PAH@Z@4QBDB 00454368     TControlSvr.obj
 0002:00001388       __real@4024000000000000    00454388     TControlSvr.obj
 0002:00001390       _LIBID_TControlSvrLib      00454390     TControlSvr_i.obj
 0002:000013a4       ??_7CTManager@@6B@         004543a4     TManager.obj
 0002:000013b4       ??_C@_06BKKDJGNE@tttttt@   004543b4     TMiniDump.obj
 0002:000013bc       ??_C@_0M@IBNEFJCG@DBGHELP?4DLL@ 004543bc     TMiniDump.obj
 0002:000013c8       ??_C@_0BC@MNIKNFKD@MiniDumpWriteDump@ 004543c8     TMiniDump.obj
 0002:000013dc       ??_C@_0BC@FLKMODKM@?$CFd?9?$CFd?9?$CFd?9?$CFd?9?$CFd?9?$CFd@ 004543dc     TMiniDump.obj
 0002:000013f0       ??_C@_04JMFINIFG@?4dmp@    004543f0     TMiniDump.obj
 0002:000013f8       ??_C@_01PKGAHCOL@?$CJ@     004543f8     TMiniDump.obj
 0002:000013fc       ??_C@_01ODHLEDKK@?$CI@     004543fc     TMiniDump.obj
 0002:00001400       ??_C@_07NBCGADJA@Unknown@  00454400     TMiniDump.obj
 0002:00001408       ??_C@_0BH@BEOMGENN@BAD?5EXCEPTION?5POINTERS@ 00454408     TMiniDump.obj
 0002:00001420       ??_C@_0BL@CMOMFGDN@EXCEPTION_ACCESS_VIOLATION@ 00454420     TMiniDump.obj
 0002:0000143c       ??_C@_0CA@LEJEDDLG@EXCEPTION_DATATYPE_MISALIGNMENT@ 0045443c     TMiniDump.obj
 0002:0000145c       ??_C@_0BF@FLLDOCJP@EXCEPTION_BREAKPOINT@ 0045445c     TMiniDump.obj
 0002:00001474       ??_C@_0BG@HPCFEJHG@EXCEPTION_SINGLE_STEP@ 00454474     TMiniDump.obj
 0002:0000148c       ??_C@_0CA@JNIHFDGO@EXCEPTION_ARRAY_BOUNDS_EXCEEDED@ 0045448c     TMiniDump.obj
 0002:000014ac       ??_C@_0BP@NMNHALMC@EXCEPTION_FLT_DENORMAL_OPERAND@ 004544ac     TMiniDump.obj
 0002:000014cc       ??_C@_0BN@PHPNMCML@EXCEPTION_FLT_DIVIDE_BY_ZERO@ 004544cc     TMiniDump.obj
 0002:000014ec       ??_C@_0BN@KLCBBCKL@EXCEPTION_FLT_INEXACT_RESULT@ 004544ec     TMiniDump.obj
 0002:0000150c       ??_C@_0CA@JJDIIMDB@EXCEPTION_FLT_INVALID_OPERATION@ 0045450c     TMiniDump.obj
 0002:0000152c       ??_C@_0BH@LGFBHAFE@EXCEPTION_FLT_OVERFLOW@ 0045452c     TMiniDump.obj
 0002:00001544       ??_C@_0BK@COBCCPEI@EXCEPTION_FLT_STACK_CHECK@ 00454544     TMiniDump.obj
 0002:00001560       ??_C@_0BI@CHKFJJC@EXCEPTION_FLT_UNDERFLOW@ 00454560     TMiniDump.obj
 0002:00001578       ??_C@_0BN@LBLGDPIG@EXCEPTION_INT_DIVIDE_BY_ZERO@ 00454578     TMiniDump.obj
 0002:00001598       ??_C@_0BH@HNBKDLPO@EXCEPTION_INT_OVERFLOW@ 00454598     TMiniDump.obj
 0002:000015b0       ??_C@_0BL@HJPDFKEO@EXCEPTION_PRIV_INSTRUCTION@ 004545b0     TMiniDump.obj
 0002:000015cc       ??_C@_0BI@BNDIILLI@EXCEPTION_IN_PAGE_ERROR@ 004545cc     TMiniDump.obj
 0002:000015e4       ??_C@_0BO@DLLOIENN@EXCEPTION_ILLEGAL_INSTRUCTION@ 004545e4     TMiniDump.obj
 0002:00001604       ??_C@_0CD@JGPJMHJA@EXCEPTION_NONCONTINUABLE_EXCEPT@ 00454604     TMiniDump.obj
 0002:00001628       ??_C@_0BJ@FNEOPPMM@EXCEPTION_STACK_OVERFLOW@ 00454628     TMiniDump.obj
 0002:00001644       ??_C@_0BO@GJKCLCLP@EXCEPTION_INVALID_DISPOSITION@ 00454644     TMiniDump.obj
 0002:00001664       ??_C@_0BF@BLPCMAHP@EXCEPTION_GUARD_PAGE@ 00454664     TMiniDump.obj
 0002:0000167c       ??_C@_0BJ@BKJLBIPE@EXCEPTION_INVALID_HANDLE@ 0045467c     TMiniDump.obj
 0002:00001698       ??_C@_0BI@GOIELPIK@Microsoft?5C?$CL?$CL?5Exception@ 00454698     TMiniDump.obj
 0002:000016b4       ??_7CTServer@@6B@          004546b4     TServer.obj
 0002:000016c8       ??_7CSqlBase@@6B@          004546c8     TNetLib:SqlBase.obj
 0002:000016d8       ??_C@_02DPNLHKJD@a?$CL@    004546d8     TNetLib:SqlBase.obj
 0002:000016dc       ??_C@_0BC@JGIPNMAF@C?3?24s?2dberror?4log@ 004546dc     TNetLib:SqlBase.obj
 0002:000016f0       ??_C@_02CHHAKFFB@w?$CL@    004546f0     TNetLib:SqlBase.obj
 0002:000016f4       ??_C@_02HAOIJKIC@?$CFc@    004546f4     TNetLib:SqlBase.obj
 0002:000016f8       ??_C@_09GPBPOFIE@?$CFs?5?$CFs?5?$CFs?6@ 004546f8     TNetLib:SqlBase.obj
 0002:00001704       ??_C@_0BN@KJHFPFCF@C?3?2TServices_GSP?2dberror?4log@ 00454704     TNetLib:SqlBase.obj
 0002:00001724       ??_C@_06IINFAHFO@?$CFs?5?$CFs?6@ 00454724     TNetLib:SqlBase.obj
 0002:00001730       ??_7CSqlQuery@@6B@         00454730     TNetLib:SqlQuery.obj
 0002:00001750       ??_7CSqlDatabase@@6B@      00454750     TNetLib:SqlDatabase.obj
 0002:00001758       ??_7COverlappedEx@@6B@     00454758     TNetLib:Packet.obj
 0002:00001760       ??_7CPacket@@6B@           00454760     TNetLib:Packet.obj
 0002:00001764       ??_C@_0CI@PBLHHFBO@A5$$8AFS13A1?3?3?911?$CD?$CB?4?4?8?$KH19716AC?$CG@ 00454764     TNetLib:Session.obj
 0002:00001790       ??_7CSession@@6B@          00454790     TNetLib:Session.obj
 0002:000017a4       ??_C@_0N@EADOKCK@?$FL?$CFs?$FN?5?$CFs?3?5?$CFs?6@ 004547a4     TNetLib:CryptographyExt.obj
 0002:000017b4       ??_C@_0N@FIMHCOJK@CryptEncrypt@ 004547b4     TNetLib:CryptographyExt.obj
 0002:000017c4       ??_C@_05ENHGKOIF@Crypt@    004547c4     TNetLib:CryptographyExt.obj
 0002:000017cc       ??_C@_0P@KONILCFO@CryptDeriveKey@ 004547cc     TNetLib:CryptographyExt.obj
 0002:000017dc       ??_C@_0O@DAIMODJH@CryptHashData@ 004547dc     TNetLib:CryptographyExt.obj
 0002:000017ec       ??_C@_0BA@IEJOIHIJ@CryptCreateHash@ 004547ec     TNetLib:CryptographyExt.obj
 0002:000017fc       ??_C@_0BE@FGGGKAFM@CryptAcquireContext@ 004547fc     TNetLib:CryptographyExt.obj
 0002:00001810       _CLSID_StdGlobalInterfaceTable 00454810     uuid:cguid_i.obj
 0002:00001820       _GUID_ATLVer110            00454820     atls:atlbase.obj
 0002:00001830       ??_C@_1IC@ONKHOIDK@?$AAE?$AAR?$AAR?$AAO?$AAR?$AA?5?$AA?3?$AA?5?$AAU?$AAn?$AAa?$AAb?$AAl?$AAe?$AA?5@ 00454830     atls:atlbase.obj
 0002:000018b4       ??_C@_0P@GHFPNOJB@bad?5allocation@ 004548b4     libcpmt:xthrow.obj
 0002:000018c8       ??_7logic_error@std@@6B@   004548c8     libcpmt:xthrow.obj
 0002:000018d4       ??_7invalid_argument@std@@6B@ 004548d4     libcpmt:xthrow.obj
 0002:000018e0       ??_7length_error@std@@6B@  004548e0     libcpmt:xthrow.obj
 0002:000018ec       ??_7out_of_range@std@@6B@  004548ec     libcpmt:xthrow.obj
 0002:00001e10       ??_C@_07IPNMCAN@success@   00454e10     libcpmt:syserror.obj
 0002:00001e18       ??_C@_0BN@LKKBCCDB@address?5family?5not?5supported@ 00454e18     libcpmt:syserror.obj
 0002:00001e38       ??_C@_0P@LDMLAFHI@address?5in?5use@ 00454e38     libcpmt:syserror.obj
 0002:00001e48       ??_C@_0BG@DHPCNBJB@address?5not?5available@ 00454e48     libcpmt:syserror.obj
 0002:00001e60       ??_C@_0BC@DFIBIBIL@already?5connected@ 00454e60     libcpmt:syserror.obj
 0002:00001e74       ??_C@_0BH@CAKOHOMI@argument?5list?5too?5long@ 00454e74     libcpmt:syserror.obj
 0002:00001e8c       ??_C@_0BH@CGIMPKIM@argument?5out?5of?5domain@ 00454e8c     libcpmt:syserror.obj
 0002:00001ea4       ??_C@_0M@KGHGGJGL@bad?5address@ 00454ea4     libcpmt:syserror.obj
 0002:00001eb0       ??_C@_0BE@MPJPGCEO@bad?5file?5descriptor@ 00454eb0     libcpmt:syserror.obj
 0002:00001ec4       ??_C@_0M@PMMIEFCP@bad?5message@ 00454ec4     libcpmt:syserror.obj
 0002:00001ed0       ??_C@_0M@KPHOFDBE@broken?5pipe@ 00454ed0     libcpmt:syserror.obj
 0002:00001edc       ??_C@_0BD@MGNDDEGM@connection?5aborted@ 00454edc     libcpmt:syserror.obj
 0002:00001ef0       ??_C@_0BP@KAIHPOGN@connection?5already?5in?5progress@ 00454ef0     libcpmt:syserror.obj
 0002:00001f10       ??_C@_0BD@PJLIIJEL@connection?5refused@ 00454f10     libcpmt:syserror.obj
 0002:00001f24       ??_C@_0BB@IECNJNOI@connection?5reset@ 00454f24     libcpmt:syserror.obj
 0002:00001f38       ??_C@_0BC@PPHBOELF@cross?5device?5link@ 00454f38     libcpmt:syserror.obj
 0002:00001f4c       ??_C@_0BN@KDMIFEIP@destination?5address?5required@ 00454f4c     libcpmt:syserror.obj
 0002:00001f6c       ??_C@_0BI@NGCEHDD@device?5or?5resource?5busy@ 00454f6c     libcpmt:syserror.obj
 0002:00001f84       ??_C@_0BE@JIDOCPHM@directory?5not?5empty@ 00454f84     libcpmt:syserror.obj
 0002:00001f98       ??_C@_0BI@BNCLIGPB@executable?5format?5error@ 00454f98     libcpmt:syserror.obj
 0002:00001fb0       ??_C@_0M@MIDIAGJP@file?5exists@ 00454fb0     libcpmt:syserror.obj
 0002:00001fbc       ??_C@_0P@DNAJLBJK@file?5too?5large@ 00454fbc     libcpmt:syserror.obj
 0002:00001fcc       ??_C@_0BC@EJHOMAAK@filename?5too?5long@ 00454fcc     libcpmt:syserror.obj
 0002:00001fe0       ??_C@_0BH@KEFGLDAF@function?5not?5supported@ 00454fe0     libcpmt:syserror.obj
 0002:00001ff8       ??_C@_0BB@DHFDFGDM@host?5unreachable@ 00454ff8     libcpmt:syserror.obj
 0002:0000200c       ??_C@_0BD@JPHBMONG@identifier?5removed@ 0045500c     libcpmt:syserror.obj
 0002:00002020       ??_C@_0BG@CDNPAGJK@illegal?5byte?5sequence@ 00455020     libcpmt:syserror.obj
 0002:00002038       ??_C@_0CD@BNPLBMNA@inappropriate?5io?5control?5operat@ 00455038     libcpmt:syserror.obj
 0002:0000205c       ??_C@_0M@EGEKIIMP@interrupted@ 0045505c     libcpmt:syserror.obj
 0002:00002068       ??_C@_0BB@FCMFBGOM@invalid?5argument@ 00455068     libcpmt:syserror.obj
 0002:0000207c       ??_C@_0N@OHAFKDEK@invalid?5seek@ 0045507c     libcpmt:syserror.obj
 0002:0000208c       ??_C@_08GLNPIFBN@io?5error@ 0045508c     libcpmt:syserror.obj
 0002:00002098       ??_C@_0P@FLLDBIDK@is?5a?5directory@ 00455098     libcpmt:syserror.obj
 0002:000020a8       ??_C@_0N@IFLPBIOP@message?5size@ 004550a8     libcpmt:syserror.obj
 0002:000020b8       ??_C@_0N@KIIEAAIO@network?5down@ 004550b8     libcpmt:syserror.obj
 0002:000020c8       ??_C@_0O@FNPDBHEE@network?5reset@ 004550c8     libcpmt:syserror.obj
 0002:000020d8       ??_C@_0BE@IFNCKGE@network?5unreachable@ 004550d8     libcpmt:syserror.obj
 0002:000020ec       ??_C@_0BA@PFFCAOFK@no?5buffer?5space@ 004550ec     libcpmt:syserror.obj
 0002:000020fc       ??_C@_0BB@IEPBLJHK@no?5child?5process@ 004550fc     libcpmt:syserror.obj
 0002:00002110       ??_C@_07PLECNNKG@no?5link@ 00455110     libcpmt:syserror.obj
 0002:00002118       ??_C@_0BC@NJECKMKE@no?5lock?5available@ 00455118     libcpmt:syserror.obj
 0002:0000212c       ??_C@_0BF@PBGGPKKE@no?5message?5available@ 0045512c     libcpmt:syserror.obj
 0002:00002144       ??_C@_0L@EDOLMPAK@no?5message@ 00455144     libcpmt:syserror.obj
 0002:00002150       ??_C@_0BD@EAMBFIDF@no?5protocol?5option@ 00455150     libcpmt:syserror.obj
 0002:00002164       ??_C@_0BD@IJDJKDEA@no?5space?5on?5device@ 00455164     libcpmt:syserror.obj
 0002:00002178       ??_C@_0BE@MKFDAFMP@no?5stream?5resources@ 00455178     libcpmt:syserror.obj
 0002:0000218c       ??_C@_0BK@IMCPHCBI@no?5such?5device?5or?5address@ 0045518c     libcpmt:syserror.obj
 0002:000021a8       ??_C@_0P@FDINDDOK@no?5such?5device@ 004551a8     libcpmt:syserror.obj
 0002:000021b8       ??_C@_0BK@NDOCBPGE@no?5such?5file?5or?5directory@ 004551b8     libcpmt:syserror.obj
 0002:000021d4       ??_C@_0BA@ENLPPKBN@no?5such?5process@ 004551d4     libcpmt:syserror.obj
 0002:000021e4       ??_C@_0BA@DOCPFFJG@not?5a?5directory@ 004551e4     libcpmt:syserror.obj
 0002:000021f4       ??_C@_0N@POEIPGGF@not?5a?5socket@ 004551f4     libcpmt:syserror.obj
 0002:00002204       ??_C@_0N@LGAPMMPI@not?5a?5stream@ 00455204     libcpmt:syserror.obj
 0002:00002214       ??_C@_0O@GLMIBBEG@not?5connected@ 00455214     libcpmt:syserror.obj
 0002:00002224       ??_C@_0BC@ENOOLCNF@not?5enough?5memory@ 00455224     libcpmt:syserror.obj
 0002:00002238       ??_C@_0O@NHEDABJP@not?5supported@ 00455238     libcpmt:syserror.obj
 0002:00002248       ??_C@_0BD@MOLBPMEA@operation?5canceled@ 00455248     libcpmt:syserror.obj
 0002:0000225c       ??_C@_0BG@KDKHOPCO@operation?5in?5progress@ 0045525c     libcpmt:syserror.obj
 0002:00002274       ??_C@_0BI@OHIEJAAB@operation?5not?5permitted@ 00455274     libcpmt:syserror.obj
 0002:0000228c       ??_C@_0BI@LNEGIFLN@operation?5not?5supported@ 0045528c     libcpmt:syserror.obj
 0002:000022a4       ??_C@_0BG@OEMDKMEE@operation?5would?5block@ 004552a4     libcpmt:syserror.obj
 0002:000022bc       ??_C@_0L@BLPOFLNJ@owner?5dead@ 004552bc     libcpmt:syserror.obj
 0002:000022c8       ??_C@_0BC@CIJDGCDI@permission?5denied@ 004552c8     libcpmt:syserror.obj
 0002:000022dc       ??_C@_0P@FNPOCJBE@protocol?5error@ 004552dc     libcpmt:syserror.obj
 0002:000022ec       ??_C@_0BH@JPPPLHJB@protocol?5not?5supported@ 004552ec     libcpmt:syserror.obj
 0002:00002304       ??_C@_0BG@EICBIHDP@read?5only?5file?5system@ 00455304     libcpmt:syserror.obj
 0002:0000231c       ??_C@_0BO@BJBOMOEJ@resource?5deadlock?5would?5occur@ 0045531c     libcpmt:syserror.obj
 0002:0000233c       ??_C@_0BP@LKNGHENJ@resource?5unavailable?5try?5again@ 0045533c     libcpmt:syserror.obj
 0002:0000235c       ??_C@_0BE@GOIPJJHG@result?5out?5of?5range@ 0045535c     libcpmt:syserror.obj
 0002:00002370       ??_C@_0BG@MPLKFPAE@state?5not?5recoverable@ 00455370     libcpmt:syserror.obj
 0002:00002388       ??_C@_0P@DIIFGFCG@stream?5timeout@ 00455388     libcpmt:syserror.obj
 0002:00002398       ??_C@_0P@IPFDMIFL@text?5file?5busy@ 00455398     libcpmt:syserror.obj
 0002:000023a8       ??_C@_09KJPPMAOI@timed?5out@ 004553a8     libcpmt:syserror.obj
 0002:000023b4       ??_C@_0BO@HACHBEKI@too?5many?5files?5open?5in?5system@ 004553b4     libcpmt:syserror.obj
 0002:000023d4       ??_C@_0BE@GHAFMPAH@too?5many?5files?5open@ 004553d4     libcpmt:syserror.obj
 0002:000023e8       ??_C@_0P@HCOMKFCC@too?5many?5links@ 004553e8     libcpmt:syserror.obj
 0002:000023f8       ??_C@_0BO@EFGOJEF@too?5many?5symbolic?5link?5levels@ 004553f8     libcpmt:syserror.obj
 0002:00002418       ??_C@_0BA@KGKGOOJA@value?5too?5large@ 00455418     libcpmt:syserror.obj
 0002:00002428       ??_C@_0BE@MIEJDDNH@wrong?5protocol?5type@ 00455428     libcpmt:syserror.obj
 0002:0000243c       ??_C@_0O@BFJCFAAK@unknown?5error@ 0045543c     libcpmt:syserror.obj
 0002:00002450       ??_7_Locimp@locale@std@@6B@ 00455450     libcpmt:locale0.obj
 0002:0000245c       ??_C@_01NBENCBCI@?$CK@     0045545c     libcpmt:locale0.obj
 0002:00002460       ??_C@_01GFHCPBMG@C@        00455460     libcpmt:locale0.obj
 0002:00002468       ?_BADOFF@std@@3_JB         00455468     libcpmt:ios.obj
 0002:00002514       ??_7?$basic_filebuf@DU?$char_traits@D@std@@@std@@6B@ 00455514     libcpmt:cin.obj
 0002:00002554       ??_7?$codecvt@DDU_Mbstatet@@@std@@6B@ 00455554     libcpmt:cin.obj
 0002:00002580       ??_7?$basic_ostream@DU?$char_traits@D@std@@@std@@6B@ 00455580     libcpmt:cout.obj
 0002:00002688       ??_C@_11LOCGONAA@@         00455688     libcpmt:wlocale.obj
 0002:0000268c       ??_C@_13IMODFHAA@?$AA?9@   0045568c     libcpmt:wlocale.obj
 0002:00002694       ??_7type_info@@6B@         00455694     LIBCMT:std_type_info_static.obj
 0002:00002698       ??_C@_1EC@JIJBPKFM@?$AAa?$AAp?$AAi?$AA?9?$AAm?$AAs?$AA?9?$AAw?$AAi?$AAn?$AA?9?$AAc?$AAo?$AAr?$AAe@ 00455698     LIBCMT:thread_safe_statics.obj
 0002:000026dc       ??_C@_1BK@MGMFAEKH@?$AAk?$AAe?$AAr?$AAn?$AAe?$AAl?$AA3?$AA2?$AA?4?$AAd?$AAl?$AAl@ 004556dc     LIBCMT:thread_safe_statics.obj
 0002:000026f8       ??_C@_0BJ@JEBJOJFJ@SleepConditionVariableCS@ 004556f8     LIBCMT:thread_safe_statics.obj
 0002:00002714       ??_C@_0BJ@PGPPEPCC@WakeAllConditionVariable@ 00455714     LIBCMT:thread_safe_statics.obj
 0002:00002768       __pDestructExceptionObject 00455768     libvcruntime:ehhelpers.obj
 0002:00002770       ??_7bad_exception@std@@6B@ 00455770     libvcruntime:frame.obj
 0002:00002778       ??_C@_0O@DPKOEFFH@bad?5exception@ 00455778     libvcruntime:frame.obj
 0002:00002b10       ??_C@_08EHJDFFNH@__based?$CI@ 00455b10     libvcruntime:undname.obj
 0002:00002b1c       ??_C@_07KOLFKCDI@__cdecl@  00455b1c     libvcruntime:undname.obj
 0002:00002b24       ??_C@_08GHMPAG@__pascal@   00455b24     libvcruntime:undname.obj
 0002:00002b30       ??_C@_09IFJBGAPI@__stdcall@ 00455b30     libvcruntime:undname.obj
 0002:00002b3c       ??_C@_0L@NPHFGOKO@__thiscall@ 00455b3c     libvcruntime:undname.obj
 0002:00002b48       ??_C@_0L@JMKHOMEK@__fastcall@ 00455b48     libvcruntime:undname.obj
 0002:00002b54       ??_C@_0N@BCKKPABJ@__vectorcall@ 00455b54     libvcruntime:undname.obj
 0002:00002b64       ??_C@_09HIJEGCPM@__clrcall@ 00455b64     libvcruntime:undname.obj
 0002:00002b70       ??_C@_06GHPCKEAG@__eabi@   00455b70     libvcruntime:undname.obj
 0002:00002b78       ??_C@_09IOPIDJLG@__swift_1@ 00455b78     libvcruntime:undname.obj
 0002:00002b84       ??_C@_09KFNFGKHF@__swift_2@ 00455b84     libvcruntime:undname.obj
 0002:00002b90       ??_C@_09LMMOFLDE@__swift_3@ 00455b90     libvcruntime:undname.obj
 0002:00002b9c       ??_C@_07JOMMBBKO@__ptr64@  00455b9c     libvcruntime:undname.obj
 0002:00002ba4       ??_C@_0L@PILCLIHE@__restrict@ 00455ba4     libvcruntime:undname.obj
 0002:00002bb0       ??_C@_0M@GFIIJFMG@__unaligned@ 00455bb0     libvcruntime:undname.obj
 0002:00002bbc       ??_C@_09DHDLOLLB@restrict?$CI@ 00455bbc     libvcruntime:undname.obj
 0002:00002bc8       ??_C@_04NIHEBCM@?5new@     00455bc8     libvcruntime:undname.obj
 0002:00002bd0       ??_C@_07FPCDHGMM@?5delete@ 00455bd0     libvcruntime:undname.obj
 0002:00002bd8       ??_C@_01NEMOKFLO@?$DN@     00455bd8     libvcruntime:undname.obj
 0002:00002bdc       ??_C@_02GPIOPFAK@?$DO?$DO@ 00455bdc     libvcruntime:undname.obj
 0002:00002be0       ??_C@_02FODMEDOG@?$DM?$DM@ 00455be0     libvcruntime:undname.obj
 0002:00002be4       ??_C@_01DCLJPIOD@?$CB@     00455be4     libvcruntime:undname.obj
 0002:00002be8       ??_C@_02EGOFBIJA@?$DN?$DN@ 00455be8     libvcruntime:undname.obj
 0002:00002bec       ??_C@_02FDNJECIE@?$CB?$DN@ 00455bec     libvcruntime:undname.obj
 0002:00002bf0       ??_C@_02GPECMEKF@?$FL?$FN@ 00455bf0     libvcruntime:undname.obj
 0002:00002bf4       ??_C@_08LHJFAFGD@operator@ 00455bf4     libvcruntime:undname.obj
 0002:00002c00       ??_C@_02HBOOOICD@?9?$DO@   00455c00     libvcruntime:undname.obj
 0002:00002c04       ??_C@_02ECNGHCIF@?$CL?$CL@ 00455c04     libvcruntime:undname.obj
 0002:00002c08       ??_C@_02BAABKJLB@?9?9@     00455c08     libvcruntime:undname.obj
 0002:00002c0c       ??_C@_01MIFGBAGJ@?$CL@     00455c0c     libvcruntime:undname.obj
 0002:00002c10       ??_C@_01HNPIGOCE@?$CG@     00455c10     libvcruntime:undname.obj
 0002:00002c14       ??_C@_03MNHNFDLC@?9?$DO?$CK@ 00455c14     libvcruntime:undname.obj
 0002:00002c18       ??_C@_01KMDKNFGN@?1@       00455c18     libvcruntime:undname.obj
 0002:00002c1c       ??_C@_01FGNFDNOH@?$CF@     00455c1c     libvcruntime:undname.obj
 0002:00002c20       ??_C@_01MNNFJEPP@?$DM@     00455c20     libvcruntime:undname.obj
 0002:00002c24       ??_C@_02EHCHHCKH@?$DM?$DN@ 00455c24     libvcruntime:undname.obj
 0002:00002c28       ??_C@_01PPODPGHN@?$DO@     00455c28     libvcruntime:undname.obj
 0002:00002c2c       ??_C@_02EEKDKGMJ@?$DO?$DN@ 00455c2c     libvcruntime:undname.obj
 0002:00002c30       ??_C@_01IHBHIGKO@?0@       00455c30     libvcruntime:undname.obj
 0002:00002c34       ??_C@_02HCKGKOFO@?$CI?$CJ@ 00455c34     libvcruntime:undname.obj
 0002:00002c38       ??_C@_01PJKLJHI@?$HO@      00455c38     libvcruntime:undname.obj
 0002:00002c3c       ??_C@_01JKBOJNNK@?$FO@     00455c3c     libvcruntime:undname.obj
 0002:00002c40       ??_C@_02PPKAJPJL@?$CG?$CG@ 00455c40     libvcruntime:undname.obj
 0002:00002c44       ??_C@_02NONPIBCD@?$HM?$HM@ 00455c44     libvcruntime:undname.obj
 0002:00002c48       ??_C@_02FPIMKNGF@?$CK?$DN@ 00455c48     libvcruntime:undname.obj
 0002:00002c4c       ??_C@_02FOEOMHFC@?$CL?$DN@ 00455c4c     libvcruntime:undname.obj
 0002:00002c50       ??_C@_02FKMDLLOA@?9?$DN@   00455c50     libvcruntime:undname.obj
 0002:00002c54       ??_C@_02FJEHGPIO@?1?$DN@   00455c54     libvcruntime:undname.obj
 0002:00002c58       ??_C@_02FENAOKFI@?$CF?$DN@ 00455c58     libvcruntime:undname.obj
 0002:00002c5c       ??_C@_03IKFCCPFF@?$DO?$DO?$DN@ 00455c5c     libvcruntime:undname.obj
 0002:00002c60       ??_C@_03CDNPDDLA@?$DM?$DM?$DN@ 00455c60     libvcruntime:undname.obj
 0002:00002c64       ??_C@_02FGJGFEAB@?$CG?$DN@ 00455c64     libvcruntime:undname.obj
 0002:00002c68       ??_C@_02DHLNPPGH@?$HM?$DN@ 00455c68     libvcruntime:undname.obj
 0002:00002c6c       ??_C@_02MHEGNOJ@?$FO?$DN@  00455c6c     libvcruntime:undname.obj
 0002:00002c70       ??_C@_09IFPLHPGF@?$GAvftable?8@ 00455c70     libvcruntime:undname.obj
 0002:00002c7c       ??_C@_09BLBHBJP@?$GAvbtable?8@ 00455c7c     libvcruntime:undname.obj
 0002:00002c88       ??_C@_07FEEIOKP@?$GAvcall?8@ 00455c88     libvcruntime:undname.obj
 0002:00002c90       ??_C@_08LLFFHHDJ@?$GAtypeof?8@ 00455c90     libvcruntime:undname.obj
 0002:00002c9c       ??_C@_0BF@KDPPACIK@?$GAlocal?5static?5guard?8@ 00455c9c     libvcruntime:undname.obj
 0002:00002cb4       ??_C@_08OBABFOLI@?$GAstring?8@ 00455cb4     libvcruntime:undname.obj
 0002:00002cc0       ??_C@_0BD@JDLKDPAB@?$GAvbase?5destructor?8@ 00455cc0     libvcruntime:undname.obj
 0002:00002cd4       ??_C@_0BN@DEGPLNFK@?$GAvector?5deleting?5destructor?8@ 00455cd4     libvcruntime:undname.obj
 0002:00002cf4       ??_C@_0BO@OBMKPJIG@?$GAdefault?5constructor?5closure?8@ 00455cf4     libvcruntime:undname.obj
 0002:00002d14       ??_C@_0BN@IMDCHIKM@?$GAscalar?5deleting?5destructor?8@ 00455d14     libvcruntime:undname.obj
 0002:00002d34       ??_C@_0BO@PFGOCPJJ@?$GAvector?5constructor?5iterator?8@ 00455d34     libvcruntime:undname.obj
 0002:00002d54       ??_C@_0BN@LFPFMEDL@?$GAvector?5destructor?5iterator?8@ 00455d54     libvcruntime:undname.obj
 0002:00002d74       ??_C@_0CE@IKBNEHA@?$GAvector?5vbase?5constructor?5itera@ 00455d74     libvcruntime:undname.obj
 0002:00002d98       ??_C@_0BL@NILFHHPC@?$GAvirtual?5displacement?5map?8@ 00455d98     libvcruntime:undname.obj
 0002:00002db4       ??_C@_0CB@JONCMFFK@?$GAeh?5vector?5constructor?5iterator@ 00455db4     libvcruntime:undname.obj
 0002:00002dd8       ??_C@_0CA@GCEOPDGL@?$GAeh?5vector?5destructor?5iterator?8@ 00455dd8     libvcruntime:undname.obj
 0002:00002df8       ??_C@_0CH@OOJPLCPH@?$GAeh?5vector?5vbase?5constructor?5it@ 00455df8     libvcruntime:undname.obj
 0002:00002e20       ??_C@_0BL@LLKPOHJI@?$GAcopy?5constructor?5closure?8@ 00455e20     libvcruntime:undname.obj
 0002:00002e3c       ??_C@_0BA@KBCDOMBN@?$GAudt?5returning?8@ 00455e3c     libvcruntime:undname.obj
 0002:00002e4c       ??_C@_03KLGMFNMG@?$GAEH@   00455e4c     libvcruntime:undname.obj
 0002:00002e50       ??_C@_05KHLCHHI@?$GARTTI@  00455e50     libvcruntime:undname.obj
 0002:00002e58       ??_C@_0BA@KKLDJDLB@?$GAlocal?5vftable?8@ 00455e58     libvcruntime:undname.obj
 0002:00002e68       ??_C@_0CE@IIHCMGGL@?$GAlocal?5vftable?5constructor?5clos@ 00455e68     libvcruntime:undname.obj
 0002:00002e8c       ??_C@_06FHBGPFGH@?5new?$FL?$FN@ 00455e8c     libvcruntime:undname.obj
 0002:00002e94       ??_C@_09LBNFPBCA@?5delete?$FL?$FN@ 00455e94     libvcruntime:undname.obj
 0002:00002ea0       ??_C@_0P@HJKNJFNN@?$GAomni?5callsig?8@ 00455ea0     libvcruntime:undname.obj
 0002:00002eb0       ??_C@_0BL@CNOONJFP@?$GAplacement?5delete?5closure?8@ 00455eb0     libvcruntime:undname.obj
 0002:00002ecc       ??_C@_0BN@CKNJLHMB@?$GAplacement?5delete?$FL?$FN?5closure?8@ 00455ecc     libvcruntime:undname.obj
 0002:00002eec       ??_C@_0CG@CFDHKGGD@?$GAmanaged?5vector?5constructor?5ite@ 00455eec     libvcruntime:undname.obj
 0002:00002f14       ??_C@_0CF@IMGKMJNO@?$GAmanaged?5vector?5destructor?5iter@ 00455f14     libvcruntime:undname.obj
 0002:00002f3c       ??_C@_0CG@HLDDJMAG@?$GAeh?5vector?5copy?5constructor?5ite@ 00455f3c     libvcruntime:undname.obj
 0002:00002f64       ??_C@_0CM@FCBBDIGB@?$GAeh?5vector?5vbase?5copy?5construct@ 00455f64     libvcruntime:undname.obj
 0002:00002f90       ??_C@_0BL@CLIPGLGB@?$GAdynamic?5initializer?5for?5?8@ 00455f90     libvcruntime:undname.obj
 0002:00002fac       ??_C@_0CB@PDBIFEP@?$GAdynamic?5atexit?5destructor?5for?5@ 00455fac     libvcruntime:undname.obj
 0002:00002fd0       ??_C@_0CD@CGAJBKEJ@?$GAvector?5copy?5constructor?5iterat@ 00455fd0     libvcruntime:undname.obj
 0002:00002ff4       ??_C@_0CJ@GJELGAMM@?$GAvector?5vbase?5copy?5constructor?5@ 00455ff4     libvcruntime:undname.obj
 0002:00003020       ??_C@_0CL@FGIJHLCE@?$GAmanaged?5vector?5copy?5constructo@ 00456020     libvcruntime:undname.obj
 0002:0000304c       ??_C@_0BM@PMGGMLDN@?$GAlocal?5static?5thread?5guard?8@ 0045604c     libvcruntime:undname.obj
 0002:00003068       ??_C@_0N@BDNMDMOL@operator?5?$CC?$CC?5@ 00456068     libvcruntime:undname.obj
 0002:00003078       ??_C@_0BC@GGEBGALA@operator?5co_await@ 00456078     libvcruntime:undname.obj
 0002:0000308c       ??_C@_0M@GAAIMMOH@operator?$DM?$DN?$DO@ 0045608c     libvcruntime:undname.obj
 0002:00003098       ??_C@_0BC@DAFEJGAK@?5Type?5Descriptor?8@ 00456098     libvcruntime:undname.obj
 0002:000030ac       ??_C@_0BM@LDKODKLH@?5Base?5Class?5Descriptor?5at?5?$CI@ 004560ac     libvcruntime:undname.obj
 0002:000030c8       ??_C@_0BD@LGICGFMM@?5Base?5Class?5Array?8@ 004560c8     libvcruntime:undname.obj
 0002:000030dc       ??_C@_0BN@MECKDCOJ@?5Class?5Hierarchy?5Descriptor?8@ 004560dc     libvcruntime:undname.obj
 0002:000030fc       ??_C@_0BK@CFCOFLF@?5Complete?5Object?5Locator?8@ 004560fc     libvcruntime:undname.obj
 0002:00003118       ??_C@_0BG@JNJLAMPM@?$GAanonymous?5namespace?8@ 00456118     libvcruntime:undname.obj
 0002:0000313c       ??_C@_1DM@KHCHBNEB@?$AAa?$AAp?$AAi?$AA?9?$AAm?$AAs?$AA?9?$AAw?$AAi?$AAn?$AA?9?$AAc?$AAo?$AAr?$AAe@ 0045613c     libvcruntime:winapi_downlevel.obj
 0002:00003178       ??_C@_1DK@LPPGFMPP@?$AAa?$AAp?$AAi?$AA?9?$AAm?$AAs?$AA?9?$AAw?$AAi?$AAn?$AA?9?$AAc?$AAo?$AAr?$AAe@ 00456178     libvcruntime:winapi_downlevel.obj
 0002:000031b4       ??_C@_1BC@GDMECMAK@?$AAk?$AAe?$AAr?$AAn?$AAe?$AAl?$AA3?$AA2@ 004561b4     libvcruntime:winapi_downlevel.obj
 0002:000031c8       ??_C@_1BA@PFFKHIOG@?$AAa?$AAp?$AAi?$AA?9?$AAm?$AAs?$AA?9@ 004561c8     libvcruntime:winapi_downlevel.obj
 0002:000031e0       ??_C@_08KNHFBNJ@FlsAlloc@  004561e0     libvcruntime:winapi_downlevel.obj
 0002:000031f4       ??_C@_07PEJMOBNF@FlsFree@  004561f4     libvcruntime:winapi_downlevel.obj
 0002:00003204       ??_C@_0M@GDNOONDI@FlsGetValue@ 00456204     libvcruntime:winapi_downlevel.obj
 0002:00003218       ??_C@_0M@JCPCPOEF@FlsSetValue@ 00456218     libvcruntime:winapi_downlevel.obj
 0002:0000322c       ??_C@_0BM@HCFOFFN@InitializeCriticalSectionEx@ 0045622c     libvcruntime:winapi_downlevel.obj
 0002:000033b0       ?standard_lookup_table_spectre@__crt_stdio_output@@3V?$spectre_mitigated_lookup_table@Ustate_transition_pair@__crt_stdio_output@@$0IA@@1@B 004563b0     libucrt:output.obj
 0002:000037b0       ?format_validation_lookup_table_spectre@__crt_stdio_output@@3V?$spectre_mitigated_lookup_table@Ustate_transition_pair@__crt_stdio_output@@$0IA@@1@B 004567b0     libucrt:output.obj
 0002:00003bb0       ??_C@_1O@CEDCILHN@?$AA?$CI?$AAn?$AAu?$AAl?$AAl?$AA?$CJ@ 00456bb0     libucrt:output.obj
 0002:00003bc0       ??_C@_06OJHGLDPL@?$CInull?$CJ@ 00456bc0     libucrt:output.obj
 0002:00003bc8       ?large_power_data@?1??multiply_by_power_of_ten@__crt_strtox@@YA_NAAUbig_integer@2@I@Z@4QBIB 00456bc8     libucrt:atof.obj
 0002:000044d0       ?large_power_indices@?1??multiply_by_power_of_ten@__crt_strtox@@YA_NAAUbig_integer@2@I@Z@4QBUunpack_index@?1??12@YA_N0I@Z@B 004574d0     libucrt:atof.obj
 0002:00004568       ?small_powers_of_ten@?1??multiply_by_power_of_ten@__crt_strtox@@YA_NAAUbig_integer@2@I@Z@4QBIB 00457568     libucrt:atof.obj
 0002:00004590       ??_C@_1GE@DPGDJKLM@?$AAm?$AAi?$AAn?$AAk?$AAe?$AAr?$AAn?$AAe?$AAl?$AA?2?$AAc?$AAr?$AAt?$AAs?$AA?2@ 00457590     libucrt:atof.obj
 0002:000045f8       ??_C@_1FM@FELNCOBF@?$AA_?$AA_?$AAc?$AAr?$AAt?$AA_?$AAs?$AAt?$AAr?$AAt?$AAo?$AAx?$AA?3?$AA?3?$AAf@ 004575f8     libucrt:atof.obj
 0002:00004654       ??_C@_1BG@GEMHBGAF@?$AA_?$AAi?$AAs?$AA_?$AAd?$AAo?$AAu?$AAb?$AAl?$AAe@ 00457654     libucrt:atof.obj
 0002:00004670       ??_C@_1FK@JOJELFFO@?$AA_?$AA_?$AAc?$AAr?$AAt?$AA_?$AAs?$AAt?$AAr?$AAt?$AAo?$AAx?$AA?3?$AA?3?$AAf@ 00457670     libucrt:atof.obj
 0002:000046cc       ??_C@_1BI@BANMPGJI@?$AA?$CB?$AA_?$AAi?$AAs?$AA_?$AAd?$AAo?$AAu?$AAb?$AAl?$AAe@ 004576cc     libucrt:atof.obj
 0002:000046e4       ?inf_uppercase@?1???$parse_floating_point_possible_infinity@DV?$c_string_character_source@D@__crt_strtox@@PBD@__crt_strtox@@YA?AW4floating_point_parse_result@1@AADAAV?$c_string_character_source@D@1@PBD@Z@4QBDB 004576e4     libucrt:atof.obj
 0002:000046e8       ?inf_lowercase@?1???$parse_floating_point_possible_infinity@DV?$c_string_character_source@D@__crt_strtox@@PBD@__crt_strtox@@YA?AW4floating_point_parse_result@1@AADAAV?$c_string_character_source@D@1@PBD@Z@4QBDB 004576e8     libucrt:atof.obj
 0002:000046ec       ?inity_uppercase@?1???$parse_floating_point_possible_infinity@DV?$c_string_character_source@D@__crt_strtox@@PBD@__crt_strtox@@YA?AW4floating_point_parse_result@1@AADAAV?$c_string_character_source@D@1@PBD@Z@4QBDB 004576ec     libucrt:atof.obj
 0002:000046f4       ?inity_lowercase@?1???$parse_floating_point_possible_infinity@DV?$c_string_character_source@D@__crt_strtox@@PBD@__crt_strtox@@YA?AW4floating_point_parse_result@1@AADAAV?$c_string_character_source@D@1@PBD@Z@4QBDB 004576f4     libucrt:atof.obj
 0002:000046fc       ?uppercase@?1???$parse_floating_point_possible_nan@DV?$c_string_character_source@D@__crt_strtox@@PBD@__crt_strtox@@YA?AW4floating_point_parse_result@1@AADAAV?$c_string_character_source@D@1@PBD@Z@4QBDB 004576fc     libucrt:atof.obj
 0002:00004700       ?lowercase@?1???$parse_floating_point_possible_nan@DV?$c_string_character_source@D@__crt_strtox@@PBD@__crt_strtox@@YA?AW4floating_point_parse_result@1@AADAAV?$c_string_character_source@D@1@PBD@Z@4QBDB 00457700     libucrt:atof.obj
 0002:00004704       ?uppercase@?1???$parse_floating_point_possible_nan_is_snan@DV?$c_string_character_source@D@__crt_strtox@@@__crt_strtox@@YA_NAADAAV?$c_string_character_source@D@1@@Z@4QBDB 00457704     libucrt:atof.obj
 0002:0000470c       ?lowercase@?1???$parse_floating_point_possible_nan_is_snan@DV?$c_string_character_source@D@__crt_strtox@@@__crt_strtox@@YA_NAADAAV?$c_string_character_source@D@1@@Z@4QBDB 0045770c     libucrt:atof.obj
 0002:00004714       ?uppercase@?1???$parse_floating_point_possible_nan_is_ind@DV?$c_string_character_source@D@__crt_strtox@@@__crt_strtox@@YA_NAADAAV?$c_string_character_source@D@1@@Z@4QBDB 00457714     libucrt:atof.obj
 0002:00004718       ?lowercase@?1???$parse_floating_point_possible_nan_is_ind@DV?$c_string_character_source@D@__crt_strtox@@@__crt_strtox@@YA_NAADAAV?$c_string_character_source@D@1@@Z@4QBDB 00457718     libucrt:atof.obj
 0002:00004720       __real@3ff0000000000000    00457720     libucrt:ldexp.obj
 0002:000047f0       ___newctype                004577f0     libucrt:ctype.obj
 0002:00004af0       ___newclmap                00457af0     libucrt:ctype.obj
 0002:00004c70       ___newcumap                00457c70     libucrt:ctype.obj
 0002:00004df0       __wctype                   00457df0     libucrt:ctype.obj
 0002:00005004       __half                     00458004     libucrt:pow_impl.obj
 0002:0000500c       ??_C@_1M@PBPMMENC@?$AAa?$AAm?$AA?1?$AAp?$AAm@ 0045800c     libucrt:wcsftime.obj
 0002:00005018       ??_C@_17BLFJJHMM@?$AAa?$AA?1?$AAp@ 00458018     libucrt:wcsftime.obj
 0002:00005020       ??_C@_13HOIJIPNN@?$AA?5@   00458020     libucrt:wcsftime.obj
 0002:00005024       ??_C@_13CGOKJPIL@?$AA?1@   00458024     libucrt:wcsftime.obj
 0002:00005028       ??_C@_13LBAGMAIH@?$AA?6@   00458028     libucrt:wcsftime.obj
 0002:0000502c       ??_C@_13EBCNDICG@?$AA?3@   0045802c     libucrt:wcsftime.obj
 0002:00005030       ??_C@_13KDLDGPGJ@?$AA?7@   00458030     libucrt:wcsftime.obj
 0002:00005034       ??_C@_13KJIIAINM@?$AA?$CL@ 00458034     libucrt:wcsftime.obj
 0002:00005038       ??_C@_13EJFHHPOP@?$AA?$CF@ 00458038     libucrt:wcsftime.obj
 0002:00005040       ___acrt_exception_action_table 00458040     libucrt:exception_filter.obj
 0002:000050d0       ___acrt_signal_action_table_count 004580d0     libucrt:exception_filter.obj
 0002:000050d4       ___acrt_signal_action_first_fpe_index 004580d4     libucrt:exception_filter.obj
 0002:000050d8       ___acrt_signal_action_fpe_count 004580d8     libucrt:exception_filter.obj
 0002:000050dc       ??_C@_1BI@BGOHAHKC@?$AAm?$AAs?$AAc?$AAo?$AAr?$AAe?$AAe?$AA?4?$AAd?$AAl?$AAl@ 004580dc     libucrt:exit.obj
 0002:000050f4       ??_C@_0P@MIGLKIOC@CorExitProcess@ 004580f4     libucrt:exit.obj
 0002:00005270       ??_C@_03KHJOGHMM@exp@      00458270     libucrt:fpexcept.obj
 0002:00005274       ??_C@_03JGHBODFD@pow@      00458274     libucrt:fpexcept.obj
 0002:00005278       ??_C@_03MGHMBJCF@log@      00458278     libucrt:fpexcept.obj
 0002:0000527c       ??_C@_05HGHHAHAP@log10@    0045827c     libucrt:fpexcept.obj
 0002:00005284       ??_C@_04COOMCNPB@sinh@     00458284     libucrt:fpexcept.obj
 0002:0000528c       ??_C@_04HPJJNFIM@cosh@     0045828c     libucrt:fpexcept.obj
 0002:00005294       ??_C@_04FJHINJAO@tanh@     00458294     libucrt:fpexcept.obj
 0002:0000529c       ??_C@_04FIHNOPOL@asin@     0045829c     libucrt:fpexcept.obj
 0002:000052a4       ??_C@_04PDIFKINK@acos@     004582a4     libucrt:fpexcept.obj
 0002:000052ac       ??_C@_04MLLJIGOK@atan@     004582ac     libucrt:fpexcept.obj
 0002:000052b4       ??_C@_05KNGEOGJB@atan2@    004582b4     libucrt:fpexcept.obj
 0002:000052bc       ??_C@_04EIAKFFMI@sqrt@     004582bc     libucrt:fpexcept.obj
 0002:000052c4       ??_C@_03BLEJJJBH@sin@      004582c4     libucrt:fpexcept.obj
 0002:000052c8       ??_C@_03LALBNOCG@cos@      004582c8     libucrt:fpexcept.obj
 0002:000052cc       ??_C@_03IIINPABG@tan@      004582cc     libucrt:fpexcept.obj
 0002:000052d0       ??_C@_04GFPJNGEK@ceil@     004582d0     libucrt:fpexcept.obj
 0002:000052d8       ??_C@_05PBJFFIGL@floor@    004582d8     libucrt:fpexcept.obj
 0002:000052e0       ??_C@_04ODHECPBC@fabs@     004582e0     libucrt:fpexcept.obj
 0002:000052e8       ??_C@_04EHEDPDJG@modf@     004582e8     libucrt:fpexcept.obj
 0002:000052f0       ??_C@_05CEJMAHNP@ldexp@    004582f0     libucrt:fpexcept.obj
 0002:000052f8       ??_C@_05KBKMEMPO@_cabs@    004582f8     libucrt:fpexcept.obj
 0002:00005300       ??_C@_06MEIMCGCF@_hypot@   00458300     libucrt:fpexcept.obj
 0002:00005308       ??_C@_04KEPJIHGP@fmod@     00458308     libucrt:fpexcept.obj
 0002:00005310       ??_C@_05GKKHEGJL@frexp@    00458310     libucrt:fpexcept.obj
 0002:00005318       ??_C@_03MJLDFKDL@_y0@      00458318     libucrt:fpexcept.obj
 0002:0000531c       ??_C@_03NAKIGLHK@_y1@      0045831c     libucrt:fpexcept.obj
 0002:00005320       ??_C@_03ONILCKOB@_yn@      00458320     libucrt:fpexcept.obj
 0002:00005324       ??_C@_05JGDBENOH@_logb@    00458324     libucrt:fpexcept.obj
 0002:0000532c       ??_C@_0L@KDOEJCKC@_nextafter@ 0045832c     libucrt:fpexcept.obj
 0002:000053b8       ___lc_category             004583b8     libucrt:wsetlocale.obj
 0002:00005400       ??_C@_1O@GIFLHMA@?$AAL?$AAC?$AA_?$AAA?$AAL?$AAL@ 00458400     libucrt:wsetlocale.obj
 0002:00005410       ??_C@_1BG@PPOMIBNJ@?$AAL?$AAC?$AA_?$AAC?$AAO?$AAL?$AAL?$AAA?$AAT?$AAE@ 00458410     libucrt:wsetlocale.obj
 0002:00005428       ??_C@_1BC@FFJGAPJM@?$AAL?$AAC?$AA_?$AAC?$AAT?$AAY?$AAP?$AAE@ 00458428     libucrt:wsetlocale.obj
 0002:0000543c       ??_C@_1BI@PCKFNJFB@?$AAL?$AAC?$AA_?$AAM?$AAO?$AAN?$AAE?$AAT?$AAA?$AAR?$AAY@ 0045843c     libucrt:wsetlocale.obj
 0002:00005454       ??_C@_1BG@ENIEDKID@?$AAL?$AAC?$AA_?$AAN?$AAU?$AAM?$AAE?$AAR?$AAI?$AAC@ 00458454     libucrt:wsetlocale.obj
 0002:0000546c       ??_C@_1BA@HAAOMIIG@?$AAL?$AAC?$AA_?$AAT?$AAI?$AAM?$AAE@ 0045846c     libucrt:wsetlocale.obj
 0002:0000547c       ??_C@_15NBPDDFIP@?$AA?$DN?$AA?$DL@ 0045847c     libucrt:wsetlocale.obj
 0002:00005484       ??_C@_13PJJBFPED@?$AA?$DL@ 00458484     libucrt:wsetlocale.obj
 0002:00005488       ??_C@_13NMPKAAJP@?$AA?$DN@ 00458488     libucrt:wsetlocale.obj
 0002:0000548c       ??_C@_17EFJLDFDO@?$AA?9?$AA_?$AA?4@ 0045848c     libucrt:wsetlocale.obj
 0002:00005494       ??_C@_13FHBKNHDA@?$AAC@    00458494     libucrt:wsetlocale.obj
 0002:00005498       ??_C@_17MBJJLFDM@?$AA_?$AA?4?$AA?0@ 00458498     libucrt:wsetlocale.obj
 0002:000054a0       ??_C@_13ENNFDPBH@?$AA_@    004584a0     libucrt:wsetlocale.obj
 0002:000054a4       ??_C@_13JOFGPIOO@?$AA?4@   004584a4     libucrt:wsetlocale.obj
 0002:000054e8       ??_C@_03OEIAHPBN@INF@      004584e8     libucrt:cvt.obj
 0002:000054ec       ??_C@_03OJHLLCGB@inf@      004584ec     libucrt:cvt.obj
 0002:000054f0       ??_C@_03LKNCIKJB@NAN@      004584f0     libucrt:cvt.obj
 0002:000054f4       ??_C@_03LHCJEHON@nan@      004584f4     libucrt:cvt.obj
 0002:000054f8       ??_C@_09OFJJIMPC@NAN?$CISNAN?$CJ@ 004584f8     libucrt:cvt.obj
 0002:00005504       ??_C@_09IPFBKMDL@nan?$CIsnan?$CJ@ 00458504     libucrt:cvt.obj
 0002:00005510       ??_C@_08IKHNHAJ@NAN?$CIIND?$CJ@ 00458510     libucrt:cvt.obj
 0002:0000551c       ??_C@_08OFCDMILK@nan?$CIind?$CJ@ 0045851c     libucrt:cvt.obj
 0002:00005528       ??_C@_05KLBDPFGC@e?$CL000@ 00458528     libucrt:cvt.obj
 0002:00005530       ___lc_time_c               00458530     libucrt:nlsdata.obj
 0002:00005694       ??_C@_03KOEHGMDN@Sun@      00458694     libucrt:nlsdata.obj
 0002:00005698       ??_C@_03PDAGKDH@Mon@       00458698     libucrt:nlsdata.obj
 0002:0000569c       ??_C@_03NAGEINEP@Tue@      0045869c     libucrt:nlsdata.obj
 0002:000056a0       ??_C@_03MHOMLAJA@Wed@      004586a0     libucrt:nlsdata.obj
 0002:000056a4       ??_C@_03IOFIKPDN@Thu@      004586a4     libucrt:nlsdata.obj
 0002:000056a8       ??_C@_03IDIOELNC@Fri@      004586a8     libucrt:nlsdata.obj
 0002:000056ac       ??_C@_03FEFJNEK@Sat@       004586ac     libucrt:nlsdata.obj
 0002:000056b0       ??_C@_06OOPIFAJ@Sunday@    004586b0     libucrt:nlsdata.obj
 0002:000056b8       ??_C@_06JLEDEDGH@Monday@   004586b8     libucrt:nlsdata.obj
 0002:000056c0       ??_C@_07BAAGCFCM@Tuesday@  004586c0     libucrt:nlsdata.obj
 0002:000056c8       ??_C@_09DLIGFAKA@Wednesday@ 004586c8     libucrt:nlsdata.obj
 0002:000056d4       ??_C@_08HACCIKIA@Thursday@ 004586d4     libucrt:nlsdata.obj
 0002:000056e0       ??_C@_06JECMNKMI@Friday@   004586e0     libucrt:nlsdata.obj
 0002:000056e8       ??_C@_08INBOOONO@Saturday@ 004586e8     libucrt:nlsdata.obj
 0002:000056f4       ??_C@_03JIHJHPIE@Jan@      004586f4     libucrt:nlsdata.obj
 0002:000056f8       ??_C@_03HJBDCHOM@Feb@      004586f8     libucrt:nlsdata.obj
 0002:000056fc       ??_C@_03ODNJBKGA@Mar@      004586fc     libucrt:nlsdata.obj
 0002:00005700       ??_C@_03LEOLGMJP@Apr@      00458700     libucrt:nlsdata.obj
 0002:00005704       ??_C@_03CNMDKL@May@        00458704     libucrt:nlsdata.obj
 0002:00005708       ??_C@_03IDFGHECI@Jun@      00458708     libucrt:nlsdata.obj
 0002:0000570c       ??_C@_03LBGABGKK@Jul@      0045870c     libucrt:nlsdata.obj
 0002:00005710       ??_C@_03IFJFEIGA@Aug@      00458710     libucrt:nlsdata.obj
 0002:00005714       ??_C@_03GGCAPAJC@Sep@      00458714     libucrt:nlsdata.obj
 0002:00005718       ??_C@_03BMAOKBAD@Oct@      00458718     libucrt:nlsdata.obj
 0002:0000571c       ??_C@_03JPJOFNIA@Nov@      0045871c     libucrt:nlsdata.obj
 0002:00005720       ??_C@_03MKABNOCG@Dec@      00458720     libucrt:nlsdata.obj
 0002:00005724       ??_C@_07CGJPFGJA@January@  00458724     libucrt:nlsdata.obj
 0002:0000572c       ??_C@_08GNJGEPFN@February@ 0045872c     libucrt:nlsdata.obj
 0002:00005738       ??_C@_05HPCKOFNC@March@    00458738     libucrt:nlsdata.obj
 0002:00005740       ??_C@_05DMJDNLEJ@April@    00458740     libucrt:nlsdata.obj
 0002:00005748       ??_C@_04CNLMGBGM@June@     00458748     libucrt:nlsdata.obj
 0002:00005750       ??_C@_04MIEPOIFP@July@     00458750     libucrt:nlsdata.obj
 0002:00005758       ??_C@_06LBBHFDDG@August@   00458758     libucrt:nlsdata.obj
 0002:00005760       ??_C@_09BHHEALKD@September@ 00458760     libucrt:nlsdata.obj
 0002:0000576c       ??_C@_07JJNFCEND@October@  0045876c     libucrt:nlsdata.obj
 0002:00005774       ??_C@_08HCHEGEOA@November@ 00458774     libucrt:nlsdata.obj
 0002:00005780       ??_C@_08EDHMEBNP@December@ 00458780     libucrt:nlsdata.obj
 0002:0000578c       ??_C@_02DEDBPAFC@AM@       0045878c     libucrt:nlsdata.obj
 0002:00005790       ??_C@_02CJNFDJBF@PM@       00458790     libucrt:nlsdata.obj
 0002:00005794       ??_C@_08BPBNCDIB@MM?1dd?1yy@ 00458794     libucrt:nlsdata.obj
 0002:000057a0       ??_C@_0BE@CKGJFCPC@dddd?0?5MMMM?5dd?0?5yyyy@ 004587a0     libucrt:nlsdata.obj
 0002:000057b4       ??_C@_08JCCMCCIL@HH?3mm?3ss@ 004587b4     libucrt:nlsdata.obj
 0002:000057c0       ??_C@_17MBGCMIPB@?$AAS?$AAu?$AAn@ 004587c0     libucrt:nlsdata.obj
 0002:000057c8       ??_C@_17KBOMKBF@?$AAM?$AAo?$AAn@ 004587c8     libucrt:nlsdata.obj
 0002:000057d0       ??_C@_17BMKGEGOJ@?$AAT?$AAu?$AAe@ 004587d0     libucrt:nlsdata.obj
 0002:000057d8       ??_C@_17CJEDCEPE@?$AAW?$AAe?$AAd@ 004587d8     libucrt:nlsdata.obj
 0002:000057e0       ??_C@_17PDPHAADD@?$AAT?$AAh?$AAu@ 004587e0     libucrt:nlsdata.obj
 0002:000057e8       ??_C@_17HFOLPPLP@?$AAF?$AAr?$AAi@ 004587e8     libucrt:nlsdata.obj
 0002:000057f0       ??_C@_17GGIBDPIH@?$AAS?$AAa?$AAt@ 004587f0     libucrt:nlsdata.obj
 0002:000057f8       ??_C@_1O@IHNHDHPB@?$AAS?$AAu?$AAn?$AAd?$AAa?$AAy@ 004587f8     libucrt:nlsdata.obj
 0002:00005808       ??_C@_1O@MMNBFLIA@?$AAM?$AAo?$AAn?$AAd?$AAa?$AAy@ 00458808     libucrt:nlsdata.obj
 0002:00005818       ??_C@_1BA@ENFBFFEK@?$AAT?$AAu?$AAe?$AAs?$AAd?$AAa?$AAy@ 00458818     libucrt:nlsdata.obj
 0002:00005828       ??_C@_1BE@EBOGMDOH@?$AAW?$AAe?$AAd?$AAn?$AAe?$AAs?$AAd?$AAa?$AAy@ 00458828     libucrt:nlsdata.obj
 0002:0000583c       ??_C@_1BC@HHMNLIHE@?$AAT?$AAh?$AAu?$AAr?$AAs?$AAd?$AAa?$AAy@ 0045883c     libucrt:nlsdata.obj
 0002:00005850       ??_C@_1O@PDICJHAG@?$AAF?$AAr?$AAi?$AAd?$AAa?$AAy@ 00458850     libucrt:nlsdata.obj
 0002:00005860       ??_C@_1BC@ENMNNPAJ@?$AAS?$AAa?$AAt?$AAu?$AAr?$AAd?$AAa?$AAy@ 00458860     libucrt:nlsdata.obj
 0002:00005874       ??_C@_17DKNBKCHM@?$AAJ?$AAa?$AAn@ 00458874     libucrt:nlsdata.obj
 0002:0000587c       ??_C@_17LMDJEKJN@?$AAF?$AAe?$AAb@ 0045887c     libucrt:nlsdata.obj
 0002:00005884       ??_C@_17CKNLEDEC@?$AAM?$AAa?$AAr@ 00458884     libucrt:nlsdata.obj
 0002:0000588c       ??_C@_17LFPOIHDD@?$AAA?$AAp?$AAr@ 0045888c     libucrt:nlsdata.obj
 0002:00005894       ??_C@_17PNNKMEED@?$AAM?$AAa?$AAy@ 00458894     libucrt:nlsdata.obj
 0002:0000589c       ??_C@_17KCJGOCPB@?$AAJ?$AAu?$AAn@ 0045889c     libucrt:nlsdata.obj
 0002:000058a4       ??_C@_17IJPCKHK@?$AAJ?$AAu?$AAl@ 004588a4     libucrt:nlsdata.obj
 0002:000058ac       ??_C@_17ICPELBCN@?$AAA?$AAu?$AAg@ 004588ac     libucrt:nlsdata.obj
 0002:000058b4       ??_C@_17HCHCOKMG@?$AAS?$AAe?$AAp@ 004588b4     libucrt:nlsdata.obj
 0002:000058bc       ??_C@_17FNLKOI@?$AAO?$AAc?$AAt@ 004588bc     libucrt:nlsdata.obj
 0002:000058c4       ??_C@_17BBDMLCIG@?$AAN?$AAo?$AAv@ 004588c4     libucrt:nlsdata.obj
 0002:000058cc       ??_C@_17EGKACKIF@?$AAD?$AAe?$AAc@ 004588cc     libucrt:nlsdata.obj
 0002:000058d4       ??_C@_1BA@EFMEIEBA@?$AAJ?$AAa?$AAn?$AAu?$AAa?$AAr?$AAy@ 004588d4     libucrt:nlsdata.obj
 0002:000058e4       ??_C@_1BC@JGDDFFAM@?$AAF?$AAe?$AAb?$AAr?$AAu?$AAa?$AAr?$AAy@ 004588e4     libucrt:nlsdata.obj
 0002:000058f8       ??_C@_1M@IKEENEDF@?$AAM?$AAa?$AAr?$AAc?$AAh@ 004588f8     libucrt:nlsdata.obj
 0002:00005904       ??_C@_1M@GJNLMHFD@?$AAA?$AAp?$AAr?$AAi?$AAl@ 00458904     libucrt:nlsdata.obj
 0002:00005910       ??_C@_19EPFLPGAP@?$AAJ?$AAu?$AAn?$AAe@ 00458910     libucrt:nlsdata.obj
 0002:0000591c       ??_C@_19BIFMLPCD@?$AAJ?$AAu?$AAl?$AAy@ 0045891c     libucrt:nlsdata.obj
 0002:00005928       ??_C@_1O@PAHLKOAC@?$AAA?$AAu?$AAg?$AAu?$AAs?$AAt@ 00458928     libucrt:nlsdata.obj
 0002:00005938       ??_C@_1BE@DKAAMBJL@?$AAS?$AAe?$AAp?$AAt?$AAe?$AAm?$AAb?$AAe?$AAr@ 00458938     libucrt:nlsdata.obj
 0002:0000594c       ??_C@_1BA@EPANDLNG@?$AAO?$AAc?$AAt?$AAo?$AAb?$AAe?$AAr@ 0045894c     libucrt:nlsdata.obj
 0002:0000595c       ??_C@_1BC@BGLIFPF@?$AAN?$AAo?$AAv?$AAe?$AAm?$AAb?$AAe?$AAr@ 0045895c     libucrt:nlsdata.obj
 0002:00005970       ??_C@_1BC@FEMKIFH@?$AAD?$AAe?$AAc?$AAe?$AAm?$AAb?$AAe?$AAr@ 00458970     libucrt:nlsdata.obj
 0002:00005984       ??_C@_15ODEHAHHF@?$AAA?$AAM@ 00458984     libucrt:nlsdata.obj
 0002:0000598c       ??_C@_15CLMNNGEL@?$AAP?$AAM@ 0045898c     libucrt:nlsdata.obj
 0002:00005994       ??_C@_1BC@IEBCMHCM@?$AAM?$AAM?$AA?1?$AAd?$AAd?$AA?1?$AAy?$AAy@ 00458994     libucrt:nlsdata.obj
 0002:000059a8       ??_C@_1CI@KNAKOEBC@?$AAd?$AAd?$AAd?$AAd?$AA?0?$AA?5?$AAM?$AAM?$AAM?$AAM?$AA?5?$AAd?$AAd?$AA?0?$AA?5@ 004589a8     libucrt:nlsdata.obj
 0002:000059d0       ??_C@_1BC@GDGBMEMK@?$AAH?$AAH?$AA?3?$AAm?$AAm?$AA?3?$AAs?$AAs@ 004589d0     libucrt:nlsdata.obj
 0002:000059e4       ??_C@_1M@BMHNFIME@?$AAe?$AAn?$AA?9?$AAU?$AAS@ 004589e4     libucrt:nlsdata.obj
 0002:000059f0       ??_C@_15HNJCPLHL@?$AAT?$AAZ@ 004589f0     libucrt:tzset.obj
 0002:00005a48       ??_C@_1EA@JGEFHKEI@?$AAa?$AAp?$AAi?$AA?9?$AAm?$AAs?$AA?9?$AAw?$AAi?$AAn?$AA?9?$AAc?$AAo?$AAr?$AAe@ 00458a48     libucrt:winapi_thunks.obj
 0002:00005a88       ??_C@_1DI@IJCEHOCB@?$AAa?$AAp?$AAi?$AA?9?$AAm?$AAs?$AA?9?$AAw?$AAi?$AAn?$AA?9?$AAc?$AAo?$AAr?$AAe@ 00458a88     libucrt:winapi_thunks.obj
 0002:00005ac0       ??_C@_1EI@MPIAOHOC@?$AAa?$AAp?$AAi?$AA?9?$AAm?$AAs?$AA?9?$AAw?$AAi?$AAn?$AA?9?$AAc?$AAo?$AAr?$AAe@ 00458ac0     libucrt:winapi_thunks.obj
 0002:00005b08       ??_C@_1FK@FPHCKFIE@?$AAa?$AAp?$AAi?$AA?9?$AAm?$AAs?$AA?9?$AAw?$AAi?$AAn?$AA?9?$AAc?$AAo?$AAr?$AAe@ 00458b08     libucrt:winapi_thunks.obj
 0002:00005b68       ??_C@_1EM@DILCGIIO@?$AAa?$AAp?$AAi?$AA?9?$AAm?$AAs?$AA?9?$AAw?$AAi?$AAn?$AA?9?$AAc?$AAo?$AAr?$AAe@ 00458b68     libucrt:winapi_thunks.obj
 0002:00005bb4       ??_C@_1DM@LNCGDDPN@?$AAa?$AAp?$AAi?$AA?9?$AAm?$AAs?$AA?9?$AAw?$AAi?$AAn?$AA?9?$AAc?$AAo?$AAr?$AAe@ 00458bb4     libucrt:winapi_thunks.obj
 0002:00005bf0       ??_C@_1DO@FPAPJEMD@?$AAa?$AAp?$AAi?$AA?9?$AAm?$AAs?$AA?9?$AAw?$AAi?$AAn?$AA?9?$AAc?$AAo?$AAr?$AAe@ 00458bf0     libucrt:winapi_thunks.obj
 0002:00005c30       ??_C@_1DK@NDHNAHIO@?$AAa?$AAp?$AAi?$AA?9?$AAm?$AAs?$AA?9?$AAw?$AAi?$AAn?$AA?9?$AAc?$AAo?$AAr?$AAe@ 00458c30     libucrt:winapi_thunks.obj
 0002:00005c6c       ??_C@_1DM@KGHDGBCM@?$AAa?$AAp?$AAi?$AA?9?$AAm?$AAs?$AA?9?$AAw?$AAi?$AAn?$AA?9?$AAc?$AAo?$AAr?$AAe@ 00458c6c     libucrt:winapi_thunks.obj
 0002:00005ca8       ??_C@_1EO@IJIOEFOH@?$AAa?$AAp?$AAi?$AA?9?$AAm?$AAs?$AA?9?$AAw?$AAi?$AAn?$AA?9?$AAr?$AAt?$AAc?$AAo@ 00458ca8     libucrt:winapi_thunks.obj
 0002:00005cf8       ??_C@_1FG@HHGEKANL@?$AAa?$AAp?$AAi?$AA?9?$AAm?$AAs?$AA?9?$AAw?$AAi?$AAn?$AA?9?$AAs?$AAe?$AAc?$AAu@ 00458cf8     libucrt:winapi_thunks.obj
 0002:00005d50       ??_C@_1EG@DBIOJECG@?$AAe?$AAx?$AAt?$AA?9?$AAm?$AAs?$AA?9?$AAw?$AAi?$AAn?$AA?9?$AAn?$AAt?$AAu?$AAs@ 00458d50     libucrt:winapi_thunks.obj
 0002:00005d98       ??_C@_1EO@FIHMJCLF@?$AAe?$AAx?$AAt?$AA?9?$AAm?$AAs?$AA?9?$AAw?$AAi?$AAn?$AA?9?$AAn?$AAt?$AAu?$AAs@ 00458d98     libucrt:winapi_thunks.obj
 0002:00005de8       ??_C@_1BC@DNHGCMLG@?$AAa?$AAd?$AAv?$AAa?$AAp?$AAi?$AA3?$AA2@ 00458de8     libucrt:winapi_thunks.obj
 0002:00005dfc       ??_C@_1M@OAIMIKLP@?$AAn?$AAt?$AAd?$AAl?$AAl@ 00458dfc     libucrt:winapi_thunks.obj
 0002:00005e08       ??_C@_1EG@DPGNFKGC@?$AAa?$AAp?$AAi?$AA?9?$AAm?$AAs?$AA?9?$AAw?$AAi?$AAn?$AA?9?$AAa?$AAp?$AAp?$AAm@ 00458e08     libucrt:winapi_thunks.obj
 0002:00005e50       ??_C@_1O@BCCLBEOE@?$AAu?$AAs?$AAe?$AAr?$AA3?$AA2@ 00458e50     libucrt:winapi_thunks.obj
 0002:00005e60       ??_C@_1BA@IAIFMGEF@?$AAe?$AAx?$AAt?$AA?9?$AAm?$AAs?$AA?9@ 00458e60     libucrt:winapi_thunks.obj
 0002:00005e74       ??_C@_0BA@FHFNEAED@AreFileApisANSI@ 00458e74     libucrt:winapi_thunks.obj
 0002:00005e8c       ??_C@_0BA@IHGNDAEB@CompareStringEx@ 00458e8c     libucrt:winapi_thunks.obj
 0002:00005ea4       ??_C@_0BE@LJANKFHF@EnumSystemLocalesEx@ 00458ea4     libucrt:winapi_thunks.obj
 0002:00005ee0       ??_C@_0BA@EPCJIIPD@GetDateFormatEx@ 00458ee0     libucrt:winapi_thunks.obj
 0002:00005ef8       ??_C@_0BA@ONOKGCMP@GetLocaleInfoEx@ 00458ef8     libucrt:winapi_thunks.obj
 0002:00005f10       ??_C@_0BA@CIJJKCJJ@GetTimeFormatEx@ 00458f10     libucrt:winapi_thunks.obj
 0002:00005f28       ??_C@_0BJ@PBCCBIPI@GetUserDefaultLocaleName@ 00458f28     libucrt:winapi_thunks.obj
 0002:00005f54       ??_C@_0BC@CELBKLLA@IsValidLocaleName@ 00458f54     libucrt:winapi_thunks.obj
 0002:00005f70       ??_C@_0O@KKBNKAPF@LCMapStringEx@ 00458f70     libucrt:winapi_thunks.obj
 0002:00005f88       ??_C@_0BB@CDHDDLLP@LCIDToLocaleName@ 00458f88     libucrt:winapi_thunks.obj
 0002:00005fa4       ??_C@_0BB@HBDEELFH@LocaleNameToLCID@ 00458fa4     libucrt:winapi_thunks.obj
 0002:00005fbc       ??_C@_0CF@OJOFEIGO@AppPolicyGetProcessTerminationM@ 00458fbc     libucrt:winapi_thunks.obj
 0002:00005fe4       ?ccs@?1???$__acrt_stdio_parse_mode@D@@YA?AU__acrt_stdio_stream_mode@@QBD@Z@4QBDB 00458fe4     libucrt:openfile.obj
 0002:00005fe8       ?utf8_encoding@?1???$__acrt_stdio_parse_mode@D@@YA?AU__acrt_stdio_stream_mode@@QBD@Z@4QBDB 00458fe8     libucrt:openfile.obj
 0002:00005ff0       ?utf16_encoding@?1???$__acrt_stdio_parse_mode@D@@YA?AU__acrt_stdio_stream_mode@@QBD@Z@4QBDB 00458ff0     libucrt:openfile.obj
 0002:00005ff8       ?unicode_encoding@?1???$__acrt_stdio_parse_mode@D@@YA?AU__acrt_stdio_stream_mode@@QBD@Z@4QBDB 00458ff8     libucrt:openfile.obj
 0002:00006000       __days                     00459000     libucrt:days.obj
 0002:00006034       __lpdays                   00459034     libucrt:days.obj
 0002:00006068       __d_inf                    00459068     libucrt:util.obj
 0002:00006070       __d_max                    00459070     libucrt:util.obj
 0002:00006078       __d_mzero                  00459078     libucrt:util.obj
 0002:00006098       ___acrt_pow_rcp_t1         00459098     libucrt:pow_tables.obj
 0002:000064b0       ___acrt_pow_log2_t1        004594b0     libucrt:pow_tables.obj
 0002:00006cc0       ___acrt_pow_rcp_t2         00459cc0     libucrt:pow_tables.obj
 0002:000070d0       ___acrt_pow_log2_t2        0045a0d0     libucrt:pow_tables.obj
 0002:000078e0       ___acrt_pow_rcp_t3         0045a8e0     libucrt:pow_tables.obj
 0002:000080f0       ___acrt_pow_log2_t3        0045b0f0     libucrt:pow_tables.obj
 0002:00009100       ___acrt_pow_clv            0045c100     libucrt:pow_tables.obj
 0002:00009120       ___acrt_pow_exp2_tbl       0045c120     libucrt:pow_tables.obj
 0002:000099e0       __infinity                 0045c9e0     libucrt:87tran.obj
 0002:000099ea       __minfinity                0045c9ea     libucrt:87tran.obj
 0002:000099f4       __logemax                  0045c9f4     libucrt:87tran.obj
 0002:00009a1a       __OP_EXPjmptab             0045ca1a     libucrt:87tran.obj
 0002:00009a40       __indefinite               0045ca40     libucrt:87disp.obj
 0002:00009a4a       __piby2                    0045ca4a     libucrt:87disp.obj
 0002:00009a54       __piby4                    0045ca54     libucrt:87disp.obj
 0002:00009a88       __DEFAULT_CW_in_mem        0045ca88     libucrt:common.obj
 0002:00009a8a       __pi_by_2_to_61            0045ca8a     libucrt:common.obj
 0002:00009ac8       __real@3fe0000000000000    0045cac8     libucrt:powhlp.obj
 0002:00009ae0       ??_C@_1M@HPNHIDJI@?$AAj?$AAa?$AA?9?$AAJ?$AAP@ 0045cae0     libucrt:mbctype.obj
 0002:00009aec       ??_C@_1M@BIBDDEMK@?$AAz?$AAh?$AA?9?$AAC?$AAN@ 0045caec     libucrt:mbctype.obj
 0002:00009af8       ??_C@_1M@JLOOOEGK@?$AAk?$AAo?$AA?9?$AAK?$AAR@ 0045caf8     libucrt:mbctype.obj
 0002:00009b04       ??_C@_1M@CLNBBOPM@?$AAz?$AAh?$AA?9?$AAT?$AAW@ 0045cb04     libucrt:mbctype.obj
 0002:00009b10       ___acrt_rg_language        0045cb10     libucrt:get_qualified_locale.obj
 0002:00009e1c       ___acrt_rg_language_count  0045ce1c     libucrt:get_qualified_locale.obj
 0002:00009e20       ___acrt_rg_country         0045ce20     libucrt:get_qualified_locale.obj
 0002:00009f34       ___acrt_rg_country_count   0045cf34     libucrt:get_qualified_locale.obj
 0002:00009f38       ??_C@_1BC@LLOKLNP@?$AAa?$AAm?$AAe?$AAr?$AAi?$AAc?$AAa?$AAn@ 0045cf38     libucrt:get_qualified_locale.obj
 0002:00009f4c       ??_C@_1CC@HEIGCDGG@?$AAa?$AAm?$AAe?$AAr?$AAi?$AAc?$AAa?$AAn?$AA?5?$AAe?$AAn?$AAg?$AAl?$AAi?$AAs@ 0045cf4c     libucrt:get_qualified_locale.obj
 0002:00009f70       ??_C@_1CC@IHCNOMIN@?$AAa?$AAm?$AAe?$AAr?$AAi?$AAc?$AAa?$AAn?$AA?9?$AAe?$AAn?$AAg?$AAl?$AAi?$AAs@ 0045cf70     libucrt:get_qualified_locale.obj
 0002:00009f94       ??_C@_1BG@GKAGPCGG@?$AAa?$AAu?$AAs?$AAt?$AAr?$AAa?$AAl?$AAi?$AAa?$AAn@ 0045cf94     libucrt:get_qualified_locale.obj
 0002:00009fac       ??_C@_1BA@GMENCENF@?$AAb?$AAe?$AAl?$AAg?$AAi?$AAa?$AAn@ 0045cfac     libucrt:get_qualified_locale.obj
 0002:00009fbc       ??_C@_1BC@PJMIIAAN@?$AAc?$AAa?$AAn?$AAa?$AAd?$AAi?$AAa?$AAn@ 0045cfbc     libucrt:get_qualified_locale.obj
 0002:00009fd0       ??_C@_17NOIMNFBF@?$AAc?$AAh?$AAh@ 0045cfd0     libucrt:get_qualified_locale.obj
 0002:00009fd8       ??_C@_17GGDALCHA@?$AAc?$AAh?$AAi@ 0045cfd8     libucrt:get_qualified_locale.obj
 0002:00009fe0       ??_C@_1BA@NPNJKIBL@?$AAc?$AAh?$AAi?$AAn?$AAe?$AAs?$AAe@ 0045cfe0     libucrt:get_qualified_locale.obj
 0002:00009ff0       ??_C@_1CC@DINBAMMJ@?$AAc?$AAh?$AAi?$AAn?$AAe?$AAs?$AAe?$AA?9?$AAh?$AAo?$AAn?$AAg?$AAk?$AAo?$AAn@ 0045cff0     libucrt:get_qualified_locale.obj
 0002:0000a014       ??_C@_1CG@IOBJPACO@?$AAc?$AAh?$AAi?$AAn?$AAe?$AAs?$AAe?$AA?9?$AAs?$AAi?$AAm?$AAp?$AAl?$AAi?$AAf@ 0045d014     libucrt:get_qualified_locale.obj
 0002:0000a03c       ??_C@_1CE@GAJNDCKG@?$AAc?$AAh?$AAi?$AAn?$AAe?$AAs?$AAe?$AA?9?$AAs?$AAi?$AAn?$AAg?$AAa?$AAp?$AAo@ 0045d03c     libucrt:get_qualified_locale.obj
 0002:0000a060       ??_C@_1CI@PAJPIOOD@?$AAc?$AAh?$AAi?$AAn?$AAe?$AAs?$AAe?$AA?9?$AAt?$AAr?$AAa?$AAd?$AAi?$AAt?$AAi@ 0045d060     libucrt:get_qualified_locale.obj
 0002:0000a088       ??_C@_1BM@NILJBMMD@?$AAd?$AAu?$AAt?$AAc?$AAh?$AA?9?$AAb?$AAe?$AAl?$AAg?$AAi?$AAa?$AAn@ 0045d088     libucrt:get_qualified_locale.obj
 0002:0000a0a4       ??_C@_1CC@OOJPJNEJ@?$AAe?$AAn?$AAg?$AAl?$AAi?$AAs?$AAh?$AA?9?$AAa?$AAm?$AAe?$AAr?$AAi?$AAc?$AAa@ 0045d0a4     libucrt:get_qualified_locale.obj
 0002:0000a0c8       ??_C@_1BI@IOLFEEM@?$AAe?$AAn?$AAg?$AAl?$AAi?$AAs?$AAh?$AA?9?$AAa?$AAu?$AAs@ 0045d0c8     libucrt:get_qualified_locale.obj
 0002:0000a0e0       ??_C@_1BO@HFFNLENJ@?$AAe?$AAn?$AAg?$AAl?$AAi?$AAs?$AAh?$AA?9?$AAb?$AAe?$AAl?$AAi?$AAz?$AAe@ 0045d0e0     libucrt:get_qualified_locale.obj
 0002:0000a100       ??_C@_1BI@HAPKJMPO@?$AAe?$AAn?$AAg?$AAl?$AAi?$AAs?$AAh?$AA?9?$AAc?$AAa?$AAn@ 0045d100     libucrt:get_qualified_locale.obj
 0002:0000a118       ??_C@_1CE@HLNDMIOJ@?$AAe?$AAn?$AAg?$AAl?$AAi?$AAs?$AAh?$AA?9?$AAc?$AAa?$AAr?$AAi?$AAb?$AAb?$AAe@ 0045d118     libucrt:get_qualified_locale.obj
 0002:0000a13c       ??_C@_1BI@LDHJHHAC@?$AAe?$AAn?$AAg?$AAl?$AAi?$AAs?$AAh?$AA?9?$AAi?$AAr?$AAe@ 0045d13c     libucrt:get_qualified_locale.obj
 0002:0000a154       ??_C@_1CA@NJMMCFOC@?$AAe?$AAn?$AAg?$AAl?$AAi?$AAs?$AAh?$AA?9?$AAj?$AAa?$AAm?$AAa?$AAi?$AAc?$AAa@ 0045d154     libucrt:get_qualified_locale.obj
 0002:0000a174       ??_C@_1BG@BHJEBBGG@?$AAe?$AAn?$AAg?$AAl?$AAi?$AAs?$AAh?$AA?9?$AAn?$AAz@ 0045d174     libucrt:get_qualified_locale.obj
 0002:0000a18c       ??_C@_1CK@FGOEJJCO@?$AAe?$AAn?$AAg?$AAl?$AAi?$AAs?$AAh?$AA?9?$AAs?$AAo?$AAu?$AAt?$AAh?$AA?5?$AAa@ 0045d18c     libucrt:get_qualified_locale.obj
 0002:0000a1b8       ??_C@_1DE@PDBJPCJ@?$AAe?$AAn?$AAg?$AAl?$AAi?$AAs?$AAh?$AA?9?$AAt?$AAr?$AAi?$AAn?$AAi?$AAd?$AAa@ 0045d1b8     libucrt:get_qualified_locale.obj
 0002:0000a1ec       ??_C@_1BG@JGCANDME@?$AAe?$AAn?$AAg?$AAl?$AAi?$AAs?$AAh?$AA?9?$AAu?$AAk@ 0045d1ec     libucrt:get_qualified_locale.obj
 0002:0000a204       ??_C@_1BG@DINKMLE@?$AAe?$AAn?$AAg?$AAl?$AAi?$AAs?$AAh?$AA?9?$AAu?$AAs@ 0045d204     libucrt:get_qualified_locale.obj
 0002:0000a21c       ??_C@_1BI@NMFDBHJE@?$AAe?$AAn?$AAg?$AAl?$AAi?$AAs?$AAh?$AA?9?$AAu?$AAs?$AAa@ 0045d21c     libucrt:get_qualified_locale.obj
 0002:0000a234       ??_C@_1BO@OIHKJKII@?$AAf?$AAr?$AAe?$AAn?$AAc?$AAh?$AA?9?$AAb?$AAe?$AAl?$AAg?$AAi?$AAa?$AAn@ 0045d234     libucrt:get_qualified_locale.obj
 0002:0000a254       ??_C@_1CA@NKAELJKI@?$AAf?$AAr?$AAe?$AAn?$AAc?$AAh?$AA?9?$AAc?$AAa?$AAn?$AAa?$AAd?$AAi?$AAa?$AAn@ 0045d254     libucrt:get_qualified_locale.obj
 0002:0000a274       ??_C@_1CE@MGKCNLGN@?$AAf?$AAr?$AAe?$AAn?$AAc?$AAh?$AA?9?$AAl?$AAu?$AAx?$AAe?$AAm?$AAb?$AAo?$AAu@ 0045d274     libucrt:get_qualified_locale.obj
 0002:0000a298       ??_C@_1BK@CEGEAILM@?$AAf?$AAr?$AAe?$AAn?$AAc?$AAh?$AA?9?$AAs?$AAw?$AAi?$AAs?$AAs@ 0045d298     libucrt:get_qualified_locale.obj
 0002:0000a2b4       ??_C@_1CA@PAFKEOCC@?$AAg?$AAe?$AAr?$AAm?$AAa?$AAn?$AA?9?$AAa?$AAu?$AAs?$AAt?$AAr?$AAi?$AAa?$AAn@ 0045d2b4     libucrt:get_qualified_locale.obj
 0002:0000a2d4       ??_C@_1CI@HCFHGOFD@?$AAg?$AAe?$AAr?$AAm?$AAa?$AAn?$AA?9?$AAl?$AAi?$AAc?$AAh?$AAt?$AAe?$AAn?$AAs@ 0045d2d4     libucrt:get_qualified_locale.obj
 0002:0000a2fc       ??_C@_1CE@FEDDNPDG@?$AAg?$AAe?$AAr?$AAm?$AAa?$AAn?$AA?9?$AAl?$AAu?$AAx?$AAe?$AAm?$AAb?$AAo?$AAu@ 0045d2fc     libucrt:get_qualified_locale.obj
 0002:0000a320       ??_C@_1BK@LIMINNMN@?$AAg?$AAe?$AAr?$AAm?$AAa?$AAn?$AA?9?$AAs?$AAw?$AAi?$AAs?$AAs@ 0045d320     libucrt:get_qualified_locale.obj
 0002:0000a33c       ??_C@_1BM@LGMDBEPD@?$AAi?$AAr?$AAi?$AAs?$AAh?$AA?9?$AAe?$AAn?$AAg?$AAl?$AAi?$AAs?$AAh@ 0045d33c     libucrt:get_qualified_locale.obj
 0002:0000a358       ??_C@_1BM@NNCFBAEE@?$AAi?$AAt?$AAa?$AAl?$AAi?$AAa?$AAn?$AA?9?$AAs?$AAw?$AAi?$AAs?$AAs@ 0045d358     libucrt:get_qualified_locale.obj
 0002:0000a374       ??_C@_1BE@FEDJNPIB@?$AAn?$AAo?$AAr?$AAw?$AAe?$AAg?$AAi?$AAa?$AAn@ 0045d374     libucrt:get_qualified_locale.obj
 0002:0000a388       ??_C@_1CC@CILKDEIE@?$AAn?$AAo?$AAr?$AAw?$AAe?$AAg?$AAi?$AAa?$AAn?$AA?9?$AAb?$AAo?$AAk?$AAm?$AAa@ 0045d388     libucrt:get_qualified_locale.obj
 0002:0000a3ac       ??_C@_1CE@DHMMHEPL@?$AAn?$AAo?$AAr?$AAw?$AAe?$AAg?$AAi?$AAa?$AAn?$AA?9?$AAn?$AAy?$AAn?$AAo?$AAr@ 0045d3ac     libucrt:get_qualified_locale.obj
 0002:0000a3d0       ??_C@_1CK@OPNMHECD@?$AAp?$AAo?$AAr?$AAt?$AAu?$AAg?$AAu?$AAe?$AAs?$AAe?$AA?9?$AAb?$AAr?$AAa?$AAz@ 0045d3d0     libucrt:get_qualified_locale.obj
 0002:0000a3fc       ??_C@_1CE@KEEHCDB@?$AAs?$AAp?$AAa?$AAn?$AAi?$AAs?$AAh?$AA?9?$AAa?$AAr?$AAg?$AAe?$AAn?$AAt?$AAi@ 0045d3fc     libucrt:get_qualified_locale.obj
 0002:0000a420       ??_C@_1CA@GIAOLHJD@?$AAs?$AAp?$AAa?$AAn?$AAi?$AAs?$AAh?$AA?9?$AAb?$AAo?$AAl?$AAi?$AAv?$AAi?$AAa@ 0045d420     libucrt:get_qualified_locale.obj
 0002:0000a440       ??_C@_1BM@OJNDFNPD@?$AAs?$AAp?$AAa?$AAn?$AAi?$AAs?$AAh?$AA?9?$AAc?$AAh?$AAi?$AAl?$AAe@ 0045d440     libucrt:get_qualified_locale.obj
 0002:0000a45c       ??_C@_1CC@OCOLPALL@?$AAs?$AAp?$AAa?$AAn?$AAi?$AAs?$AAh?$AA?9?$AAc?$AAo?$AAl?$AAo?$AAm?$AAb?$AAi@ 0045d45c     libucrt:get_qualified_locale.obj
 0002:0000a480       ??_C@_1CG@BPOFMKBB@?$AAs?$AAp?$AAa?$AAn?$AAi?$AAs?$AAh?$AA?9?$AAc?$AAo?$AAs?$AAt?$AAa?$AA?5?$AAr@ 0045d480     libucrt:get_qualified_locale.obj
 0002:0000a4a8       ??_C@_1DG@IGOBAPBB@?$AAs?$AAp?$AAa?$AAn?$AAi?$AAs?$AAh?$AA?9?$AAd?$AAo?$AAm?$AAi?$AAn?$AAi?$AAc@ 0045d4a8     libucrt:get_qualified_locale.obj
 0002:0000a4e0       ??_C@_1CA@JHAPGEGI@?$AAs?$AAp?$AAa?$AAn?$AAi?$AAs?$AAh?$AA?9?$AAe?$AAc?$AAu?$AAa?$AAd?$AAo?$AAr@ 0045d4e0     libucrt:get_qualified_locale.obj
 0002:0000a500       ??_C@_1CI@LAPALJPP@?$AAs?$AAp?$AAa?$AAn?$AAi?$AAs?$AAh?$AA?9?$AAe?$AAl?$AA?5?$AAs?$AAa?$AAl?$AAv@ 0045d500     libucrt:get_qualified_locale.obj
 0002:0000a528       ??_C@_1CE@PDGBOFOM@?$AAs?$AAp?$AAa?$AAn?$AAi?$AAs?$AAh?$AA?9?$AAg?$AAu?$AAa?$AAt?$AAe?$AAm?$AAa@ 0045d528     libucrt:get_qualified_locale.obj
 0002:0000a54c       ??_C@_1CC@NBEBAODI@?$AAs?$AAp?$AAa?$AAn?$AAi?$AAs?$AAh?$AA?9?$AAh?$AAo?$AAn?$AAd?$AAu?$AAr?$AAa@ 0045d54c     libucrt:get_qualified_locale.obj
 0002:0000a570       ??_C@_1CA@LLKGHBMF@?$AAs?$AAp?$AAa?$AAn?$AAi?$AAs?$AAh?$AA?9?$AAm?$AAe?$AAx?$AAi?$AAc?$AAa?$AAn@ 0045d570     libucrt:get_qualified_locale.obj
 0002:0000a590       ??_C@_1BO@LKNDOIGD@?$AAs?$AAp?$AAa?$AAn?$AAi?$AAs?$AAh?$AA?9?$AAm?$AAo?$AAd?$AAe?$AAr?$AAn@ 0045d590     libucrt:get_qualified_locale.obj
 0002:0000a5b0       ??_C@_1CE@NMDMOEEB@?$AAs?$AAp?$AAa?$AAn?$AAi?$AAs?$AAh?$AA?9?$AAn?$AAi?$AAc?$AAa?$AAr?$AAa?$AAg@ 0045d5b0     libucrt:get_qualified_locale.obj
 0002:0000a5d4       ??_C@_1BO@LLCBEJGB@?$AAs?$AAp?$AAa?$AAn?$AAi?$AAs?$AAh?$AA?9?$AAp?$AAa?$AAn?$AAa?$AAm?$AAa@ 0045d5d4     libucrt:get_qualified_locale.obj
 0002:0000a5f4       ??_C@_1CC@FKPGGIHO@?$AAs?$AAp?$AAa?$AAn?$AAi?$AAs?$AAh?$AA?9?$AAp?$AAa?$AAr?$AAa?$AAg?$AAu?$AAa@ 0045d5f4     libucrt:get_qualified_locale.obj
 0002:0000a618       ??_C@_1BK@CDEIHOOP@?$AAs?$AAp?$AAa?$AAn?$AAi?$AAs?$AAh?$AA?9?$AAp?$AAe?$AAr?$AAu@ 0045d618     libucrt:get_qualified_locale.obj
 0002:0000a634       ??_C@_1CI@GAHAKKGP@?$AAs?$AAp?$AAa?$AAn?$AAi?$AAs?$AAh?$AA?9?$AAp?$AAu?$AAe?$AAr?$AAt?$AAo?$AA?5@ 0045d634     libucrt:get_qualified_locale.obj
 0002:0000a65c       ??_C@_1CA@NKJBCAGP@?$AAs?$AAp?$AAa?$AAn?$AAi?$AAs?$AAh?$AA?9?$AAu?$AAr?$AAu?$AAg?$AAu?$AAa?$AAy@ 0045d65c     libucrt:get_qualified_locale.obj
 0002:0000a67c       ??_C@_1CE@ODILCONM@?$AAs?$AAp?$AAa?$AAn?$AAi?$AAs?$AAh?$AA?9?$AAv?$AAe?$AAn?$AAe?$AAz?$AAu?$AAe@ 0045d67c     libucrt:get_qualified_locale.obj
 0002:0000a6a0       ??_C@_1CA@OBNMCGFO@?$AAs?$AAw?$AAe?$AAd?$AAi?$AAs?$AAh?$AA?9?$AAf?$AAi?$AAn?$AAl?$AAa?$AAn?$AAd@ 0045d6a0     libucrt:get_qualified_locale.obj
 0002:0000a6c0       ??_C@_1M@PIPDDPPI@?$AAs?$AAw?$AAi?$AAs?$AAs@ 0045d6c0     libucrt:get_qualified_locale.obj
 0002:0000a6cc       ??_C@_15PJPFLCCM@?$AAu?$AAk@ 0045d6cc     libucrt:get_qualified_locale.obj
 0002:0000a6d4       ??_C@_15GMFIMNFM@?$AAu?$AAs@ 0045d6d4     libucrt:get_qualified_locale.obj
 0002:0000a6dc       ??_C@_17HAEBFAGL@?$AAu?$AAs?$AAa@ 0045d6dc     libucrt:get_qualified_locale.obj
 0002:0000a6e4       ??_C@_1BA@DPFJEPHB@?$AAa?$AAm?$AAe?$AAr?$AAi?$AAc?$AAa@ 0045d6e4     libucrt:get_qualified_locale.obj
 0002:0000a6f4       ??_C@_1BA@ELOGGFK@?$AAb?$AAr?$AAi?$AAt?$AAa?$AAi?$AAn@ 0045d6f4     libucrt:get_qualified_locale.obj
 0002:0000a704       ??_C@_1M@GHBGIGDA@?$AAc?$AAh?$AAi?$AAn?$AAa@ 0045d704     libucrt:get_qualified_locale.obj
 0002:0000a710       ??_C@_1M@NCHEJOPO@?$AAc?$AAz?$AAe?$AAc?$AAh@ 0045d710     libucrt:get_qualified_locale.obj
 0002:0000a71c       ??_C@_1BA@BKPAPBLA@?$AAe?$AAn?$AAg?$AAl?$AAa?$AAn?$AAd@ 0045d71c     libucrt:get_qualified_locale.obj
 0002:0000a72c       ??_C@_1BM@HKBCKIPC@?$AAg?$AAr?$AAe?$AAa?$AAt?$AA?5?$AAb?$AAr?$AAi?$AAt?$AAa?$AAi?$AAn@ 0045d72c     libucrt:get_qualified_locale.obj
 0002:0000a748       ??_C@_1BA@PPCHPGJB@?$AAh?$AAo?$AAl?$AAl?$AAa?$AAn?$AAd@ 0045d748     libucrt:get_qualified_locale.obj
 0002:0000a758       ??_C@_1BE@JBMPEGDG@?$AAh?$AAo?$AAn?$AAg?$AA?9?$AAk?$AAo?$AAn?$AAg@ 0045d758     libucrt:get_qualified_locale.obj
 0002:0000a76c       ??_C@_1BI@KOELBBPJ@?$AAn?$AAe?$AAw?$AA?9?$AAz?$AAe?$AAa?$AAl?$AAa?$AAn?$AAd@ 0045d76c     libucrt:get_qualified_locale.obj
 0002:0000a784       ??_C@_15HIEBHAIO@?$AAn?$AAz@ 0045d784     libucrt:get_qualified_locale.obj
 0002:0000a78c       ??_C@_1BC@CHBCPFPI@?$AAp?$AAr?$AA?5?$AAc?$AAh?$AAi?$AAn?$AAa@ 0045d78c     libucrt:get_qualified_locale.obj
 0002:0000a7a0       ??_C@_1BC@JAOIIFKD@?$AAp?$AAr?$AA?9?$AAc?$AAh?$AAi?$AAn?$AAa@ 0045d7a0     libucrt:get_qualified_locale.obj
 0002:0000a7b4       ??_C@_1BI@BEHPPHKC@?$AAp?$AAu?$AAe?$AAr?$AAt?$AAo?$AA?9?$AAr?$AAi?$AAc?$AAo@ 0045d7b4     libucrt:get_qualified_locale.obj
 0002:0000a7cc       ??_C@_1O@PAEOFKDI@?$AAs?$AAl?$AAo?$AAv?$AAa?$AAk@ 0045d7cc     libucrt:get_qualified_locale.obj
 0002:0000a7dc       ??_C@_1BK@FIHMCKAM@?$AAs?$AAo?$AAu?$AAt?$AAh?$AA?5?$AAa?$AAf?$AAr?$AAi?$AAc?$AAa@ 0045d7dc     libucrt:get_qualified_locale.obj
 0002:0000a7f8       ??_C@_1BI@NAEOODKB@?$AAs?$AAo?$AAu?$AAt?$AAh?$AA?5?$AAk?$AAo?$AAr?$AAe?$AAa@ 0045d7f8     libucrt:get_qualified_locale.obj
 0002:0000a810       ??_C@_1BK@FBDGGIFF@?$AAs?$AAo?$AAu?$AAt?$AAh?$AA?9?$AAa?$AAf?$AAr?$AAi?$AAc?$AAa@ 0045d810     libucrt:get_qualified_locale.obj
 0002:0000a82c       ??_C@_1BI@GHLEJDPK@?$AAs?$AAo?$AAu?$AAt?$AAh?$AA?9?$AAk?$AAo?$AAr?$AAe?$AAa@ 0045d82c     libucrt:get_qualified_locale.obj
 0002:0000a844       ??_C@_1CE@PLHLOMJF@?$AAt?$AAr?$AAi?$AAn?$AAi?$AAd?$AAa?$AAd?$AA?5?$AA?$CG?$AA?5?$AAt?$AAo?$AAb?$AAa@ 0045d844     libucrt:get_qualified_locale.obj
 0002:0000a868       ??_C@_1BO@MODIMHHI@?$AAu?$AAn?$AAi?$AAt?$AAe?$AAd?$AA?9?$AAk?$AAi?$AAn?$AAg?$AAd?$AAo?$AAm@ 0045d868     libucrt:get_qualified_locale.obj
 0002:0000a888       ??_C@_1BM@FFHJONBJ@?$AAu?$AAn?$AAi?$AAt?$AAe?$AAd?$AA?9?$AAs?$AAt?$AAa?$AAt?$AAe?$AAs@ 0045d888     libucrt:get_qualified_locale.obj
 0002:0000a8a4       ??_C@_19MPDNHKDG@?$AAu?$AAt?$AAf?$AA8@ 0045d8a4     libucrt:get_qualified_locale.obj
 0002:0000a8b0       ??_C@_17DNCLJFIF@?$AAA?$AAC?$AAP@ 0045d8b0     libucrt:get_qualified_locale.obj
 0002:0000a8b8       ??_C@_1M@FPEIIFAM@?$AAu?$AAt?$AAf?$AA?9?$AA8@ 0045d8b8     libucrt:get_qualified_locale.obj
 0002:0000a8c4       ??_C@_17CIKBIHLH@?$AAO?$AAC?$AAP@ 0045d8c4     libucrt:get_qualified_locale.obj
 0002:0000a8cc       ___rglangidNotDefault      0045d8cc     libucrt:getqloc_downlevel.obj
 0002:0000a8e0       ??_C@_01GBGANLPD@0@        0045d8e0     libucrt:cfout.obj
 0002:0000a8e4       ??_C@_05DNEBIAHO@1?$CDINF@ 0045d8e4     libucrt:cfout.obj
 0002:0000a8ec       ??_C@_06IMKFLFPG@1?$CDQNAN@ 0045d8ec     libucrt:cfout.obj
 0002:0000a8f4       ??_C@_06PGGFOGJG@1?$CDSNAN@ 0045d8f4     libucrt:cfout.obj
 0002:0000a8fc       ??_C@_05PHHOCPM@1?$CDIND@  0045d8fc     libucrt:cfout.obj
 0002:0000b028       ??_C@_15EMKDOKLE@?$AAa?$AAr@ 0045e028     libucrt:lcidtoname_downlevel.obj
 0002:0000b030       ??_C@_15KNPADPLH@?$AAb?$AAg@ 0045e030     libucrt:lcidtoname_downlevel.obj
 0002:0000b038       ??_C@_15EDMHLDMO@?$AAc?$AAa@ 0045e038     libucrt:lcidtoname_downlevel.obj
 0002:0000b040       ??_C@_1O@BPEAJADD@?$AAz?$AAh?$AA?9?$AAC?$AAH?$AAS@ 0045e040     libucrt:lcidtoname_downlevel.obj
 0002:0000b050       ??_C@_15LJNHCMNK@?$AAc?$AAs@ 0045e050     libucrt:lcidtoname_downlevel.obj
 0002:0000b058       ??_C@_15FOMCIDHG@?$AAd?$AAa@ 0045e058     libucrt:lcidtoname_downlevel.obj
 0002:0000b060       ??_C@_15NBKABECB@?$AAd?$AAe@ 0045e060     libucrt:lcidtoname_downlevel.obj
 0002:0000b068       ??_C@_15GHPEIIAO@?$AAe?$AAl@ 0045e068     libucrt:lcidtoname_downlevel.obj
 0002:0000b070       ??_C@_15MNPNEAIF@?$AAe?$AAn@ 0045e070     libucrt:lcidtoname_downlevel.obj
 0002:0000b078       ??_C@_15GPIOMPMH@?$AAe?$AAs@ 0045e078     libucrt:lcidtoname_downlevel.obj
 0002:0000b080       ??_C@_15NGLOAKJC@?$AAf?$AAi@ 0045e080     libucrt:lcidtoname_downlevel.obj
 0002:0000b088       ??_C@_15FBKGNKAM@?$AAf?$AAr@ 0045e088     libucrt:lcidtoname_downlevel.obj
 0002:0000b090       ??_C@_15KGGCNEFK@?$AAh?$AAe@ 0045e090     libucrt:lcidtoname_downlevel.obj
 0002:0000b098       ??_C@_15PGHLIDMF@?$AAh?$AAu@ 0045e098     libucrt:lcidtoname_downlevel.obj
 0002:0000b0a0       ??_C@_15BIEMAPLM@?$AAi?$AAs@ 0045e0a0     libucrt:lcidtoname_downlevel.obj
 0002:0000b0a8       ??_C@_15IFJLDHAF@?$AAi?$AAt@ 0045e0a8     libucrt:lcidtoname_downlevel.obj
 0002:0000b0b0       ??_C@_15GEMIOCAG@?$AAj?$AAa@ 0045e0b0     libucrt:lcidtoname_downlevel.obj
 0002:0000b0b8       ??_C@_15EPELEGJA@?$AAk?$AAo@ 0045e0b8     libucrt:lcidtoname_downlevel.obj
 0002:0000b0c0       ??_C@_15NDDHIMN@?$AAn?$AAl@ 0045e0c0     libucrt:lcidtoname_downlevel.obj
 0002:0000b0c8       ??_C@_15BPIGNHCD@?$AAn?$AAo@ 0045e0c8     libucrt:lcidtoname_downlevel.obj
 0002:0000b0d0       ??_C@_15DEOPBLCG@?$AAp?$AAl@ 0045e0d0     libucrt:lcidtoname_downlevel.obj
 0002:0000b0d8       ??_C@_15KBECGEFG@?$AAp?$AAt@ 0045e0d8     libucrt:lcidtoname_downlevel.obj
 0002:0000b0e0       ??_C@_15GLJCBFMD@?$AAr?$AAo@ 0045e0e0     libucrt:lcidtoname_downlevel.obj
 0002:0000b0e8       ??_C@_15FEDGKCDI@?$AAr?$AAu@ 0045e0e8     libucrt:lcidtoname_downlevel.obj
 0002:0000b0f0       ??_C@_15GLKMLLHM@?$AAh?$AAr@ 0045e0f0     libucrt:lcidtoname_downlevel.obj
 0002:0000b0f8       ??_C@_15CPKMFBDB@?$AAs?$AAk@ 0045e0f8     libucrt:lcidtoname_downlevel.obj
 0002:0000b100       ??_C@_15BAAIOGMK@?$AAs?$AAq@ 0045e100     libucrt:lcidtoname_downlevel.obj
 0002:0000b108       ??_C@_15INNPNOHD@?$AAs?$AAv@ 0045e108     libucrt:lcidtoname_downlevel.obj
 0002:0000b110       ??_C@_15CABMMOGH@?$AAt?$AAh@ 0045e110     libucrt:lcidtoname_downlevel.obj
 0002:0000b118       ??_C@_15BPLIHJJM@?$AAt?$AAr@ 0045e118     libucrt:lcidtoname_downlevel.obj
 0002:0000b120       ??_C@_15NEOEKKDJ@?$AAu?$AAr@ 0045e120     libucrt:lcidtoname_downlevel.obj
 0002:0000b128       ??_C@_15NFICGAJK@?$AAi?$AAd@ 0045e128     libucrt:lcidtoname_downlevel.obj
 0002:0000b130       ??_C@_15HPJPHDM@?$AAb?$AAe@ 0045e130     libucrt:lcidtoname_downlevel.obj
 0002:0000b138       ??_C@_15LCHLGJII@?$AAs?$AAl@ 0045e138     libucrt:lcidtoname_downlevel.obj
 0002:0000b140       ??_C@_15PCFJPHHO@?$AAe?$AAt@ 0045e140     libucrt:lcidtoname_downlevel.obj
 0002:0000b148       ??_C@_15HPFPGODN@?$AAl?$AAv@ 0045e148     libucrt:lcidtoname_downlevel.obj
 0002:0000b150       ??_C@_15NFFGKGLG@?$AAl?$AAt@ 0045e150     libucrt:lcidtoname_downlevel.obj
 0002:0000b158       ??_C@_15BDAKCCHN@?$AAf?$AAa@ 0045e158     libucrt:lcidtoname_downlevel.obj
 0002:0000b160       ??_C@_15NFGIAIAJ@?$AAv?$AAi@ 0045e160     libucrt:lcidtoname_downlevel.obj
 0002:0000b168       ??_C@_15LMKNDMHN@?$AAh?$AAy@ 0045e168     libucrt:lcidtoname_downlevel.obj
 0002:0000b170       ??_C@_15IJBHMCFL@?$AAa?$AAz@ 0045e170     libucrt:lcidtoname_downlevel.obj
 0002:0000b178       ??_C@_15EKOFJABL@?$AAe?$AAu@ 0045e178     libucrt:lcidtoname_downlevel.obj
 0002:0000b180       ??_C@_15BGHADCNK@?$AAm?$AAk@ 0045e180     libucrt:lcidtoname_downlevel.obj
 0002:0000b188       ??_C@_15JDNICKHM@?$AAa?$AAf@ 0045e188     libucrt:lcidtoname_downlevel.obj
 0002:0000b190       ??_C@_15KPJEDBKD@?$AAk?$AAa@ 0045e190     libucrt:lcidtoname_downlevel.obj
 0002:0000b198       ??_C@_15PDNFFFEO@?$AAf?$AAo@ 0045e198     libucrt:lcidtoname_downlevel.obj
 0002:0000b1a0       ??_C@_15OMLEGLOC@?$AAh?$AAi@ 0045e1a0     libucrt:lcidtoname_downlevel.obj
 0002:0000b1a8       ??_C@_15IDNNENKK@?$AAm?$AAs@ 0045e1a8     libucrt:lcidtoname_downlevel.obj
 0002:0000b1b0       ??_C@_15MACJNBMH@?$AAk?$AAk@ 0045e1b0     libucrt:lcidtoname_downlevel.obj
 0002:0000b1b8       ??_C@_15DKDJEOND@?$AAk?$AAy@ 0045e1b8     libucrt:lcidtoname_downlevel.obj
 0002:0000b1c0       ??_C@_15DFGDLJBG@?$AAs?$AAw@ 0045e1c0     libucrt:lcidtoname_downlevel.obj
 0002:0000b1c8       ??_C@_15BBFAICNG@?$AAu?$AAz@ 0045e1c8     libucrt:lcidtoname_downlevel.obj
 0002:0000b1d0       ??_C@_15DKNDCGEA@?$AAt?$AAt@ 0045e1d0     libucrt:lcidtoname_downlevel.obj
 0002:0000b1d8       ??_C@_15MGIFMDPL@?$AAp?$AAa@ 0045e1d8     libucrt:lcidtoname_downlevel.obj
 0002:0000b1e0       ??_C@_15HCNDBBA@?$AAg?$AAu@ 0045e1e0     libucrt:lcidtoname_downlevel.obj
 0002:0000b1e8       ??_C@_15FNBEIBON@?$AAt?$AAa@ 0045e1e8     libucrt:lcidtoname_downlevel.obj
 0002:0000b1f0       ??_C@_15NCHGBGLK@?$AAt?$AAe@ 0045e1f0     libucrt:lcidtoname_downlevel.obj
 0002:0000b1f8       ??_C@_15PHPHCBPF@?$AAk?$AAn@ 0045e1f8     libucrt:lcidtoname_downlevel.obj
 0002:0000b200       ??_C@_15DLGBCKMP@?$AAm?$AAr@ 0045e200     libucrt:lcidtoname_downlevel.obj
 0002:0000b208       ??_C@_15EABBLBFF@?$AAs?$AAa@ 0045e208     libucrt:lcidtoname_downlevel.obj
 0002:0000b210       ??_C@_15CBKOMCOI@?$AAm?$AAn@ 0045e210     libucrt:lcidtoname_downlevel.obj
 0002:0000b218       ??_C@_15CKDMCJAF@?$AAg?$AAl@ 0045e218     libucrt:lcidtoname_downlevel.obj
 0002:0000b220       ??_C@_17CNJFBPG@?$AAk?$AAo?$AAk@ 0045e220     libucrt:lcidtoname_downlevel.obj
 0002:0000b228       ??_C@_17FFBJICPL@?$AAs?$AAy?$AAr@ 0045e228     libucrt:lcidtoname_downlevel.obj
 0002:0000b230       ??_C@_17KPNDCPAF@?$AAd?$AAi?$AAv@ 0045e230     libucrt:lcidtoname_downlevel.obj
 0002:0000b238       ??_C@_1M@OKAHONE@?$AAa?$AAr?$AA?9?$AAS?$AAA@ 0045e238     libucrt:lcidtoname_downlevel.obj
 0002:0000b244       ??_C@_1M@FFFIGIGK@?$AAb?$AAg?$AA?9?$AAB?$AAG@ 0045e244     libucrt:lcidtoname_downlevel.obj
 0002:0000b250       ??_C@_1M@BJNKEDC@?$AAc?$AAa?$AA?9?$AAE?$AAS@ 0045e250     libucrt:lcidtoname_downlevel.obj
 0002:0000b25c       ??_C@_1M@IJJHFJHA@?$AAc?$AAs?$AA?9?$AAC?$AAZ@ 0045e25c     libucrt:lcidtoname_downlevel.obj
 0002:0000b268       ??_C@_1M@CLPEOBGI@?$AAd?$AAa?$AA?9?$AAD?$AAK@ 0045e268     libucrt:lcidtoname_downlevel.obj
 0002:0000b274       ??_C@_1M@MCMADGCB@?$AAd?$AAe?$AA?9?$AAD?$AAE@ 0045e274     libucrt:lcidtoname_downlevel.obj
 0002:0000b280       ??_C@_1M@OOCKEMAM@?$AAe?$AAl?$AA?9?$AAG?$AAR@ 0045e280     libucrt:lcidtoname_downlevel.obj
 0002:0000b28c       ??_C@_1M@DDNJFGID@?$AAf?$AAi?$AA?9?$AAF?$AAI@ 0045e28c     libucrt:lcidtoname_downlevel.obj
 0002:0000b298       ??_C@_1M@GLIPPMAC@?$AAf?$AAr?$AA?9?$AAF?$AAR@ 0045e298     libucrt:lcidtoname_downlevel.obj
 0002:0000b2a4       ??_C@_1M@GFMCHPE@?$AAh?$AAe?$AA?9?$AAI?$AAL@ 0045e2a4     libucrt:lcidtoname_downlevel.obj
 0002:0000b2b0       ??_C@_1M@MHLPGNKM@?$AAh?$AAu?$AA?9?$AAH?$AAU@ 0045e2b0     libucrt:lcidtoname_downlevel.obj
 0002:0000b2bc       ??_C@_1M@LPDDNNPN@?$AAi?$AAs?$AA?9?$AAI?$AAS@ 0045e2bc     libucrt:lcidtoname_downlevel.obj
 0002:0000b2c8       ??_C@_1M@MADIPODN@?$AAi?$AAt?$AA?9?$AAI?$AAT@ 0045e2c8     libucrt:lcidtoname_downlevel.obj
 0002:0000b2d4       ??_C@_1M@IHBJJGG@?$AAn?$AAl?$AA?9?$AAN?$AAL@ 0045e2d4     libucrt:lcidtoname_downlevel.obj
 0002:0000b2e0       ??_C@_1M@EANAGDL@?$AAn?$AAb?$AA?9?$AAN?$AAO@ 0045e2e0     libucrt:lcidtoname_downlevel.obj
 0002:0000b2ec       ??_C@_1M@NEIEMEGP@?$AAp?$AAl?$AA?9?$AAP?$AAL@ 0045e2ec     libucrt:lcidtoname_downlevel.obj
 0002:0000b2f8       ??_C@_1M@BOCFIGEP@?$AAp?$AAt?$AA?9?$AAB?$AAR@ 0045e2f8     libucrt:lcidtoname_downlevel.obj
 0002:0000b304       ??_C@_1M@IMPFOPBG@?$AAr?$AAo?$AA?9?$AAR?$AAO@ 0045e304     libucrt:lcidtoname_downlevel.obj
 0002:0000b310       ??_C@_1M@IDNNEJMM@?$AAr?$AAu?$AA?9?$AAR?$AAU@ 0045e310     libucrt:lcidtoname_downlevel.obj
 0002:0000b31c       ??_C@_1M@LILEEOGM@?$AAh?$AAr?$AA?9?$AAH?$AAR@ 0045e31c     libucrt:lcidtoname_downlevel.obj
 0002:0000b328       ??_C@_1M@FKIFEHPB@?$AAs?$AAk?$AA?9?$AAS?$AAK@ 0045e328     libucrt:lcidtoname_downlevel.obj
 0002:0000b334       ??_C@_1M@LJMAMNPJ@?$AAs?$AAq?$AA?9?$AAA?$AAL@ 0045e334     libucrt:lcidtoname_downlevel.obj
 0002:0000b340       ??_C@_1M@GIAKDKJK@?$AAs?$AAv?$AA?9?$AAS?$AAE@ 0045e340     libucrt:lcidtoname_downlevel.obj
 0002:0000b34c       ??_C@_1M@MKJKIKCL@?$AAt?$AAh?$AA?9?$AAT?$AAH@ 0045e34c     libucrt:lcidtoname_downlevel.obj
 0002:0000b358       ??_C@_1M@MFLCCMPB@?$AAt?$AAr?$AA?9?$AAT?$AAR@ 0045e358     libucrt:lcidtoname_downlevel.obj
 0002:0000b364       ??_C@_1M@OIJHDKJN@?$AAu?$AAr?$AA?9?$AAP?$AAK@ 0045e364     libucrt:lcidtoname_downlevel.obj
 0002:0000b370       ??_C@_1M@LHIPCIEK@?$AAi?$AAd?$AA?9?$AAI?$AAD@ 0045e370     libucrt:lcidtoname_downlevel.obj
 0002:0000b37c       ??_C@_1M@MFMOBGI@?$AAu?$AAk?$AA?9?$AAU?$AAA@ 0045e37c     libucrt:lcidtoname_downlevel.obj
 0002:0000b388       ??_C@_1M@OBGLJIPL@?$AAb?$AAe?$AA?9?$AAB?$AAY@ 0045e388     libucrt:lcidtoname_downlevel.obj
 0002:0000b394       ??_C@_1M@BCFAJEAD@?$AAs?$AAl?$AA?9?$AAS?$AAI@ 0045e394     libucrt:lcidtoname_downlevel.obj
 0002:0000b3a0       ??_C@_1M@FKFFEDDN@?$AAe?$AAt?$AA?9?$AAE?$AAE@ 0045e3a0     libucrt:lcidtoname_downlevel.obj
 0002:0000b3ac       ??_C@_1M@KGKKAACI@?$AAl?$AAv?$AA?9?$AAL?$AAV@ 0045e3ac     libucrt:lcidtoname_downlevel.obj
 0002:0000b3b8       ??_C@_1M@IFGBIJO@?$AAl?$AAt?$AA?9?$AAL?$AAT@ 0045e3b8     libucrt:lcidtoname_downlevel.obj
 0002:0000b3c4       ??_C@_1M@FGEAHEDM@?$AAf?$AAa?$AA?9?$AAI?$AAR@ 0045e3c4     libucrt:lcidtoname_downlevel.obj
 0002:0000b3d0       ??_C@_1M@KBMAIBFN@?$AAv?$AAi?$AA?9?$AAV?$AAN@ 0045e3d0     libucrt:lcidtoname_downlevel.obj
 0002:0000b3dc       ??_C@_1M@GPCBKDJK@?$AAh?$AAy?$AA?9?$AAA?$AAM@ 0045e3dc     libucrt:lcidtoname_downlevel.obj
 0002:0000b3e8       ??_C@_1BG@BECMDDJB@?$AAa?$AAz?$AA?9?$AAA?$AAZ?$AA?9?$AAL?$AAa?$AAt?$AAn@ 0045e3e8     libucrt:lcidtoname_downlevel.obj
 0002:0000b400       ??_C@_1M@MAOFCAEA@?$AAe?$AAu?$AA?9?$AAE?$AAS@ 0045e400     libucrt:lcidtoname_downlevel.obj
 0002:0000b40c       ??_C@_1M@IGHABKPI@?$AAm?$AAk?$AA?9?$AAM?$AAK@ 0045e40c     libucrt:lcidtoname_downlevel.obj
 0002:0000b418       ??_C@_1M@IAIGNEJG@?$AAt?$AAn?$AA?9?$AAZ?$AAA@ 0045e418     libucrt:lcidtoname_downlevel.obj
 0002:0000b424       ??_C@_1M@IIJCOJFA@?$AAx?$AAh?$AA?9?$AAZ?$AAA@ 0045e424     libucrt:lcidtoname_downlevel.obj
 0002:0000b430       ??_C@_1M@LGPJHNJH@?$AAz?$AAu?$AA?9?$AAZ?$AAA@ 0045e430     libucrt:lcidtoname_downlevel.obj
 0002:0000b43c       ??_C@_1M@HOKAOIO@?$AAa?$AAf?$AA?9?$AAZ?$AAA@ 0045e43c     libucrt:lcidtoname_downlevel.obj
 0002:0000b448       ??_C@_1M@DPCLHLIE@?$AAk?$AAa?$AA?9?$AAG?$AAE@ 0045e448     libucrt:lcidtoname_downlevel.obj
 0002:0000b454       ??_C@_1M@BLKMHJBI@?$AAf?$AAo?$AA?9?$AAF?$AAO@ 0045e454     libucrt:lcidtoname_downlevel.obj
 0002:0000b460       ??_C@_1M@LGGJAPPB@?$AAh?$AAi?$AA?9?$AAI?$AAN@ 0045e460     libucrt:lcidtoname_downlevel.obj
 0002:0000b46c       ??_C@_1M@FIKPIHFE@?$AAm?$AAt?$AA?9?$AAM?$AAT@ 0045e46c     libucrt:lcidtoname_downlevel.obj
 0002:0000b478       ??_C@_1M@HEGGPBFA@?$AAs?$AAe?$AA?9?$AAN?$AAO@ 0045e478     libucrt:lcidtoname_downlevel.obj
 0002:0000b484       ??_C@_1M@EIBJEEPA@?$AAm?$AAs?$AA?9?$AAM?$AAY@ 0045e484     libucrt:lcidtoname_downlevel.obj
 0002:0000b490       ??_C@_1M@FHLBGMPP@?$AAk?$AAk?$AA?9?$AAK?$AAZ@ 0045e490     libucrt:lcidtoname_downlevel.obj
 0002:0000b49c       ??_C@_1M@NGJJLCGI@?$AAk?$AAy?$AA?9?$AAK?$AAG@ 0045e49c     libucrt:lcidtoname_downlevel.obj
 0002:0000b4a8       ??_C@_1M@GIENNBFC@?$AAs?$AAw?$AA?9?$AAK?$AAE@ 0045e4a8     libucrt:lcidtoname_downlevel.obj
 0002:0000b4b4       ??_C@_1BG@NDGMJIMJ@?$AAu?$AAz?$AA?9?$AAU?$AAZ?$AA?9?$AAL?$AAa?$AAt?$AAn@ 0045e4b4     libucrt:lcidtoname_downlevel.obj
 0002:0000b4cc       ??_C@_1M@IDCCIHBC@?$AAt?$AAt?$AA?9?$AAR?$AAU@ 0045e4cc     libucrt:lcidtoname_downlevel.obj
 0002:0000b4d8       ??_C@_1M@LOICPMOJ@?$AAb?$AAn?$AA?9?$AAI?$AAN@ 0045e4d8     libucrt:lcidtoname_downlevel.obj
 0002:0000b4e4       ??_C@_1M@KPKKNEAH@?$AAp?$AAa?$AA?9?$AAI?$AAN@ 0045e4e4     libucrt:lcidtoname_downlevel.obj
 0002:0000b4f0       ??_C@_1M@PJGPPBOG@?$AAg?$AAu?$AA?9?$AAI?$AAN@ 0045e4f0     libucrt:lcidtoname_downlevel.obj
 0002:0000b4fc       ??_C@_1M@KMKMOPHI@?$AAt?$AAa?$AA?9?$AAI?$AAN@ 0045e4fc     libucrt:lcidtoname_downlevel.obj
 0002:0000b508       ??_C@_1M@KFEHEPAC@?$AAt?$AAe?$AA?9?$AAI?$AAN@ 0045e508     libucrt:lcidtoname_downlevel.obj
 0002:0000b514       ??_C@_1M@CDCLMGHI@?$AAk?$AAn?$AA?9?$AAI?$AAN@ 0045e514     libucrt:lcidtoname_downlevel.obj
 0002:0000b520       ??_C@_1M@MIODLDKF@?$AAm?$AAl?$AA?9?$AAI?$AAN@ 0045e520     libucrt:lcidtoname_downlevel.obj
 0002:0000b52c       ??_C@_1M@PBIEACPO@?$AAm?$AAr?$AA?9?$AAI?$AAN@ 0045e52c     libucrt:lcidtoname_downlevel.obj
 0002:0000b538       ??_C@_1M@NIDEAGPH@?$AAs?$AAa?$AA?9?$AAI?$AAN@ 0045e538     libucrt:lcidtoname_downlevel.obj
 0002:0000b544       ??_C@_1M@FHIHCBIO@?$AAm?$AAn?$AA?9?$AAM?$AAN@ 0045e544     libucrt:lcidtoname_downlevel.obj
 0002:0000b550       ??_C@_1M@JAIJPENP@?$AAc?$AAy?$AA?9?$AAG?$AAB@ 0045e550     libucrt:lcidtoname_downlevel.obj
 0002:0000b55c       ??_C@_1M@PHGFBEPN@?$AAg?$AAl?$AA?9?$AAE?$AAS@ 0045e55c     libucrt:lcidtoname_downlevel.obj
 0002:0000b568       ??_C@_1O@KPIPDNCP@?$AAk?$AAo?$AAk?$AA?9?$AAI?$AAN@ 0045e568     libucrt:lcidtoname_downlevel.obj
 0002:0000b578       ??_C@_1O@KNHJLDJA@?$AAs?$AAy?$AAr?$AA?9?$AAS?$AAY@ 0045e578     libucrt:lcidtoname_downlevel.obj
 0002:0000b588       ??_C@_1O@MKEKBLAH@?$AAd?$AAi?$AAv?$AA?9?$AAM?$AAV@ 0045e588     libucrt:lcidtoname_downlevel.obj
 0002:0000b598       ??_C@_1O@OHDCKDDF@?$AAq?$AAu?$AAz?$AA?9?$AAB?$AAO@ 0045e598     libucrt:lcidtoname_downlevel.obj
 0002:0000b5a8       ??_C@_1M@LEPJNLFD@?$AAn?$AAs?$AA?9?$AAZ?$AAA@ 0045e5a8     libucrt:lcidtoname_downlevel.obj
 0002:0000b5b4       ??_C@_1M@OMLEIIJB@?$AAm?$AAi?$AA?9?$AAN?$AAZ@ 0045e5b4     libucrt:lcidtoname_downlevel.obj
 0002:0000b5c0       ??_C@_1M@PMPEAILG@?$AAa?$AAr?$AA?9?$AAI?$AAQ@ 0045e5c0     libucrt:lcidtoname_downlevel.obj
 0002:0000b5cc       ??_C@_1M@CNKPNOEE@?$AAd?$AAe?$AA?9?$AAC?$AAH@ 0045e5cc     libucrt:lcidtoname_downlevel.obj
 0002:0000b5d8       ??_C@_1M@LKMGMLKO@?$AAe?$AAn?$AA?9?$AAG?$AAB@ 0045e5d8     libucrt:lcidtoname_downlevel.obj
 0002:0000b5e4       ??_C@_1M@PGKJFFGL@?$AAe?$AAs?$AA?9?$AAM?$AAX@ 0045e5e4     libucrt:lcidtoname_downlevel.obj
 0002:0000b5f0       ??_C@_1M@DNNANBDC@?$AAf?$AAr?$AA?9?$AAB?$AAE@ 0045e5f0     libucrt:lcidtoname_downlevel.obj
 0002:0000b5fc       ??_C@_1M@HLGMDFHM@?$AAi?$AAt?$AA?9?$AAC?$AAH@ 0045e5fc     libucrt:lcidtoname_downlevel.obj
 0002:0000b608       ??_C@_1M@CLLBGJH@?$AAn?$AAl?$AA?9?$AAB?$AAE@ 0045e608     libucrt:lcidtoname_downlevel.obj
 0002:0000b614       ??_C@_1M@BODBOGLF@?$AAn?$AAn?$AA?9?$AAN?$AAO@ 0045e614     libucrt:lcidtoname_downlevel.obj
 0002:0000b620       ??_C@_1M@HFFAHKAD@?$AAp?$AAt?$AA?9?$AAP?$AAT@ 0045e620     libucrt:lcidtoname_downlevel.obj
 0002:0000b62c       ??_C@_1BG@LNOAKHIE@?$AAs?$AAr?$AA?9?$AAS?$AAP?$AA?9?$AAL?$AAa?$AAt?$AAn@ 0045e62c     libucrt:lcidtoname_downlevel.obj
 0002:0000b644       ??_C@_1M@HBMHBGAK@?$AAs?$AAv?$AA?9?$AAF?$AAI@ 0045e644     libucrt:lcidtoname_downlevel.obj
 0002:0000b650       ??_C@_1BG@DGCJGJBE@?$AAa?$AAz?$AA?9?$AAA?$AAZ?$AA?9?$AAC?$AAy?$AAr?$AAl@ 0045e650     libucrt:lcidtoname_downlevel.obj
 0002:0000b668       ??_C@_1M@KEJDAAHB@?$AAs?$AAe?$AA?9?$AAS?$AAE@ 0045e668     libucrt:lcidtoname_downlevel.obj
 0002:0000b674       ??_C@_1M@HEIBJJAD@?$AAm?$AAs?$AA?9?$AAB?$AAN@ 0045e674     libucrt:lcidtoname_downlevel.obj
 0002:0000b680       ??_C@_1BG@PBGJMCEM@?$AAu?$AAz?$AA?9?$AAU?$AAZ?$AA?9?$AAC?$AAy?$AAr?$AAl@ 0045e680     libucrt:lcidtoname_downlevel.obj
 0002:0000b698       ??_C@_1O@LAOBCMDF@?$AAq?$AAu?$AAz?$AA?9?$AAE?$AAC@ 0045e698     libucrt:lcidtoname_downlevel.obj
 0002:0000b6a8       ??_C@_1M@POEEMAIO@?$AAa?$AAr?$AA?9?$AAE?$AAG@ 0045e6a8     libucrt:lcidtoname_downlevel.obj
 0002:0000b6b4       ??_C@_1M@EFAKDEDL@?$AAz?$AAh?$AA?9?$AAH?$AAK@ 0045e6b4     libucrt:lcidtoname_downlevel.obj
 0002:0000b6c0       ??_C@_1M@HKKIJHGI@?$AAd?$AAe?$AA?9?$AAA?$AAT@ 0045e6c0     libucrt:lcidtoname_downlevel.obj
 0002:0000b6cc       ??_C@_1M@KBFBEHJF@?$AAe?$AAn?$AA?9?$AAA?$AAU@ 0045e6cc     libucrt:lcidtoname_downlevel.obj
 0002:0000b6d8       ??_C@_1M@MNPLFAAH@?$AAe?$AAs?$AA?9?$AAE?$AAS@ 0045e6d8     libucrt:lcidtoname_downlevel.obj
 0002:0000b6e4       ??_C@_1M@HJOOJFMA@?$AAf?$AAr?$AA?9?$AAC?$AAA@ 0045e6e4     libucrt:lcidtoname_downlevel.obj
 0002:0000b6f0       ??_C@_1BG@JPOFPNAB@?$AAs?$AAr?$AA?9?$AAS?$AAP?$AA?9?$AAC?$AAy?$AAr?$AAl@ 0045e6f0     libucrt:lcidtoname_downlevel.obj
 0002:0000b708       ??_C@_1M@LNFOCMOB@?$AAs?$AAe?$AA?9?$AAF?$AAI@ 0045e708     libucrt:lcidtoname_downlevel.obj
 0002:0000b714       ??_C@_1O@MGJBOAMB@?$AAq?$AAu?$AAz?$AA?9?$AAP?$AAE@ 0045e714     libucrt:lcidtoname_downlevel.obj
 0002:0000b724       ??_C@_1M@GJINLBOK@?$AAa?$AAr?$AA?9?$AAL?$AAY@ 0045e724     libucrt:lcidtoname_downlevel.obj
 0002:0000b730       ??_C@_1M@GGMNHJNL@?$AAz?$AAh?$AA?9?$AAS?$AAG@ 0045e730     libucrt:lcidtoname_downlevel.obj
 0002:0000b73c       ??_C@_1M@HOIKODND@?$AAd?$AAe?$AA?9?$AAL?$AAU@ 0045e73c     libucrt:lcidtoname_downlevel.obj
 0002:0000b748       ??_C@_1M@DDOCCGFG@?$AAe?$AAn?$AA?9?$AAC?$AAA@ 0045e748     libucrt:lcidtoname_downlevel.obj
 0002:0000b754       ??_C@_1M@BNOEMJLF@?$AAe?$AAs?$AA?9?$AAG?$AAT@ 0045e754     libucrt:lcidtoname_downlevel.obj
 0002:0000b760       ??_C@_1M@EOGNKEK@?$AAf?$AAr?$AA?9?$AAC?$AAH@ 0045e760     libucrt:lcidtoname_downlevel.obj
 0002:0000b76c       ??_C@_1M@FLIDJFHL@?$AAh?$AAr?$AA?9?$AAB?$AAA@ 0045e76c     libucrt:lcidtoname_downlevel.obj
 0002:0000b778       ??_C@_1O@FMCELNAJ@?$AAs?$AAm?$AAj?$AA?9?$AAN?$AAO@ 0045e778     libucrt:lcidtoname_downlevel.obj
 0002:0000b788       ??_C@_1M@JHGLJMGJ@?$AAa?$AAr?$AA?9?$AAD?$AAZ@ 0045e788     libucrt:lcidtoname_downlevel.obj
 0002:0000b794       ??_C@_1M@JKKFDCNP@?$AAz?$AAh?$AA?9?$AAM?$AAO@ 0045e794     libucrt:lcidtoname_downlevel.obj
 0002:0000b7a0       ??_C@_1M@GEEFALPE@?$AAd?$AAe?$AA?9?$AAL?$AAI@ 0045e7a0     libucrt:lcidtoname_downlevel.obj
 0002:0000b7ac       ??_C@_1M@IGEOFBG@?$AAe?$AAn?$AA?9?$AAN?$AAZ@ 0045e7ac     libucrt:lcidtoname_downlevel.obj
 0002:0000b7b8       ??_C@_1M@KDBONEHP@?$AAe?$AAs?$AA?9?$AAC?$AAR@ 0045e7b8     libucrt:lcidtoname_downlevel.obj
 0002:0000b7c4       ??_C@_1M@FHMDOHNN@?$AAf?$AAr?$AA?9?$AAL?$AAU@ 0045e7c4     libucrt:lcidtoname_downlevel.obj
 0002:0000b7d0       ??_C@_1BG@NFKKMAFG@?$AAb?$AAs?$AA?9?$AAB?$AAA?$AA?9?$AAL?$AAa?$AAt?$AAn@ 0045e7d0     libucrt:lcidtoname_downlevel.obj
 0002:0000b7e8       ??_C@_1O@IMNBEMCI@?$AAs?$AAm?$AAj?$AA?9?$AAS?$AAE@ 0045e7e8     libucrt:lcidtoname_downlevel.obj
 0002:0000b7f8       ??_C@_1M@DHHMBNDP@?$AAa?$AAr?$AA?9?$AAM?$AAA@ 0045e7f8     libucrt:lcidtoname_downlevel.obj
 0002:0000b804       ??_C@_1M@BNBLJCGH@?$AAe?$AAn?$AA?9?$AAI?$AAE@ 0045e804     libucrt:lcidtoname_downlevel.obj
 0002:0000b810       ??_C@_1M@GEPAFMDL@?$AAe?$AAs?$AA?9?$AAP?$AAA@ 0045e810     libucrt:lcidtoname_downlevel.obj
 0002:0000b81c       ??_C@_1M@OJONDMDL@?$AAf?$AAr?$AA?9?$AAM?$AAC@ 0045e81c     libucrt:lcidtoname_downlevel.obj
 0002:0000b828       ??_C@_1BG@OBCNFJB@?$AAs?$AAr?$AA?9?$AAB?$AAA?$AA?9?$AAL?$AAa?$AAt?$AAn@ 0045e828     libucrt:lcidtoname_downlevel.obj
 0002:0000b840       ??_C@_1O@KEMEEGPO@?$AAs?$AAm?$AAa?$AA?9?$AAN?$AAO@ 0045e840     libucrt:lcidtoname_downlevel.obj
 0002:0000b850       ??_C@_1M@ELMGFODK@?$AAa?$AAr?$AA?9?$AAT?$AAN@ 0045e850     libucrt:lcidtoname_downlevel.obj
 0002:0000b85c       ??_C@_1M@BHDLHFAF@?$AAe?$AAn?$AA?9?$AAZ?$AAA@ 0045e85c     libucrt:lcidtoname_downlevel.obj
 0002:0000b868       ??_C@_1M@BMGIGLIF@?$AAe?$AAs?$AA?9?$AAD?$AAO@ 0045e868     libucrt:lcidtoname_downlevel.obj
 0002:0000b874       ??_C@_1BG@CMBHIPBE@?$AAs?$AAr?$AA?9?$AAB?$AAA?$AA?9?$AAC?$AAy?$AAr?$AAl@ 0045e874     libucrt:lcidtoname_downlevel.obj
 0002:0000b88c       ??_C@_1O@HEDBLHNP@?$AAs?$AAm?$AAa?$AA?9?$AAS?$AAE@ 0045e88c     libucrt:lcidtoname_downlevel.obj
 0002:0000b89c       ??_C@_1M@DAGCADIM@?$AAa?$AAr?$AA?9?$AAO?$AAM@ 0045e89c     libucrt:lcidtoname_downlevel.obj
 0002:0000b8a8       ??_C@_1M@FODLMICG@?$AAe?$AAn?$AA?9?$AAJ?$AAM@ 0045e8a8     libucrt:lcidtoname_downlevel.obj
 0002:0000b8b4       ??_C@_1M@DNMLCIHB@?$AAe?$AAs?$AA?9?$AAV?$AAE@ 0045e8b4     libucrt:lcidtoname_downlevel.obj
 0002:0000b8c0       ??_C@_1O@EOKHMKJK@?$AAs?$AAm?$AAs?$AA?9?$AAF?$AAI@ 0045e8c0     libucrt:lcidtoname_downlevel.obj
 0002:0000b8d0       ??_C@_1M@CAFJMKOF@?$AAa?$AAr?$AA?9?$AAY?$AAE@ 0045e8d0     libucrt:lcidtoname_downlevel.obj
 0002:0000b8dc       ??_C@_1M@CBFHIJLI@?$AAe?$AAn?$AA?9?$AAC?$AAB@ 0045e8dc     libucrt:lcidtoname_downlevel.obj
 0002:0000b8e8       ??_C@_1M@BGNFLDN@?$AAe?$AAs?$AA?9?$AAC?$AAO@ 0045e8e8     libucrt:lcidtoname_downlevel.obj
 0002:0000b8f4       ??_C@_1O@JMPHMAMC@?$AAs?$AAm?$AAn?$AA?9?$AAF?$AAI@ 0045e8f4     libucrt:lcidtoname_downlevel.obj
 0002:0000b904       ??_C@_1M@JLANABKE@?$AAa?$AAr?$AA?9?$AAS?$AAY@ 0045e904     libucrt:lcidtoname_downlevel.obj
 0002:0000b910       ??_C@_1M@HPKGCFGN@?$AAe?$AAn?$AA?9?$AAB?$AAZ@ 0045e910     libucrt:lcidtoname_downlevel.obj
 0002:0000b91c       ??_C@_1M@OLJCMLGM@?$AAe?$AAs?$AA?9?$AAP?$AAE@ 0045e91c     libucrt:lcidtoname_downlevel.obj
 0002:0000b928       ??_C@_1M@MKKGFKLE@?$AAa?$AAr?$AA?9?$AAJ?$AAO@ 0045e928     libucrt:lcidtoname_downlevel.obj
 0002:0000b934       ??_C@_1M@EKPGLDNI@?$AAe?$AAn?$AA?9?$AAT?$AAT@ 0045e934     libucrt:lcidtoname_downlevel.obj
 0002:0000b940       ??_C@_1M@OONGHFHE@?$AAe?$AAs?$AA?9?$AAA?$AAR@ 0045e940     libucrt:lcidtoname_downlevel.obj
 0002:0000b94c       ??_C@_1M@OOJFGBHE@?$AAa?$AAr?$AA?9?$AAL?$AAB@ 0045e94c     libucrt:lcidtoname_downlevel.obj
 0002:0000b958       ??_C@_1M@GCEJHNEG@?$AAe?$AAn?$AA?9?$AAZ?$AAW@ 0045e958     libucrt:lcidtoname_downlevel.obj
 0002:0000b964       ??_C@_1M@JNOCAHJI@?$AAe?$AAs?$AA?9?$AAE?$AAC@ 0045e964     libucrt:lcidtoname_downlevel.obj
 0002:0000b970       ??_C@_1M@JEFHPGGB@?$AAa?$AAr?$AA?9?$AAK?$AAW@ 0045e970     libucrt:lcidtoname_downlevel.obj
 0002:0000b97c       ??_C@_1M@MLKIBJOJ@?$AAe?$AAn?$AA?9?$AAP?$AAH@ 0045e97c     libucrt:lcidtoname_downlevel.obj
 0002:0000b988       ??_C@_1M@BDNIPEND@?$AAe?$AAs?$AA?9?$AAC?$AAL@ 0045e988     libucrt:lcidtoname_downlevel.obj
 0002:0000b994       ??_C@_1M@MPNMEKBD@?$AAa?$AAr?$AA?9?$AAA?$AAE@ 0045e994     libucrt:lcidtoname_downlevel.obj
 0002:0000b9a0       ??_C@_1M@KBJALCPI@?$AAe?$AAs?$AA?9?$AAU?$AAY@ 0045e9a0     libucrt:lcidtoname_downlevel.obj
 0002:0000b9ac       ??_C@_1M@LLCCOAGA@?$AAa?$AAr?$AA?9?$AAB?$AAH@ 0045e9ac     libucrt:lcidtoname_downlevel.obj
 0002:0000b9b8       ??_C@_1M@PBFNCDEL@?$AAe?$AAs?$AA?9?$AAP?$AAY@ 0045e9b8     libucrt:lcidtoname_downlevel.obj
 0002:0000b9c4       ??_C@_1M@EDGINPNP@?$AAa?$AAr?$AA?9?$AAQ?$AAA@ 0045e9c4     libucrt:lcidtoname_downlevel.obj
 0002:0000b9d0       ??_C@_1M@MKDBIIJI@?$AAe?$AAs?$AA?9?$AAB?$AAO@ 0045e9d0     libucrt:lcidtoname_downlevel.obj
 0002:0000b9dc       ??_C@_1M@CPKKEBLD@?$AAe?$AAs?$AA?9?$AAS?$AAV@ 0045e9dc     libucrt:lcidtoname_downlevel.obj
 0002:0000b9e8       ??_C@_1M@NDBGMMJL@?$AAe?$AAs?$AA?9?$AAH?$AAN@ 0045e9e8     libucrt:lcidtoname_downlevel.obj
 0002:0000b9f4       ??_C@_1M@JIJIBHDP@?$AAe?$AAs?$AA?9?$AAN?$AAI@ 0045e9f4     libucrt:lcidtoname_downlevel.obj
 0002:0000ba00       ??_C@_1M@CGFMKEEK@?$AAe?$AAs?$AA?9?$AAP?$AAR@ 0045ea00     libucrt:lcidtoname_downlevel.obj
 0002:0000ba0c       ??_C@_1O@ICJHKIIK@?$AAz?$AAh?$AA?9?$AAC?$AAH?$AAT@ 0045ea0c     libucrt:lcidtoname_downlevel.obj
 0002:0000ba1c       ??_C@_15CLNEJCE@?$AAs?$AAr@ 0045ea1c     libucrt:lcidtoname_downlevel.obj
 0002:0000c148       ??_C@_1M@KAHEKEIG@?$AAa?$AAf?$AA?9?$AAz?$AAa@ 0045f148     libucrt:lcidtoname_downlevel.obj
 0002:0000c154       ??_C@_1M@GIECOABL@?$AAa?$AAr?$AA?9?$AAa?$AAe@ 0045f154     libucrt:lcidtoname_downlevel.obj
 0002:0000c160       ??_C@_1M@BMLMEKGI@?$AAa?$AAr?$AA?9?$AAb?$AAh@ 0045f160     libucrt:lcidtoname_downlevel.obj
 0002:0000c16c       ??_C@_1M@DAPFDGGB@?$AAa?$AAr?$AA?9?$AAd?$AAz@ 0045f16c     libucrt:lcidtoname_downlevel.obj
 0002:0000c178       ??_C@_1M@FJNKGKIG@?$AAa?$AAr?$AA?9?$AAe?$AAg@ 0045f178     libucrt:lcidtoname_downlevel.obj
 0002:0000c184       ??_C@_1M@FLGKKCLO@?$AAa?$AAr?$AA?9?$AAi?$AAq@ 0045f184     libucrt:lcidtoname_downlevel.obj
 0002:0000c190       ??_C@_1M@GNDIPALM@?$AAa?$AAr?$AA?9?$AAj?$AAo@ 0045f190     libucrt:lcidtoname_downlevel.obj
 0002:0000c19c       ??_C@_1M@DDMJFMGJ@?$AAa?$AAr?$AA?9?$AAk?$AAw@ 0045f19c     libucrt:lcidtoname_downlevel.obj
 0002:0000c1a8       ??_C@_1M@EJALMLHM@?$AAa?$AAr?$AA?9?$AAl?$AAb@ 0045f1a8     libucrt:lcidtoname_downlevel.obj
 0002:0000c1b4       ??_C@_1M@MOBDBLOC@?$AAa?$AAr?$AA?9?$AAl?$AAy@ 0045f1b4     libucrt:lcidtoname_downlevel.obj
 0002:0000c1c0       ??_C@_1M@JAOCLHDH@?$AAa?$AAr?$AA?9?$AAm?$AAa@ 0045f1c0     libucrt:lcidtoname_downlevel.obj
 0002:0000c1cc       ??_C@_1M@JHPMKJIE@?$AAa?$AAr?$AA?9?$AAo?$AAm@ 0045f1cc     libucrt:lcidtoname_downlevel.obj
 0002:0000c1d8       ??_C@_1M@OEPGHFNH@?$AAa?$AAr?$AA?9?$AAq?$AAa@ 0045f1d8     libucrt:lcidtoname_downlevel.obj
 0002:0000c1e4       ??_C@_1M@KJDONENM@?$AAa?$AAr?$AA?9?$AAs?$AAa@ 0045f1e4     libucrt:lcidtoname_downlevel.obj
 0002:0000c1f0       ??_C@_1M@DMJDKLKM@?$AAa?$AAr?$AA?9?$AAs?$AAy@ 0045f1f0     libucrt:lcidtoname_downlevel.obj
 0002:0000c1fc       ??_C@_1M@OMFIPEDC@?$AAa?$AAr?$AA?9?$AAt?$AAn@ 0045f1fc     libucrt:lcidtoname_downlevel.obj
 0002:0000c208       ??_C@_1M@IHMHGAON@?$AAa?$AAr?$AA?9?$AAy?$AAe@ 0045f208     libucrt:lcidtoname_downlevel.obj
 0002:0000c214       ??_C@_1BG@KDCPGJGB@?$AAa?$AAz?$AA?9?$AAa?$AAz?$AA?9?$AAc?$AAy?$AAr?$AAl@ 0045f214     libucrt:lcidtoname_downlevel.obj
 0002:0000c22c       ??_C@_1BG@IBCKDDOE@?$AAa?$AAz?$AA?9?$AAa?$AAz?$AA?9?$AAl?$AAa?$AAt?$AAn@ 0045f22c     libucrt:lcidtoname_downlevel.obj
 0002:0000c244       ??_C@_1M@EGPFDCPD@?$AAb?$AAe?$AA?9?$AAb?$AAy@ 0045f244     libucrt:lcidtoname_downlevel.obj
 0002:0000c250       ??_C@_1M@PCMGMCGC@?$AAb?$AAg?$AA?9?$AAb?$AAg@ 0045f250     libucrt:lcidtoname_downlevel.obj
 0002:0000c25c       ??_C@_1M@BJBMFGOB@?$AAb?$AAn?$AA?9?$AAi?$AAn@ 0045f25c     libucrt:lcidtoname_downlevel.obj
 0002:0000c268       ??_C@_1BG@EAKMMACD@?$AAb?$AAs?$AA?9?$AAb?$AAa?$AA?9?$AAl?$AAa?$AAt?$AAn@ 0045f268     libucrt:lcidtoname_downlevel.obj
 0002:0000c280       ??_C@_1M@KGADAODK@?$AAc?$AAa?$AA?9?$AAe?$AAs@ 0045f280     libucrt:lcidtoname_downlevel.obj
 0002:0000c28c       ??_C@_1M@COAJPDHI@?$AAc?$AAs?$AA?9?$AAc?$AAz@ 0045f28c     libucrt:lcidtoname_downlevel.obj
 0002:0000c298       ??_C@_1M@DHBHFONH@?$AAc?$AAy?$AA?9?$AAg?$AAb@ 0045f298     libucrt:lcidtoname_downlevel.obj
 0002:0000c2a4       ??_C@_1M@IMGKELGA@?$AAd?$AAa?$AA?9?$AAd?$AAk@ 0045f2a4     libucrt:lcidtoname_downlevel.obj
 0002:0000c2b0       ??_C@_1M@NNDGDNGA@?$AAd?$AAe?$AA?9?$AAa?$AAt@ 0045f2b0     libucrt:lcidtoname_downlevel.obj
 0002:0000c2bc       ??_C@_1M@IKDBHEEM@?$AAd?$AAe?$AA?9?$AAc?$AAh@ 0045f2bc     libucrt:lcidtoname_downlevel.obj
 0002:0000c2c8       ??_C@_1M@GFFOJMCJ@?$AAd?$AAe?$AA?9?$AAd?$AAe@ 0045f2c8     libucrt:lcidtoname_downlevel.obj
 0002:0000c2d4       ??_C@_1M@MDNLKBPM@?$AAd?$AAe?$AA?9?$AAl?$AAi@ 0045f2d4     libucrt:lcidtoname_downlevel.obj
 0002:0000c2e0       ??_C@_1M@NJBEEJNL@?$AAd?$AAe?$AA?9?$AAl?$AAu@ 0045f2e0     libucrt:lcidtoname_downlevel.obj
 0002:0000c2ec       ??_C@_1O@GNNELBAP@?$AAd?$AAi?$AAv?$AA?9?$AAm?$AAv@ 0045f2ec     libucrt:lcidtoname_downlevel.obj
 0002:0000c2fc       ??_C@_1M@EJLEOGAE@?$AAe?$AAl?$AA?9?$AAg?$AAr@ 0045f2fc     libucrt:lcidtoname_downlevel.obj
 0002:0000c308       ??_C@_1M@GMPONJN@?$AAe?$AAn?$AA?9?$AAa?$AAu@ 0045f308     libucrt:lcidtoname_downlevel.obj
 0002:0000c314       ??_C@_1M@NIDIIPGF@?$AAe?$AAn?$AA?9?$AAb?$AAz@ 0045f314     libucrt:lcidtoname_downlevel.obj
 0002:0000c320       ??_C@_1M@JEHMIMFO@?$AAe?$AAn?$AA?9?$AAc?$AAa@ 0045f320     libucrt:lcidtoname_downlevel.obj
 0002:0000c32c       ??_C@_1M@IGMJCDLA@?$AAe?$AAn?$AA?9?$AAc?$AAb@ 0045f32c     libucrt:lcidtoname_downlevel.obj
 0002:0000c338       ??_C@_1M@BNFIGBKG@?$AAe?$AAn?$AA?9?$AAg?$AAb@ 0045f338     libucrt:lcidtoname_downlevel.obj
 0002:0000c344       ??_C@_1M@LKIFDIGP@?$AAe?$AAn?$AA?9?$AAi?$AAe@ 0045f344     libucrt:lcidtoname_downlevel.obj
 0002:0000c350       ??_C@_1M@PJKFGCCO@?$AAe?$AAn?$AA?9?$AAj?$AAm@ 0045f350     libucrt:lcidtoname_downlevel.obj
 0002:0000c35c       ??_C@_1M@KPPKEPBO@?$AAe?$AAn?$AA?9?$AAn?$AAz@ 0045f35c     libucrt:lcidtoname_downlevel.obj
 0002:0000c368       ??_C@_1M@GMDGLDOB@?$AAe?$AAn?$AA?9?$AAp?$AAh@ 0045f368     libucrt:lcidtoname_downlevel.obj
 0002:0000c374       ??_C@_1M@ONGIBJNA@?$AAe?$AAn?$AA?9?$AAt?$AAt@ 0045f374     libucrt:lcidtoname_downlevel.obj
 0002:0000c380       ??_C@_1M@LLODPCMM@?$AAe?$AAn?$AA?9?$AAu?$AAs@ 0045f380     libucrt:lcidtoname_downlevel.obj
 0002:0000c38c       ??_C@_1M@LAKFNPAN@?$AAe?$AAn?$AA?9?$AAz?$AAa@ 0045f38c     libucrt:lcidtoname_downlevel.obj
 0002:0000c398       ??_C@_1M@MFNHNHEO@?$AAe?$AAn?$AA?9?$AAz?$AAw@ 0045f398     libucrt:lcidtoname_downlevel.obj
 0002:0000c3a4       ??_C@_1M@EJEINPHM@?$AAe?$AAs?$AA?9?$AAa?$AAr@ 0045f3a4     libucrt:lcidtoname_downlevel.obj
 0002:0000c3b0       ??_C@_1M@GNKPCCJA@?$AAe?$AAs?$AA?9?$AAb?$AAo@ 0045f3b0     libucrt:lcidtoname_downlevel.obj
 0002:0000c3bc       ??_C@_1M@LEEGFONL@?$AAe?$AAs?$AA?9?$AAc?$AAl@ 0045f3bc     libucrt:lcidtoname_downlevel.obj
 0002:0000c3c8       ??_C@_1M@KGPDPBDF@?$AAe?$AAs?$AA?9?$AAc?$AAo@ 0045f3c8     libucrt:lcidtoname_downlevel.obj
 0002:0000c3d4       ??_C@_1M@EIAHOHH@?$AAe?$AAs?$AA?9?$AAc?$AAr@ 0045f3d4     libucrt:lcidtoname_downlevel.obj
 0002:0000c3e0       ??_C@_1M@LLPGMBIN@?$AAe?$AAs?$AA?9?$AAd?$AAo@ 0045f3e0     libucrt:lcidtoname_downlevel.obj
 0002:0000c3ec       ??_C@_1M@DKHMKNJA@?$AAe?$AAs?$AA?9?$AAe?$AAc@ 0045f3ec     libucrt:lcidtoname_downlevel.obj
 0002:0000c3f8       ??_C@_1M@GKGFPKAP@?$AAe?$AAs?$AA?9?$AAe?$AAs@ 0045f3f8     libucrt:lcidtoname_downlevel.obj
 0002:0000c404       ??_C@_1M@LKHKGDLN@?$AAe?$AAs?$AA?9?$AAg?$AAt@ 0045f404     libucrt:lcidtoname_downlevel.obj
 0002:0000c410       ??_C@_1M@HEIIGGJD@?$AAe?$AAs?$AA?9?$AAh?$AAn@ 0045f410     libucrt:lcidtoname_downlevel.obj
 0002:0000c41c       ??_C@_1M@FBDHPPGD@?$AAe?$AAs?$AA?9?$AAm?$AAx@ 0045f41c     libucrt:lcidtoname_downlevel.obj
 0002:0000c428       ??_C@_1M@DPAGLNDH@?$AAe?$AAs?$AA?9?$AAn?$AAi@ 0045f428     libucrt:lcidtoname_downlevel.obj
 0002:0000c434       ??_C@_1M@MDGOPGDD@?$AAe?$AAs?$AA?9?$AAp?$AAa@ 0045f434     libucrt:lcidtoname_downlevel.obj
 0002:0000c440       ??_C@_1M@EMAMGBGE@?$AAe?$AAs?$AA?9?$AAp?$AAe@ 0045f440     libucrt:lcidtoname_downlevel.obj
 0002:0000c44c       ??_C@_1M@IBMCAOEC@?$AAe?$AAs?$AA?9?$AAp?$AAr@ 0045f44c     libucrt:lcidtoname_downlevel.obj
 0002:0000c458       ??_C@_1M@FGMDIJED@?$AAe?$AAs?$AA?9?$AAp?$AAy@ 0045f458     libucrt:lcidtoname_downlevel.obj
 0002:0000c464       ??_C@_1M@IIDEOLLL@?$AAe?$AAs?$AA?9?$AAs?$AAv@ 0045f464     libucrt:lcidtoname_downlevel.obj
 0002:0000c470       ??_C@_1M@GAOBIPA@?$AAe?$AAs?$AA?9?$AAu?$AAy@ 0045f470     libucrt:lcidtoname_downlevel.obj
 0002:0000c47c       ??_C@_1M@JKFFICHJ@?$AAe?$AAs?$AA?9?$AAv?$AAe@ 0045f47c     libucrt:lcidtoname_downlevel.obj
 0002:0000c488       ??_C@_1M@PNMLOJDF@?$AAe?$AAt?$AA?9?$AAe?$AAe@ 0045f488     libucrt:lcidtoname_downlevel.obj
 0002:0000c494       ??_C@_1M@GHHLIKEI@?$AAe?$AAu?$AA?9?$AAe?$AAs@ 0045f494     libucrt:lcidtoname_downlevel.obj
 0002:0000c4a0       ??_C@_1M@PBNONODE@?$AAf?$AAa?$AA?9?$AAi?$AAr@ 0045f4a0     libucrt:lcidtoname_downlevel.obj
 0002:0000c4ac       ??_C@_1M@JEEHPMIL@?$AAf?$AAi?$AA?9?$AAf?$AAi@ 0045f4ac     libucrt:lcidtoname_downlevel.obj
 0002:0000c4b8       ??_C@_1M@LMDCNDBA@?$AAf?$AAo?$AA?9?$AAf?$AAo@ 0045f4b8     libucrt:lcidtoname_downlevel.obj
 0002:0000c4c4       ??_C@_1M@JKEOHLDK@?$AAf?$AAr?$AA?9?$AAb?$AAe@ 0045f4c4     libucrt:lcidtoname_downlevel.obj
 0002:0000c4d0       ??_C@_1M@NOHADPMI@?$AAf?$AAr?$AA?9?$AAc?$AAa@ 0045f4d0     libucrt:lcidtoname_downlevel.obj
 0002:0000c4dc       ??_C@_1M@KDHIHAEC@?$AAf?$AAr?$AA?9?$AAc?$AAh@ 0045f4dc     libucrt:lcidtoname_downlevel.obj
 0002:0000c4e8       ??_C@_1M@MMBBFGAK@?$AAf?$AAr?$AA?9?$AAf?$AAr@ 0045f4e8     libucrt:lcidtoname_downlevel.obj
 0002:0000c4f4       ??_C@_1M@PAFNENNF@?$AAf?$AAr?$AA?9?$AAl?$AAu@ 0045f4f4     libucrt:lcidtoname_downlevel.obj
 0002:0000c500       ??_C@_1M@EOHDJGDD@?$AAf?$AAr?$AA?9?$AAm?$AAc@ 0045f500     libucrt:lcidtoname_downlevel.obj
 0002:0000c50c       ??_C@_1M@FAPLLOPF@?$AAg?$AAl?$AA?9?$AAe?$AAs@ 0045f50c     libucrt:lcidtoname_downlevel.obj
 0002:0000c518       ??_C@_1M@FOPBFLOO@?$AAg?$AAu?$AA?9?$AAi?$AAn@ 0045f518     libucrt:lcidtoname_downlevel.obj
 0002:0000c524       ??_C@_1M@KBMCINPM@?$AAh?$AAe?$AA?9?$AAi?$AAl@ 0045f524     libucrt:lcidtoname_downlevel.obj
 0002:0000c530       ??_C@_1M@BBPHKFPJ@?$AAh?$AAi?$AA?9?$AAi?$AAn@ 0045f530     libucrt:lcidtoname_downlevel.obj
 0002:0000c53c       ??_C@_1M@PMBNDPHD@?$AAh?$AAr?$AA?9?$AAb?$AAa@ 0045f53c     libucrt:lcidtoname_downlevel.obj
 0002:0000c548       ??_C@_1M@BPCKOEGE@?$AAh?$AAr?$AA?9?$AAh?$AAr@ 0045f548     libucrt:lcidtoname_downlevel.obj
 0002:0000c554       ??_C@_1M@GACBMHKE@?$AAh?$AAu?$AA?9?$AAh?$AAu@ 0045f554     libucrt:lcidtoname_downlevel.obj
 0002:0000c560       ??_C@_1M@MILPAJJC@?$AAh?$AAy?$AA?9?$AAa?$AAm@ 0045f560     libucrt:lcidtoname_downlevel.obj
 0002:0000c56c       ??_C@_1M@BABBICEC@?$AAi?$AAd?$AA?9?$AAi?$AAd@ 0045f56c     libucrt:lcidtoname_downlevel.obj
 0002:0000c578       ??_C@_1M@BIKNHHPF@?$AAi?$AAs?$AA?9?$AAi?$AAs@ 0045f578     libucrt:lcidtoname_downlevel.obj
 0002:0000c584       ??_C@_1M@NMPCJPHE@?$AAi?$AAt?$AA?9?$AAc?$AAh@ 0045f584     libucrt:lcidtoname_downlevel.obj
 0002:0000c590       ??_C@_1M@GHKGFEDF@?$AAi?$AAt?$AA?9?$AAi?$AAt@ 0045f590     libucrt:lcidtoname_downlevel.obj
 0002:0000c59c       ??_C@_1M@NIEJCJJA@?$AAj?$AAa?$AA?9?$AAj?$AAp@ 0045f59c     libucrt:lcidtoname_downlevel.obj
 0002:0000c5a8       ??_C@_1M@JILFNBIM@?$AAk?$AAa?$AA?9?$AAg?$AAe@ 0045f5a8     libucrt:lcidtoname_downlevel.obj
 0002:0000c5b4       ??_C@_1M@PACPMGPH@?$AAk?$AAk?$AA?9?$AAk?$AAz@ 0045f5b4     libucrt:lcidtoname_downlevel.obj
 0002:0000c5c0       ??_C@_1M@IELFGMHA@?$AAk?$AAn?$AA?9?$AAi?$AAn@ 0045f5c0     libucrt:lcidtoname_downlevel.obj
 0002:0000c5cc       ??_C@_1O@IBBJHCH@?$AAk?$AAo?$AAk?$AA?9?$AAi?$AAn@ 0045f5cc     libucrt:lcidtoname_downlevel.obj
 0002:0000c5dc       ??_C@_1M@DMHAEOGC@?$AAk?$AAo?$AA?9?$AAk?$AAr@ 0045f5dc     libucrt:lcidtoname_downlevel.obj
 0002:0000c5e8       ??_C@_1M@HBAHBIGA@?$AAk?$AAy?$AA?9?$AAk?$AAg@ 0045f5e8     libucrt:lcidtoname_downlevel.obj
 0002:0000c5f4       ??_C@_1M@KPMILCJG@?$AAl?$AAt?$AA?9?$AAl?$AAt@ 0045f5f4     libucrt:lcidtoname_downlevel.obj
 0002:0000c600       ??_C@_1M@BDEKKCA@?$AAl?$AAv?$AA?9?$AAl?$AAv@ 0045f600     libucrt:lcidtoname_downlevel.obj
 0002:0000c60c       ??_C@_1M@ELCKCCJJ@?$AAm?$AAi?$AA?9?$AAn?$AAz@ 0045f60c     libucrt:lcidtoname_downlevel.obj
 0002:0000c618       ??_C@_1M@CBOOLAPA@?$AAm?$AAk?$AA?9?$AAm?$AAk@ 0045f618     libucrt:lcidtoname_downlevel.obj
 0002:0000c624       ??_C@_1M@GPHNBJKN@?$AAm?$AAl?$AA?9?$AAi?$AAn@ 0045f624     libucrt:lcidtoname_downlevel.obj
 0002:0000c630       ??_C@_1M@PABJILIG@?$AAm?$AAn?$AA?9?$AAm?$AAn@ 0045f630     libucrt:lcidtoname_downlevel.obj
 0002:0000c63c       ??_C@_1M@FGBKKIPG@?$AAm?$AAr?$AA?9?$AAi?$AAn@ 0045f63c     libucrt:lcidtoname_downlevel.obj
 0002:0000c648       ??_C@_1M@NDBPDDAL@?$AAm?$AAs?$AA?9?$AAb?$AAn@ 0045f648     libucrt:lcidtoname_downlevel.obj
 0002:0000c654       ??_C@_1M@OPIHOOPI@?$AAm?$AAs?$AA?9?$AAm?$AAy@ 0045f654     libucrt:lcidtoname_downlevel.obj
 0002:0000c660       ??_C@_1M@PPDBCNFM@?$AAm?$AAt?$AA?9?$AAm?$AAt@ 0045f660     libucrt:lcidtoname_downlevel.obj
 0002:0000c66c       ??_C@_1M@KDJDKMDD@?$AAn?$AAb?$AA?9?$AAn?$AAo@ 0045f66c     libucrt:lcidtoname_downlevel.obj
 0002:0000c678       ??_C@_1M@KFCFLMJP@?$AAn?$AAl?$AA?9?$AAb?$AAe@ 0045f678     libucrt:lcidtoname_downlevel.obj
 0002:0000c684       ??_C@_1M@KPOPDDGO@?$AAn?$AAl?$AA?9?$AAn?$AAl@ 0045f684     libucrt:lcidtoname_downlevel.obj
 0002:0000c690       ??_C@_1M@LJKPEMLN@?$AAn?$AAn?$AA?9?$AAn?$AAo@ 0045f690     libucrt:lcidtoname_downlevel.obj
 0002:0000c69c       ??_C@_1M@BDGHHBFL@?$AAn?$AAs?$AA?9?$AAz?$AAa@ 0045f69c     libucrt:lcidtoname_downlevel.obj
 0002:0000c6a8       ??_C@_1M@IDEHOAP@?$AAp?$AAa?$AA?9?$AAi?$AAn@ 0045f6a8     libucrt:lcidtoname_downlevel.obj
 0002:0000c6b4       ??_C@_1M@HDBKGOGH@?$AAp?$AAl?$AA?9?$AAp?$AAl@ 0045f6b4     libucrt:lcidtoname_downlevel.obj
 0002:0000c6c0       ??_C@_1M@LJLLCMEH@?$AAp?$AAt?$AA?9?$AAb?$AAr@ 0045f6c0     libucrt:lcidtoname_downlevel.obj
 0002:0000c6cc       ??_C@_1M@NCMONAAL@?$AAp?$AAt?$AA?9?$AAp?$AAt@ 0045f6cc     libucrt:lcidtoname_downlevel.obj
 0002:0000c6d8       ??_C@_1O@EAKMAJDN@?$AAq?$AAu?$AAz?$AA?9?$AAb?$AAo@ 0045f6d8     libucrt:lcidtoname_downlevel.obj
 0002:0000c6e8       ??_C@_1O@BHHPIGDN@?$AAq?$AAu?$AAz?$AA?9?$AAe?$AAc@ 0045f6e8     libucrt:lcidtoname_downlevel.obj
 0002:0000c6f8       ??_C@_1O@GBAPEKMJ@?$AAq?$AAu?$AAz?$AA?9?$AAp?$AAe@ 0045f6f8     libucrt:lcidtoname_downlevel.obj
 0002:0000c708       ??_C@_1M@CLGLEFBO@?$AAr?$AAo?$AA?9?$AAr?$AAo@ 0045f708     libucrt:lcidtoname_downlevel.obj
 0002:0000c714       ??_C@_1M@CEEDODME@?$AAr?$AAu?$AA?9?$AAr?$AAu@ 0045f714     libucrt:lcidtoname_downlevel.obj
 0002:0000c720       ??_C@_1M@HPKKKMPP@?$AAs?$AAa?$AA?9?$AAi?$AAn@ 0045f720     libucrt:lcidtoname_downlevel.obj
 0002:0000c72c       ??_C@_1M@BKMAIGOJ@?$AAs?$AAe?$AA?9?$AAf?$AAi@ 0045f72c     libucrt:lcidtoname_downlevel.obj
 0002:0000c738       ??_C@_1M@NDPIFLFI@?$AAs?$AAe?$AA?9?$AAn?$AAo@ 0045f738     libucrt:lcidtoname_downlevel.obj
 0002:0000c744       ??_C@_1M@DANKKHJ@?$AAs?$AAe?$AA?9?$AAs?$AAe@ 0045f744     libucrt:lcidtoname_downlevel.obj
 0002:0000c750       ??_C@_1M@PNBLONPJ@?$AAs?$AAk?$AA?9?$AAs?$AAk@ 0045f750     libucrt:lcidtoname_downlevel.obj
 0002:0000c75c       ??_C@_1M@LFMODOAL@?$AAs?$AAl?$AA?9?$AAs?$AAi@ 0045f75c     libucrt:lcidtoname_downlevel.obj
 0002:0000c768       ??_C@_1O@DFKOMPG@?$AAs?$AAm?$AAa?$AA?9?$AAn?$AAo@ 0045f768     libucrt:lcidtoname_downlevel.obj
 0002:0000c778       ??_C@_1O@NDKPBNNH@?$AAs?$AAm?$AAa?$AA?9?$AAs?$AAe@ 0045f778     libucrt:lcidtoname_downlevel.obj
 0002:0000c788       ??_C@_1O@PLLKBHAB@?$AAs?$AAm?$AAj?$AA?9?$AAn?$AAo@ 0045f788     libucrt:lcidtoname_downlevel.obj
 0002:0000c798       ??_C@_1O@CLEPOGCA@?$AAs?$AAm?$AAj?$AA?9?$AAs?$AAe@ 0045f798     libucrt:lcidtoname_downlevel.obj
 0002:0000c7a8       ??_C@_1O@DLGJGKMK@?$AAs?$AAm?$AAn?$AA?9?$AAf?$AAi@ 0045f7a8     libucrt:lcidtoname_downlevel.obj
 0002:0000c7b8       ??_C@_1O@OJDJGAJC@?$AAs?$AAm?$AAs?$AA?9?$AAf?$AAi@ 0045f7b8     libucrt:lcidtoname_downlevel.obj
 0002:0000c7c8       ??_C@_1M@BOFOGHPB@?$AAs?$AAq?$AA?9?$AAa?$AAl@ 0045f7c8     libucrt:lcidtoname_downlevel.obj
 0002:0000c7d4       ??_C@_1BG@LJBBIPGB@?$AAs?$AAr?$AA?9?$AAb?$AAa?$AA?9?$AAc?$AAy?$AAr?$AAl@ 0045f7d4     libucrt:lcidtoname_downlevel.obj
 0002:0000c7ec       ??_C@_1BG@JLBENFOE@?$AAs?$AAr?$AA?9?$AAb?$AAa?$AA?9?$AAl?$AAa?$AAt?$AAn@ 0045f7ec     libucrt:lcidtoname_downlevel.obj
 0002:0000c804       ??_C@_1BG@KODPNHE@?$AAs?$AAr?$AA?9?$AAs?$AAp?$AA?9?$AAc?$AAy?$AAr?$AAl@ 0045f804     libucrt:lcidtoname_downlevel.obj
 0002:0000c81c       ??_C@_1BG@CIOGKHPB@?$AAs?$AAr?$AA?9?$AAs?$AAp?$AA?9?$AAl?$AAa?$AAt?$AAn@ 0045f81c     libucrt:lcidtoname_downlevel.obj
 0002:0000c834       ??_C@_1M@NGFJLMAC@?$AAs?$AAv?$AA?9?$AAf?$AAi@ 0045f834     libucrt:lcidtoname_downlevel.obj
 0002:0000c840       ??_C@_1M@MPJEJAJC@?$AAs?$AAv?$AA?9?$AAs?$AAe@ 0045f840     libucrt:lcidtoname_downlevel.obj
 0002:0000c84c       ??_C@_1M@MPNDHLFK@?$AAs?$AAw?$AA?9?$AAk?$AAe@ 0045f84c     libucrt:lcidtoname_downlevel.obj
 0002:0000c858       ??_C@_1O@KOHBJJI@?$AAs?$AAy?$AAr?$AA?9?$AAs?$AAy@ 0045f858     libucrt:lcidtoname_downlevel.obj
 0002:0000c868       ??_C@_1M@LDCEFHA@?$AAt?$AAa?$AA?9?$AAi?$AAn@ 0045f868     libucrt:lcidtoname_downlevel.obj
 0002:0000c874       ??_C@_1M@CNJOFAK@?$AAt?$AAe?$AA?9?$AAi?$AAn@ 0045f874     libucrt:lcidtoname_downlevel.obj
 0002:0000c880       ??_C@_1M@GNAECACD@?$AAt?$AAh?$AA?9?$AAt?$AAh@ 0045f880     libucrt:lcidtoname_downlevel.obj
 0002:0000c88c       ??_C@_1M@CHBIHOJO@?$AAt?$AAn?$AA?9?$AAz?$AAa@ 0045f88c     libucrt:lcidtoname_downlevel.obj
 0002:0000c898       ??_C@_1M@GCCMIGPJ@?$AAt?$AAr?$AA?9?$AAt?$AAr@ 0045f898     libucrt:lcidtoname_downlevel.obj
 0002:0000c8a4       ??_C@_1M@CELMCNBK@?$AAt?$AAt?$AA?9?$AAr?$AAu@ 0045f8a4     libucrt:lcidtoname_downlevel.obj
 0002:0000c8b0       ??_C@_1M@KLMCELGA@?$AAu?$AAk?$AA?9?$AAu?$AAa@ 0045f8b0     libucrt:lcidtoname_downlevel.obj
 0002:0000c8bc       ??_C@_1M@EPAJJAJF@?$AAu?$AAr?$AA?9?$AAp?$AAk@ 0045f8bc     libucrt:lcidtoname_downlevel.obj
 0002:0000c8c8       ??_C@_1BG@GEGPMCDJ@?$AAu?$AAz?$AA?9?$AAu?$AAz?$AA?9?$AAc?$AAy?$AAr?$AAl@ 0045f8c8     libucrt:lcidtoname_downlevel.obj
 0002:0000c8e0       ??_C@_1BG@EGGKJILM@?$AAu?$AAz?$AA?9?$AAu?$AAz?$AA?9?$AAl?$AAa?$AAt?$AAn@ 0045f8e0     libucrt:lcidtoname_downlevel.obj
 0002:0000c8f8       ??_C@_1M@GFOCLFF@?$AAv?$AAi?$AA?9?$AAv?$AAn@ 0045f8f8     libucrt:lcidtoname_downlevel.obj
 0002:0000c904       ??_C@_1M@CPAMEDFI@?$AAx?$AAh?$AA?9?$AAz?$AAa@ 0045f904     libucrt:lcidtoname_downlevel.obj
 0002:0000c910       ??_C@_1O@EBKIFIGN@?$AAz?$AAh?$AA?9?$AAc?$AAh?$AAs@ 0045f910     libucrt:lcidtoname_downlevel.obj
 0002:0000c920       ??_C@_1O@NMHPGANE@?$AAz?$AAh?$AA?9?$AAc?$AAh?$AAt@ 0045f920     libucrt:lcidtoname_downlevel.obj
 0002:0000c930       ??_C@_1M@LPINJOMC@?$AAz?$AAh?$AA?9?$AAc?$AAn@ 0045f930     libucrt:lcidtoname_downlevel.obj
 0002:0000c93c       ??_C@_1M@OCJEJODD@?$AAz?$AAh?$AA?9?$AAh?$AAk@ 0045f93c     libucrt:lcidtoname_downlevel.obj
 0002:0000c948       ??_C@_1M@DNDLJINH@?$AAz?$AAh?$AA?9?$AAm?$AAo@ 0045f948     libucrt:lcidtoname_downlevel.obj
 0002:0000c954       ??_C@_1M@MBFDNDND@?$AAz?$AAh?$AA?9?$AAs?$AAg@ 0045f954     libucrt:lcidtoname_downlevel.obj
 0002:0000c960       ??_C@_1M@IMEPLEPE@?$AAz?$AAh?$AA?9?$AAt?$AAw@ 0045f960     libucrt:lcidtoname_downlevel.obj
 0002:0000c96c       ??_C@_1M@BBGHNHJP@?$AAz?$AAu?$AA?9?$AAz?$AAa@ 0045f96c     libucrt:lcidtoname_downlevel.obj
 0002:0000c9d8       ??_C@_1BA@BALFACEM@?$AAC?$AAO?$AAN?$AAO?$AAU?$AAT?$AA$@ 0045f9d8     libucrt:initcon.obj
 0002:0000caf0       ___acrt_log10_table_t      0045faf0     libucrt:log10_tables.obj
 0002:0000cf00       ___acrt_log10_table_cb     0045ff00     libucrt:log10_tables.obj
 0002:0000d320       __xmm@00000000000000000000000000000000 00460320     libvcruntime:wcschr.obj
 0002:0000d330       __Asan_string_should_annotate 00460330     libcpmt:asan_noop.obj
 0002:0000d330       __Asan_string_should_annotate_default 00460330     libcpmt:asan_noop.obj
 0002:0000d331       __Asan_vector_should_annotate_default 00460331     libcpmt:asan_noop.obj
 0002:0000d334       ??_C@_0BC@EOODALEL@Unknown?5exception@ 00460334     TServerSystem:TServerSystem.obj
 0002:0000d348       ??_C@_0BF@KINCDENJ@bad?5array?5new?5length@ 00460348     TServerSystem:TServerSystem.obj
 0002:0000d360       ??_C@_0BA@JFNIOLAK@string?5too?5long@ 00460360     TServerSystem:TServerSystem.obj
 0002:0000d370       ??_C@_02LMMGGCAJ@?3?5@     00460370     TServerSystem:TServerSystem.obj
 0002:0000d373       ??_C@_00CNPNBAHC@@         00460373     TServerSystem:TServerSystem.obj
 0002:0000d373       ?empty@?1??LoadData@?$CSimpleIniTempl@DU?$SI_NoCase@D@@V?$SI_ConvertA@D@@@@QAE?AW4SI_Error@@PBDI@Z@4DB 00460373     TServerSystem:TServerSystem.obj
 0002:0000d374       ??_C@_08LLGCOLLL@iostream@ 00460374     TServerSystem:TServerSystem.obj
 0002:0000d380       ??_C@_0BA@ELKIONDK@bad?5locale?5name@ 00460380     TServerSystem:TServerSystem.obj
 0002:0000d390       ??_C@_05LAPONLG@false@     00460390     TServerSystem:TServerSystem.obj
 0002:0000d398       ??_C@_04LOAJBDKD@true@     00460398     TServerSystem:TServerSystem.obj
 0002:0000d3a0       ??_C@_0BF@PHHKMMFD@ios_base?3?3badbit?5set@ 004603a0     TServerSystem:TServerSystem.obj
 0002:0000d3b8       ??_C@_0BG@FMKFHCIL@ios_base?3?3failbit?5set@ 004603b8     TServerSystem:TServerSystem.obj
 0002:0000d3d0       ??_C@_0BF@OOHOMBOF@ios_base?3?3eofbit?5set@ 004603d0     TServerSystem:TServerSystem.obj
 0002:0000d3e8       ??_C@_0BG@HGEDEDEC@invalid?5stoi?5argument@ 004603e8     TServerSystem:TServerSystem.obj
 0002:0000d400       ??_C@_0BL@MFFNMGGC@stoi?5argument?5out?5of?5range@ 00460400     TServerSystem:TServerSystem.obj
 0002:0000d41c       ??_C@_0BB@GCADKGJO@map?1set?5too?5long@ 0046041c     TServerSystem:TServerSystem.obj
 0002:0000d430       ??_C@_07LHPMHBFD@?5Server@ 00460430     TServerSystem:TServerSystem.obj
 0002:0000d438       ??_C@_07EGIPICEA@Svr?4ini@ 00460438     TServerSystem:TServerSystem.obj
 0002:0000d440       ??_C@_0BC@FCEOMLFA@?4?2Configurations?2@ 00460440     TServerSystem:TServerSystem.obj
 0002:0000d454       ??_C@_01OHGJGJJP@?$FL@     00460454     TServerSystem:TServerSystem.obj
 0002:0000d458       ??_C@_09MADNPIJ@VERSION?3?5@ 00460458     TServerSystem:TServerSystem.obj
 0002:0000d464       ??_C@_08BAKGBNOL@SERVER?3?5@ 00460464     TServerSystem:TServerSystem.obj
 0002:0000d470       ??_C@_08OAHPJFNN@?$CFH?3?$CFM?3?$CFS@ 00460470     TServerSystem:TServerSystem.obj
 0002:0000d47c       ??_C@_04OCBNEAJO@?$FN?5?$DO?5@ 0046047c     TServerSystem:TServerSystem.obj
 0002:0000d484       ??_C@_0BB@EBADFJHA@?$FN?5?$CILOG?5EVENT?$CJ?5?$DO?5@ 00460484     TServerSystem:TServerSystem.obj
 0002:0000d498       ??_C@_08FDDDBAGL@Svr?4ini?3@ 00460498     TServerSystem:TServerSystem.obj
 0002:0000d4a4       ??_C@_0BL@JBFNMFAL@Loaded?5configuration?5from?5@ 004604a4     TServerSystem:TServerSystem.obj
 0002:0000d4c0       ??_C@_0CL@PCGIJOML@?$CD?$CD?$CD?$CD?$CD?$CD?$CD?$CD?$CD?$CD?$CD?$CD?$CD?$CD?$CD?$CD?$CD?$CD?$CD?$CD?$CD?$CD?$CD?$CD?$CD?$CD?$CD?$CD?$CD?$CD?$CD@ 004604c0     TServerSystem:TServerSystem.obj
 0002:0000d4ec       ??_C@_04LOBCHPKL@?$CD?5?$CL?5@ 004604ec     TServerSystem:TServerSystem.obj
 0002:0000d4f4       ??_C@_01CLKCMJKC@?5@       004604f4     TServerSystem:TServerSystem.obj
 0002:0000d4f8       ??_C@_06LLCHJONG@Config@   004604f8     TServerSystem:TServerSystem.obj
 0002:0000d500       ??_C@_0BF@BFFFAOPI@Exiting?5application?$CB@ 00460500     TServerSystem:TServerSystem.obj
 0002:0000d518       ??_C@_0P@GGCAFAAI@Starting?5up?4?4?4@ 00460518     TServerSystem:TServerSystem.obj
 0002:0000d528       ??_C@_0P@GHOIKEEP@Starup?5error?3?5@ 00460528     TServerSystem:TServerSystem.obj
 0002:0000d538       ??_C@_0CA@JCHKBODK@Can?8t?5connect?5to?5the?5database?5?$CB@ 00460538     TServerSystem:TServerSystem.obj
 0002:0000d558       ??_C@_0CP@MMBNFKDI@1?$CJ?5Check?5ODBC?5x32?5or?5x64?0?5if?5al@ 00460558     TServerSystem:TServerSystem.obj
 0002:0000d588       ??_C@_0DD@GDPGFAGD@2?$CJ?5Bad?5credentials?5in?5your?5?4ini@ 00460588     TServerSystem:TServerSystem.obj
 0002:0000d5bc       ??_C@_0CI@CPLGHOJF@3?$CJ?5Check?5if?5you?5SQL?5Server?5is?5r@ 004605bc     TServerSystem:TServerSystem.obj
 0002:0000d5e4       ??_C@_0CB@FHJKNCEB@Can?8t?5connect?5to?5TWorld?5server?5@ 004605e4     TServerSystem:TServerSystem.obj
 0002:0000d608       ??_C@_0CB@NMFLLJEC@1?$CJ?5Check?5if?5TWorldSvr?5is?5runnin@ 00460608     TServerSystem:TServerSystem.obj
 0002:0000d62c       ??_C@_0CG@LIDEEFFF@2?$CJ?5Check?5your?5?4ini?5configuratio@ 0046062c     TServerSystem:TServerSystem.obj
 0002:0000d654       ??_C@_0BA@DCGJIEJC@Unknown?5error?5?$CB@ 00460654     TServerSystem:TServerSystem.obj
 0002:0000d664       ??_C@_0BK@LFHKNJDH@Can?8t?5start?5the?5server?4?4?4@ 00460664     TServerSystem:TServerSystem.obj
 0002:0000d680       ??_C@_0BJ@DHFDPMIM@invalid?5vector?5subscript@ 00460680     TServerSystem:TServerSystem.obj
 0002:0000d69c       ??_C@_02JDPG@rb@           0046069c     TServerSystem:TServerSystem.obj
 0002:0000d6a0       ??_C@_0BA@FOIKENOD@vector?5too?5long@ 004606a0     TServerSystem:TServerSystem.obj
 0002:0000d6b0       ??_C@_0O@NKNMEGII@list?5too?5long@ 004606b0     TServerSystem:TServerSystem.obj
 0002:0000d6c0       ?_Iostream_error@?4??message@_Iostream_error_category2@std@@UBE?AV?$basic_string@DU?$char_traits@D@std@@V?$allocator@D@2@@3@H@Z@4QBDB 004606c0     TServerSystem:TServerSystem.obj
 0002:0000d6dc       ??_7TServerSystem@@6B@     004606dc     TServerSystem:TServerSystem.obj
 0002:0000d6e4       ??_8?$basic_ostream@DU?$char_traits@D@std@@@std@@7B@ 004606e4     TServerSystem:TServerSystem.obj
 0002:0000d6f0       __load_config_used         004606f0     LIBCMT:loadcfg.obj
 0002:0000d840       __tls_used                 00460840     LIBCMT:tlssup.obj
 0002:0000d858       ??_R4CTBLMachine@@6B@      00460858     DBAccess.obj
 0002:0000d86c       ??_R3CTBLMachine@@8        0046086c     DBAccess.obj
 0002:0000d87c       ??_R2CTBLMachine@@8        0046087c     DBAccess.obj
 0002:0000d88c       ??_R1A@?0A@EA@CTBLMachine@@8 0046088c     DBAccess.obj
 0002:0000d8a8       ??_R1A@?0A@EA@CSqlQuery@@8 004608a8     DBAccess.obj
 0002:0000d8c4       ??_R3CSqlQuery@@8          004608c4     DBAccess.obj
 0002:0000d8d4       ??_R2CSqlQuery@@8          004608d4     DBAccess.obj
 0002:0000d8e0       ??_R1A@?0A@EA@CSqlBase@@8  004608e0     DBAccess.obj
 0002:0000d8fc       ??_R3CSqlBase@@8           004608fc     DBAccess.obj
 0002:0000d90c       ??_R2CSqlBase@@8           0046090c     DBAccess.obj
 0002:0000d914       ??_R4CTBLNetwork@@6B@      00460914     DBAccess.obj
 0002:0000d928       ??_R3CTBLNetwork@@8        00460928     DBAccess.obj
 0002:0000d938       ??_R2CTBLNetwork@@8        00460938     DBAccess.obj
 0002:0000d948       ??_R1A@?0A@EA@CTBLNetwork@@8 00460948     DBAccess.obj
 0002:0000d964       ??_R4CTBLGroup@@6B@        00460964     DBAccess.obj
 0002:0000d978       ??_R3CTBLGroup@@8          00460978     DBAccess.obj
 0002:0000d988       ??_R2CTBLGroup@@8          00460988     DBAccess.obj
 0002:0000d998       ??_R1A@?0A@EA@CTBLGroup@@8 00460998     DBAccess.obj
 0002:0000d9b4       ??_R4CTBLSvrType@@6B@      004609b4     DBAccess.obj
 0002:0000d9c8       ??_R3CTBLSvrType@@8        004609c8     DBAccess.obj
 0002:0000d9d8       ??_R2CTBLSvrType@@8        004609d8     DBAccess.obj
 0002:0000d9e8       ??_R1A@?0A@EA@CTBLSvrType@@8 004609e8     DBAccess.obj
 0002:0000da04       ??_R4CTBLServer@@6B@       00460a04     DBAccess.obj
 0002:0000da18       ??_R3CTBLServer@@8         00460a18     DBAccess.obj
 0002:0000da28       ??_R2CTBLServer@@8         00460a28     DBAccess.obj
 0002:0000da38       ??_R1A@?0A@EA@CTBLServer@@8 00460a38     DBAccess.obj
 0002:0000da54       ??_R4CTBLIPAddr@@6B@       00460a54     DBAccess.obj
 0002:0000da68       ??_R3CTBLIPAddr@@8         00460a68     DBAccess.obj
 0002:0000da78       ??_R2CTBLIPAddr@@8         00460a78     DBAccess.obj
 0002:0000da88       ??_R1A@?0A@EA@CTBLIPAddr@@8 00460a88     DBAccess.obj
 0002:0000daa4       ??_R4CTBLManager@@6B@      00460aa4     DBAccess.obj
 0002:0000dab8       ??_R3CTBLManager@@8        00460ab8     DBAccess.obj
 0002:0000dac8       ??_R2CTBLManager@@8        00460ac8     DBAccess.obj
 0002:0000dad8       ??_R1A@?0A@EA@CTBLManager@@8 00460ad8     DBAccess.obj
 0002:0000daf4       ??_R4CTBLEvent@@6B@        00460af4     DBAccess.obj
 0002:0000db08       ??_R3CTBLEvent@@8          00460b08     DBAccess.obj
 0002:0000db18       ??_R2CTBLEvent@@8          00460b18     DBAccess.obj
 0002:0000db28       ??_R1A@?0A@EA@CTBLEvent@@8 00460b28     DBAccess.obj
 0002:0000db44       ??_R4CTBLCashShopItem@@6B@ 00460b44     DBAccess.obj
 0002:0000db58       ??_R3CTBLCashShopItem@@8   00460b58     DBAccess.obj
 0002:0000db68       ??_R2CTBLCashShopItem@@8   00460b68     DBAccess.obj
 0002:0000db78       ??_R1A@?0A@EA@CTBLCashShopItem@@8 00460b78     DBAccess.obj
 0002:0000db94       ??_R4CTBLPreVersion@@6B@   00460b94     DBAccess.obj
 0002:0000dba8       ??_R3CTBLPreVersion@@8     00460ba8     DBAccess.obj
 0002:0000dbb8       ??_R2CTBLPreVersion@@8     00460bb8     DBAccess.obj
 0002:0000dbc8       ??_R1A@?0A@EA@CTBLPreVersion@@8 00460bc8     DBAccess.obj
 0002:0000dbe4       ??_R4CSPUpdatePatch@@6B@   00460be4     DBAccess.obj
 0002:0000dbf8       ??_R3CSPUpdatePatch@@8     00460bf8     DBAccess.obj
 0002:0000dc08       ??_R2CSPUpdatePatch@@8     00460c08     DBAccess.obj
 0002:0000dc18       ??_R1A@?0A@EA@CSPUpdatePatch@@8 00460c18     DBAccess.obj
 0002:0000dc34       ??_R4CSPUpdatePrePatch@@6B@ 00460c34     DBAccess.obj
 0002:0000dc48       ??_R3CSPUpdatePrePatch@@8  00460c48     DBAccess.obj
 0002:0000dc58       ??_R2CSPUpdatePrePatch@@8  00460c58     DBAccess.obj
 0002:0000dc68       ??_R1A@?0A@EA@CSPUpdatePrePatch@@8 00460c68     DBAccess.obj
 0002:0000dc84       ??_R4CSPBetaToVer@@6B@     00460c84     DBAccess.obj
 0002:0000dc98       ??_R3CSPBetaToVer@@8       00460c98     DBAccess.obj
 0002:0000dca8       ??_R2CSPBetaToVer@@8       00460ca8     DBAccess.obj
 0002:0000dcb8       ??_R1A@?0A@EA@CSPBetaToVer@@8 00460cb8     DBAccess.obj
 0002:0000dcd4       ??_R4CSPDeletePreVersion@@6B@ 00460cd4     DBAccess.obj
 0002:0000dce8       ??_R3CSPDeletePreVersion@@8 00460ce8     DBAccess.obj
 0002:0000dcf8       ??_R2CSPDeletePreVersion@@8 00460cf8     DBAccess.obj
 0002:0000dd08       ??_R1A@?0A@EA@CSPDeletePreVersion@@8 00460d08     DBAccess.obj
 0002:0000dd24       ??_R4CSPUserProtectedAdd@@6B@ 00460d24     DBAccess.obj
 0002:0000dd38       ??_R3CSPUserProtectedAdd@@8 00460d38     DBAccess.obj
 0002:0000dd48       ??_R2CSPUserProtectedAdd@@8 00460d48     DBAccess.obj
 0002:0000dd58       ??_R1A@?0A@EA@CSPUserProtectedAdd@@8 00460d58     DBAccess.obj
 0002:0000dd74       ??_R4CSPSvrStatusSMS@@6B@  00460d74     DBAccess.obj
 0002:0000dd88       ??_R3CSPSvrStatusSMS@@8    00460d88     DBAccess.obj
 0002:0000dd98       ??_R2CSPSvrStatusSMS@@8    00460d98     DBAccess.obj
 0002:0000dda8       ??_R1A@?0A@EA@CSPSvrStatusSMS@@8 00460da8     DBAccess.obj
 0002:0000ddc4       ??_R4CSPLoadService@@6B@   00460dc4     DBAccess.obj
 0002:0000ddd8       ??_R3CSPLoadService@@8     00460dd8     DBAccess.obj
 0002:0000dde8       ??_R2CSPLoadService@@8     00460de8     DBAccess.obj
 0002:0000ddf8       ??_R1A@?0A@EA@CSPLoadService@@8 00460df8     DBAccess.obj
 0002:0000de14       ??_R4CSPOPLogin@@6B@       00460e14     DBAccess.obj
 0002:0000de28       ??_R3CSPOPLogin@@8         00460e28     DBAccess.obj
 0002:0000de38       ??_R2CSPOPLogin@@8         00460e38     DBAccess.obj
 0002:0000de48       ??_R1A@?0A@EA@CSPOPLogin@@8 00460e48     DBAccess.obj
 0002:0000de64       ??_R4CSPEventUpdate@@6B@   00460e64     DBAccess.obj
 0002:0000de78       ??_R3CSPEventUpdate@@8     00460e78     DBAccess.obj
 0002:0000de88       ??_R2CSPEventUpdate@@8     00460e88     DBAccess.obj
 0002:0000de98       ??_R1A@?0A@EA@CSPEventUpdate@@8 00460e98     DBAccess.obj
 0002:0000deb4       ??_R4CWin32Heap@ATL@@6B@   00460eb4     DebugSocket.obj
 0002:0000dec8       ??_R3CWin32Heap@ATL@@8     00460ec8     DebugSocket.obj
 0002:0000ded8       ??_R2CWin32Heap@ATL@@8     00460ed8     DebugSocket.obj
 0002:0000dee4       ??_R1A@?0A@EA@CWin32Heap@ATL@@8 00460ee4     DebugSocket.obj
 0002:0000df00       ??_R1A@?0A@EA@IAtlMemMgr@ATL@@8 00460f00     DebugSocket.obj
 0002:0000df1c       ??_R3IAtlMemMgr@ATL@@8     00460f1c     DebugSocket.obj
 0002:0000df2c       ??_R2IAtlMemMgr@ATL@@8     00460f2c     DebugSocket.obj
 0002:0000df34       ??_R1A@?0A@EA@IAtlStringMgr@ATL@@8 00460f34     DebugSocket.obj
 0002:0000df50       ??_R3IAtlStringMgr@ATL@@8  00460f50     DebugSocket.obj
 0002:0000df60       ??_R2IAtlStringMgr@ATL@@8  00460f60     DebugSocket.obj
 0002:0000df68       ??_R4CAtlStringMgr@ATL@@6B@ 00460f68     DebugSocket.obj
 0002:0000df7c       ??_R3CAtlStringMgr@ATL@@8  00460f7c     DebugSocket.obj
 0002:0000df8c       ??_R2CAtlStringMgr@ATL@@8  00460f8c     DebugSocket.obj
 0002:0000df98       ??_R1A@?0A@EA@CAtlStringMgr@ATL@@8 00460f98     DebugSocket.obj
 0002:0000dfb4       ??_R4CCSLock@@6B@          00460fb4     Handler.obj
 0002:0000dfc8       ??_R3CCSLock@@8            00460fc8     Handler.obj
 0002:0000dfd8       ??_R2CCSLock@@8            00460fd8     Handler.obj
 0002:0000dfe0       ??_R1A@?0A@EA@CCSLock@@8   00460fe0     Handler.obj
 0002:0000dffc       ??_R4CPlatformUsage@@6B@   00460ffc     PlatformUsage.obj
 0002:0000e010       ??_R3CPlatformUsage@@8     00461010     PlatformUsage.obj
 0002:0000e020       ??_R2CPlatformUsage@@8     00461020     PlatformUsage.obj
 0002:0000e028       ??_R1A@?0A@EA@CPlatformUsage@@8 00461028     PlatformUsage.obj
 0002:0000e044       ??_R4CTControlSession@@6B@ 00461044     TControlSession.obj
 0002:0000e058       ??_R3CTControlSession@@8   00461058     TControlSession.obj
 0002:0000e068       ??_R2CTControlSession@@8   00461068     TControlSession.obj
 0002:0000e074       ??_R1A@?0A@EA@CTControlSession@@8 00461074     TControlSession.obj
 0002:0000e090       ??_R1A@?0A@EA@CSession@@8  00461090     TControlSession.obj
 0002:0000e0ac       ??_R3CSession@@8           004610ac     TControlSession.obj
 0002:0000e0bc       ??_R2CSession@@8           004610bc     TControlSession.obj
 0002:0000e0c4       ??_R3CAtlModule@ATL@@8     004610c4     TControlSvr.obj
 0002:0000e0d4       ??_R2CAtlModule@ATL@@8     004610d4     TControlSvr.obj
 0002:0000e0e0       ??_R1A@?0A@EA@CAtlModule@ATL@@8 004610e0     TControlSvr.obj
 0002:0000e0fc       ??_R13?0A@EA@_ATL_MODULE70@ATL@@8 004610fc     TControlSvr.obj
 0002:0000e118       ??_R3_ATL_MODULE70@ATL@@8  00461118     TControlSvr.obj
 0002:0000e128       ??_R2_ATL_MODULE70@ATL@@8  00461128     TControlSvr.obj
 0002:0000e130       ??_R1A@?0A@EA@_ATL_MODULE70@ATL@@8 00461130     TControlSvr.obj
 0002:0000e14c       ??_R4?$basic_istream@DU?$char_traits@D@std@@@std@@6B@ 0046114c     TControlSvr.obj
 0002:0000e160       ??_R3?$basic_istream@DU?$char_traits@D@std@@@std@@8 00461160     TControlSvr.obj
 0002:0000e170       ??_R2?$basic_istream@DU?$char_traits@D@std@@@std@@8 00461170     TControlSvr.obj
 0002:0000e184       ??_R1A@?0A@EA@?$basic_istream@DU?$char_traits@D@std@@@std@@8 00461184     TControlSvr.obj
 0002:0000e1a0       ??_R4?$basic_stringbuf@DU?$char_traits@D@std@@V?$allocator@D@2@@std@@6B@ 004611a0     TControlSvr.obj
 0002:0000e1b4       ??_R3?$basic_stringbuf@DU?$char_traits@D@std@@V?$allocator@D@2@@std@@8 004611b4     TControlSvr.obj
 0002:0000e1c4       ??_R2?$basic_stringbuf@DU?$char_traits@D@std@@V?$allocator@D@2@@std@@8 004611c4     TControlSvr.obj
 0002:0000e1d0       ??_R1A@?0A@EA@?$basic_stringbuf@DU?$char_traits@D@std@@V?$allocator@D@2@@std@@8 004611d0     TControlSvr.obj
 0002:0000e1ec       ??_R4?$basic_istringstream@DU?$char_traits@D@std@@V?$allocator@D@2@@std@@6B@ 004611ec     TControlSvr.obj
 0002:0000e200       ??_R3?$basic_istringstream@DU?$char_traits@D@std@@V?$allocator@D@2@@std@@8 00461200     TControlSvr.obj
 0002:0000e210       ??_R2?$basic_istringstream@DU?$char_traits@D@std@@V?$allocator@D@2@@std@@8 00461210     TControlSvr.obj
 0002:0000e228       ??_R1A@?0A@EA@?$basic_istringstream@DU?$char_traits@D@std@@V?$allocator@D@2@@std@@8 00461228     TControlSvr.obj
 0002:0000e244       ??_R4CTControlSvrModule@@6B?$CAtlServiceModuleT@VCTControlSvrModule@@$0GE@@ATL@@@ 00461244     TControlSvr.obj
 0002:0000e258       ??_R3CTControlSvrModule@@8 00461258     TControlSvr.obj
 0002:0000e268       ??_R2CTControlSvrModule@@8 00461268     TControlSvr.obj
 0002:0000e28c       ??_R1A@?0A@EA@CTControlSvrModule@@8 0046128c     TControlSvr.obj
 0002:0000e2a8       ??_R1A@?0A@EA@?$CAtlServiceModuleT@VCTControlSvrModule@@$0GE@@ATL@@8 004612a8     TControlSvr.obj
 0002:0000e2c4       ??_R3?$CAtlServiceModuleT@VCTControlSvrModule@@$0GE@@ATL@@8 004612c4     TControlSvr.obj
 0002:0000e2d4       ??_R2?$CAtlServiceModuleT@VCTControlSvrModule@@$0GE@@ATL@@8 004612d4     TControlSvr.obj
 0002:0000e2f0       ??_R1A@?0A@EA@?$CAtlExeModuleT@VCTControlSvrModule@@@ATL@@8 004612f0     TControlSvr.obj
 0002:0000e30c       ??_R3?$CAtlExeModuleT@VCTControlSvrModule@@@ATL@@8 0046130c     TControlSvr.obj
 0002:0000e31c       ??_R2?$CAtlExeModuleT@VCTControlSvrModule@@@ATL@@8 0046131c     TControlSvr.obj
 0002:0000e334       ??_R1A@?0A@EA@?$CAtlModuleT@VCTControlSvrModule@@@ATL@@8 00461334     TControlSvr.obj
 0002:0000e350       ??_R3?$CAtlModuleT@VCTControlSvrModule@@@ATL@@8 00461350     TControlSvr.obj
 0002:0000e360       ??_R2?$CAtlModuleT@VCTControlSvrModule@@@ATL@@8 00461360     TControlSvr.obj
 0002:0000e370       ??_R1CM@?0A@EN@?$CAtlValidateModuleConfiguration@$0A@VCTControlSvrModule@@@ATL@@8 00461370     TControlSvr.obj
 0002:0000e38c       ??_R3?$CAtlValidateModuleConfiguration@$0A@VCTControlSvrModule@@@ATL@@8 0046138c     TControlSvr.obj
 0002:0000e39c       ??_R2?$CAtlValidateModuleConfiguration@$0A@VCTControlSvrModule@@@ATL@@8 0046139c     TControlSvr.obj
 0002:0000e3a4       ??_R1A@?0A@EA@?$CAtlValidateModuleConfiguration@$0A@VCTControlSvrModule@@@ATL@@8 004613a4     TControlSvr.obj
 0002:0000e3c0       ??_R1BFE@?0A@EA@TServerSystem@@8 004613c0     TControlSvr.obj
 0002:0000e3dc       ??_R4CTControlSvrModule@@6BTServerSystem@@@ 004613dc     TControlSvr.obj
 0002:0000e3f0       ??_R4?$num_get@DV?$istreambuf_iterator@DU?$char_traits@D@std@@@std@@@std@@6B@ 004613f0     TControlSvr.obj
 0002:0000e404       ??_R3?$num_get@DV?$istreambuf_iterator@DU?$char_traits@D@std@@@std@@@std@@8 00461404     TControlSvr.obj
 0002:0000e414       ??_R2?$num_get@DV?$istreambuf_iterator@DU?$char_traits@D@std@@@std@@@std@@8 00461414     TControlSvr.obj
 0002:0000e428       ??_R1A@?0A@EA@?$num_get@DV?$istreambuf_iterator@DU?$char_traits@D@std@@@std@@@std@@8 00461428     TControlSvr.obj
 0002:0000e444       ??_R4CTManager@@6B@        00461444     TManager.obj
 0002:0000e458       ??_R3CTManager@@8          00461458     TManager.obj
 0002:0000e468       ??_R2CTManager@@8          00461468     TManager.obj
 0002:0000e478       ??_R1A@?0A@EA@CTManager@@8 00461478     TManager.obj
 0002:0000e494       ??_R4CTServer@@6B@         00461494     TServer.obj
 0002:0000e4a8       ??_R3CTServer@@8           004614a8     TServer.obj
 0002:0000e4b8       ??_R2CTServer@@8           004614b8     TServer.obj
 0002:0000e4c8       ??_R1A@?0A@EA@CTServer@@8  004614c8     TServer.obj
 0002:0000e4e4       ??_R4CSqlBase@@6B@         004614e4     TNetLib:SqlBase.obj
 0002:0000e4f8       ??_R4CSqlQuery@@6B@        004614f8     TNetLib:SqlQuery.obj
 0002:0000e50c       ??_R4CSqlDatabase@@6B@     0046150c     TNetLib:SqlDatabase.obj
 0002:0000e520       ??_R3CSqlDatabase@@8       00461520     TNetLib:SqlDatabase.obj
 0002:0000e530       ??_R2CSqlDatabase@@8       00461530     TNetLib:SqlDatabase.obj
 0002:0000e538       ??_R1A@?0A@EA@CSqlDatabase@@8 00461538     TNetLib:SqlDatabase.obj
 0002:0000e554       ??_R4COverlappedEx@@6B@    00461554     TNetLib:Packet.obj
 0002:0000e568       ??_R3COverlappedEx@@8      00461568     TNetLib:Packet.obj
 0002:0000e578       ??_R2COverlappedEx@@8      00461578     TNetLib:Packet.obj
 0002:0000e580       ??_R1A@?0A@EA@COverlappedEx@@8 00461580     TNetLib:Packet.obj
 0002:0000e59c       ??_R4CPacket@@6B@          0046159c     TNetLib:Packet.obj
 0002:0000e5b0       ??_R3CPacket@@8            004615b0     TNetLib:Packet.obj
 0002:0000e5c0       ??_R2CPacket@@8            004615c0     TNetLib:Packet.obj
 0002:0000e5c8       ??_R1A@?0A@EA@CPacket@@8   004615c8     TNetLib:Packet.obj
 0002:0000e5e4       ??_R4CSession@@6B@         004615e4     TNetLib:Session.obj
 0002:0000e5f8       ??_R4logic_error@std@@6B@  004615f8     libcpmt:xthrow.obj
 0002:0000e60c       ??_R3logic_error@std@@8    0046160c     libcpmt:xthrow.obj
 0002:0000e61c       ??_R2logic_error@std@@8    0046161c     libcpmt:xthrow.obj
 0002:0000e628       ??_R1A@?0A@EA@logic_error@std@@8 00461628     libcpmt:xthrow.obj
 0002:0000e644       ??_R4invalid_argument@std@@6B@ 00461644     libcpmt:xthrow.obj
 0002:0000e658       ??_R3invalid_argument@std@@8 00461658     libcpmt:xthrow.obj
 0002:0000e668       ??_R2invalid_argument@std@@8 00461668     libcpmt:xthrow.obj
 0002:0000e678       ??_R1A@?0A@EA@invalid_argument@std@@8 00461678     libcpmt:xthrow.obj
 0002:0000e694       ??_R4length_error@std@@6B@ 00461694     libcpmt:xthrow.obj
 0002:0000e6a8       ??_R3length_error@std@@8   004616a8     libcpmt:xthrow.obj
 0002:0000e6b8       ??_R2length_error@std@@8   004616b8     libcpmt:xthrow.obj
 0002:0000e6c8       ??_R1A@?0A@EA@length_error@std@@8 004616c8     libcpmt:xthrow.obj
 0002:0000e6e4       ??_R4out_of_range@std@@6B@ 004616e4     libcpmt:xthrow.obj
 0002:0000e6f8       ??_R3out_of_range@std@@8   004616f8     libcpmt:xthrow.obj
 0002:0000e708       ??_R2out_of_range@std@@8   00461708     libcpmt:xthrow.obj
 0002:0000e718       ??_R1A@?0A@EA@out_of_range@std@@8 00461718     libcpmt:xthrow.obj
 0002:0000e734       ??_R4_Locimp@locale@std@@6B@ 00461734     libcpmt:locale0.obj
 0002:0000e748       ??_R3_Locimp@locale@std@@8 00461748     libcpmt:locale0.obj
 0002:0000e758       ??_R2_Locimp@locale@std@@8 00461758     libcpmt:locale0.obj
 0002:0000e76c       ??_R1A@?0A@EA@_Locimp@locale@std@@8 0046176c     libcpmt:locale0.obj
 0002:0000e788       ??_R4type_info@@6B@        00461788     LIBCMT:std_type_info_static.obj
 0002:0000e79c       ??_R3type_info@@8          0046179c     LIBCMT:std_type_info_static.obj
 0002:0000e7ac       ??_R2type_info@@8          004617ac     LIBCMT:std_type_info_static.obj
 0002:0000e7b4       ??_R1A@?0A@EA@type_info@@8 004617b4     LIBCMT:std_type_info_static.obj
 0002:0000e7d0       ??_R4bad_exception@std@@6B@ 004617d0     libvcruntime:frame.obj
 0002:0000e7e4       ??_R3bad_exception@std@@8  004617e4     libvcruntime:frame.obj
 0002:0000e7f4       ??_R2bad_exception@std@@8  004617f4     libvcruntime:frame.obj
 0002:0000e800       ??_R1A@?0A@EA@bad_exception@std@@8 00461800     libvcruntime:frame.obj
 0002:0000e81c       ??_R4exception@std@@6B@    0046181c     TServerSystem:TServerSystem.obj
 0002:0000e830       ??_R2bad_array_new_length@std@@8 00461830     TServerSystem:TServerSystem.obj
 0002:0000e840       ??_R2system_error@std@@8   00461840     TServerSystem:TServerSystem.obj
 0002:0000e854       ??_R1A@?0A@EA@system_error@std@@8 00461854     TServerSystem:TServerSystem.obj
 0002:0000e870       ??_R4?$basic_ostream@DU?$char_traits@D@std@@@std@@6B@ 00461870     TServerSystem:TServerSystem.obj
 0002:0000e884       ??_R3?$ctype@D@std@@8      00461884     TServerSystem:TServerSystem.obj
 0002:0000e894       ??_R3TServerSystem@@8      00461894     TServerSystem:TServerSystem.obj
 0002:0000e8a4       ??_R4runtime_error@std@@6B@ 004618a4     TServerSystem:TServerSystem.obj
 0002:0000e8b8       ??_R4_System_error@std@@6B@ 004618b8     TServerSystem:TServerSystem.obj
 0002:0000e8cc       ??_R3_Facet_base@std@@8    004618cc     TServerSystem:TServerSystem.obj
 0002:0000e8dc       ??_R2bad_alloc@std@@8      004618dc     TServerSystem:TServerSystem.obj
 0002:0000e8e8       ??_R3_Crt_new_delete@std@@8 004618e8     TServerSystem:TServerSystem.obj
 0002:0000e8f8       ??_R1A@?0A@EA@runtime_error@std@@8 004618f8     TServerSystem:TServerSystem.obj
 0002:0000e914       ??_R2_System_error@std@@8  00461914     TServerSystem:TServerSystem.obj
 0002:0000e924       ??_R2?$codecvt@DDU_Mbstatet@@@std@@8 00461924     TServerSystem:TServerSystem.obj
 0002:0000e93c       ??_R13?0A@EA@_Crt_new_delete@std@@8 0046193c     TServerSystem:TServerSystem.obj
 0002:0000e958       ??_R2TServerSystem@@8      00461958     TServerSystem:TServerSystem.obj
 0002:0000e960       ??_R17A@3EA@?$_Iosb@H@std@@8 00461960     TServerSystem:TServerSystem.obj
 0002:0000e97c       ??_R1A@?0A@EA@exception@std@@8 0046197c     TServerSystem:TServerSystem.obj
 0002:0000e998       ??_R4ios_base@std@@6B@     00461998     TServerSystem:TServerSystem.obj
 0002:0000e9ac       ??_R4system_error@std@@6B@ 004619ac     TServerSystem:TServerSystem.obj
 0002:0000e9c0       ??_R1A@?0A@EA@?$basic_streambuf@DU?$char_traits@D@std@@@std@@8 004619c0     TServerSystem:TServerSystem.obj
 0002:0000e9dc       ??_R1A@?0A@EA@_Facet_base@std@@8 004619dc     TServerSystem:TServerSystem.obj
 0002:0000e9f8       ??_R1A@?0A@EA@bad_alloc@std@@8 004619f8     TServerSystem:TServerSystem.obj
 0002:0000ea14       ??_R3_System_error@std@@8  00461a14     TServerSystem:TServerSystem.obj
 0002:0000ea24       ??_R4?$basic_ios@DU?$char_traits@D@std@@@std@@6B@ 00461a24     TServerSystem:TServerSystem.obj
 0002:0000ea38       ??_R2exception@std@@8      00461a38     TServerSystem:TServerSystem.obj
 0002:0000ea40       ??_R4failure@ios_base@std@@6B@ 00461a40     TServerSystem:TServerSystem.obj
 0002:0000ea54       ??_R2?$basic_ostream@DU?$char_traits@D@std@@@std@@8 00461a54     TServerSystem:TServerSystem.obj
 0002:0000ea68       ??_R3?$basic_ios@DU?$char_traits@D@std@@@std@@8 00461a68     TServerSystem:TServerSystem.obj
 0002:0000ea78       ??_R4_Iostream_error_category2@std@@6B@ 00461a78     TServerSystem:TServerSystem.obj
 0002:0000ea8c       ??_R2error_category@std@@8 00461a8c     TServerSystem:TServerSystem.obj
 0002:0000ea94       ??_R1A@?0A@EA@_Iostream_error_category2@std@@8 00461a94     TServerSystem:TServerSystem.obj
 0002:0000eab0       ??_R1A@?0A@EA@facet@locale@std@@8 00461ab0     TServerSystem:TServerSystem.obj
 0002:0000eacc       ??_R2failure@ios_base@std@@8 00461acc     TServerSystem:TServerSystem.obj
 0002:0000eae4       ??_R3failure@ios_base@std@@8 00461ae4     TServerSystem:TServerSystem.obj
 0002:0000eaf4       ??_R4TServerSystem@@6B@    00461af4     TServerSystem:TServerSystem.obj
 0002:0000eb08       ??_R2codecvt_base@std@@8   00461b08     TServerSystem:TServerSystem.obj
 0002:0000eb1c       ??_R2?$ctype@D@std@@8      00461b1c     TServerSystem:TServerSystem.obj
 0002:0000eb34       ??_R1A@?0A@EA@codecvt_base@std@@8 00461b34     TServerSystem:TServerSystem.obj
 0002:0000eb50       ??_R1A@?0A@EA@ios_base@std@@8 00461b50     TServerSystem:TServerSystem.obj
 0002:0000eb6c       ??_R3exception@std@@8      00461b6c     TServerSystem:TServerSystem.obj
 0002:0000eb7c       ??_R1A@?0A@EA@?$basic_ostream@DU?$char_traits@D@std@@@std@@8 00461b7c     TServerSystem:TServerSystem.obj
 0002:0000eb98       ??_R3codecvt_base@std@@8   00461b98     TServerSystem:TServerSystem.obj
 0002:0000eba8       ??_R4?$basic_filebuf@DU?$char_traits@D@std@@@std@@6B@ 00461ba8     TServerSystem:TServerSystem.obj
 0002:0000ebbc       ??_R1A@?0A@EA@TServerSystem@@8 00461bbc     TServerSystem:TServerSystem.obj
 0002:0000ebd8       ??_R1A@?0A@EA@failure@ios_base@std@@8 00461bd8     TServerSystem:TServerSystem.obj
 0002:0000ebf4       ??_R2?$numpunct@D@std@@8   00461bf4     TServerSystem:TServerSystem.obj
 0002:0000ec08       ??_R2?$basic_streambuf@DU?$char_traits@D@std@@@std@@8 00461c08     TServerSystem:TServerSystem.obj
 0002:0000ec10       ??_R1A@?0A@EA@?$_Iosb@H@std@@8 00461c10     TServerSystem:TServerSystem.obj
 0002:0000ec2c       ??_R3facet@locale@std@@8   00461c2c     TServerSystem:TServerSystem.obj
 0002:0000ec3c       ??_R3ctype_base@std@@8     00461c3c     TServerSystem:TServerSystem.obj
 0002:0000ec4c       ??_R1A@?0A@EA@_System_error@std@@8 00461c4c     TServerSystem:TServerSystem.obj
 0002:0000ec68       ??_R3error_category@std@@8 00461c68     TServerSystem:TServerSystem.obj
 0002:0000ec78       ??_R4bad_alloc@std@@6B@    00461c78     TServerSystem:TServerSystem.obj
 0002:0000ec8c       ??_R1A@?0A@EA@_Crt_new_delete@std@@8 00461c8c     TServerSystem:TServerSystem.obj
 0002:0000eca8       ??_R3bad_array_new_length@std@@8 00461ca8     TServerSystem:TServerSystem.obj
 0002:0000ecb8       ??_R3?$codecvt@DDU_Mbstatet@@@std@@8 00461cb8     TServerSystem:TServerSystem.obj
 0002:0000ecc8       ??_R3bad_alloc@std@@8      00461cc8     TServerSystem:TServerSystem.obj
 0002:0000ecd8       ??_R4_Facet_base@std@@6B@  00461cd8     TServerSystem:TServerSystem.obj
 0002:0000ecec       ??_R1A@?0A@EA@?$basic_filebuf@DU?$char_traits@D@std@@@std@@8 00461cec     TServerSystem:TServerSystem.obj
 0002:0000ed08       ??_R3?$numpunct@D@std@@8   00461d08     TServerSystem:TServerSystem.obj
 0002:0000ed18       ??_R3_Iostream_error_category2@std@@8 00461d18     TServerSystem:TServerSystem.obj
 0002:0000ed28       ??_R4?$numpunct@D@std@@6B@ 00461d28     TServerSystem:TServerSystem.obj
 0002:0000ed3c       ??_R2runtime_error@std@@8  00461d3c     TServerSystem:TServerSystem.obj
 0002:0000ed48       ??_R1A@A@3FA@?$basic_ios@DU?$char_traits@D@std@@@std@@8 00461d48     TServerSystem:TServerSystem.obj
 0002:0000ed64       ??_R4bad_array_new_length@std@@6B@ 00461d64     TServerSystem:TServerSystem.obj
 0002:0000ed78       ??_R3?$basic_filebuf@DU?$char_traits@D@std@@@std@@8 00461d78     TServerSystem:TServerSystem.obj
 0002:0000ed88       ??_R4?$basic_streambuf@DU?$char_traits@D@std@@@std@@6B@ 00461d88     TServerSystem:TServerSystem.obj
 0002:0000ed9c       ??_R2ios_base@std@@8       00461d9c     TServerSystem:TServerSystem.obj
 0002:0000eda8       ??_R4?$codecvt@DDU_Mbstatet@@@std@@6B@ 00461da8     TServerSystem:TServerSystem.obj
 0002:0000edbc       ??_R3?$basic_ostream@DU?$char_traits@D@std@@@std@@8 00461dbc     TServerSystem:TServerSystem.obj
 0002:0000edcc       ??_R1A@?0A@EA@ctype_base@std@@8 00461dcc     TServerSystem:TServerSystem.obj
 0002:0000ede8       ??_R1A@?0A@EA@?$numpunct@D@std@@8 00461de8     TServerSystem:TServerSystem.obj
 0002:0000ee04       ??_R2_Iostream_error_category2@std@@8 00461e04     TServerSystem:TServerSystem.obj
 0002:0000ee10       ??_R2_Crt_new_delete@std@@8 00461e10     TServerSystem:TServerSystem.obj
 0002:0000ee18       ??_R1A@?0A@EA@?$ctype@D@std@@8 00461e18     TServerSystem:TServerSystem.obj
 0002:0000ee34       ??_R3ios_base@std@@8       00461e34     TServerSystem:TServerSystem.obj
 0002:0000ee44       ??_R2?$basic_filebuf@DU?$char_traits@D@std@@@std@@8 00461e44     TServerSystem:TServerSystem.obj
 0002:0000ee50       ??_R3?$basic_streambuf@DU?$char_traits@D@std@@@std@@8 00461e50     TServerSystem:TServerSystem.obj
 0002:0000ee60       ??_R1A@?0A@EA@bad_array_new_length@std@@8 00461e60     TServerSystem:TServerSystem.obj
 0002:0000ee7c       ??_R2?$_Iosb@H@std@@8      00461e7c     TServerSystem:TServerSystem.obj
 0002:0000ee84       ??_R3system_error@std@@8   00461e84     TServerSystem:TServerSystem.obj
 0002:0000ee94       ??_R1A@A@3EA@ios_base@std@@8 00461e94     TServerSystem:TServerSystem.obj
 0002:0000eeb0       ??_R1A@?0A@EA@?$basic_ios@DU?$char_traits@D@std@@@std@@8 00461eb0     TServerSystem:TServerSystem.obj
 0002:0000eecc       ??_R3?$_Iosb@H@std@@8      00461ecc     TServerSystem:TServerSystem.obj
 0002:0000eedc       ??_R2_Facet_base@std@@8    00461edc     TServerSystem:TServerSystem.obj
 0002:0000eee4       ??_R2facet@locale@std@@8   00461ee4     TServerSystem:TServerSystem.obj
 0002:0000eef4       ??_R17?0A@EA@?$_Iosb@H@std@@8 00461ef4     TServerSystem:TServerSystem.obj
 0002:0000ef10       ??_R4?$ctype@D@std@@6B@    00461f10     TServerSystem:TServerSystem.obj
 0002:0000ef24       ??_R3runtime_error@std@@8  00461f24     TServerSystem:TServerSystem.obj
 0002:0000ef34       ??_R2?$basic_ios@DU?$char_traits@D@std@@@std@@8 00461f34     TServerSystem:TServerSystem.obj
 0002:0000ef44       ??_R2ctype_base@std@@8     00461f44     TServerSystem:TServerSystem.obj
 0002:0000ef58       ??_R1A@?0A@EA@?$codecvt@DDU_Mbstatet@@@std@@8 00461f58     TServerSystem:TServerSystem.obj
 0002:0000ef74       ??_R1A@?0A@EA@error_category@std@@8 00461f74     TServerSystem:TServerSystem.obj
 0002:0000ef90       ___safe_se_handler_table   00461f90     <linker-defined>
 0002:0000f1b8       ___volatile_metadata       004621b8     <linker-defined>
 0002:0000f710       ___rtc_iaa                 00462710     LIBCMT:initsect.obj
 0002:0000f714       ___rtc_izz                 00462714     LIBCMT:initsect.obj
 0002:0000f718       ___rtc_taa                 00462718     LIBCMT:initsect.obj
 0002:0000f71c       ___rtc_tzz                 0046271c     LIBCMT:initsect.obj
 0002:0000f720       __tls_start                00462720     LIBCMT:tlssup.obj
 0002:0000f724       __Init_thread_epoch        00462724     LIBCMT:thread_safe_statics.obj
 0002:0000f728       __tls_end                  00462728     LIBCMT:tlssup.obj
 0002:00010178       __TI1?AVCAtlException@ATL@@ 00463178     DebugSocket.obj
 0002:00010188       __CTA1?AVCAtlException@ATL@@ 00463188     DebugSocket.obj
 0002:00010190       __CT??_R0?AVCAtlException@ATL@@@84 00463190     DebugSocket.obj
 0002:00011a24       __TI2?AVbad_alloc@std@@    00464a24     libcpmt:xthrow.obj
 0002:00011a34       __CTA2?AVbad_alloc@std@@   00464a34     libcpmt:xthrow.obj
 0002:00011a40       __TI3?AVinvalid_argument@std@@ 00464a40     libcpmt:xthrow.obj
 0002:00011a50       __CTA3?AVinvalid_argument@std@@ 00464a50     libcpmt:xthrow.obj
 0002:00011a60       __CT??_R0?AVinvalid_argument@std@@@8??0invalid_argument@std@@QAE@ABV01@@Z12 00464a60     libcpmt:xthrow.obj
 0002:00011a7c       __CT??_R0?AVlogic_error@std@@@8??0logic_error@std@@QAE@ABV01@@Z12 00464a7c     libcpmt:xthrow.obj
 0002:00011a98       __TI3?AVlength_error@std@@ 00464a98     libcpmt:xthrow.obj
 0002:00011aa8       __CTA3?AVlength_error@std@@ 00464aa8     libcpmt:xthrow.obj
 0002:00011ab8       __CT??_R0?AVlength_error@std@@@8??0length_error@std@@QAE@ABV01@@Z12 00464ab8     libcpmt:xthrow.obj
 0002:00011ad4       __TI3?AVout_of_range@std@@ 00464ad4     libcpmt:xthrow.obj
 0002:00011ae4       __CTA3?AVout_of_range@std@@ 00464ae4     libcpmt:xthrow.obj
 0002:00011af4       __CT??_R0?AVout_of_range@std@@@8??0out_of_range@std@@QAE@ABV01@@Z12 00464af4     libcpmt:xthrow.obj
 0002:00011b10       __TI2?AVruntime_error@std@@ 00464b10     libcpmt:xthrow.obj
 0002:00011b20       __CTA2?AVruntime_error@std@@ 00464b20     libcpmt:xthrow.obj
 0002:00011cfc       __TI2?AVbad_exception@std@@ 00464cfc     libvcruntime:frame.obj
 0002:00011d0c       __CTA2?AVbad_exception@std@@ 00464d0c     libvcruntime:frame.obj
 0002:00011d18       __CT??_R0?AVbad_exception@std@@@8??0bad_exception@std@@QAE@ABV01@@Z12 00464d18     libvcruntime:frame.obj
 0002:000123bc       __CTA3?AVbad_array_new_length@std@@ 004653bc     TServerSystem:TServerSystem.obj
 0002:000123cc       __CT??_R0?AVbad_alloc@std@@@8??0bad_alloc@std@@QAE@ABV01@@Z12 004653cc     TServerSystem:TServerSystem.obj
 0002:000123e8       __CT??_R0?AVsystem_error@std@@@8??0system_error@std@@QAE@ABV01@@Z20 004653e8     TServerSystem:TServerSystem.obj
 0002:00012404       __CT??_R0?AVruntime_error@std@@@8??0runtime_error@std@@QAE@ABV01@@Z12 00465404     TServerSystem:TServerSystem.obj
 0002:00012420       __TI5?AVfailure@ios_base@std@@ 00465420     TServerSystem:TServerSystem.obj
 0002:00012430       __CT??_R0?AVexception@std@@@8??0exception@std@@QAE@ABV01@@Z12 00465430     TServerSystem:TServerSystem.obj
 0002:0001244c       __CTA5?AVfailure@ios_base@std@@ 0046544c     TServerSystem:TServerSystem.obj
 0002:00012464       __TI3?AVbad_array_new_length@std@@ 00465464     TServerSystem:TServerSystem.obj
 0002:00012474       __CT??_R0?AVbad_array_new_length@std@@@8??0bad_array_new_length@std@@QAE@ABV01@@Z12 00465474     TServerSystem:TServerSystem.obj
 0002:00012490       __CT??_R0?AV_System_error@std@@@8??0_System_error@std@@QAE@ABV01@@Z20 00465490     TServerSystem:TServerSystem.obj
 0002:000124ac       __CT??_R0?AVfailure@ios_base@std@@@8??0failure@ios_base@std@@QAE@ABV012@@Z20 004654ac     TServerSystem:TServerSystem.obj
 0002:000124c8       __IMPORT_DESCRIPTOR_WS2_32 004654c8     ws2_32:WS2_32.dll
 0002:000124dc       __IMPORT_DESCRIPTOR_MSWSOCK 004654dc     mswsock:MSWSOCK.dll
 0002:000124f0       __IMPORT_DESCRIPTOR_KERNEL32 004654f0     kernel32:KERNEL32.dll
 0002:00012504       __IMPORT_DESCRIPTOR_USER32 00465504     user32:USER32.dll
 0002:00012518       __IMPORT_DESCRIPTOR_ADVAPI32 00465518     advapi32:ADVAPI32.dll
 0002:0001252c       __IMPORT_DESCRIPTOR_ole32  0046552c     ole32:ole32.dll
 0002:00012540       __IMPORT_DESCRIPTOR_pdh    00465540     pdh:pdh.dll
 0002:00012554       __IMPORT_DESCRIPTOR_ODBC32 00465554     odbc32:ODBC32.dll
 0002:00012568       __NULL_IMPORT_DESCRIPTOR   00465568     ws2_32:WS2_32.dll
 0003:00000000       ?g_strUserData@@3V?$basic_string@DU?$char_traits@D@std@@V?$allocator@D@2@@std@@A 00467000     TMiniDump.obj
 0003:00000018       ?g_4skey@@3PA_JA           00467018     TNetLib:Session.obj
 0003:00000054       ?_Sync@ios_base@std@@0_NA  00467054     libcpmt:ios.obj
 0003:0000005c       ___security_cookie_complement 0046705c     LIBCMT:gs_cookie.obj
 0003:00000060       ___security_cookie         00467060     LIBCMT:gs_cookie.obj
 0003:00000064       ___scrt_native_dllmain_reason 00467064     LIBCMT:utility.obj
 0003:00000068       __Init_global_epoch        00467068     LIBCMT:thread_safe_statics.obj
 0003:0000006c       __fltused                  0046706c     LIBCMT:fltused.obj
 0003:00000070       ___isa_enabled             00467070     LIBCMT:cpu_disp.obj
 0003:00000080       ___scrt_default_matherr    00467080     LIBCMT:matherr.obj
 0003:000000a0       __NLG_Destination          004670a0     libvcruntime:exsup.obj
 0003:000000b8       ___acrt_lconv_c            004670b8     libucrt:localeconv.obj
 0003:00000108       ___acrt_lconv              00467108     libucrt:localeconv.obj
 0003:0000010c       ___acrt_lconv_static_decimal 0046710c     libucrt:localeconv.obj
 0003:00000110       ___acrt_lconv_static_W_decimal 00467110     libucrt:localeconv.obj
 0003:00000120       __iob                      00467120     libucrt:_file.obj
 0003:000001c8       __pctype                   004671c8     libucrt:ctype.obj
 0003:000001cc       __pwctype                  004671cc     libucrt:ctype.obj
 0003:000001d0       ___abort_behavior          004671d0     libucrt:abort.obj
 0003:000001e8       ___acrt_initial_locale_data 004671e8     libucrt:nlsdata.obj
 0003:000002a0       ___acrt_initial_locale_pointers 004672a0     libucrt:nlsdata.obj
 0003:000002a8       ___acrt_wide_c_locale_string 004672a8     libucrt:nlsdata.obj
 0003:000002ac       ___mb_cur_max              004672ac     libucrt:nlsdata.obj
 0003:000002b0       ___badioinfo               004672b0     libucrt:ioinit.obj
 0003:00000490       __lookuptrailbytes         00467490     libucrt:read.obj
 0003:00000594       ___globallocalestatus      00467594     libucrt:glstatus.obj
 0003:000005a0       ___acrt_initial_multibyte_data 004675a0     libucrt:mbctype.obj
 0003:00000ad0       ?_Static@?1???$_Immortalize_memcpy_image@V_Iostream_error_category2@std@@@std@@YAABV_Iostream_error_category2@1@XZ@4U?$_Constexpr_immortalize_impl@V_Iostream_error_category2@std@@@1@A 00467ad0     TServerSystem:TServerSystem.obj
 0003:00000adc       ??_R0?AVCAtlException@ATL@@@8 00467adc     DebugSocket.obj
 0003:00000afc       ??_R0?AVinvalid_argument@std@@@8 00467afc     libcpmt:xthrow.obj
 0003:00000b20       ??_R0?AVlogic_error@std@@@8 00467b20     libcpmt:xthrow.obj
 0003:00000b40       ??_R0?AVlength_error@std@@@8 00467b40     libcpmt:xthrow.obj
 0003:00000b60       ??_R0?AVout_of_range@std@@@8 00467b60     libcpmt:xthrow.obj
 0003:00000b80       ??_R0?AVbad_exception@std@@@8 00467b80     libvcruntime:frame.obj
 0003:00000ba0       ??_R0?AVfailure@ios_base@std@@@8 00467ba0     TServerSystem:TServerSystem.obj
 0003:00000bc4       ??_R0?AVruntime_error@std@@@8 00467bc4     TServerSystem:TServerSystem.obj
 0003:00000be4       ??_R0?AVbad_alloc@std@@@8  00467be4     TServerSystem:TServerSystem.obj
 0003:00000c00       ??_R0?AVsystem_error@std@@@8 00467c00     TServerSystem:TServerSystem.obj
 0003:00000c20       ??_R0?AV_System_error@std@@@8 00467c20     TServerSystem:TServerSystem.obj
 0003:00000c40       ??_R0?AVexception@std@@@8  00467c40     TServerSystem:TServerSystem.obj
 0003:00000c5c       ??_R0?AVbad_array_new_length@std@@@8 00467c5c     TServerSystem:TServerSystem.obj
 0003:00000c88       ??_R0?AVCTBLMachine@@@8    00467c88     DBAccess.obj
 0003:00000ca4       ??_R0?AVCSqlQuery@@@8      00467ca4     DBAccess.obj
 0003:00000cbc       ??_R0?AVCSqlBase@@@8       00467cbc     DBAccess.obj
 0003:00000cd4       ??_R0?AVCTBLNetwork@@@8    00467cd4     DBAccess.obj
 0003:00000cf0       ??_R0?AVCTBLGroup@@@8      00467cf0     DBAccess.obj
 0003:00000d08       ??_R0?AVCTBLSvrType@@@8    00467d08     DBAccess.obj
 0003:00000d24       ??_R0?AVCTBLServer@@@8     00467d24     DBAccess.obj
 0003:00000d40       ??_R0?AVCTBLIPAddr@@@8     00467d40     DBAccess.obj
 0003:00000d5c       ??_R0?AVCTBLManager@@@8    00467d5c     DBAccess.obj
 0003:00000d78       ??_R0?AVCTBLEvent@@@8      00467d78     DBAccess.obj
 0003:00000d90       ??_R0?AVCTBLCashShopItem@@@8 00467d90     DBAccess.obj
 0003:00000db0       ??_R0?AVCTBLPreVersion@@@8 00467db0     DBAccess.obj
 0003:00000dd0       ??_R0?AVCSPUpdatePatch@@@8 00467dd0     DBAccess.obj
 0003:00000df0       ??_R0?AVCSPUpdatePrePatch@@@8 00467df0     DBAccess.obj
 0003:00000e10       ??_R0?AVCSPBetaToVer@@@8   00467e10     DBAccess.obj
 0003:00000e2c       ??_R0?AVCSPDeletePreVersion@@@8 00467e2c     DBAccess.obj
 0003:00000e50       ??_R0?AVCSPUserProtectedAdd@@@8 00467e50     DBAccess.obj
 0003:00000e74       ??_R0?AVCSPSvrStatusSMS@@@8 00467e74     DBAccess.obj
 0003:00000e94       ??_R0?AVCSPLoadService@@@8 00467e94     DBAccess.obj
 0003:00000eb4       ??_R0?AVCSPOPLogin@@@8     00467eb4     DBAccess.obj
 0003:00000ed0       ??_R0?AVCSPEventUpdate@@@8 00467ed0     DBAccess.obj
 0003:00000ef0       ??_R0?AVCWin32Heap@ATL@@@8 00467ef0     DebugSocket.obj
 0003:00000f10       ??_R0?AUIAtlMemMgr@ATL@@@8 00467f10     DebugSocket.obj
 0003:00000f30       ??_R0?AUIAtlStringMgr@ATL@@@8 00467f30     DebugSocket.obj
 0003:00000f50       ??_R0?AVCAtlStringMgr@ATL@@@8 00467f50     DebugSocket.obj
 0003:00000f70       ??_R0?AVCCSLock@@@8        00467f70     Handler.obj
 0003:00000f88       ??_R0?AVCPlatformUsage@@@8 00467f88     PlatformUsage.obj
 0003:00000fa8       ??_R0?AVCTControlSession@@@8 00467fa8     TControlSession.obj
 0003:00000fc8       ??_R0?AVCSession@@@8       00467fc8     TControlSession.obj
 0003:00000fe0       ??_R0?AVCAtlModule@ATL@@@8 00467fe0     TControlSvr.obj
 0003:00001000       ??_R0?AU_ATL_MODULE70@ATL@@@8 00468000     TControlSvr.obj
 0003:00001020       ??_R0?AV?$basic_istream@DU?$char_traits@D@std@@@std@@@8 00468020     TControlSvr.obj
 0003:00001060       ??_R0?AV?$basic_stringbuf@DU?$char_traits@D@std@@V?$allocator@D@2@@std@@@8 00468060     TControlSvr.obj
 0003:000010b0       ??_R0?AV?$basic_istringstream@DU?$char_traits@D@std@@V?$allocator@D@2@@std@@@8 004680b0     TControlSvr.obj
 0003:00001104       ??_R0?AVCTControlSvrModule@@@8 00468104     TControlSvr.obj
 0003:00001128       ??_R0?AV?$CAtlServiceModuleT@VCTControlSvrModule@@$0GE@@ATL@@@8 00468128     TControlSvr.obj
 0003:0000116c       ??_R0?AV?$CAtlExeModuleT@VCTControlSvrModule@@@ATL@@@8 0046816c     TControlSvr.obj
 0003:000011a8       ??_R0?AV?$CAtlModuleT@VCTControlSvrModule@@@ATL@@@8 004681a8     TControlSvr.obj
 0003:000011e0       ??_R0?AU?$CAtlValidateModuleConfiguration@$0A@VCTControlSvrModule@@@ATL@@@8 004681e0     TControlSvr.obj
 0003:00001230       ??_R0?AV?$num_get@DV?$istreambuf_iterator@DU?$char_traits@D@std@@@std@@@std@@@8 00468230     TControlSvr.obj
 0003:00001284       ??_R0?AVCTManager@@@8      00468284     TManager.obj
 0003:0000129c       ??_R0?AVCTServer@@@8       0046829c     TServer.obj
 0003:000012b4       ??_R0?AVCSqlDatabase@@@8   004682b4     TNetLib:SqlDatabase.obj
 0003:000012d0       ??_R0?AVCOverlappedEx@@@8  004682d0     TNetLib:Packet.obj
 0003:000012ec       ??_R0?AVCPacket@@@8        004682ec     TNetLib:Packet.obj
 0003:00001304       ??_R0?AV_Locimp@locale@std@@@8 00468304     libcpmt:locale0.obj
 0003:00001328       ??_R0?AVtype_info@@@8      00468328     LIBCMT:std_type_info_static.obj
 0003:00001340       ??_R0?AV?$basic_filebuf@DU?$char_traits@D@std@@@std@@@8 00468340     TServerSystem:TServerSystem.obj
 0003:0000137c       ??_R0?AV?$codecvt@DDU_Mbstatet@@@std@@@8 0046837c     TServerSystem:TServerSystem.obj
 0003:000013a8       ??_R0?AVios_base@std@@@8   004683a8     TServerSystem:TServerSystem.obj
 0003:000013c4       ??_R0?AVerror_category@std@@@8 004683c4     TServerSystem:TServerSystem.obj
 0003:000013e8       ??_R0?AV?$ctype@D@std@@@8  004683e8     TServerSystem:TServerSystem.obj
 0003:00001404       ??_R0?AVcodecvt_base@std@@@8 00468404     TServerSystem:TServerSystem.obj
 0003:00001424       ??_R0?AV_Facet_base@std@@@8 00468424     TServerSystem:TServerSystem.obj
 0003:00001444       ??_R0?AU_Crt_new_delete@std@@@8 00468444     TServerSystem:TServerSystem.obj
 0003:00001468       ??_R0?AV?$_Iosb@H@std@@@8  00468468     TServerSystem:TServerSystem.obj
 0003:00001484       ??_R0?AV_Iostream_error_category2@std@@@8 00468484     TServerSystem:TServerSystem.obj
 0003:000014b0       ??_R0?AV?$numpunct@D@std@@@8 004684b0     TServerSystem:TServerSystem.obj
 0003:000014d0       ??_R0?AV?$basic_streambuf@DU?$char_traits@D@std@@@std@@@8 004684d0     TServerSystem:TServerSystem.obj
 0003:0000150c       ??_R0?AUctype_base@std@@@8 0046850c     TServerSystem:TServerSystem.obj
 0003:0000152c       ??_R0?AVTServerSystem@@@8  0046852c     TServerSystem:TServerSystem.obj
 0003:00001548       ??_R0?AV?$basic_ios@DU?$char_traits@D@std@@@std@@@8 00468548     TServerSystem:TServerSystem.obj
 0003:00001580       ??_R0?AVfacet@locale@std@@@8 00468580     TServerSystem:TServerSystem.obj
 0003:000015a0       ??_R0?AV?$basic_ostream@DU?$char_traits@D@std@@@std@@@8 004685a0     TServerSystem:TServerSystem.obj
 0003:000015e0       ?isInitialized@CAtlStringMgr@ATL@@0_NA 004685e0     DebugSocket.obj
 0003:000015e4       ?strHeap@?1??GetInstance@CAtlStringMgr@ATL@@SAPAUIAtlStringMgr@3@XZ@4VCWin32Heap@3@A 004685e4     DebugSocket.obj
 0003:000015f0       ?$TSS0@?1??GetInstance@CAtlStringMgr@ATL@@SAPAUIAtlStringMgr@3@XZ@4HA 004685f0     DebugSocket.obj
 0003:000015f4       ?strMgr@?1??GetInstance@CAtlStringMgr@ATL@@SAPAUIAtlStringMgr@3@XZ@4V23@A 004685f4     DebugSocket.obj
 0003:00001610       ?$TSS1@?1??GetInstance@CAtlStringMgr@ATL@@SAPAUIAtlStringMgr@3@XZ@4HA 00468610     DebugSocket.obj
 0003:00001614       ?InitializeCAtlStringMgr@ATLImplementationDetails@ATL@@3UCAtlStringMgrStaticInitializer@12@A 00468614     DebugSocket.obj
 0003:00001618       ?_pAtlModule@ATL@@3PAVCAtlModule@1@A 00468618     Handler.obj
 0003:0000161c       ___@@_PchSym_@00@UfhvihUnbkxUwlxfnvmghUyzxpfkRDBABCACDUEhUEhglibPFOAPhlfixvLRLplkrvUhvieviUgxlmgiloheiUivovzhvUhgwzucOlyq@4B2008FD98C1DD4 0046861c     stdafx.obj
 0003:00001620       ?m_bInitFailed@CAtlBaseModule@ATL@@2_NA 00468620     stdafx.obj
 0003:00001624       ?m_libid@CAtlModule@ATL@@2U_GUID@@A 00468624     TControlSvr.obj
 0003:00001638       ?_AtlModule@@3VCTControlSvrModule@@A 00468638     TControlSvr.obj
 0003:00011efc       ?MapServiceVector@@3V?$vector@IV?$allocator@I@std@@@std@@A 00478efc     TControlSvr.obj
 0003:00011f0c       ?id@?$num_get@DV?$istreambuf_iterator@DU?$char_traits@D@std@@@std@@@std@@2V0locale@2@A 00478f0c     TControlSvr.obj
 0003:00011f10       ?_Psave@?$_Facetptr@V?$num_get@DV?$istreambuf_iterator@DU?$char_traits@D@std@@@std@@@std@@@std@@2PBVfacet@locale@2@B 00478f10     TControlSvr.obj
 0003:00011f14       ?g_eDumpType@@3W4_MINIDUMP_TYPE@@A 00478f14     TMiniDump.obj
 0003:00011f18       ?g_hWnd@@3PAUHWND__@@A     00478f18     TMiniDump.obj
 0003:00011f1c       ?g_bSaveMessage@@3HA       00478f1c     TMiniDump.obj
 0003:00011f20       ?theTMiniDump@@3VCTMiniDump@@A 00478f20     TMiniDump.obj
 0003:00011f24       ?g_strErrorMsg@@3V?$CStringT@DV?$StrTraitATL@DV?$ChTraitsCRT@D@ATL@@@ATL@@@ATL@@A 00478f24     TMiniDump.obj
 0003:00011f28       ?g_strSecretKey@@3V?$CStringT@DV?$StrTraitATL@DV?$ChTraitsCRT@D@ATL@@@ATL@@@ATL@@A 00478f28     TNetLib:Session.obj
 0003:00011f2c       ___@@_PchSym_@00@UfhvihUnbkxUwlxfnvmghUyzxpfkRDBABCACDUEhUEhglibPFOAPhlfixvLRLplkrvUoryUldmUgmvgoryUgmvgoryUivovzhvUhgwzucOlyq@4B2008FD98C1DD4 00478f2c     TNetLib:stdafx.obj
 0003:00011f30       ?_AtlBaseModule@ATL@@3VCAtlBaseModule@1@A 00478f30     atls:atlbase.obj
 0003:00011f68       ___@@_PchSym_@00@UzUPdlipUBUhUrmgvinvwrzgvUexHoryhUhsrkUzgonuxUhixUzgoUzgohUzgohOmzgrevkilqUlyqiPiUcIGUhgwzucOlyq@4B2008FD98C1DD4 00478f68     atls:stdafx.obj
 0003:00012038       ?_Id_cnt@id@locale@std@@0HA 00479038     libcpmt:locale0.obj
 0003:0001203c       ?_Clocptr@_Locimp@locale@std@@0PAV123@A 0047903c     libcpmt:locale0.obj
 0003:00012040       ?id@?$ctype@G@std@@2V0locale@2@A 00479040     libcpmt:locale0.obj
 0003:00012044       ?id@?$codecvt@_WDU_Mbstatet@@@std@@2V0locale@2@A 00479044     libcpmt:locale0.obj
 0003:00012048       ?id@?$codecvt@GDU_Mbstatet@@@std@@2V0locale@2@A 00479048     libcpmt:locale0.obj
 0003:0001204c       ?id@?$ctype@_W@std@@2V0locale@2@A 0047904c     libcpmt:locale0.obj
 0003:00012050       ?id@?$ctype@D@std@@2V0locale@2@A 00479050     libcpmt:locale0.obj
 0003:0001206c       ?_Index@ios_base@std@@0HA  0047906c     libcpmt:ios.obj
 0003:00012108       ?cin@std@@3V?$basic_istream@DU?$char_traits@D@std@@@1@A 00479108     libcpmt:cin.obj
 0003:00012170       ?cout@std@@3V?$basic_ostream@DU?$char_traits@D@std@@@1@A 00479170     libcpmt:cout.obj
 0003:00012218       ?_Ptr_cin@std@@3PAV?$basic_istream@DU?$char_traits@D@std@@@1@A 00479218     libcpmt:iosptrs.obj
 0003:0001221c       ?_Ptr_cout@std@@3PAV?$basic_ostream@DU?$char_traits@D@std@@@1@A 0047921c     libcpmt:iosptrs.obj
 0003:00012220       ?_Ptr_cerr@std@@3PAV?$basic_ostream@DU?$char_traits@D@std@@@1@A 00479220     libcpmt:iosptrs.obj
 0003:00012224       ?_Ptr_clog@std@@3PAV?$basic_ostream@DU?$char_traits@D@std@@@1@A 00479224     libcpmt:iosptrs.obj
 0003:00012228       ?_Ptr_wcin@std@@3PAV?$basic_istream@_WU?$char_traits@_W@std@@@1@A 00479228     libcpmt:iosptrs.obj
 0003:0001222c       ?_Ptr_wcout@std@@3PAV?$basic_ostream@_WU?$char_traits@_W@std@@@1@A 0047922c     libcpmt:iosptrs.obj
 0003:00012230       ?_Ptr_wcerr@std@@3PAV?$basic_ostream@_WU?$char_traits@_W@std@@@1@A 00479230     libcpmt:iosptrs.obj
 0003:00012234       ?_Ptr_wclog@std@@3PAV?$basic_ostream@_WU?$char_traits@_W@std@@@1@A 00479234     libcpmt:iosptrs.obj
 0003:00012264       ?id@?$time_put@_WV?$ostreambuf_iterator@_WU?$char_traits@_W@std@@@std@@@std@@2V0locale@2@A 00479264     libcpmt:wlocale.obj
 0003:00012268       ?id@?$num_get@_WV?$istreambuf_iterator@_WU?$char_traits@_W@std@@@std@@@std@@2V0locale@2@A 00479268     libcpmt:wlocale.obj
 0003:0001226c       ?id@?$num_put@_WV?$ostreambuf_iterator@_WU?$char_traits@_W@std@@@std@@@std@@2V0locale@2@A 0047926c     libcpmt:wlocale.obj
 0003:00012270       ?id@?$numpunct@_W@std@@2V0locale@2@A 00479270     libcpmt:wlocale.obj
 0003:00012274       ?id@?$collate@_W@std@@2V0locale@2@A 00479274     libcpmt:wlocale.obj
 0003:00012278       ?id@?$messages@_W@std@@2V0locale@2@A 00479278     libcpmt:wlocale.obj
 0003:0001227c       ?id@?$money_get@_WV?$istreambuf_iterator@_WU?$char_traits@_W@std@@@std@@@std@@2V0locale@2@A 0047927c     libcpmt:wlocale.obj
 0003:00012280       ?id@?$money_put@_WV?$ostreambuf_iterator@_WU?$char_traits@_W@std@@@std@@@std@@2V0locale@2@A 00479280     libcpmt:wlocale.obj
 0003:00012284       ?id@?$moneypunct@_W$0A@@std@@2V0locale@2@A 00479284     libcpmt:wlocale.obj
 0003:00012288       ?id@?$moneypunct@_W$00@std@@2V0locale@2@A 00479288     libcpmt:wlocale.obj
 0003:0001228c       ?id@?$time_get@_WV?$istreambuf_iterator@_WU?$char_traits@_W@std@@@std@@@std@@2V0locale@2@A 0047928c     libcpmt:wlocale.obj
 0003:00012290       ?id@?$num_get@GV?$istreambuf_iterator@GU?$char_traits@G@std@@@std@@@std@@2V0locale@2@A 00479290     libcpmt:wlocale.obj
 0003:00012294       ?id@?$num_put@GV?$ostreambuf_iterator@GU?$char_traits@G@std@@@std@@@std@@2V0locale@2@A 00479294     libcpmt:wlocale.obj
 0003:00012298       ?id@?$numpunct@G@std@@2V0locale@2@A 00479298     libcpmt:wlocale.obj
 0003:0001229c       ?id@?$collate@G@std@@2V0locale@2@A 0047929c     libcpmt:wlocale.obj
 0003:000122a0       ?id@?$messages@G@std@@2V0locale@2@A 004792a0     libcpmt:wlocale.obj
 0003:000122a4       ?id@?$money_get@GV?$istreambuf_iterator@GU?$char_traits@G@std@@@std@@@std@@2V0locale@2@A 004792a4     libcpmt:wlocale.obj
 0003:000122a8       ?id@?$money_put@GV?$ostreambuf_iterator@GU?$char_traits@G@std@@@std@@@std@@2V0locale@2@A 004792a8     libcpmt:wlocale.obj
 0003:000122ac       ?id@?$moneypunct@G$0A@@std@@2V0locale@2@A 004792ac     libcpmt:wlocale.obj
 0003:000122b0       ?id@?$moneypunct@G$00@std@@2V0locale@2@A 004792b0     libcpmt:wlocale.obj
 0003:000122b4       ?id@?$time_get@GV?$istreambuf_iterator@GU?$char_traits@G@std@@@std@@@std@@2V0locale@2@A 004792b4     libcpmt:wlocale.obj
 0003:000122b8       ?id@?$time_put@GV?$ostreambuf_iterator@GU?$char_traits@G@std@@@std@@@std@@2V0locale@2@A 004792b8     libcpmt:wlocale.obj
 0003:000122bc       ?id@?$collate@D@std@@2V0locale@2@A 004792bc     libcpmt:xlocale.obj
 0003:000122c0       ?id@?$messages@D@std@@2V0locale@2@A 004792c0     libcpmt:xlocale.obj
 0003:000122c4       ?id@?$money_get@DV?$istreambuf_iterator@DU?$char_traits@D@std@@@std@@@std@@2V0locale@2@A 004792c4     libcpmt:xlocale.obj
 0003:000122c8       ?id@?$money_put@DV?$ostreambuf_iterator@DU?$char_traits@D@std@@@std@@@std@@2V0locale@2@A 004792c8     libcpmt:xlocale.obj
 0003:000122cc       ?id@?$moneypunct@D$0A@@std@@2V0locale@2@A 004792cc     libcpmt:xlocale.obj
 0003:000122d0       ?id@?$moneypunct@D$00@std@@2V0locale@2@A 004792d0     libcpmt:xlocale.obj
 0003:000122d4       ?id@?$time_get@DV?$istreambuf_iterator@DU?$char_traits@D@std@@@std@@@std@@2V0locale@2@A 004792d4     libcpmt:xlocale.obj
 0003:000122d8       ?id@?$time_put@DV?$ostreambuf_iterator@DU?$char_traits@D@std@@@std@@@std@@2V0locale@2@A 004792d8     libcpmt:xlocale.obj
 0003:000122dc       ___scrt_current_native_startup_state 004792dc     LIBCMT:utility.obj
 0003:000122e0       ___scrt_native_startup_lock 004792e0     LIBCMT:utility.obj
 0003:00012328       __tls_index                00479328     LIBCMT:tlssup.obj
 0003:0001264c       ___isa_available           0047964c     LIBCMT:cpu_disp.obj
 0003:00012650       ___favor                   00479650     LIBCMT:cpu_disp.obj
 0003:00012654       ___scrt_debugger_hook_flag 00479654     LIBCMT:utility_desktop.obj
 0003:00012658       ?__type_info_root_node@@3U__type_info_node@@A 00479658     LIBCMT:tncleanup.obj
 0003:00012660       ?_OptionsStorage@?1??__local_stdio_scanf_options@@9@4_KA 00479660     LIBCMT:default_local_stdio_options.obj
 0003:00012668       ?__WinRTOutOfMemoryExceptionCallback@@3P6GPAXXZA 00479668     libvcruntime:ehhelpers.obj
 0003:00012694       ___pPurecall               00479694     libvcruntime:purevirt_data.obj
 0003:000126b4       ?pArgList@UnDecorator@@0PAVReplicator@@A 004796b4     libvcruntime:undname.obj
 0003:000126b8       ?pZNameList@UnDecorator@@0PAVReplicator@@A 004796b8     libvcruntime:undname.obj
 0003:000126bc       ?pTemplateArgList@UnDecorator@@0PAVReplicator@@A 004796bc     libvcruntime:undname.obj
 0003:000126c0       ?gName@UnDecorator@@0PBDB  004796c0     libvcruntime:undname.obj
 0003:000126c4       ?name@UnDecorator@@0PBDB   004796c4     libvcruntime:undname.obj
 0003:000126c8       ?disableFlags@UnDecorator@@0KA 004796c8     libvcruntime:undname.obj
 0003:000126cc       ?fExplicitTemplateParams@UnDecorator@@0_NA 004796cc     libvcruntime:undname.obj
 0003:000126cd       ?fGetTemplateArgumentList@UnDecorator@@0_NA 004796cd     libvcruntime:undname.obj
 0003:000126d0       ?m_pGetParameter@UnDecorator@@0P6APADJ@ZA 004796d0     libvcruntime:undname.obj
 0003:000126d4       ?m_CHPENameOffset@UnDecorator@@0KA 004796d4     libvcruntime:undname.obj
 0003:000126d8       ?m_recursionLevel@UnDecorator@@0KA 004796d8     libvcruntime:undname.obj
 0003:00012714       ___acrt_lconv_static_null  00479714     libucrt:localeconv.obj
 0003:00012718       ___acrt_lconv_static_W_null 00479718     libucrt:localeconv.obj
 0003:0001271c       __nstream                  0047971c     libucrt:_file.obj
 0003:00012720       ___piob                    00479720     libucrt:_file.obj
 0003:00012724       __cflush                   00479724     libucrt:_file.obj
 0003:00012888       ?c_exit_complete@?1???R<lambda_6e4b09c48022b2350581041d5f6b0c4c>@@QBE@XZ@4_NA 00479888     libucrt:exit.obj
 0003:00012998       __environ_table            00479998     libucrt:environment_initialization.obj
 0003:0001299c       __wenviron_table           0047999c     libucrt:environment_initialization.obj
 0003:000129a0       ___dcrt_initial_wide_environment 004799a0     libucrt:environment_initialization.obj
 0003:000129a4       ___dcrt_initial_narrow_environment 004799a4     libucrt:environment_initialization.obj
 0003:000129a8       ___acrt_atexit_table       004799a8     libucrt:onexit.obj
 0003:000129b4       ___acrt_at_quick_exit_table 004799b4     libucrt:onexit.obj
 0003:000129c8       __pgmptr                   004799c8     libucrt:argv_data.obj
 0003:000129cc       ___argc                    004799cc     libucrt:argv_data.obj
 0003:000129d0       ___argv                    004799d0     libucrt:argv_data.obj
 0003:000129d4       ___wargv                   004799d4     libucrt:argv_data.obj
 0003:000129d8       __acmdln                   004799d8     libucrt:argv_data.obj
 0003:000129dc       __wcmdln                   004799dc     libucrt:argv_data.obj
 0003:000129e0       ___acrt_locale_changed_data 004799e0     libucrt:wsetlocale.obj
 0003:000129e8       __commode                  004799e8     libucrt:ncommode.obj
 0003:000129f8       ___acrt_stdout_buffer      004799f8     libucrt:_sftbuf.obj
 0003:000129fc       ___acrt_stderr_buffer      004799fc     libucrt:_sftbuf.obj
 0003:00012a00       ___acrt_current_locale_data 00479a00     libucrt:nlsdata.obj
 0003:00012a08       ___pioinfo                 00479a08     libucrt:ioinit.obj
 0003:00012c08       __nhandle                  00479c08     libucrt:ioinit.obj
 0003:00012c0c       ?_timezone@@3V?$dual_state_global@J@__crt_state_management@@A 00479c0c     libucrt:timeset.obj
 0003:00012c10       ?_daylight@@3V?$dual_state_global@H@__crt_state_management@@A 00479c10     libucrt:timeset.obj
 0003:00012c14       ?_dstbias@@3V?$dual_state_global@J@__crt_state_management@@A 00479c14     libucrt:timeset.obj
 0003:00012dc0       ___fastflag                00479dc0     libucrt:fp_flags.obj
 0003:00012dd4       __mbctype                  00479dd4     libucrt:mbctype.obj
 0003:00012dd8       __mbcasemap                00479dd8     libucrt:mbctype.obj
 0003:00012ddc       ___acrt_current_multibyte_data 00479ddc     libucrt:mbctype.obj
 0003:00012de8       ___acrt_heap               00479de8     libucrt:heap_handle.obj
 0003:00012dec       __fmode                    00479dec     libucrt:txtmode.obj
 0003:00012df8       __umaskval                 00479df8     libucrt:umask.obj
 0003:00012e04       ?_Psave@?$_Facetptr@V?$numpunct@D@std@@@std@@2PBVfacet@locale@2@B 00479e04     TServerSystem:TServerSystem.obj
 0003:00012e08       ?_Psave@?$_Facetptr@V?$ctype@D@std@@@std@@2PBVfacet@locale@2@B 00479e08     TServerSystem:TServerSystem.obj
 0003:00012e0c       ?_Psave@?$_Facetptr@V?$codecvt@DDU_Mbstatet@@@std@@@std@@2PBVfacet@locale@2@B 00479e0c     TServerSystem:TServerSystem.obj
 0003:00012e10       ?_Stinit@?1??_Init@?$basic_filebuf@DU?$char_traits@D@std@@@std@@IAEXPAU_iobuf@@W4_Initfl@23@@Z@4U_Mbstatet@@A 00479e10     TServerSystem:TServerSystem.obj
 0003:00012e18       ?id@?$num_put@DV?$ostreambuf_iterator@DU?$char_traits@D@std@@@std@@@std@@2V0locale@2@A 00479e18     TServerSystem:TServerSystem.obj
 0003:00012e1c       ?id@?$codecvt@DDU_Mbstatet@@@std@@2V0locale@2@A 00479e1c     TServerSystem:TServerSystem.obj
 0003:00012e20       ?_OptionsStorage@?1??__local_stdio_printf_options@@9@4_KA 00479e20     TServerSystem:TServerSystem.obj
 0003:00012e28       ?id@?$numpunct@D@std@@2V0locale@2@A 00479e28     TServerSystem:TServerSystem.obj
 0003:00012e2c       ___dyn_tls_dtor_callback   00479e2c     <common>
 0003:00012e30       ___dyn_tls_init_callback   00479e30     <common>
 0003:00012e34       ___scrt_ucrt_dll_is_in_use 00479e34     <common>
 0003:00012e38       ___use_sse2_mathfcns       00479e38     <common>
 0003:00012e3c       __pmatherr                 00479e3c     <common>

 entry point at        0001:0002a9cb

 Static symbols

 0000:fff81000       .debug$S                   00400000     advapi32:ADVAPI32.dll
 0000:fff81000       .debug$S                   00400000     advapi32:ADVAPI32.dll
 0000:fff81000       .debug$S                   00400000     advapi32:ADVAPI32.dll
 0000:fff81000       .debug$S                   00400000     advapi32:ADVAPI32.dll
 0000:fff81000       .debug$S                   00400000     advapi32:ADVAPI32.dll
 0000:fff81000       .debug$S                   00400000     advapi32:ADVAPI32.dll
 0000:fff81000       .debug$S                   00400000     advapi32:ADVAPI32.dll
 0000:fff81000       .debug$S                   00400000     advapi32:ADVAPI32.dll
 0000:fff81000       .debug$S                   00400000     advapi32:ADVAPI32.dll
 0000:fff81000       .debug$S                   00400000     advapi32:ADVAPI32.dll
 0000:fff81000       .debug$S                   00400000     advapi32:ADVAPI32.dll
 0000:fff81000       .debug$S                   00400000     advapi32:ADVAPI32.dll
 0000:fff81000       .debug$S                   00400000     advapi32:ADVAPI32.dll
 0000:fff81000       .debug$S                   00400000     advapi32:ADVAPI32.dll
 0000:fff81000       .debug$S                   00400000     advapi32:ADVAPI32.dll
 0000:fff81000       .debug$S                   00400000     advapi32:ADVAPI32.dll
 0000:fff81000       .debug$S                   00400000     advapi32:ADVAPI32.dll
 0000:fff81000       .debug$S                   00400000     advapi32:ADVAPI32.dll
 0000:fff81000       .debug$S                   00400000     kernel32:KERNEL32.dll
 0000:fff81000       .debug$S                   00400000     kernel32:KERNEL32.dll
 0000:fff81000       .debug$S                   00400000     kernel32:KERNEL32.dll
 0000:fff81000       .debug$S                   00400000     kernel32:KERNEL32.dll
 0000:fff81000       .debug$S                   00400000     kernel32:KERNEL32.dll
 0000:fff81000       .debug$S                   00400000     kernel32:KERNEL32.dll
 0000:fff81000       .debug$S                   00400000     kernel32:KERNEL32.dll
 0000:fff81000       .debug$S                   00400000     kernel32:KERNEL32.dll
 0000:fff81000       .debug$S                   00400000     kernel32:KERNEL32.dll
 0000:fff81000       .debug$S                   00400000     kernel32:KERNEL32.dll
 0000:fff81000       .debug$S                   00400000     kernel32:KERNEL32.dll
 0000:fff81000       .debug$S                   00400000     kernel32:KERNEL32.dll
 0000:fff81000       .debug$S                   00400000     kernel32:KERNEL32.dll
 0000:fff81000       .debug$S                   00400000     kernel32:KERNEL32.dll
 0000:fff81000       .debug$S                   00400000     kernel32:KERNEL32.dll
 0000:fff81000       .debug$S                   00400000     kernel32:KERNEL32.dll
 0000:fff81000       .debug$S                   00400000     kernel32:KERNEL32.dll
 0000:fff81000       .debug$S                   00400000     kernel32:KERNEL32.dll
 0000:fff81000       .debug$S                   00400000     kernel32:KERNEL32.dll
 0000:fff81000       .debug$S                   00400000     kernel32:KERNEL32.dll
 0000:fff81000       .debug$S                   00400000     kernel32:KERNEL32.dll
 0000:fff81000       .debug$S                   00400000     kernel32:KERNEL32.dll
 0000:fff81000       .debug$S                   00400000     kernel32:KERNEL32.dll
 0000:fff81000       .debug$S                   00400000     kernel32:KERNEL32.dll
 0000:fff81000       .debug$S                   00400000     kernel32:KERNEL32.dll
 0000:fff81000       .debug$S                   00400000     kernel32:KERNEL32.dll
 0000:fff81000       .debug$S                   00400000     kernel32:KERNEL32.dll
 0000:fff81000       .debug$S                   00400000     kernel32:KERNEL32.dll
 0000:fff81000       .debug$S                   00400000     kernel32:KERNEL32.dll
 0000:fff81000       .debug$S                   00400000     kernel32:KERNEL32.dll
 0000:fff81000       .debug$S                   00400000     kernel32:KERNEL32.dll
 0000:fff81000       .debug$S                   00400000     kernel32:KERNEL32.dll
 0000:fff81000       .debug$S                   00400000     kernel32:KERNEL32.dll
 0000:fff81000       .debug$S                   00400000     kernel32:KERNEL32.dll
 0000:fff81000       .debug$S                   00400000     kernel32:KERNEL32.dll
 0000:fff81000       .debug$S                   00400000     kernel32:KERNEL32.dll
 0000:fff81000       .debug$S                   00400000     kernel32:KERNEL32.dll
 0000:fff81000       .debug$S                   00400000     kernel32:KERNEL32.dll
 0000:fff81000       .debug$S                   00400000     kernel32:KERNEL32.dll
 0000:fff81000       .debug$S                   00400000     kernel32:KERNEL32.dll
 0000:fff81000       .debug$S                   00400000     kernel32:KERNEL32.dll
 0000:fff81000       .debug$S                   00400000     kernel32:KERNEL32.dll
 0000:fff81000       .debug$S                   00400000     kernel32:KERNEL32.dll
 0000:fff81000       .debug$S                   00400000     kernel32:KERNEL32.dll
 0000:fff81000       .debug$S                   00400000     kernel32:KERNEL32.dll
 0000:fff81000       .debug$S                   00400000     kernel32:KERNEL32.dll
 0000:fff81000       .debug$S                   00400000     kernel32:KERNEL32.dll
 0000:fff81000       .debug$S                   00400000     kernel32:KERNEL32.dll
 0000:fff81000       .debug$S                   00400000     kernel32:KERNEL32.dll
 0000:fff81000       .debug$S                   00400000     kernel32:KERNEL32.dll
 0000:fff81000       .debug$S                   00400000     kernel32:KERNEL32.dll
 0000:fff81000       .debug$S                   00400000     kernel32:KERNEL32.dll
 0000:fff81000       .debug$S                   00400000     kernel32:KERNEL32.dll
 0000:fff81000       .debug$S                   00400000     kernel32:KERNEL32.dll
 0000:fff81000       .debug$S                   00400000     kernel32:KERNEL32.dll
 0000:fff81000       .debug$S                   00400000     kernel32:KERNEL32.dll
 0000:fff81000       .debug$S                   00400000     kernel32:KERNEL32.dll
 0000:fff81000       .debug$S                   00400000     kernel32:KERNEL32.dll
 0000:fff81000       .debug$S                   00400000     kernel32:KERNEL32.dll
 0000:fff81000       .debug$S                   00400000     kernel32:KERNEL32.dll
 0000:fff81000       .debug$S                   00400000     kernel32:KERNEL32.dll
 0000:fff81000       .debug$S                   00400000     kernel32:KERNEL32.dll
 0000:fff81000       .debug$S                   00400000     kernel32:KERNEL32.dll
 0000:fff81000       .debug$S                   00400000     kernel32:KERNEL32.dll
 0000:fff81000       .debug$S                   00400000     kernel32:KERNEL32.dll
 0000:fff81000       .debug$S                   00400000     kernel32:KERNEL32.dll
 0000:fff81000       .debug$S                   00400000     kernel32:KERNEL32.dll
 0000:fff81000       .debug$S                   00400000     kernel32:KERNEL32.dll
 0000:fff81000       .debug$S                   00400000     kernel32:KERNEL32.dll
 0000:fff81000       .debug$S                   00400000     kernel32:KERNEL32.dll
 0000:fff81000       .debug$S                   00400000     kernel32:KERNEL32.dll
 0000:fff81000       .debug$S                   00400000     kernel32:KERNEL32.dll
 0000:fff81000       .debug$S                   00400000     kernel32:KERNEL32.dll
 0000:fff81000       .debug$S                   00400000     kernel32:KERNEL32.dll
 0000:fff81000       .debug$S                   00400000     kernel32:KERNEL32.dll
 0000:fff81000       .debug$S                   00400000     kernel32:KERNEL32.dll
 0000:fff81000       .debug$S                   00400000     kernel32:KERNEL32.dll
 0000:fff81000       .debug$S                   00400000     kernel32:KERNEL32.dll
 0000:fff81000       .debug$S                   00400000     kernel32:KERNEL32.dll
 0000:fff81000       .debug$S                   00400000     kernel32:KERNEL32.dll
 0000:fff81000       .debug$S                   00400000     kernel32:KERNEL32.dll
 0000:fff81000       .debug$S                   00400000     kernel32:KERNEL32.dll
 0000:fff81000       .debug$S                   00400000     kernel32:KERNEL32.dll
 0000:fff81000       .debug$S                   00400000     kernel32:KERNEL32.dll
 0000:fff81000       .debug$S                   00400000     kernel32:KERNEL32.dll
 0000:fff81000       .debug$S                   00400000     kernel32:KERNEL32.dll
 0000:fff81000       .debug$S                   00400000     kernel32:KERNEL32.dll
 0000:fff81000       .debug$S                   00400000     kernel32:KERNEL32.dll
 0000:fff81000       .debug$S                   00400000     kernel32:KERNEL32.dll
 0000:fff81000       .debug$S                   00400000     kernel32:KERNEL32.dll
 0000:fff81000       .debug$S                   00400000     kernel32:KERNEL32.dll
 0000:fff81000       .debug$S                   00400000     kernel32:KERNEL32.dll
 0000:fff81000       .debug$S                   00400000     kernel32:KERNEL32.dll
 0000:fff81000       .debug$S                   00400000     kernel32:KERNEL32.dll
 0000:fff81000       .debug$S                   00400000     kernel32:KERNEL32.dll
 0000:fff81000       .debug$S                   00400000     kernel32:KERNEL32.dll
 0000:fff81000       .debug$S                   00400000     kernel32:KERNEL32.dll
 0000:fff81000       .debug$S                   00400000     kernel32:KERNEL32.dll
 0000:fff81000       .debug$S                   00400000     kernel32:KERNEL32.dll
 0000:fff81000       .debug$S                   00400000     kernel32:KERNEL32.dll
 0000:fff81000       .debug$S                   00400000     kernel32:KERNEL32.dll
 0000:fff81000       .debug$S                   00400000     kernel32:KERNEL32.dll
 0000:fff81000       .debug$S                   00400000     kernel32:KERNEL32.dll
 0000:fff81000       .debug$S                   00400000     kernel32:KERNEL32.dll
 0000:fff81000       .debug$S                   00400000     kernel32:KERNEL32.dll
 0000:fff81000       .debug$S                   00400000     kernel32:KERNEL32.dll
 0000:fff81000       .debug$S                   00400000     kernel32:KERNEL32.dll
 0000:fff81000       .debug$S                   00400000     kernel32:KERNEL32.dll
 0000:fff81000       .debug$S                   00400000     kernel32:KERNEL32.dll
 0000:fff81000       .debug$S                   00400000     kernel32:KERNEL32.dll
 0000:fff81000       .debug$S                   00400000     kernel32:KERNEL32.dll
 0000:fff81000       .debug$S                   00400000     kernel32:KERNEL32.dll
 0000:fff81000       .debug$S                   00400000     kernel32:KERNEL32.dll
 0000:fff81000       .debug$S                   00400000     kernel32:KERNEL32.dll
 0000:fff81000       .debug$S                   00400000     kernel32:KERNEL32.dll
 0000:fff81000       .debug$S                   00400000     kernel32:KERNEL32.dll
 0000:fff81000       .debug$S                   00400000     kernel32:KERNEL32.dll
 0000:fff81000       .debug$S                   00400000     kernel32:KERNEL32.dll
 0000:fff81000       .debug$S                   00400000     kernel32:KERNEL32.dll
 0000:fff81000       .debug$S                   00400000     kernel32:KERNEL32.dll
 0000:fff81000       .debug$S                   00400000     kernel32:KERNEL32.dll
 0000:fff81000       .debug$S                   00400000     kernel32:KERNEL32.dll
 0000:fff81000       .debug$S                   00400000     kernel32:KERNEL32.dll
 0000:fff81000       .debug$S                   00400000     kernel32:KERNEL32.dll
 0000:fff81000       .debug$S                   00400000     mswsock:MSWSOCK.dll
 0000:fff81000       .debug$S                   00400000     odbc32:ODBC32.dll
 0000:fff81000       .debug$S                   00400000     odbc32:ODBC32.dll
 0000:fff81000       .debug$S                   00400000     odbc32:ODBC32.dll
 0000:fff81000       .debug$S                   00400000     odbc32:ODBC32.dll
 0000:fff81000       .debug$S                   00400000     odbc32:ODBC32.dll
 0000:fff81000       .debug$S                   00400000     odbc32:ODBC32.dll
 0000:fff81000       .debug$S                   00400000     odbc32:ODBC32.dll
 0000:fff81000       .debug$S                   00400000     odbc32:ODBC32.dll
 0000:fff81000       .debug$S                   00400000     odbc32:ODBC32.dll
 0000:fff81000       .debug$S                   00400000     odbc32:ODBC32.dll
 0000:fff81000       .debug$S                   00400000     odbc32:ODBC32.dll
 0000:fff81000       .debug$S                   00400000     odbc32:ODBC32.dll
 0000:fff81000       .debug$S                   00400000     odbc32:ODBC32.dll
 0000:fff81000       .debug$S                   00400000     ole32:ole32.dll
 0000:fff81000       .debug$S                   00400000     ole32:ole32.dll
 0000:fff81000       .debug$S                   00400000     ole32:ole32.dll
 0000:fff81000       .debug$S                   00400000     pdh:pdh.dll
 0000:fff81000       .debug$S                   00400000     pdh:pdh.dll
 0000:fff81000       .debug$S                   00400000     pdh:pdh.dll
 0000:fff81000       .debug$S                   00400000     pdh:pdh.dll
 0000:fff81000       .debug$S                   00400000     pdh:pdh.dll
 0000:fff81000       .debug$S                   00400000     pdh:pdh.dll
 0000:fff81000       .debug$S                   00400000     user32:USER32.dll
 0000:fff81000       .debug$S                   00400000     user32:USER32.dll
 0000:fff81000       .debug$S                   00400000     ws2_32:WS2_32.dll
 0000:fff81000       .debug$S                   00400000     ws2_32:WS2_32.dll
 0000:fff81000       .debug$S                   00400000     ws2_32:WS2_32.dll
 0000:fff81000       .debug$S                   00400000     ws2_32:WS2_32.dll
 0000:fff81000       .debug$S                   00400000     ws2_32:WS2_32.dll
 0000:fff81000       .debug$S                   00400000     ws2_32:WS2_32.dll
 0000:fff81000       .debug$S                   00400000     ws2_32:WS2_32.dll
 0000:fff81000       .debug$S                   00400000     ws2_32:WS2_32.dll
 0000:fff81000       .debug$S                   00400000     ws2_32:WS2_32.dll
 0000:fff81000       .debug$S                   00400000     ws2_32:WS2_32.dll
 0000:fff81000       .debug$S                   00400000     ws2_32:WS2_32.dll
 0000:fff81000       .debug$S                   00400000     ws2_32:WS2_32.dll
 0000:fff81000       .debug$S                   00400000     ws2_32:WS2_32.dll
 0000:fff81000       .debug$S                   00400000     ws2_32:WS2_32.dll
 0000:fff81000       .debug$S                   00400000     ws2_32:WS2_32.dll
 0000:fff81000       .debug$S                   00400000     ws2_32:WS2_32.dll
 0000:fff81000       .debug$S                   00400000     ws2_32:WS2_32.dll
 0000:fff81000       .debug$S                   00400000     ws2_32:WS2_32.dll
 0000:fff81000       .debug$S                   00400000     ws2_32:WS2_32.dll
 0001:00000000       ??__E?isInitialized@CAtlStringMgr@ATL@@0_NA@@YAXXZ 00401000 f   DebugSocket.obj
 0001:00000020       ??__EInitializeCAtlStringMgr@ATLImplementationDetails@ATL@@YAXXZ 00401020 f   DebugSocket.obj
 0001:00000030       ??__EMapServiceVector@@YAXXZ 00401030 f   TControlSvr.obj
 0001:00000040       ??__E_AtlModule@@YAXXZ     00401040 f   TControlSvr.obj
 0001:00000060       ??__Eg_strErrorMsg@@YAXXZ  00401060 f   TMiniDump.obj
 0001:00000090       ??__Eg_strUserData@@YAXXZ  00401090 f   TMiniDump.obj
 0001:000000c0       ??__EtheTMiniDump@@YAXXZ   004010c0 f   TMiniDump.obj
 0001:000000e0       ??__Eg_strSecretKey@@YAXXZ 004010e0 f   TNetLib:Session.obj
 0001:00000170       ??__E_AtlBaseModule@ATL@@YAXXZ 00401170 f   atls:atlbase.obj
 0001:00000186       ??__Einitlocks@std@@YAXXZ  00401186 f   libcpmt:xlock.obj
 0001:0000019c       ??__Eclassic_locale@std@@YAXXZ 0040119c f   libcpmt:locale0.obj
 0001:000001a8       ??__F_Fac_tidy_reg@std@@YAXXZ 004011a8 f   libcpmt:locale0.obj
 0001:000001b4       ??__Ecin@std@@YAXXZ        004011b4 f   libcpmt:cin.obj
 0001:000001d3       ??__Efin@std@@YAXXZ        004011d3 f   libcpmt:cin.obj
 0001:0000020d       ??__Einit_cin@std@@YAXXZ   0040120d f   libcpmt:cin.obj
 0001:0000022b       ??__Einitlocks@@YAXXZ      0040122b f   libcpmt:cin.obj
 0001:00000241       ??__Ecout@std@@YAXXZ       00401241 f   libcpmt:cout.obj
 0001:00000260       ??__Efout@std@@YAXXZ       00401260 f   libcpmt:cout.obj
 0001:0000029a       ??__Einit_cout@std@@YAXXZ  0040129a f   libcpmt:cout.obj
 0001:000002a4       ??__Einitlocks@@YAXXZ      004012a4 f   libcpmt:cout.obj
 0001:000002ba       ??__Einitlocks@std@@YAXXZ  004012ba f   libcpmt:iosptrs.obj
 0001:000002d0       ??__Finit_atexit@@YAXXZ    004012d0 f   libcpmt:iosptrs.obj
 0001:000035c0       _no_op_initialize          004045c0 f i libucrt:wsetlocale.obj
 0001:00003f80       _initialize_environment    00404f80 f i libucrt:initialization.obj
 0001:00003f80       _initialize_global_state_isolation 00404f80 f i libucrt:initialization.obj
 0001:00003f80       _report_memory_leaks       00404f80 f i libucrt:initialization.obj
 0001:00003f80       _uninitialize_c            00404f80 f i libucrt:initialization.obj
 0001:00003f80       _uninitialize_global_state_isolation 00404f80 f i libucrt:initialization.obj
 0001:00004867       __catch$?flush@?$basic_ostream@DU?$char_traits@D@std@@@std@@QAEAAV12@XZ$0 00405867 f i TServerSystem:TServerSystem.obj
 0001:0000497b       __catch$?_Osfx@?$basic_ostream@DU?$char_traits@D@std@@@std@@QAEXXZ$0 0040597b f i TServerSystem:TServerSystem.obj
 0001:000050db       __catch$??$?6U?$char_traits@D@std@@@std@@YAAAV?$basic_ostream@DU?$char_traits@D@std@@@0@AAV10@PBD@Z$0 004060db f i TServerSystem:TServerSystem.obj
 0001:00005aeb       __catch$?put@?$basic_ostream@DU?$char_traits@D@std@@@std@@QAEAAV12@D@Z$0 00406aeb f i TServerSystem:TServerSystem.obj
 0001:000060a8       __catch$??$_Insert_string@DU?$char_traits@D@std@@I@std@@YAAAV?$basic_ostream@DU?$char_traits@D@std@@@0@AAV10@QBDI@Z$0 004070a8 f i TServerSystem:TServerSystem.obj
 0001:00006361       __catch$??$_Emplace_reallocate@ABV?$basic_string@DU?$char_traits@D@std@@V?$allocator@D@2@@std@@@?$vector@V?$basic_string@DU?$char_traits@D@std@@V?$allocator@D@2@@std@@V?$allocator@V?$basic_string@DU?$char_traits@D@std@@V?$allocator@D@2@@std@@@2@@std@@AAEPAV?$basic_string@DU?$char_traits@D@std@@V?$allocator@D@2@@1@QAV21@ABV21@@Z$0 00407361 f i TServerSystem:TServerSystem.obj
 0001:0000656b       __catch$??$_Emplace_reallocate@ABV?$vector@V?$basic_string@DU?$char_traits@D@std@@V?$allocator@D@2@@std@@V?$allocator@V?$basic_string@DU?$char_traits@D@std@@V?$allocator@D@2@@std@@@2@@std@@@?$vector@V?$vector@V?$basic_string@DU?$char_traits@D@std@@V?$allocator@D@2@@std@@V?$allocator@V?$basic_string@DU?$char_traits@D@std@@V?$allocator@D@2@@std@@@2@@std@@V?$allocator@V?$vector@V?$basic_string@DU?$char_traits@D@std@@V?$allocator@D@2@@std@@V?$allocator@V?$basic_string@DU?$char_traits@D@std@@V?$allocator@D@2@@std@@@2@@std@@@2@@std@@AAEPAV?$vector@V?$basic_string@DU?$char_traits@D@std@@V?$allocator@D@2@@std@@V?$allocator@V?$basic_string@DU?$char_traits@D@std@@V?$allocator@D@2@@std@@@2@@1@QAV21@ABV21@@Z$0 0040756b f i TServerSystem:TServerSystem.obj
 0001:00007d26       __catch$??$_Copy_nodes@$0A@@?$_Tree@V?$_Tmap_traits@UEntry@?$CSimpleIniTempl@DU?$SI_NoCase@D@@V?$SI_ConvertA@D@@@@PBDUKeyOrder@12@V?$allocator@U?$pair@$$CBUEntry@?$CSimpleIniTempl@DU?$SI_NoCase@D@@V?$SI_ConvertA@D@@@@PBD@std@@@std@@$00@std@@@std@@IAEPAU?$_Tree_node@U?$pair@$$CBUEntry@?$CSimpleIniTempl@DU?$SI_NoCase@D@@V?$SI_ConvertA@D@@@@PBD@std@@PAX@1@PAU21@0@Z$0 00408d26 f i TServerSystem:TServerSystem.obj
 0001:0000ae90       __catch$??$_Emplace_reallocate@ABUtagPATCHFILE@@@?$vector@UtagPATCHFILE@@V?$allocator@UtagPATCHFILE@@@std@@@std@@AAEPAUtagPATCHFILE@@QAU2@ABU2@@Z$0 0040be90 f i Handler.obj
 0001:0000b0e6       __catch$??$_Emplace_reallocate@ABUtagTCASHITEM@@@?$vector@UtagTCASHITEM@@V?$allocator@UtagTCASHITEM@@@std@@@std@@AAEPAUtagTCASHITEM@@QAU2@ABU2@@Z$0 0040c0e6 f i Handler.obj
 0001:0001518d       __catch$??$?5DU?$char_traits@D@std@@V?$allocator@D@1@@std@@YAAAV?$basic_istream@DU?$char_traits@D@std@@@0@AAV10@AAV?$basic_string@DU?$char_traits@D@std@@V?$allocator@D@2@@0@@Z$0 0041618d f i TControlSvr.obj
 0001:000153f9       __catch$??$_Common_extract_with_num_get@J@?$basic_istream@DU?$char_traits@D@std@@@std@@AAEAAV01@AAJ@Z$0 004163f9 f i TControlSvr.obj
 0001:00015899       __catch$??$_Emplace_reallocate@V?$CStringT@DV?$StrTraitATL@DV?$ChTraitsCRT@D@ATL@@@ATL@@@ATL@@@?$vector@V?$CStringT@DV?$StrTraitATL@DV?$ChTraitsCRT@D@ATL@@@ATL@@@ATL@@V?$allocator@V?$CStringT@DV?$StrTraitATL@DV?$ChTraitsCRT@D@ATL@@@ATL@@@ATL@@@std@@@std@@AAEPAV?$CStringT@DV?$StrTraitATL@DV?$ChTraitsCRT@D@ATL@@@ATL@@@ATL@@QAV23@$$QAV23@@Z$0 00416899 f i TControlSvr.obj
 0001:00015f1b       __catch$??$getline@DU?$char_traits@D@std@@V?$allocator@D@2@@std@@YAAAV?$basic_istream@DU?$char_traits@D@std@@@0@$$QAV10@AAV?$basic_string@DU?$char_traits@D@std@@V?$allocator@D@2@@0@D@Z$0 00416f1b f i TControlSvr.obj
 0001:00017d94       $LN437                     00418d94     TControlSvr.obj
 0001:0001a600       $LN612                     0041b600     TControlSvr.obj
 0001:0001a618       $LN611                     0041b618     TControlSvr.obj
 0001:0001b52c       $LN72                      0041c52c     TControlSvr.obj
 0001:0001b62c       $LN71                      0041c62c     TControlSvr.obj
 0001:0001cbc0       $LN1590                    0041dbc0     TControlSvr.obj
 0001:0002137d       __catch$?_Ipfx@?$basic_istream@DU?$char_traits@D@std@@@std@@QAE_N_N@Z$0 0042237d f i TControlSvr.obj
 0001:00023d14       $LN363                     00424d14     TMiniDump.obj
 0001:00023d24       $LN365                     00424d24     TMiniDump.obj
 0001:00023d6c       $LN364                     00424d6c     TMiniDump.obj
 0001:0002947f       _tidy_global               0042a47f f   libcpmt:locale0.obj
 0001:0002a17d       ?find_pe_section@@YAPAU_IMAGE_SECTION_HEADER@@QAEI@Z 0042b17d f   LIBCMT:utility.obj
 0001:0002a3ce       ?__scrt_initialize_thread_safe_statics@@YAHXZ 0042b3ce f   LIBCMT:thread_safe_statics.obj
 0001:0002a3f5       ?__scrt_initialize_thread_safe_statics_platform_specific@@YAXXZ 0042b3f5 f   LIBCMT:thread_safe_statics.obj
 0001:0002a477       ?__scrt_uninitialize_thread_safe_statics@@YAXXZ 0042b477 f   LIBCMT:thread_safe_statics.obj
 0001:0002a750       $$000000                   0042b750     LIBCMT:llmul.obj
 0001:0002a769       hard                       0042b769     LIBCMT:llmul.obj
 0001:0002a784       ?pre_c_initialization@@YAHXZ 0042b784 f   LIBCMT:exe_main.obj
 0001:0002a82f       ?post_pgo_initialization@@YAHXZ 0042b82f f   LIBCMT:exe_main.obj
 0001:0002a837       ?pre_cpp_initialization@@YAXXZ 0042b837 f   LIBCMT:exe_main.obj
 0001:0002a849       ?__scrt_common_main_seh@@YAHXZ 0042b849 f   LIBCMT:exe_main.obj
 0001:0002abe0       $$000000                   0042bbe0     LIBCMT:chkstk.obj
 0001:0002abf4       cs10                       0042bbf4     LIBCMT:chkstk.obj
 0001:0002ac02       cs20                       0042bc02     LIBCMT:chkstk.obj
 0001:0002aeb0       $$000000                   0042beb0     LIBCMT:ulldiv.obj
 0001:0002aed2       L1                         0042bed2     LIBCMT:ulldiv.obj
 0001:0002aee0       L3                         0042bee0     LIBCMT:ulldiv.obj
 0001:0002af0e       L4                         0042bf0e     LIBCMT:ulldiv.obj
 0001:0002af0f       L5                         0042bf0f     LIBCMT:ulldiv.obj
 0001:0002af13       L2                         0042bf13     LIBCMT:ulldiv.obj
 0001:0002af20       $$000000                   0042bf20     LIBCMT:alloca16.obj
 0001:0002af36       alloca_8                   0042bf36     LIBCMT:alloca16.obj
 0001:0002b130       $$000000                   0042c130     LIBCMT:sehprolg4.obj
 0001:0002b175       ___get_entropy             0042c175 f   LIBCMT:gs_support.obj
 0001:0002b780       $$000000                   0042c780     libvcruntime:memcpy.obj
 0001:0002b780       $$000000                   0042c780     libvcruntime:memmove.obj
 0001:0002b7a0       CopyUp                     0042c7a0     libvcruntime:memcpy.obj
 0001:0002b7a0       CopyUp                     0042c7a0     libvcruntime:memmove.obj
 0001:0002b7c4       CopyUpLargeMov             0042c7c4     libvcruntime:memcpy.obj
 0001:0002b7c4       CopyUpLargeMov             0042c7c4     libvcruntime:memmove.obj
 0001:0002b7d7       CopyUpSSE2Check            0042c7d7     libvcruntime:memcpy.obj
 0001:0002b7d7       CopyUpSSE2Check            0042c7d7     libvcruntime:memmove.obj
 0001:0002b7f0       AtomChk                    0042c7f0     libvcruntime:memcpy.obj
 0001:0002b7f0       AtomChk                    0042c7f0     libvcruntime:memmove.obj
 0001:0002b816       PalignHead4                0042c816     libvcruntime:memcpy.obj
 0001:0002b816       PalignHead4                0042c816     libvcruntime:memmove.obj
 0001:0002b829       PalignHead8                0042c829     libvcruntime:memcpy.obj
 0001:0002b829       PalignHead8                0042c829     libvcruntime:memmove.obj
 0001:0002b840       PalignLoop                 0042c840     libvcruntime:memcpy.obj
 0001:0002b840       PalignLoop                 0042c840     libvcruntime:memmove.obj
 0001:0002b852       MovPalign12                0042c852     libvcruntime:memcpy.obj
 0001:0002b852       MovPalign12                0042c852     libvcruntime:memmove.obj
 0001:0002b85c       PalignLoop12               0042c85c     libvcruntime:memcpy.obj
 0001:0002b85c       PalignLoop12               0042c85c     libvcruntime:memmove.obj
 0001:0002b8ad       MovPalign8                 0042c8ad     libvcruntime:memcpy.obj
 0001:0002b8ad       MovPalign8                 0042c8ad     libvcruntime:memmove.obj
 0001:0002b8b8       PalignLoop8                0042c8b8     libvcruntime:memcpy.obj
 0001:0002b8b8       PalignLoop8                0042c8b8     libvcruntime:memmove.obj
 0001:0002b906       MovPalign4                 0042c906     libvcruntime:memcpy.obj
 0001:0002b906       MovPalign4                 0042c906     libvcruntime:memmove.obj
 0001:0002b910       PalignLoop4                0042c910     libvcruntime:memcpy.obj
 0001:0002b910       PalignLoop4                0042c910     libvcruntime:memmove.obj
 0001:0002b95c       PalignTail                 0042c95c     libvcruntime:memcpy.obj
 0001:0002b95c       PalignTail                 0042c95c     libvcruntime:memmove.obj
 0001:0002b974       PalignTail4                0042c974     libvcruntime:memcpy.obj
 0001:0002b974       PalignTail4                0042c974     libvcruntime:memmove.obj
 0001:0002b987       PalignTail8                0042c987     libvcruntime:memcpy.obj
 0001:0002b987       PalignTail8                0042c987     libvcruntime:memmove.obj
 0001:0002b99e       PalignTailLE3              0042c99e     libvcruntime:memcpy.obj
 0001:0002b99e       PalignTailLE3              0042c99e     libvcruntime:memmove.obj
 0001:0002b9a7       Dword_align                0042c9a7     libvcruntime:memcpy.obj
 0001:0002b9a7       Dword_align                0042c9a7     libvcruntime:memmove.obj
 0001:0002b9af       Dword_up_align_loop        0042c9af     libvcruntime:memcpy.obj
 0001:0002b9af       Dword_up_align_loop        0042c9af     libvcruntime:memmove.obj
 0001:0002b9c2       Dword_align_Ok             0042c9c2     libvcruntime:memcpy.obj
 0001:0002b9c2       Dword_align_Ok             0042c9c2     libvcruntime:memmove.obj
 0001:0002b9dc       ByteCopyUp                 0042c9dc     libvcruntime:memcpy.obj
 0001:0002b9dc       ByteCopyUp                 0042c9dc     libvcruntime:memmove.obj
 0001:0002b9e4       TrailingUpVec              0042c9e4     libvcruntime:memcpy.obj
 0001:0002b9e4       TrailingUpVec              0042c9e4     libvcruntime:memmove.obj
 0001:0002b9f4       TrailingUp0                0042c9f4     libvcruntime:memcpy.obj
 0001:0002b9f4       TrailingUp0                0042c9f4     libvcruntime:memmove.obj
 0001:0002b9fc       TrailingUp1                0042c9fc     libvcruntime:memcpy.obj
 0001:0002b9fc       TrailingUp1                0042c9fc     libvcruntime:memmove.obj
 0001:0002ba08       TrailingUp2                0042ca08     libvcruntime:memcpy.obj
 0001:0002ba08       TrailingUp2                0042ca08     libvcruntime:memmove.obj
 0001:0002ba1c       TrailingUp3                0042ca1c     libvcruntime:memcpy.obj
 0001:0002ba1c       TrailingUp3                0042ca1c     libvcruntime:memmove.obj
 0001:0002ba34       CopyDown                   0042ca34     libvcruntime:memcpy.obj
 0001:0002ba34       CopyDown                   0042ca34     libvcruntime:memmove.obj
 0001:0002ba59       CopyDownNotAligned         0042ca59     libvcruntime:memcpy.obj
 0001:0002ba59       CopyDownNotAligned         0042ca59     libvcruntime:memmove.obj
 0001:0002ba60       CopyDownAlignLoop          0042ca60     libvcruntime:memcpy.obj
 0001:0002ba60       CopyDownAlignLoop          0042ca60     libvcruntime:memmove.obj
 0001:0002ba6d       CopyDownAligned            0042ca6d     libvcruntime:memcpy.obj
 0001:0002ba6d       CopyDownAligned            0042ca6d     libvcruntime:memmove.obj
 0001:0002ba90       TrailingDownVec            0042ca90     libvcruntime:memcpy.obj
 0001:0002ba90       TrailingDownVec            0042ca90     libvcruntime:memmove.obj
 0001:0002baa0       TrailingDown0              0042caa0     libvcruntime:memcpy.obj
 0001:0002baa0       TrailingDown0              0042caa0     libvcruntime:memmove.obj
 0001:0002baa8       TrailingDown1              0042caa8     libvcruntime:memcpy.obj
 0001:0002baa8       TrailingDown1              0042caa8     libvcruntime:memmove.obj
 0001:0002bab8       TrailingDown2              0042cab8     libvcruntime:memcpy.obj
 0001:0002bab8       TrailingDown2              0042cab8     libvcruntime:memmove.obj
 0001:0002bacc       TrailingDown3              0042cacc     libvcruntime:memcpy.obj
 0001:0002bacc       TrailingDown3              0042cacc     libvcruntime:memmove.obj
 0001:0002bae5       XmmMovLargeAlignTest       0042cae5     libvcruntime:memcpy.obj
 0001:0002bae5       XmmMovLargeAlignTest       0042cae5     libvcruntime:memmove.obj
 0001:0002baed       XmmMovAlignLoop            0042caed     libvcruntime:memcpy.obj
 0001:0002baed       XmmMovAlignLoop            0042caed     libvcruntime:memmove.obj
 0001:0002bafc       XmmMovLargeLoop            0042cafc     libvcruntime:memcpy.obj
 0001:0002bafc       XmmMovLargeLoop            0042cafc     libvcruntime:memmove.obj
 0001:0002bb6c       XmmMovSmallTest            0042cb6c     libvcruntime:memcpy.obj
 0001:0002bb6c       XmmMovSmallTest            0042cb6c     libvcruntime:memmove.obj
 0001:0002bb71       XmmMovSmallLoop            0042cb71     libvcruntime:memcpy.obj
 0001:0002bb71       XmmMovSmallLoop            0042cb71     libvcruntime:memmove.obj
 0001:0002bb94       CopyDownSmall              0042cb94     libvcruntime:memcpy.obj
 0001:0002bb94       CopyDownSmall              0042cb94     libvcruntime:memmove.obj
 0001:0002bb9c       CopyDownDwordLoop          0042cb9c     libvcruntime:memcpy.obj
 0001:0002bb9c       CopyDownDwordLoop          0042cb9c     libvcruntime:memmove.obj
 0001:0002bbb1       CopyDownByteTest           0042cbb1     libvcruntime:memcpy.obj
 0001:0002bbb1       CopyDownByteTest           0042cbb1     libvcruntime:memmove.obj
 0001:0002bbb5       CopyDownByteLoop           0042cbb5     libvcruntime:memcpy.obj
 0001:0002bbb5       CopyDownByteLoop           0042cbb5     libvcruntime:memmove.obj
 0001:0002bbc4       CopyDownReturn             0042cbc4     libvcruntime:memcpy.obj
 0001:0002bbc4       CopyDownReturn             0042cbc4     libvcruntime:memmove.obj
 0001:0002bbd0       XmmCopy                    0042cbd0     libvcruntime:memcpy.obj
 0001:0002bbd0       XmmCopy                    0042cbd0     libvcruntime:memmove.obj
 0001:0002bbdd       XmmCopyAligned             0042cbdd     libvcruntime:memcpy.obj
 0001:0002bbdd       XmmCopyAligned             0042cbdd     libvcruntime:memmove.obj
 0001:0002bbf0       XmmCopyLargeLoop           0042cbf0     libvcruntime:memcpy.obj
 0001:0002bbf0       XmmCopyLargeLoop           0042cbf0     libvcruntime:memmove.obj
 0001:0002bc4d       XmmCopySmallTest           0042cc4d     libvcruntime:memcpy.obj
 0001:0002bc4d       XmmCopySmallTest           0042cc4d     libvcruntime:memmove.obj
 0001:0002bc60       XmmCopySmallLoop           0042cc60     libvcruntime:memcpy.obj
 0001:0002bc60       XmmCopySmallLoop           0042cc60     libvcruntime:memmove.obj
 0001:0002bc7b       CopyUpDwordMov             0042cc7b     libvcruntime:memcpy.obj
 0001:0002bc7b       CopyUpDwordMov             0042cc7b     libvcruntime:memmove.obj
 0001:0002bc80       CopyUpDwordTest            0042cc80     libvcruntime:memcpy.obj
 0001:0002bc80       CopyUpDwordTest            0042cc80     libvcruntime:memmove.obj
 0001:0002bc87       CopyUpDwordLoop            0042cc87     libvcruntime:memcpy.obj
 0001:0002bc87       CopyUpDwordLoop            0042cc87     libvcruntime:memmove.obj
 0001:0002bc96       CopyUpByteTest             0042cc96     libvcruntime:memcpy.obj
 0001:0002bc96       CopyUpByteTest             0042cc96     libvcruntime:memmove.obj
 0001:0002bc9d       CopyUpByteLoop             0042cc9d     libvcruntime:memcpy.obj
 0001:0002bc9d       CopyUpByteLoop             0042cc9d     libvcruntime:memmove.obj
 0001:0002bcb0       CopyUpReturn               0042ccb0     libvcruntime:memcpy.obj
 0001:0002bcb0       CopyUpReturn               0042ccb0     libvcruntime:memmove.obj
 0001:0002bcc0       XmmCopyUnaligned           0042ccc0     libvcruntime:memcpy.obj
 0001:0002bcc0       XmmCopyUnaligned           0042ccc0     libvcruntime:memmove.obj
 0001:0002bcd3       XmmAlignByte               0042ccd3     libvcruntime:memcpy.obj
 0001:0002bcd3       XmmAlignByte               0042ccd3     libvcruntime:memmove.obj
 0001:0002bcdc       XmmAlignDwordTest          0042ccdc     libvcruntime:memcpy.obj
 0001:0002bcdc       XmmAlignDwordTest          0042ccdc     libvcruntime:memmove.obj
 0001:0002bce1       XmmAlignDwordLoop          0042cce1     libvcruntime:memcpy.obj
 0001:0002bce1       XmmAlignDwordLoop          0042cce1     libvcruntime:memmove.obj
 0001:0002bcee       XmmAlignAdjustCnt          0042ccee     libvcruntime:memcpy.obj
 0001:0002bcee       XmmAlignAdjustCnt          0042ccee     libvcruntime:memmove.obj
 0001:0002bd00       $$000000                   0042cd00     libvcruntime:memset.obj
 0001:0002bd45       XMMMov                     0042cd45     libvcruntime:memset.obj
 0001:0002bd80       LargeRangeBytes            0042cd80     libvcruntime:memset.obj
 0001:0002bdbd       XmmMovSmall                0042cdbd     libvcruntime:memset.obj
 0001:0002bdd0       XmmSmallLoop               0042cdd0     libvcruntime:memset.obj
 0001:0002bdd5       MidRangeBytes              0042cdd5     libvcruntime:memset.obj
 0001:0002bdf1       XMMTrailingBytes           0042cdf1     libvcruntime:memset.obj
 0001:0002be05       SmallMov                   0042ce05     libvcruntime:memset.obj
 0001:0002be0d       ByteLoop                   0042ce0d     libvcruntime:memset.obj
 0001:0002be1b       DwordTest                  0042ce1b     libvcruntime:memset.obj
 0001:0002be2b       QwordTest                  0042ce2b     libvcruntime:memset.obj
 0001:0002be40       QwordLoop                  0042ce40     libvcruntime:memset.obj
 0001:0002be53       toend                      0042ce53     libvcruntime:memset.obj
 0001:0002bf08       ?_FilterSetCurrentException@@YAKPAU_EXCEPTION_POINTERS@@E@Z 0042cf08 f   libvcruntime:ehhelpers.obj
 0001:0002c040       $$000000                   0042d040     libvcruntime:strrchr.obj
 0001:0002c07d       strrchr_sse_loop           0042d07d     libvcruntime:strrchr.obj
 0001:0002c0ad       strrchr_sse_break          0042d0ad     libvcruntime:strrchr.obj
 0001:0002c0cd       strrchr_sttni              0042d0cd     libvcruntime:strrchr.obj
 0001:0002c0df       strrchr_sttni_chars        0042d0df     libvcruntime:strrchr.obj
 0001:0002c0f4       strrchr_sttni_aligned      0042d0f4     libvcruntime:strrchr.obj
 0001:0002c0f8       strrchr_sttni_xmm          0042d0f8     libvcruntime:strrchr.obj
 0001:0002c10b       exit                       0042d10b     libvcruntime:strrchr.obj
 0001:0002c10e       strrchr_zero               0042d10e     libvcruntime:strrchr.obj
 0001:0002c133       strchr_zero_loop           0042d133     libvcruntime:strrchr.obj
 0001:0002c147       strchr_zero_result         0042d147     libvcruntime:strrchr.obj
 0001:0002c14e       strrchr_no_sse             0042d14e     libvcruntime:strrchr.obj
 0001:0002c171       returndi                   0042d171     libvcruntime:strrchr.obj
 0001:0002c173       toend                      0042d173     libvcruntime:strrchr.obj
 0001:0002c180       _ValidateLocalCookies      0042d180 f   libvcruntime:chandler4.obj
 0001:0002c340       $$000000                   0042d340     libvcruntime:memchr.obj
 0001:0002c35b       str_misaligned             0042d35b     libvcruntime:memchr.obj
 0001:0002c371       main_loop_start            0042d371     libvcruntime:memchr.obj
 0001:0002c387       return_from_main           0042d387     libvcruntime:memchr.obj
 0001:0002c388       tail_less_then_4           0042d388     libvcruntime:memchr.obj
 0001:0002c38d       tail_loop                  0042d38d     libvcruntime:memchr.obj
 0001:0002c39b       retnull                    0042d39b     libvcruntime:memchr.obj
 0001:0002c39d       main_loop                  0042d39d     libvcruntime:memchr.obj
 0001:0002c3a2       main_loop_entry            0042d3a2     libvcruntime:memchr.obj
 0001:0002c3bd       char_is_found              0042d3bd     libvcruntime:memchr.obj
 0001:0002c3d5       byte_3                     0042d3d5     libvcruntime:memchr.obj
 0001:0002c3d6       found                      0042d3d6     libvcruntime:memchr.obj
 0001:0002c3db       byte_2                     0042d3db     libvcruntime:memchr.obj
 0001:0002c3e1       byte_1                     0042d3e1     libvcruntime:memchr.obj
 0001:0002c3e7       byte_0                     0042d3e7     libvcruntime:memchr.obj
 0001:0002d9e9       $LN1250                    0042e9e9     libvcruntime:memcmp.obj
 0001:0002dc1c       ??$BuildCatchObjectHelperInternal@V__FrameHandler3@@@@YAHPAUEHExceptionRecord@@PAXPBU_s_HandlerType@@PBU_s_CatchableType@@@Z 0042ec1c f   libvcruntime:frame.obj
 0001:0002dd5a       ??$BuildCatchObjectInternal@V__FrameHandler3@@@@YAXPAUEHExceptionRecord@@PAXPBU_s_HandlerType@@PBU_s_CatchableType@@@Z 0042ed5a f   libvcruntime:frame.obj
 0001:0002ddf3       ??$CatchIt@V__FrameHandler3@@@@YAXPAUEHExceptionRecord@@PAUEHRegistrationNode@@PAU_CONTEXT@@PAXPBU_s_FuncInfo@@PBU_s_HandlerType@@PBU_s_CatchableType@@PBU_s_TryBlockMapEntry@@H1EE@Z 0042edf3 f   libvcruntime:frame.obj
 0001:0002de73       ??$FindHandler@V__FrameHandler3@@@@YAXPAUEHExceptionRecord@@PAUEHRegistrationNode@@PAU_CONTEXT@@PAXPBU_s_FuncInfo@@EH1@Z 0042ee73 f   libvcruntime:frame.obj
 0001:0002e218       ??$FindHandlerForForeignException@V__FrameHandler3@@@@YAXPAUEHExceptionRecord@@PAUEHRegistrationNode@@PAU_CONTEXT@@PAXPBU_s_FuncInfo@@HH1@Z 0042f218 f   libvcruntime:frame.obj
 0001:0002e539       ?CallCatchBlock@@YAPAXPAUEHExceptionRecord@@PAUEHRegistrationNode@@PAU_CONTEXT@@PBU_s_FuncInfo@@PAXHK@Z 0042f539 f   libvcruntime:frame.obj
 0001:0002e708       ?CallUnexpected@@YAXPBU_s_ESTypeList@@@Z 0042f708 f   libvcruntime:frame.obj
 0001:0002e728       __catch$?CallUnexpected@@YAXPBU_s_ESTypeList@@@Z$0 0042f728 f   libvcruntime:frame.obj
 0001:0002e747       ?ExFilterRethrow@@YAHPAU_EXCEPTION_POINTERS@@@Z 0042f747 f   libvcruntime:frame.obj
 0001:0002e891       ?IsInExceptionSpec@@YAEPAUEHExceptionRecord@@PBU_s_ESTypeList@@@Z 0042f891 f   libvcruntime:frame.obj
 0001:0002e960       $$000000                   0042f960     libvcruntime:lowhelpr.obj
 0001:0002e99f       _NLG_Continue              0042f99f     libvcruntime:lowhelpr.obj
 0001:0002e9e0       $$000000                   0042f9e0     libvcruntime:exsup4.obj
 0001:0002ea12       _lu_top                    0042fa12     libvcruntime:exsup4.obj
 0001:0002ea71       _lu_done                   0042fa71     libvcruntime:exsup4.obj
 0001:0002ea80       $$000000                   0042fa80     libvcruntime:exsup4.obj
 0001:0002ea80       __unwind_handler4          0042fa80 f   libvcruntime:exsup4.obj
 0001:0002ead0       $$000000                   0042fad0     libvcruntime:exsup4.obj
 0001:0002eaf0       $$000000                   0042faf0     libvcruntime:exsup4.obj
 0001:0002eb10       $$000000                   0042fb10     libvcruntime:exsup4.obj
 0001:0002eb25       ReturnPoint                0042fb25     libvcruntime:exsup4.obj
 0001:0002eb30       $$000000                   0042fb30     libvcruntime:exsup4.obj
 0001:0002ebb2       ?try_get_function@@YAPAXW4function_id@?A0x14174aea@@QBDQBW4module_id@2@2@Z 0042fbb2 f   libvcruntime:winapi_downlevel.obj
 0001:0002ec52       ?try_load_library_from_system_directory@@YAPAUHINSTANCE__@@QB_W@Z 0042fc52 f   libvcruntime:winapi_downlevel.obj
 0001:0002ee20       $$000000                   0042fe20     libvcruntime:exsup.obj
 0001:0002ee30       $$000000                   0042fe30     libvcruntime:exsup.obj
 0001:0002ee3b       __NLG_Go                   0042fe3b     libvcruntime:exsup.obj
 0001:0002ee50       $$000000                   0042fe50     libvcruntime:exsup.obj
 0001:0002f0ec       ??$common_vsnprintf_s@D@@YAH_KQADIIQBDQAU__crt_locale_pointers@@1@Z 004300ec f   libucrt:output.obj
 0001:0002f1eb       ??$common_vsprintf@Vformat_validation_base@__crt_stdio_output@@D@@YAH_KQADIQBDQAU__crt_locale_pointers@@1@Z 004301eb f   libucrt:output.obj
 0001:0002f369       ??$common_vsprintf@Vstandard_base@__crt_stdio_output@@D@@YAH_KQADIQBDQAU__crt_locale_pointers@@1@Z 00430369 f   libucrt:output.obj
 0001:0002f4e7       ??$common_vsprintf_s@D@@YAH_KQADIQBDQAU__crt_locale_pointers@@1@Z 004304e7 f   libucrt:output.obj
 0001:0002fb9d       $LN48                      00430b9d     libucrt:output.obj
 0001:0002fcb1       $LN50                      00430cb1     libucrt:output.obj
 0001:000301cc       $LN18                      004311cc     libucrt:output.obj
 0001:000301e0       $LN17                      004311e0     libucrt:output.obj
 0001:000308b3       ??$common_localtime_s@_J@@YAHQAUtm@@QB_J@Z 004318b3 f   libucrt:localtime.obj
 0001:00030cf9       ??$common_fsopen@D@@YAPAU_iobuf@@QBD0H@Z 00431cf9 f   libucrt:fopen.obj
 0001:000310ae       _memcpy_s                  004320ae f   libucrt:atof.obj
 0001:000310ae       _memcpy_s                  004320ae f   libucrt:cfout.obj
 0001:000310ae       _memcpy_s                  004320ae f   libucrt:mbctype.obj
 0001:000310ae       _memcpy_s                  004320ae f   libucrt:fread.obj
 0001:0003112f       ??$?RV<lambda_4ac01c32aa5b53846f05d0620572872e>@@AAV<lambda_5856287d7ecd2be6c9197bb4007c3f6e>@@V<lambda_e7a9868ed898c75c0f0637692d94351a>@@@?$__crt_seh_guarded_call@I@@QAEI$$QAV<lambda_4ac01c32aa5b53846f05d0620572872e>@@AAV<lambda_5856287d7ecd2be6c9197bb4007c3f6e>@@$$QAV<lambda_e7a9868ed898c75c0f0637692d94351a>@@@Z 0043212f f   libucrt:fwrite.obj
 0001:0003118a       ??R<lambda_5856287d7ecd2be6c9197bb4007c3f6e>@@QBEIXZ 0043218a f   libucrt:fwrite.obj
 0001:000313b1       ??$?RV<lambda_9a462f4e0ebb28b87551e12ccffee677>@@AAV<lambda_aa3754a7aa5b4d51093b5036e29efe7b>@@V<lambda_0e3764851bdc48140fe2cf5acfa0db04>@@@?$__crt_seh_guarded_call@H@@QAEH$$QAV<lambda_9a462f4e0ebb28b87551e12ccffee677>@@AAV<lambda_aa3754a7aa5b4d51093b5036e29efe7b>@@$$QAV<lambda_0e3764851bdc48140fe2cf5acfa0db04>@@@Z 004323b1 f   libucrt:puts.obj
 0001:0003140c       ??R<lambda_aa3754a7aa5b4d51093b5036e29efe7b>@@QBEHXZ 0043240c f   libucrt:puts.obj
 0001:00031612       ??$common_atof_l@D@@YANQBDQAU__crt_locale_pointers@@@Z 00432612 f   libucrt:atof.obj
 0001:00031f38       $LN32                      00432f38     libucrt:atof.obj
 0001:0003205c       $LN30                      0043305c     libucrt:atof.obj
 0001:00032084       ??R<lambda_32aa245da1b5b882fa96db788295c8b2>@@QBE_NXZ 00433084 f   libucrt:atof.obj
 0001:000351ff       ??$common_strtod_l@MD@@YAMQBDQAPADQAU__crt_locale_pointers@@@Z 004361ff f   libucrt:strtod.obj
 0001:0003528e       ??$common_strtod_l@ND@@YANQBDQAPADQAU__crt_locale_pointers@@@Z 0043628e f   libucrt:strtod.obj
 0001:00035414       ??$common_mktime@_J@@YA_JQAUtm@@_N@Z 00436414 f   libucrt:mktime.obj
 0001:00035de0       $$000000                   00436de0     libucrt:pow_sse2_precise.obj
 0001:00036cb0       ??$__acrt_convert_wcs_mbs_cp@D_WV<lambda_62f6974d9771e494a5ea317cc32e971c>@@U__crt_win32_buffer_internal_dynamic_resizing@@@@YAHQBDAAV?$__crt_win32_buffer@_WU__crt_win32_buffer_internal_dynamic_resizing@@@@ABV<lambda_62f6974d9771e494a5ea317cc32e971c>@@I@Z 00437cb0 f   libucrt:strftime.obj
 0001:00036d62       ??$__acrt_convert_wcs_mbs_cp@_WDV<lambda_0fec1a7b3f42a53036604e18c2d5e07e>@@U__crt_win32_buffer_no_resizing@@@@YAHQB_WAAV?$__crt_win32_buffer@DU__crt_win32_buffer_no_resizing@@@@ABV<lambda_0fec1a7b3f42a53036604e18c2d5e07e>@@I@Z 00437d62 f   libucrt:getmodulefilenamea.obj
 0001:00036d62       ??$__acrt_convert_wcs_mbs_cp@_WDV<lambda_0fec1a7b3f42a53036604e18c2d5e07e>@@U__crt_win32_buffer_no_resizing@@@@YAHQB_WAAV?$__crt_win32_buffer@DU__crt_win32_buffer_no_resizing@@@@ABV<lambda_0fec1a7b3f42a53036604e18c2d5e07e>@@I@Z 00437d62 f   libucrt:strftime.obj
 0001:00037032       ??$common_ftell@J@@YAJV__crt_stdio_stream@@@Z 00438032 f   libucrt:ftell.obj
 0001:000370a3       ??$common_ftell@_J@@YA_JV__crt_stdio_stream@@@Z 004380a3 f   libucrt:ftell.obj
 0001:00037123       ??$common_ftell_nolock@J@@YAJV__crt_stdio_stream@@@Z 00438123 f   libucrt:ftell.obj
 0001:0003714e       ??$common_ftell_nolock@_J@@YA_JV__crt_stdio_stream@@@Z 0043814e f   libucrt:ftell.obj
 0001:000372d2       ?common_ftell_read_mode_nolock@@YA_JV__crt_stdio_stream@@_J1@Z 004382d2 f   libucrt:ftell.obj
 0001:0003748b       ?common_ftell_translated_utf8_nolock@@YA_JV__crt_stdio_stream@@_J@Z 0043848b f   libucrt:ftell.obj
 0001:00037621       ?count_newline_bytes@@YA_JQBD0W4__crt_lowio_text_mode@@@Z 00438621 f   libucrt:ftell.obj
 0001:00037bd9       ??$?RV<lambda_2866be3712abc81a800a822484c830d8>@@AAV<lambda_39ca0ed439415581b5b15c265174cece>@@V<lambda_2b24c74d71094a6cd0cb82e44167d71b>@@@?$__crt_seh_guarded_call@X@@QAEX$$QAV<lambda_2866be3712abc81a800a822484c830d8>@@AAV<lambda_39ca0ed439415581b5b15c265174cece>@@$$QAV<lambda_2b24c74d71094a6cd0cb82e44167d71b>@@@Z 00438bd9 f   libucrt:fflush.obj
 0001:00037c65       ??$?RV<lambda_2cc53f568c5a2bb6f192f930a45d44ea>@@AAV<lambda_ab61a845afdef5b7c387490eaf3616ee>@@V<lambda_c2ffc0b7726aa6be21d5f0026187e748>@@@?$__crt_seh_guarded_call@X@@QAEX$$QAV<lambda_2cc53f568c5a2bb6f192f930a45d44ea>@@AAV<lambda_ab61a845afdef5b7c387490eaf3616ee>@@$$QAV<lambda_c2ffc0b7726aa6be21d5f0026187e748>@@@Z 00438c65 f   libucrt:fflush.obj
 0001:00037d11       ??$?RV<lambda_6d20deecaf4856105ebacbad442d1079>@@AAV<lambda_9a32fed5bf61b6b509b2d3f6003082a1>@@V<lambda_63ea2239ed67c638ddbae41947fdf875>@@@?$__crt_seh_guarded_call@H@@QAEH$$QAV<lambda_6d20deecaf4856105ebacbad442d1079>@@AAV<lambda_9a32fed5bf61b6b509b2d3f6003082a1>@@$$QAV<lambda_63ea2239ed67c638ddbae41947fdf875>@@@Z 00438d11 f   libucrt:fflush.obj
 0001:00037d71       ?common_flush_all@@YAH_N@Z 00438d71 f   libucrt:fflush.obj
 0001:00037dbe       ?common_flush_all_should_try_to_flush_stream@@YA_NV__crt_stdio_stream@@QAH@Z 00438dbe f   libucrt:fflush.obj
 0001:00037df1       ?is_stream_flushable_or_commitable@@YA_NJ@Z 00438df1 f   libucrt:fflush.obj
 0001:00037f9b       ?common_fseek@@YAHV__crt_stdio_stream@@_JH@Z 00438f9b f   libucrt:fseek.obj
 0001:00038026       ?common_fseek_binary_mode_read_only_fast_track_nolock@@YA_NV__crt_stdio_stream@@_JH@Z 00439026 f   libucrt:fseek.obj
 0001:000380ff       ?common_fseek_nolock@@YAHV__crt_stdio_stream@@_JH@Z 004390ff f   libucrt:fseek.obj
 0001:00038220       $$000000                   00439220     libucrt:strcspn.obj
 0001:000385eb       ??$?RV<lambda_b4242a90177f71b82d5a351515ac407a>@@AAV<lambda_b4f66040be5f354a654fb75160c27bfc>@@V<lambda_414c89348e1c610e2dbd648c5fde2086>@@@?$__crt_seh_guarded_call@H@@QAEH$$QAV<lambda_b4242a90177f71b82d5a351515ac407a>@@AAV<lambda_b4f66040be5f354a654fb75160c27bfc>@@$$QAV<lambda_414c89348e1c610e2dbd648c5fde2086>@@@Z 004395eb f   libucrt:setvbuf.obj
 0001:00038646       ??R<lambda_b4f66040be5f354a654fb75160c27bfc>@@QBEHXZ 00439646 f   libucrt:setvbuf.obj
 0001:000386e3       ?set_buffer@@YAHV__crt_stdio_stream@@QADIH@Z 004396e3 f   libucrt:setvbuf.obj
 0001:00038c28       ??$?RV<lambda_f5952838e36297a1e2e9d6c748429792>@@AAV<lambda_2116bde18c9e5f34230805ea4a4660ed>@@V<lambda_3c7107de1cc98bf330a3031f42c322a3>@@@?$__crt_seh_guarded_call@PAD@@QAEPAD$$QAV<lambda_f5952838e36297a1e2e9d6c748429792>@@AAV<lambda_2116bde18c9e5f34230805ea4a4660ed>@@$$QAV<lambda_3c7107de1cc98bf330a3031f42c322a3>@@@Z 00439c28 f   libucrt:setlocale.obj
 0001:00038c83       ??R<lambda_2116bde18c9e5f34230805ea4a4660ed>@@QBEPADXZ 00439c83 f   libucrt:setlocale.obj
 0001:00038de2       _call_wsetlocale           00439de2 f   libucrt:setlocale.obj
 0001:000395c0       $$000000                   0043a5c0     libucrt:pow_impl.obj
 0001:000398ab       ?compute_iso_week@@YAHHHH@Z 0043a8ab f   libucrt:wcsftime.obj
 0001:000398f4       ?compute_iso_week_internal@@YAHHHH@Z 0043a8f4 f   libucrt:wcsftime.obj
 0001:00039989       ?compute_iso_year@@YAHHHH@Z 0043a989 f   libucrt:wcsftime.obj
 0001:000399b4       ?expand_time@@YA_NPAU__crt_locale_pointers@@_WPBUtm@@PAPA_WPAIPBU__crt_lc_time_data@@_N@Z 0043a9b4 f   libucrt:wcsftime.obj
 0001:0003a358       $LN165                     0043b358     libucrt:wcsftime.obj
 0001:0003a378       ?store_number@@YAXHHQAPA_WQAI_W@Z 0043b378 f   libucrt:wcsftime.obj
 0001:0003a40c       ?store_number_without_lead_zeroes@@YAXHQAPA_WQAI@Z 0043b40c f   libucrt:wcsftime.obj
 0001:0003a478       ?store_string@@YAXPB_WQAPA_WQAI@Z 0043b478 f   libucrt:wcsftime.obj
 0001:0003a4a9       ?store_winword@@YA_NQAU__crt_locale_pointers@@HQBUtm@@QAPA_WQAIQBU__crt_lc_time_data@@@Z 0043b4a9 f   libucrt:wcsftime.obj
 0001:0003ac50       ??$?RV<lambda_03b1d95aef87969028cfba75ccab2455>@@AAV<lambda_6e4b09c48022b2350581041d5f6b0c4c>@@V<lambda_22bdf7517842c4b3e53723af5aa32b9e>@@@?$__crt_seh_guarded_call@X@@QAEX$$QAV<lambda_03b1d95aef87969028cfba75ccab2455>@@AAV<lambda_6e4b09c48022b2350581041d5f6b0c4c>@@$$QAV<lambda_22bdf7517842c4b3e53723af5aa32b9e>@@@Z 0043bc50 f   libucrt:exit.obj
 0001:0003acbc       ??R<lambda_6e4b09c48022b2350581041d5f6b0c4c>@@QBE@XZ 0043bcbc f   libucrt:exit.obj
 0001:0003ad96       ?atexit_exception_filter@@YAHK@Z 0043bd96 f   libucrt:exit.obj
 0001:0003ada9       ?common_exit@@YAXHW4_crt_exit_cleanup_mode@@W4_crt_exit_return_mode@@@Z 0043bda9 f   libucrt:exit.obj
 0001:0003ae0d       ?exit_or_terminate_process@@YAXI@Z 0043be0d f   libucrt:exit.obj
 0001:0003ae4f       ?is_managed_app@@YA_NXZ    0043be4f f   libucrt:exit.obj
 0001:0003ae92       ?try_cor_exit_process@@YAXI@Z 0043be92 f   libucrt:exit.obj
 0001:0003af64       ??$common_configure_argv@D@@YAHW4_crt_argv_mode@@@Z 0043bf64 f   libucrt:argv_parsing.obj
 0001:0003b09a       ??$parse_command_line@D@@YAXPADPAPAD0PAI2@Z 0043c09a f   libucrt:argv_parsing.obj
 0001:0003b268       ??$common_get_or_create_environment_nolock@D@@YAPAPADXZ 0043c268 f   libucrt:environment_initialization.obj
 0001:0003b294       ??$common_get_or_create_environment_nolock@_W@@YAPAPA_WXZ 0043c294 f   libucrt:environment_initialization.obj
 0001:0003b2c0       ??$common_initialize_environment_nolock@D@@YAHXZ 0043c2c0 f   libucrt:environment_initialization.obj
 0001:0003b313       ??$common_initialize_environment_nolock@_W@@YAHXZ 0043c313 f   libucrt:environment_initialization.obj
 0001:0003b361       ??$create_environment@D@@YAQAPADQAD@Z 0043c361 f   libucrt:environment_initialization.obj
 0001:0003b431       ??$create_environment@_W@@YAQAPA_WQA_W@Z 0043c431 f   libucrt:environment_initialization.obj
 0001:0003b53e       ??$free_environment@D@@YAXQAPAD@Z 0043c53e f   libucrt:environment_initialization.obj
 0001:0003b53e       ??$free_environment@_W@@YAXQAPA_W@Z 0043c53e f   libucrt:environment_initialization.obj
 0001:0003b56d       ??$initialize_environment_by_cloning_nolock@D@@YAHXZ 0043c56d f   libucrt:environment_initialization.obj
 0001:0003b5f0       ??$initialize_environment_by_cloning_nolock@_W@@YAHXZ 0043c5f0 f   libucrt:environment_initialization.obj
 0001:0003b696       ??$uninitialize_environment_internal@D@@YAXAAPAPAD@Z 0043c696 f   libucrt:environment_initialization.obj
 0001:0003b6b1       ??$uninitialize_environment_internal@_W@@YAXAAPAPA_W@Z 0043c6b1 f   libucrt:environment_initialization.obj
 0001:0003b726       ??$?RV<lambda_69a2805e680e0e292e8ba93315fe43a8>@@AAV<lambda_f03950bc5685219e0bcd2087efbe011e>@@V<lambda_03fcd07e894ec930e3f35da366ca99d6>@@@?$__crt_seh_guarded_call@H@@QAEH$$QAV<lambda_69a2805e680e0e292e8ba93315fe43a8>@@AAV<lambda_f03950bc5685219e0bcd2087efbe011e>@@$$QAV<lambda_03fcd07e894ec930e3f35da366ca99d6>@@@Z 0043c726 f   libucrt:onexit.obj
 0001:0003b781       ??$?RV<lambda_8e746cf0007f6ed984d6f78af1fec997>@@AAV<lambda_22ebabd17bc4fa466a2aca6d8deb888d>@@V<lambda_18ed0c0b38a6dc0daf1e7ac6d6adf05e>@@@?$__crt_seh_guarded_call@H@@QAEH$$QAV<lambda_8e746cf0007f6ed984d6f78af1fec997>@@AAV<lambda_22ebabd17bc4fa466a2aca6d8deb888d>@@$$QAV<lambda_18ed0c0b38a6dc0daf1e7ac6d6adf05e>@@@Z 0043c781 f   libucrt:onexit.obj
 0001:0003b7dc       ??R<lambda_22ebabd17bc4fa466a2aca6d8deb888d>@@QBEHXZ 0043c7dc f   libucrt:onexit.obj
 0001:0003b905       ??R<lambda_f03950bc5685219e0bcd2087efbe011e>@@QBEHXZ 0043c905 f   libucrt:onexit.obj
 0001:0003ba7e       _initialize_global_variables 0043ca7e f   libucrt:initialization.obj
 0001:0003ba8b       _initialize_c              0043ca8b f   libucrt:initialization.obj
 0001:0003baa5       _uninitialize_environment  0043caa5 f   libucrt:initialization.obj
 0001:0003baad       _initialize_pointers       0043caad f   libucrt:initialization.obj
 0001:0003badb       _uninitialize_vcruntime    0043cadb f   libucrt:initialization.obj
 0001:0003bae4       _uninitialize_allocated_memory 0043cae4 f   libucrt:initialization.obj
 0001:0003bafb       _uninitialize_allocated_io_buffers 0043cafb f   libucrt:initialization.obj
 0001:0003bb4b       ??R<lambda_af42a3ee9806e9a7305d451646e05244>@@QBEXAAPAU__crt_multibyte_data@@@Z 0043cb4b f   libucrt:initialization.obj
 0001:0003c60f       ??$?RV<lambda_4fdada1b837b2abbf20876fac97688ad>@@AAV<lambda_b57350f2640456a0859d250846f69caf>@@V<lambda_eed5e4f92b5b7d55fa22c48c484aaa54>@@@?$__crt_seh_guarded_call@X@@QAEX$$QAV<lambda_4fdada1b837b2abbf20876fac97688ad>@@AAV<lambda_b57350f2640456a0859d250846f69caf>@@$$QAV<lambda_eed5e4f92b5b7d55fa22c48c484aaa54>@@@Z 0043d60f f   libucrt:wsetlocale.obj
 0001:0003c65c       ??$?RV<lambda_ac03c5d59bd18b09cb88b28331f6bfed>@@AAV<lambda_2a444430fde8c29194d880d93eed5e8f>@@AAV<lambda_02db5278e8aef8b5e4976579d73f5304>@@@?$__crt_seh_guarded_call@X@@QAEX$$QAV<lambda_ac03c5d59bd18b09cb88b28331f6bfed>@@AAV<lambda_2a444430fde8c29194d880d93eed5e8f>@@AAV<lambda_02db5278e8aef8b5e4976579d73f5304>@@@Z 0043d65c f   libucrt:wsetlocale.obj
 0001:0003c6a1       ??$?RV<lambda_e5124f882df8998aaf41531e079ba474>@@AAV<lambda_3e16ef9562a7dcce91392c22ab16ea36>@@V<lambda_e25ca0880e6ef98be67edffd8c599615>@@@?$__crt_seh_guarded_call@X@@QAEX$$QAV<lambda_e5124f882df8998aaf41531e079ba474>@@AAV<lambda_3e16ef9562a7dcce91392c22ab16ea36>@@$$QAV<lambda_e25ca0880e6ef98be67edffd8c599615>@@@Z 0043d6a1 f   libucrt:wsetlocale.obj
 0001:0003c789       ??R<lambda_2a444430fde8c29194d880d93eed5e8f>@@QBE@XZ 0043d789 f   libucrt:wsetlocale.obj
 0001:0003c7f3       ??R<lambda_b57350f2640456a0859d250846f69caf>@@QBEXXZ 0043d7f3 f   libucrt:wsetlocale.obj
 0001:0003cc1e       __copytlocinfo_nolock      0043dc1e f   libucrt:wsetlocale.obj
 0001:0003cc4d       __expandlocale             0043dc4d f   libucrt:wsetlocale.obj
 0001:0003d0d7       __wsetlocale_get_all       0043e0d7 f   libucrt:wsetlocale.obj
 0001:0003d272       __wsetlocale_nolock        0043e272 f   libucrt:wsetlocale.obj
 0001:0003d562       __wsetlocale_set_cat       0043e562 f   libucrt:wsetlocale.obj
 0001:0003d907       _get_default_code_page     0043e907 f   libucrt:wsetlocale.obj
 0001:0003d936       _parse_bcp47               0043e936 f   libucrt:wsetlocale.obj
 0001:0003db20       _parse_bcp47_code_page     0043eb20 f   libucrt:wsetlocale.obj
 0001:0003db5f       _parse_bcp47_language      0043eb5f f   libucrt:wsetlocale.obj
 0001:0003dbd1       _parse_bcp47_region        0043ebd1 f   libucrt:wsetlocale.obj
 0001:0003dc8a       _parse_bcp47_script        0043ec8a f   libucrt:wsetlocale.obj
 0001:0003dcfa       _string_is_alpha           0043ecfa f   libucrt:wsetlocale.obj
 0001:0003de30       $$000000                   0043ee30     libucrt:strncmp.obj
 0001:0003dee2       ??$?RV<lambda_15ade71b0218206bbe3333a0c9b79046>@@AAV<lambda_da44e0f8b0f19ba52fefafb335991732>@@V<lambda_207f2d024fc103971653565357d6cd41>@@@?$__crt_seh_guarded_call@X@@QAEX$$QAV<lambda_15ade71b0218206bbe3333a0c9b79046>@@AAV<lambda_da44e0f8b0f19ba52fefafb335991732>@@$$QAV<lambda_207f2d024fc103971653565357d6cd41>@@@Z 0043eee2 f   libucrt:per_thread_data.obj
 0001:0003df34       ??$?RV<lambda_38edbb1296d33220d7e4dd0ed76b244a>@@AAV<lambda_5ce1d447e08cb34b2473517608e21441>@@V<lambda_fb385d3da700c9147fc39e65dd577a8c>@@@?$__crt_seh_guarded_call@X@@QAEX$$QAV<lambda_38edbb1296d33220d7e4dd0ed76b244a>@@AAV<lambda_5ce1d447e08cb34b2473517608e21441>@@$$QAV<lambda_fb385d3da700c9147fc39e65dd577a8c>@@@Z 0043ef34 f   libucrt:per_thread_data.obj
 0001:0003df9f       ??$?RV<lambda_6affb1475c98b40b75cdec977db92e3c>@@AAV<lambda_b8d4b9c228a6ecc3f80208dbb4b4a104>@@V<lambda_608742c3c92a14382c1684fc64f96c88>@@@?$__crt_seh_guarded_call@X@@QAEX$$QAV<lambda_6affb1475c98b40b75cdec977db92e3c>@@AAV<lambda_b8d4b9c228a6ecc3f80208dbb4b4a104>@@$$QAV<lambda_608742c3c92a14382c1684fc64f96c88>@@@Z 0043ef9f f   libucrt:per_thread_data.obj
 0001:0003dff4       ??$?RV<lambda_a7e850c220f1c8d1e6efeecdedd162c6>@@AAV<lambda_46720907175c18b6c9d2717bc0d2d362>@@V<lambda_9048902d66e8d99359bc9897bbb930a8>@@@?$__crt_seh_guarded_call@X@@QAEX$$QAV<lambda_a7e850c220f1c8d1e6efeecdedd162c6>@@AAV<lambda_46720907175c18b6c9d2717bc0d2d362>@@$$QAV<lambda_9048902d66e8d99359bc9897bbb930a8>@@@Z 0043eff4 f   libucrt:per_thread_data.obj
 0001:0003e04e       ?construct_ptd@@YAXQAU__acrt_ptd@@QAPAU__crt_locale_data@@@Z 0043f04e f   libucrt:per_thread_data.obj
 0001:0003e0e7       ?destroy_fls@@YGXPAX@Z     0043f0e7 f   libucrt:per_thread_data.obj
 0001:0003e108       ?destroy_ptd@@YAXQAU__acrt_ptd@@@Z 0043f108 f   libucrt:per_thread_data.obj
 0001:0003e1d5       ?replace_current_thread_locale_nolock@@YAXQAU__acrt_ptd@@QAU__crt_locale_data@@@Z 0043f1d5 f   libucrt:per_thread_data.obj
 0001:0003e86d       ?fe_to_nearest@@YA_NQBN_KF@Z 0043f86d f   libucrt:cvt.obj
 0001:0003e910       ?fp_format_a@@YAHQBNPADIQADIH_NIQAU__crt_locale_pointers@@W4__acrt_rounding_mode@@@Z 0043f910 f   libucrt:cvt.obj
 0001:0003ec1f       ?fp_format_e@@YAHQBNQADI1IH_NIQAU__crt_locale_pointers@@W4__acrt_rounding_mode@@@Z 0043fc1f f   libucrt:cvt.obj
 0001:0003ecc7       ?fp_format_e_internal@@YAHQADIH_NIQAU_strflt@@1QAU__crt_locale_pointers@@@Z 0043fcc7 f   libucrt:cvt.obj
 0001:0003ee0f       ?fp_format_f@@YAHQBNQADI1IHQAU__crt_locale_pointers@@W4__acrt_rounding_mode@@@Z 0043fe0f f   libucrt:cvt.obj
 0001:0003eea0       ?fp_format_f_internal@@YAHQADIHQAU_strflt@@_NQAU__crt_locale_pointers@@@Z 0043fea0 f   libucrt:cvt.obj
 0001:0003ef98       ?fp_format_g@@YAHQBNQADI1IH_NIW4__acrt_rounding_mode@@QAU__crt_locale_pointers@@@Z 0043ff98 f   libucrt:cvt.obj
 0001:0003f062       ?fp_format_nan_or_infinity@@YAHW4__acrt_fp_class@@_NPADI1@Z 00440062 f   libucrt:cvt.obj
 0001:0003f0f7       ?shift_bytes@@YAXQADI0H@Z  004400f7 f   libucrt:cvt.obj
 0001:0003f12b       ?should_round_up@@YA_NQBN_KFW4__acrt_rounding_mode@@@Z 0044012b f   libucrt:cvt.obj
 0001:0003f477       ?initialize_inherited_file_handles_nolock@@YAXXZ 00440477 f   libucrt:ioinit.obj
 0001:0003f52d       ?initialize_stdio_handles_nolock@@YAXXZ 0044052d f   libucrt:ioinit.obj
 0001:0003f77e       ??$common_gmtime_s@_J@@YAHQAUtm@@QB_J@Z 0044077e f   libucrt:gmtime.obj
 0001:0003f8c8       ?compute_year@@YAHAA_JAA_N@Z 004408c8 f   libucrt:gmtime.obj
 0001:0003fa09       ?_isindst_nolock@@YAHQAUtm@@@Z 00440a09 f   libucrt:tzset.obj
 0001:0003fc23       ?cvtdate@@YAXW4transition_type@?A0x7639d0b4@@W4date_type@2@HHHHHHHHH@Z 00440c23 f   libucrt:tzset.obj
 0001:0003fd63       ?tzset_env_copy_to_tzname@@YAXQB_WQA_WQADI@Z 00440d63 f   libucrt:tzset.obj
 0001:0003fdaa       ?tzset_from_environment_nolock@@YAXPA_W@Z 00440daa f   libucrt:tzset.obj
 0001:0004004b       ?tzset_from_system_nolock@@YAXXZ 0044104b f   libucrt:tzset.obj
 0001:000401a5       ?tzset_nolock@@YAXXZ       004411a5 f   libucrt:tzset.obj
 0001:0004028a       ?tzset_os_copy_to_tzname@@YAXQB_WQA_WQADI@Z 0044128a f   libucrt:tzset.obj
 0001:0004037d       ?<lambda_invoker_stdcall>@<lambda_29d3c280b90b41c2ae070ffca879996a>@@CGHPA_W@Z 0044137d f   libucrt:winapi_thunks.obj
 0001:0004038a       ??$?RV<lambda_6b4b7855443974f2b4b77000ea21c99c>@@AAV<lambda_8f7d3b162ab39427f4fa9995c67a7986>@@V<lambda_cc9a5ba8a5d8428b9634eab82665e5dc>@@@?$__crt_seh_guarded_call@H@@QAEH$$QAV<lambda_6b4b7855443974f2b4b77000ea21c99c>@@AAV<lambda_8f7d3b162ab39427f4fa9995c67a7986>@@$$QAV<lambda_cc9a5ba8a5d8428b9634eab82665e5dc>@@@Z 0044138a f   libucrt:winapi_thunks.obj
 0001:00040406       ??R<lambda_29d3c280b90b41c2ae070ffca879996a>@@QBEHPA_W@Z 00441406 f   libucrt:winapi_thunks.obj
 0001:00040435       ?try_get_AreFileApisANSI@@YAP6GHXZXZ 00441435 f   libucrt:winapi_thunks.obj
 0001:0004044f       ?try_get_CompareStringEx@@YAP6GHPB_WK0H0HPAU_nlsversioninfo@@PAXJ@ZXZ 0044144f f   libucrt:winapi_thunks.obj
 0001:00040469       ?try_get_EnumSystemLocalesEx@@YAP6GHP6GHPA_WKJ@ZKJPAX@ZXZ 00441469 f   libucrt:winapi_thunks.obj
 0001:00040483       ?try_get_GetDateFormatEx@@YAP6GHPB_WKPBU_SYSTEMTIME@@0PA_WH0@ZXZ 00441483 f   libucrt:winapi_thunks.obj
 0001:0004049d       ?try_get_GetLocaleInfoEx@@YAP6GHPB_WKPA_WH@ZXZ 0044149d f   libucrt:winapi_thunks.obj
 0001:000404b7       ?try_get_GetTimeFormatEx@@YAP6GHPB_WKPBU_SYSTEMTIME@@0PA_WH@ZXZ 004414b7 f   libucrt:winapi_thunks.obj
 0001:000404d1       ?try_get_GetUserDefaultLocaleName@@YAP6GHPA_WH@ZXZ 004414d1 f   libucrt:winapi_thunks.obj
 0001:000404eb       ?try_get_IsValidLocaleName@@YAP6GHPB_W@ZXZ 004414eb f   libucrt:winapi_thunks.obj
 0001:00040505       ?try_get_LCIDToLocaleName@@YAP6GHKPA_WHK@ZXZ 00441505 f   libucrt:winapi_thunks.obj
 0001:0004051f       ?try_get_LCMapStringEx@@YAP6GHPB_WK0HPA_WHPAU_nlsversioninfo@@PAXJ@ZXZ 0044151f f   libucrt:winapi_thunks.obj
 0001:00040539       ?try_get_LocaleNameToLCID@@YAP6GKPB_WK@ZXZ 00441539 f   libucrt:winapi_thunks.obj
 0001:00040553       ?try_get_first_available_module@@YAPAUHINSTANCE__@@QBW4module_id@?A0x391cf84c@@0@Z 00441553 f   libucrt:winapi_thunks.obj
 0001:0004061a       ?try_get_function@@YAPAXW4function_id@?A0x391cf84c@@QBDQBW4module_id@2@2@Z 0044161a f   libucrt:winapi_thunks.obj
 0001:00040bb6       ??$?RV<lambda_218ce3db14220d0be481dae8ef3383b6>@@AAV<lambda_628dfdc04ba53c8bfc02c9951375f3f5>@@V<lambda_57dc472bd5c9d5f3b2cbca59b8a843ae>@@@?$__crt_seh_guarded_call@H@@QAEH$$QAV<lambda_218ce3db14220d0be481dae8ef3383b6>@@AAV<lambda_628dfdc04ba53c8bfc02c9951375f3f5>@@$$QAV<lambda_57dc472bd5c9d5f3b2cbca59b8a843ae>@@@Z 00441bb6 f   libucrt:close.obj
 0001:00040e0f       ?find_or_allocate_unused_stream_nolock@@YA?AV__crt_stdio_stream@@XZ 00441e0f f   libucrt:stream.obj
 0001:0004113b       ??$common_openfile@D@@YAPAU_iobuf@@QBD0HV__crt_stdio_stream@@@Z 0044213b f   libucrt:openfile.obj
 0001:000412dd       ??$translate_text_mode_nolock@D@@YAHHQADI@Z 004422dd f   libucrt:read.obj
 0001:00041431       ??$translate_text_mode_nolock@_W@@YAHHQA_WI@Z 00442431 f   libucrt:read.obj
 0001:000415e0       ?translate_ansi_or_utf8_nolock@@YAHHQADIQA_WI@Z 004425e0 f   libucrt:read.obj
 0001:00041737       ?translate_utf16_from_console_nolock@@YAHHQA_WI@Z 00442737 f   libucrt:read.obj
 0001:00041c76       ??$common_refill_and_read_nolock@D@@YAHV__crt_stdio_stream@@@Z 00442c76 f   libucrt:_filbuf.obj
 0001:00041e0b       ?write_double_translated_ansi_nolock@@YA?AUwrite_result@?A0x17268360@@HQBDI@Z 00442e0b f   libucrt:write.obj
 0001:000421b7       ?write_double_translated_unicode_nolock@@YA?AUwrite_result@?A0x17268360@@QBDI@Z 004431b7 f   libucrt:write.obj
 0001:0004221f       ?write_requires_double_translation_nolock@@YA_NH@Z 0044321f f   libucrt:write.obj
 0001:00042290       ?write_text_ansi_nolock@@YA?AUwrite_result@?A0x17268360@@HQBDI@Z 00443290 f   libucrt:write.obj
 0001:0004236b       ?write_text_utf16le_nolock@@YA?AUwrite_result@?A0x17268360@@HQBDI@Z 0044336b f   libucrt:write.obj
 0001:00042454       ?write_text_utf8_nolock@@YA?AUwrite_result@?A0x17268360@@HQBDI@Z 00443454 f   libucrt:write.obj
 0001:00042852       ??$common_flush_and_write_nolock@D@@YAHHV__crt_stdio_stream@@@Z 00443852 f   libucrt:_flsbuf.obj
 0001:00042942       ??$write_buffer_nolock@D@@YA_NDV__crt_stdio_stream@@@Z 00443942 f   libucrt:_flsbuf.obj
 0001:00042a0e       ?stream_is_at_end_of_file_nolock@@YA_NV__crt_stdio_stream@@@Z 00443a0e f   libucrt:_flsbuf.obj
 0001:00042c40       $$000000                   00443c40     libucrt:strspn.obj
 0001:000432f5       ??$common_lseek@_J@@YA_JH_JH@Z 004442f5 f   libucrt:lseek.obj
 0001:00043401       ??$common_lseek_nolock@_J@@YA_JH_JH@Z 00444401 f   libucrt:lseek.obj
 0001:000434ed       ?__acrt_LCMapStringA_stat@@YAHPAU__crt_locale_pointers@@PB_WKPBDHPADHHH@Z 004444ed f   libucrt:lcmapstringa.obj
 0001:000437c2       ??$?RV<lambda_9e9de3de5fa147e2223d7db92bc10aa6>@@AAV<lambda_38ce7e780aa69e748d6df282ebc68efe>@@V<lambda_8ca6da459f0f6780f1cff60fdc3d00e5>@@@?$__crt_seh_guarded_call@H@@QAEH$$QAV<lambda_9e9de3de5fa147e2223d7db92bc10aa6>@@AAV<lambda_38ce7e780aa69e748d6df282ebc68efe>@@$$QAV<lambda_8ca6da459f0f6780f1cff60fdc3d00e5>@@@Z 004447c2 f   libucrt:commit.obj
 0001:00043b12       ?_mbstowcs_l_helper@@YAIPA_WPBDIPAU__crt_locale_pointers@@@Z 00444b12 f   libucrt:mbstowcs.obj
 0001:00043db5       ?_wcstombs_l_helper@@YAIPADPB_WIPAU__crt_locale_pointers@@@Z 00444db5 f   libucrt:wcstombs.obj
 0001:0004411b       ?InternalGetLocaleInfoA@@YAHQAU__crt_locale_pointers@@QB_WKQADH@Z 0044511b f   libucrt:getlocaleinfoa.obj
 0001:00044530       $$000000                   00445530     libucrt:pow_pentium4.obj
 0001:00045050       $$000000                   00446050     libucrt:87tran.obj
 0001:00045260       $$000000                   00446260     libucrt:87disp.obj
 0001:000454c0       $$000000                   004464c0     libucrt:genexcep.obj
 0001:00045520       $$000000                   00446520     libucrt:common.obj
 0001:0004583f       ??$?RV<lambda_cbab9ec6f41b0180b23cc171c22676b0>@@AAV<lambda_44731a7d0e6d81c3e6aa82d741081786>@@V<lambda_4b292cb8dd18144e164572427af410ab>@@@?$__crt_seh_guarded_call@P6AXH@Z@@QAEP6AXH@Z$$QAV<lambda_cbab9ec6f41b0180b23cc171c22676b0>@@AAV<lambda_44731a7d0e6d81c3e6aa82d741081786>@@$$QAV<lambda_4b292cb8dd18144e164572427af410ab>@@@Z 0044683f f   libucrt:signal.obj
 0001:000458a3       ?get_global_action_nolock@@YAPAP6AXH@ZH@Z 004468a3 f   libucrt:signal.obj
 0001:000458e5       ?siglookup@@YAPAU__crt_signal_action_t@@HQAU1@@Z 004468e5 f   libucrt:signal.obj
 0001:00045b76       ?<lambda_invoker_cdecl>@<lambda_838c7f62c73c983481e27c09e84b0b5d>@@CAHPBX0@Z 00446b76 f   libucrt:argv_wildcards.obj
 0001:00045b8e       ??$__acrt_convert_wcs_mbs_cp@_WDV<lambda_28bda7af82a03b66c1cb3803a755f95d>@@U__crt_win32_buffer_internal_dynamic_resizing@@@@YAHQB_WAAV?$__crt_win32_buffer@DU__crt_win32_buffer_internal_dynamic_resizing@@@@ABV<lambda_28bda7af82a03b66c1cb3803a755f95d>@@I@Z 00446b8e f   libucrt:argv_wildcards.obj
 0001:00045c5d       ??$common_expand_argv_wildcards@D@@YAHQAPADQAPAPAD@Z 00446c5d f   libucrt:argv_wildcards.obj
 0001:00045e4c       ??$copy_and_add_argument_to_buffer@D@@YAHQBD0IAAV?$argument_list@D@?A0x5f5c8891@@@Z 00446e4c f   libucrt:argv_wildcards.obj
 0001:00045efd       ??$expand_argument_wildcards@D@@YAHQAD0AAV?$argument_list@D@?A0x5f5c8891@@@Z 00446efd f   libucrt:argv_wildcards.obj
 0001:00046190       ?expand_if_necessary@?$argument_list@D@?A0x5f5c8891@@AAEHXZ 00447190 f   libucrt:argv_wildcards.obj
 0001:000462c3       ??$?RV<lambda_ceb1ee4838e85a9d631eb091e2fbe199>@@AAV<lambda_ae742caa10f662c28703da3d2ea5e57e>@@V<lambda_cd08b5d6af4937fe54fc07d0c9bf6b37>@@@?$__crt_seh_guarded_call@X@@QAEX$$QAV<lambda_ceb1ee4838e85a9d631eb091e2fbe199>@@AAV<lambda_ae742caa10f662c28703da3d2ea5e57e>@@$$QAV<lambda_cd08b5d6af4937fe54fc07d0c9bf6b37>@@@Z 004472c3 f   libucrt:mbctype.obj
 0001:00046310       ??R<lambda_ae742caa10f662c28703da3d2ea5e57e>@@QBEXXZ 00447310 f   libucrt:mbctype.obj
 0001:00046393       ?CPtoLocaleName@@YAPB_WH@Z 00447393 f   libucrt:mbctype.obj
 0001:000463d1       ?getSystemCP@@YAHH@Z       004473d1 f   libucrt:mbctype.obj
 0001:00046442       ?setSBCS@@YAXPAU__crt_multibyte_data@@@Z 00447442 f   libucrt:mbctype.obj
 0001:000464a7       ?setSBUpLow@@YAXPAU__crt_multibyte_data@@@Z 004474a7 f   libucrt:mbctype.obj
 0001:00046627       ?setmbcp_internal@@YAHH_NQAU__acrt_ptd@@QAPAU__crt_multibyte_data@@@Z 00447627 f   libucrt:mbctype.obj
 0001:0004673b       ?update_thread_multibyte_data_internal@@YAPAU__crt_multibyte_data@@QAU__acrt_ptd@@QAPAU1@@Z 0044773b f   libucrt:mbctype.obj
 0001:00046a29       ?x_ismbbtype_l@@YAHPAU__crt_locale_pointers@@IHH@Z 00447a29 f   libucrt:ismbbyte.obj
 0001:00046a98       ?find_end_of_double_null_terminated_sequence@@YAPB_WQB_W@Z 00447a98 f   libucrt:get_environment_from_os.obj
 0001:00046ba3       ??$common_set_variable_in_environment_nolock@D@@YAHQADH@Z 00447ba3 f   libucrt:setenv.obj
 0001:00046de1       ??$common_set_variable_in_environment_nolock@_W@@YAHQA_WH@Z 00447de1 f   libucrt:setenv.obj
 0001:00047034       ??$copy_environment@D@@YAPAPADQAPAD@Z 00448034 f   libucrt:setenv.obj
 0001:000470e4       ??$copy_environment@_W@@YAPAPA_WQAPA_W@Z 004480e4 f   libucrt:setenv.obj
 0001:000471a2       ??$ensure_current_environment_is_not_initial_environment_nolock@D@@YAXXZ 004481a2 f   libucrt:setenv.obj
 0001:000471bc       ??$ensure_current_environment_is_not_initial_environment_nolock@_W@@YAXXZ 004481bc f   libucrt:setenv.obj
 0001:000471d6       ??$find_in_environment_nolock@D@@YAHQBDI@Z 004481d6 f   libucrt:setenv.obj
 0001:0004722b       ??$find_in_environment_nolock@_W@@YAHQB_WI@Z 0044822b f   libucrt:setenv.obj
 0001:000473c2       ??$common_tcsncpy_s@_W@@YAHQA_WIQB_WI@Z 004483c2 f   libucrt:wcsncpy_s.obj
 0001:0004800d       ?free_crt_array_internal@@YAXQAPBXI@Z 0044900d f   libucrt:inittime.obj
 0001:00048045       ?initialize_lc_time@@YA_NQAU__crt_lc_time_data@@QAU__crt_locale_data@@@Z 00449045 f   libucrt:inittime.obj
 0001:00048420       ??$common_tcsncat_s@_W@@YAHQA_WIQB_WI@Z 00449420 f   libucrt:wcsncat_s.obj
 0001:00048953       _GetLocaleNameFromDefault  00449953 f   libucrt:get_qualified_locale.obj
 0001:000489da       _GetLocaleNameFromLangCountry 004499da f   libucrt:get_qualified_locale.obj
 0001:00048a73       _GetLocaleNameFromLanguage 00449a73 f   libucrt:get_qualified_locale.obj
 0001:00048acc       _GetPrimaryLen             00449acc f   libucrt:get_qualified_locale.obj
 0001:00048b00       _LangCountryEnumProcEx@12  00449b00 f   libucrt:get_qualified_locale.obj
 0001:00048de0       _LanguageEnumProcEx@12     00449de0 f   libucrt:get_qualified_locale.obj
 0001:00048e9f       _ProcessCodePage           00449e9f f   libucrt:get_qualified_locale.obj
 0001:00048f95       _TestDefaultCountry        00449f95 f   libucrt:get_qualified_locale.obj
 0001:00048fe2       _TranslateName             00449fe2 f   libucrt:get_qualified_locale.obj
 0001:0004924a       _CountryEnumProc@4         0044a24a f   libucrt:getqloc_downlevel.obj
 0001:000492f1       _GetLcidFromCountry        0044a2f1 f   libucrt:getqloc_downlevel.obj
 0001:0004933c       _GetLcidFromLangCountry    0044a33c f   libucrt:getqloc_downlevel.obj
 0001:000493d7       _GetLcidFromLanguage       0044a3d7 f   libucrt:getqloc_downlevel.obj
 0001:00049436       _GetPrimaryLen             0044a436 f   libucrt:getqloc_downlevel.obj
 0001:00049462       _LangCountryEnumProc@4     0044a462 f   libucrt:getqloc_downlevel.obj
 0001:000496b5       _LanguageEnumProc@4        0044a6b5 f   libucrt:getqloc_downlevel.obj
 0001:0004978a       _LcidFromHexString         0044a78a f   libucrt:getqloc_downlevel.obj
 0001:000497db       _ProcessCodePage           0044a7db f   libucrt:getqloc_downlevel.obj
 0001:000498bc       _TestDefaultCountry        0044a8bc f   libucrt:getqloc_downlevel.obj
 0001:000498e1       _TestDefaultLanguage       0044a8e1 f   libucrt:getqloc_downlevel.obj
 0001:0004994f       _TranslateName             0044a94f f   libucrt:getqloc_downlevel.obj
 0001:00049ba5       ___hw_cw_sse2              0044aba5 f   libucrt:ieee87.obj
 0001:0004a02b       __hw_cw                    0044b02b f   libucrt:ieee87.obj
 0001:0004a0c9       ??R<lambda_3d301b9e52f5099be73030e1f0bf487e>@@QBEIPBD@Z 0044b0c9 f   libucrt:mbrtowc.obj
 0001:0004a305       ?should_round_up@@YA_NQBDHW4__acrt_has_trailing_digits@@W4__acrt_rounding_mode@@@Z 0044b305 f   libucrt:_fptostr.obj
 0001:0004b9b8       ??$common_getenv_nolock@_W@@YAPA_WQB_W@Z 0044c9b8 f   libucrt:getenv.obj
 0001:0004ba3c       ??$common_getenv_s@_W@@YAHQAIQA_WIQB_W@Z 0044ca3c f   libucrt:getenv.obj
 0001:0004ba9b       ??$common_getenv_s_nolock@_W@@YAHQAIQA_WIQB_W@Z 0044ca9b f   libucrt:getenv.obj
 0001:0004bb5d       ?GetTableIndexFromLocaleName@@YAHPB_W@Z 0044cb5d f   libucrt:lcidtoname_downlevel.obj
 0001:0004bf27       ??$common_sopen_dispatch@D@@YAHQBDHHHQAHH@Z 0044cf27 f   libucrt:open.obj
 0001:0004bfe8       ?configure_text_mode@@YAHHUfile_options@?A0xa9d50aae@@HAAW4__crt_lowio_text_mode@@@Z 0044cfe8 f   libucrt:open.obj
 0001:0004c23b       ?create_file@@YAPAXQB_WQAU_SECURITY_ATTRIBUTES@@Ufile_options@?A0xa9d50aae@@@Z 0044d23b f   libucrt:open.obj
 0001:0004c260       ?decode_open_create_flags@@YAKH@Z 0044d260 f   libucrt:open.obj
 0001:0004c2d0       ?decode_options@@YA?AUfile_options@?A0xa9d50aae@@HHH@Z 0044d2d0 f   libucrt:open.obj
 0001:0004c44a       ?truncate_ctrl_z_if_present@@YAHH@Z 0044d44a f   libucrt:open.obj
 0001:0004c8f7       ?to_abstract_control@@YA?AW4__acrt_fenv_abstract_control@@W4__acrt_fenv_machine_sse_control@@@Z 0044d8f7 f   libucrt:_fenvutils.obj
 0001:0004c9b3       ?to_abstract_control@@YA?AW4__acrt_fenv_abstract_control@@W4__acrt_fenv_machine_x87_control@@@Z 0044d9b3 f   libucrt:_fenvutils.obj
 0001:0004ca6c       ?to_machine_sse_control@@YA?AW4__acrt_fenv_machine_sse_control@@W4__acrt_fenv_abstract_control@@@Z 0044da6c f   libucrt:_fenvutils.obj
 0001:0004cb39       ?to_machine_x87_control@@YA?AW4__acrt_fenv_machine_x87_control@@W4__acrt_fenv_abstract_control@@@Z 0044db39 f   libucrt:_fenvutils.obj
 0001:0004d009       ??$common_tcsncpy_s@D@@YAHQADIQBDI@Z 0044e009 f   libucrt:strncpy_s.obj
 0001:0004d6e0       $$000000                   0044e6e0     libucrt:strpbrk.obj
 0001:0004d7c4       ?initialize_multibyte@@YAHXZ 0044e7c4 f   libucrt:multibyte_initializer.obj
 0001:0004da86       ??$common_xtox@K_W@@YAHKQA_WII_N@Z 0044ea86 f   libucrt:xtoa.obj
 0001:0004db39       ??$common_xtox_s@K_W@@YAHKQA_WII_N@Z 0044eb39 f   libucrt:xtoa.obj
 0001:0004de40       $$000000                   0044ee40     libucrt:log10_impl.obj
 0001:0004df50       $$000000                   0044ef50     libucrt:ceil_pentium4.obj
 0001:0004e070       $$000000                   0044f070     libucrt:_strnicm.obj
 0001:0004e28e       ?__dcrt_lowio_initialize_console_output@@YAXXZ 0044f28e f   libucrt:initcon.obj
 0001:0004e437       ?InternalCompareStringA@@YAHPAU__crt_locale_pointers@@PB_WKPBDH2HH@Z 0044f437 f   libucrt:comparestringa.obj
 0001:0004e710       $$000000                   0044f710     libucrt:log10_pentium4.obj
 0001:0004ec00       $$000000                   0044fc00     LIBCMT:ulldvrm.obj
 0001:0004ec31       L1                         0044fc31     LIBCMT:ulldvrm.obj
 0001:0004ec3f       L3                         0044fc3f     LIBCMT:ulldvrm.obj
 0001:0004ec6d       L4                         0044fc6d     LIBCMT:ulldvrm.obj
 0001:0004ec76       L5                         0044fc76     LIBCMT:ulldvrm.obj
 0001:0004ec78       L2                         0044fc78     LIBCMT:ulldvrm.obj
 0001:0004eca0       $$000000                   0044fca0     LIBCMT:lldiv.obj
 0001:0004ecc1       L1                         0044fcc1     LIBCMT:lldiv.obj
 0001:0004ecdd       L2                         0044fcdd     LIBCMT:lldiv.obj
 0001:0004ecf9       L3                         0044fcf9     LIBCMT:lldiv.obj
 0001:0004ed07       L5                         0044fd07     LIBCMT:lldiv.obj
 0001:0004ed35       L6                         0044fd35     LIBCMT:lldiv.obj
 0001:0004ed36       L7                         0044fd36     LIBCMT:lldiv.obj
 0001:0004ed3a       L4                         0044fd3a     LIBCMT:lldiv.obj
 0001:0004ed44       L8                         0044fd44     LIBCMT:lldiv.obj
 0001:0004ed50       $$000000                   0044fd50     LIBCMT:llrem.obj
 0001:0004ed70       L1                         0044fd70     LIBCMT:llrem.obj
 0001:0004ed8b       L2                         0044fd8b     LIBCMT:llrem.obj
 0001:0004edaa       L3                         0044fdaa     LIBCMT:llrem.obj
 0001:0004edb8       L5                         0044fdb8     LIBCMT:llrem.obj
 0001:0004ede3       L6                         0044fde3     LIBCMT:llrem.obj
 0001:0004edeb       L7                         0044fdeb     LIBCMT:llrem.obj
 0001:0004edf6       L4                         0044fdf6     LIBCMT:llrem.obj
 0001:0004edfd       L8                         0044fdfd     LIBCMT:llrem.obj
 0001:0004ee10       $$000000                   0044fe10     LIBCMT:lldvrm.obj
 0001:0004ee34       L1                         0044fe34     LIBCMT:lldvrm.obj
 0001:0004ee50       L2                         0044fe50     LIBCMT:lldvrm.obj
 0001:0004ee7c       L3                         0044fe7c     LIBCMT:lldvrm.obj
 0001:0004ee8a       L5                         0044fe8a     LIBCMT:lldvrm.obj
 0001:0004eeb8       L6                         0044feb8     LIBCMT:lldvrm.obj
 0001:0004eec1       L7                         0044fec1     LIBCMT:lldvrm.obj
 0001:0004eec3       L4                         0044fec3     LIBCMT:lldvrm.obj
 0001:0004eed5       L9                         0044fed5     LIBCMT:lldvrm.obj
 0001:0004eee9       L8                         0044fee9     LIBCMT:lldvrm.obj
 0001:0004eef0       $$000000                   0044fef0     LIBCMT:llshl.obj
 0001:0004ef00       MORE32                     0044ff00     LIBCMT:llshl.obj
 0001:0004ef0a       RETZERO                    0044ff0a     LIBCMT:llshl.obj
 0001:0004ef10       $$000000                   0044ff10     LIBCMT:ullshr.obj
 0001:0004ef20       MORE32                     0044ff20     LIBCMT:ullshr.obj
 0001:0004ef2a       RETZERO                    0044ff2a     LIBCMT:ullshr.obj
 0001:0004ef30       $$000000                   0044ff30     LIBCMT:ftol2.obj
 0001:0004ef40       $$000000                   0044ff40     LIBCMT:ftol2.obj
 0001:0004ef51       L3B                        0044ff51     LIBCMT:ftol2.obj
 0001:0004ef94       L3F                        0044ff94     LIBCMT:ftol2.obj
 0001:0004ef9c       L40                        0044ff9c     LIBCMT:ftol2.obj
 0001:0004efaf       L41                        0044ffaf     LIBCMT:ftol2.obj
 0001:0004efc0       $$000000                   0044ffc0     libvcruntime:strstr.obj
 0001:0004f003       strstr_sse_safeloop        00450003     libvcruntime:strstr.obj
 0001:0004f02a       strstr_sse_search          0045002a     libvcruntime:strstr.obj
 0001:0004f02a       strstr_sse_unsafe          0045002a     libvcruntime:strstr.obj
 0001:0004f02e       strstr_sse_srchloop        0045002e     libvcruntime:strstr.obj
 0001:0004f064       strstr_sse_srchchar        00450064     libvcruntime:strstr.obj
 0001:0004f07b       strstr_sse_cmploop         0045007b     libvcruntime:strstr.obj
 0001:0004f0b6       strstr_sse_cmpchars        004500b6     libvcruntime:strstr.obj
 0001:0004f0bd       strstr_sse_cmpunsafe       004500bd     libvcruntime:strstr.obj
 0001:0004f0d4       strstr_sse_match           004500d4     libvcruntime:strstr.obj
 0001:0004f0d9       strstr_sse_not_found       004500d9     libvcruntime:strstr.obj
 0001:0004f0db       strstr_sse_exit            004500db     libvcruntime:strstr.obj
 0001:0004f0df       strstr_sttni               004500df     libvcruntime:strstr.obj
 0001:0004f0fb       strstr_sttni_setchars      004500fb     libvcruntime:strstr.obj
 0001:0004f100       strstr_sttni_setloopchar   00450100     libvcruntime:strstr.obj
 0001:0004f106       strstr_sttni_setloopnochar 00450106     libvcruntime:strstr.obj
 0001:0004f11a       strstr_sttni_srchnext      0045011a     libvcruntime:strstr.obj
 0001:0004f11d       strstr_sttni_srch          0045011d     libvcruntime:strstr.obj
 0001:0004f121       strstr_sttni_srchloop      00450121     libvcruntime:strstr.obj
 0001:0004f140       strstr_sttni_srchxmm       00450140     libvcruntime:strstr.obj
 0001:0004f153       strstr_sttni_srchcheck     00450153     libvcruntime:strstr.obj
 0001:0004f157       strstr_sttni_cmploop       00450157     libvcruntime:strstr.obj
 0001:0004f18f       strstr_sttni_cmpchar       0045018f     libvcruntime:strstr.obj
 0001:0004f1aa       strstr_no_sse              004501aa     libvcruntime:strstr.obj
 0001:0004f1bd       findnext                   004501bd     libvcruntime:strstr.obj
 0001:0004f1d0       loop_start                 004501d0     libvcruntime:strstr.obj
 0001:0004f1d5       in_loop                    004501d5     libvcruntime:strstr.obj
 0001:0004f1dd       not_found                  004501dd     libvcruntime:strstr.obj
 0001:0004f1e3       first_char_found           004501e3     libvcruntime:strstr.obj
 0001:0004f1ec       two_first_chars_equal      004501ec     libvcruntime:strstr.obj
 0001:0004f1ef       compare_loop               004501ef     libvcruntime:strstr.obj
 0001:0004f212       strchr_call                00450212     libvcruntime:strstr.obj
 0001:0004f21e       match                      0045021e     libvcruntime:strstr.obj
 0001:0004f225       empty_str2                 00450225     libvcruntime:strstr.obj
 0001:0004f230       $$000000                   00450230     libvcruntime:strchr.obj
 0001:0004f263       strchr_sse_loop            00450263     libvcruntime:strchr.obj
 0001:0004f287       strchr_sse_break           00450287     libvcruntime:strchr.obj
 0001:0004f298       strchr_no_sse2             00450298     libvcruntime:strchr.obj
 0001:0004f2b0       str_misaligned             004502b0     libvcruntime:strchr.obj
 0001:0004f2c5       main_loop_start            004502c5     libvcruntime:strchr.obj
 0001:0004f2d0       main_loop                  004502d0     libvcruntime:strchr.obj
 0001:0004f30c       retnull                    0045030c     libvcruntime:strchr.obj
 0001:0004f30e       retnull_bx                 0045030e     libvcruntime:strchr.obj
 0001:0004f312       found_bx                   00450312     libvcruntime:strchr.obj
 0001:0004f317       chr_is_found               00450317     libvcruntime:strchr.obj
 0001:0004f33f       byte_3                     0045033f     libvcruntime:strchr.obj
 0001:0004f346       byte_2                     00450346     libvcruntime:strchr.obj
 0001:0004f34d       byte_1                     0045034d     libvcruntime:strchr.obj
 0001:0004f354       byte_0                     00450354     libvcruntime:strchr.obj
 0001:0004f490       __unwindfunclet$??0_System_error@std@@IAE@Verror_code@1@ABV?$basic_string@DU?$char_traits@D@std@@V?$allocator@D@2@@1@@Z$3 00450490 f   TServerSystem:TServerSystem.obj
 0001:0004f498       __unwindfunclet$??0_System_error@std@@IAE@Verror_code@1@ABV?$basic_string@DU?$char_traits@D@std@@V?$allocator@D@2@@1@@Z$4 00450498 f   TServerSystem:TServerSystem.obj
 0001:0004f4a5       __ehhandler$??0_System_error@std@@IAE@Verror_code@1@ABV?$basic_string@DU?$char_traits@D@std@@V?$allocator@D@2@@1@@Z 004504a5 f   TServerSystem:TServerSystem.obj
 0001:0004f4d0       __unwindfunclet$??0_Locinfo@std@@QAE@PBD@Z$0 004504d0 f   TServerSystem:TServerSystem.obj
 0001:0004f4d8       __unwindfunclet$??0_Locinfo@std@@QAE@PBD@Z$1 004504d8 f   TServerSystem:TServerSystem.obj
 0001:0004f4e3       __unwindfunclet$??0_Locinfo@std@@QAE@PBD@Z$2 004504e3 f   TServerSystem:TServerSystem.obj
 0001:0004f4ee       __unwindfunclet$??0_Locinfo@std@@QAE@PBD@Z$3 004504ee f   TServerSystem:TServerSystem.obj
 0001:0004f4f9       __unwindfunclet$??0_Locinfo@std@@QAE@PBD@Z$4 004504f9 f   TServerSystem:TServerSystem.obj
 0001:0004f504       __unwindfunclet$??0_Locinfo@std@@QAE@PBD@Z$5 00450504 f   TServerSystem:TServerSystem.obj
 0001:0004f50f       __unwindfunclet$??0_Locinfo@std@@QAE@PBD@Z$6 0045050f f   TServerSystem:TServerSystem.obj
 0001:0004f51f       __ehhandler$??0_Locinfo@std@@QAE@PBD@Z 0045051f f   TServerSystem:TServerSystem.obj
 0001:0004f540       __ehhandler$??0tagEVENTINFO@@QAE@XZ 00450540 f   Handler.obj
 0001:0004f540       __ehhandler$??_GCTManager@@UAEPAXI@Z 00450540 f   TManager.obj
 0001:0004f540       __ehhandler$??1_Init_atexit@@QAE@XZ 00450540 f   libcpmt:iosptrs.obj
 0001:0004f540       __ehhandler$??1CSqlDatabase@@UAE@XZ 00450540 f   TNetLib:SqlDatabase.obj
 0001:0004f540       __ehhandler$??1_Locinfo@std@@QAE@XZ 00450540 f   TServerSystem:TServerSystem.obj
 0001:0004f560       __unwindfunclet$??0failure@ios_base@std@@QAE@PBDABVerror_code@2@@Z$1 00450560 f   TServerSystem:TServerSystem.obj
 0001:0004f56d       __ehhandler$??0failure@ios_base@std@@QAE@PBDABVerror_code@2@@Z 0045056d f   TServerSystem:TServerSystem.obj
 0001:0004f590       __ehhandler$??_G?$basic_ios@DU?$char_traits@D@std@@@std@@UAEPAXI@Z 00450590 f   TServerSystem:TServerSystem.obj
 0001:0004f590       __ehhandler$??_G?$basic_ostream@DU?$char_traits@D@std@@@std@@UAEPAXI@Z 00450590 f   TServerSystem:TServerSystem.obj
 0001:0004f590       __ehhandler$??_Gios_base@std@@UAEPAXI@Z 00450590 f   TServerSystem:TServerSystem.obj
 0001:0004f5b0       __unwindfunclet$??0TServerSystem@@QAE@V?$basic_string@DU?$char_traits@D@std@@V?$allocator@D@2@@std@@0@Z$0 004505b0 f   TServerSystem:TServerSystem.obj
 0001:0004f5b8       __unwindfunclet$??0TServerSystem@@QAE@V?$basic_string@DU?$char_traits@D@std@@V?$allocator@D@2@@std@@0@Z$1 004505b8 f   TServerSystem:TServerSystem.obj
 0001:0004f5c0       __unwindfunclet$??0TServerSystem@@QAE@V?$basic_string@DU?$char_traits@D@std@@V?$allocator@D@2@@std@@0@Z$2 004505c0 f   TServerSystem:TServerSystem.obj
 0001:0004f5cb       __unwindfunclet$??0TServerSystem@@QAE@V?$basic_string@DU?$char_traits@D@std@@V?$allocator@D@2@@std@@0@Z$3 004505cb f   TServerSystem:TServerSystem.obj
 0001:0004f5d6       __unwindfunclet$??0TServerSystem@@QAE@V?$basic_string@DU?$char_traits@D@std@@V?$allocator@D@2@@std@@0@Z$4 004505d6 f   TServerSystem:TServerSystem.obj
 0001:0004f5e1       __unwindfunclet$??0TServerSystem@@QAE@V?$basic_string@DU?$char_traits@D@std@@V?$allocator@D@2@@std@@0@Z$5 004505e1 f   TServerSystem:TServerSystem.obj
 0001:0004f5ec       __unwindfunclet$??0TServerSystem@@QAE@V?$basic_string@DU?$char_traits@D@std@@V?$allocator@D@2@@std@@0@Z$6 004505ec f   TServerSystem:TServerSystem.obj
 0001:0004f5f7       __unwindfunclet$??0TServerSystem@@QAE@V?$basic_string@DU?$char_traits@D@std@@V?$allocator@D@2@@std@@0@Z$14 004505f7 f   TServerSystem:TServerSystem.obj
 0001:0004f602       __unwindfunclet$??0TServerSystem@@QAE@V?$basic_string@DU?$char_traits@D@std@@V?$allocator@D@2@@std@@0@Z$7 00450602 f   TServerSystem:TServerSystem.obj
 0001:0004f60d       __unwindfunclet$??0TServerSystem@@QAE@V?$basic_string@DU?$char_traits@D@std@@V?$allocator@D@2@@std@@0@Z$9 0045060d f   TServerSystem:TServerSystem.obj
 0001:0004f615       __unwindfunclet$??0TServerSystem@@QAE@V?$basic_string@DU?$char_traits@D@std@@V?$allocator@D@2@@std@@0@Z$10 00450615 f   TServerSystem:TServerSystem.obj
 0001:0004f622       __ehhandler$??0TServerSystem@@QAE@V?$basic_string@DU?$char_traits@D@std@@V?$allocator@D@2@@std@@0@Z 00450622 f   TServerSystem:TServerSystem.obj
 0001:0004f650       __unwindfunclet$?SSLogError@TServerSystem@@IAEXV?$basic_string@DU?$char_traits@D@std@@V?$allocator@D@2@@std@@H@Z$0 00450650 f   TServerSystem:TServerSystem.obj
 0001:0004f650       __unwindfunclet$?SSLogInfo@TServerSystem@@IAEXV?$basic_string@DU?$char_traits@D@std@@V?$allocator@D@2@@std@@H@Z$0 00450650 f   TServerSystem:TServerSystem.obj
 0001:0004f65d       __ehhandler$?SSLogError@TServerSystem@@IAEXV?$basic_string@DU?$char_traits@D@std@@V?$allocator@D@2@@std@@H@Z 0045065d f   TServerSystem:TServerSystem.obj
 0001:0004f65d       __ehhandler$?SSLogInfo@TServerSystem@@IAEXV?$basic_string@DU?$char_traits@D@std@@V?$allocator@D@2@@std@@H@Z 0045065d f   TServerSystem:TServerSystem.obj
 0001:0004f690       __unwindfunclet$?DisplayIni@TServerSystem@@IAEXXZ$0 00450690 f   TServerSystem:TServerSystem.obj
 0001:0004f698       __unwindfunclet$?DisplayIni@TServerSystem@@IAEXXZ$3 00450698 f   TServerSystem:TServerSystem.obj
 0001:0004f6a0       __unwindfunclet$?DisplayIni@TServerSystem@@IAEXXZ$4 004506a0 f   TServerSystem:TServerSystem.obj
 0001:0004f6a8       __unwindfunclet$?DisplayIni@TServerSystem@@IAEXXZ$2 004506a8 f   TServerSystem:TServerSystem.obj
 0001:0004f6b5       __ehhandler$?DisplayIni@TServerSystem@@IAEXXZ 004506b5 f   TServerSystem:TServerSystem.obj
 0001:0004f6e0       __unwindfunclet$?LoadIntFromIni@TServerSystem@@IAEXV?$basic_string@DU?$char_traits@D@std@@V?$allocator@D@2@@std@@HAAH@Z$0 004506e0 f   TServerSystem:TServerSystem.obj
 0001:0004f6e8       __unwindfunclet$?LoadIntFromIni@TServerSystem@@IAEXV?$basic_string@DU?$char_traits@D@std@@V?$allocator@D@2@@std@@HAAH@Z$1 004506e8 f   TServerSystem:TServerSystem.obj
 0001:0004f6f0       __unwindfunclet$?LoadIntFromIni@TServerSystem@@IAEXV?$basic_string@DU?$char_traits@D@std@@V?$allocator@D@2@@std@@HAAH@Z$2 004506f0 f   TServerSystem:TServerSystem.obj
 0001:0004f6fb       __unwindfunclet$?LoadIntFromIni@TServerSystem@@IAEXV?$basic_string@DU?$char_traits@D@std@@V?$allocator@D@2@@std@@HAAH@Z$3 004506fb f   TServerSystem:TServerSystem.obj
 0001:0004f703       __unwindfunclet$?LoadIntFromIni@TServerSystem@@IAEXV?$basic_string@DU?$char_traits@D@std@@V?$allocator@D@2@@std@@HAAH@Z$4 00450703 f   TServerSystem:TServerSystem.obj
 0001:0004f70b       __unwindfunclet$?LoadIntFromIni@TServerSystem@@IAEXV?$basic_string@DU?$char_traits@D@std@@V?$allocator@D@2@@std@@HAAH@Z$5 0045070b f   TServerSystem:TServerSystem.obj
 0001:0004f718       __ehhandler$?LoadIntFromIni@TServerSystem@@IAEXV?$basic_string@DU?$char_traits@D@std@@V?$allocator@D@2@@std@@HAAH@Z 00450718 f   TServerSystem:TServerSystem.obj
 0001:0004f750       __unwindfunclet$?LoadStringFromIni@TServerSystem@@IAEXV?$basic_string@DU?$char_traits@D@std@@V?$allocator@D@2@@std@@0AAV23@@Z$0 00450750 f   TServerSystem:TServerSystem.obj
 0001:0004f758       __unwindfunclet$?LoadStringFromIni@TServerSystem@@IAEXV?$basic_string@DU?$char_traits@D@std@@V?$allocator@D@2@@std@@0AAV23@@Z$1 00450758 f   TServerSystem:TServerSystem.obj
 0001:0004f760       __unwindfunclet$?LoadStringFromIni@TServerSystem@@IAEXV?$basic_string@DU?$char_traits@D@std@@V?$allocator@D@2@@std@@0AAV23@@Z$2 00450760 f   TServerSystem:TServerSystem.obj
 0001:0004f768       __unwindfunclet$?LoadStringFromIni@TServerSystem@@IAEXV?$basic_string@DU?$char_traits@D@std@@V?$allocator@D@2@@std@@0AAV23@@Z$3 00450768 f   TServerSystem:TServerSystem.obj
 0001:0004f775       __ehhandler$?LoadStringFromIni@TServerSystem@@IAEXV?$basic_string@DU?$char_traits@D@std@@V?$allocator@D@2@@std@@0AAV23@@Z 00450775 f   TServerSystem:TServerSystem.obj
 0001:0004f7a0       __unwindfunclet$??0?$vector@V?$basic_string@DU?$char_traits@D@std@@V?$allocator@D@2@@std@@V?$allocator@V?$basic_string@DU?$char_traits@D@std@@V?$allocator@D@2@@std@@@2@@std@@QAE@ABV01@@Z$0 004507a0 f   TServerSystem:TServerSystem.obj
 0001:0004f7a8       __unwindfunclet$??0?$vector@V?$basic_string@DU?$char_traits@D@std@@V?$allocator@D@2@@std@@V?$allocator@V?$basic_string@DU?$char_traits@D@std@@V?$allocator@D@2@@std@@@2@@std@@QAE@ABV01@@Z$1 004507a8 f   TServerSystem:TServerSystem.obj
 0001:0004f7b5       __ehhandler$??0?$vector@V?$basic_string@DU?$char_traits@D@std@@V?$allocator@D@2@@std@@V?$allocator@V?$basic_string@DU?$char_traits@D@std@@V?$allocator@D@2@@std@@@2@@std@@QAE@ABV01@@Z 004507b5 f   TServerSystem:TServerSystem.obj
 0001:0004f7e0       __unwindfunclet$?uflow@?$basic_filebuf@DU?$char_traits@D@std@@@std@@MAEHXZ$0 004507e0 f   TServerSystem:TServerSystem.obj
 0001:0004f7ed       __ehhandler$?uflow@?$basic_filebuf@DU?$char_traits@D@std@@@std@@MAEHXZ 004507ed f   TServerSystem:TServerSystem.obj
 0001:0004f820       __ehhandler$??$_Destroy_range@V?$allocator@UtagPATCHFILE@@@std@@@std@@YAXPAUtagPATCHFILE@@QAU1@AAV?$allocator@UtagPATCHFILE@@@0@@Z 00450820 f   Handler.obj
 0001:0004f820       __ehhandler$??$_Destroy_range@V?$allocator@UtagTCASHITEM@@@std@@@std@@YAXPAUtagTCASHITEM@@QAU1@AAV?$allocator@UtagTCASHITEM@@@0@@Z 00450820 f   Handler.obj
 0001:0004f820       __ehhandler$??1tagEVENTINFO@@QAE@XZ 00450820 f   Handler.obj
 0001:0004f820       __ehhandler$??1tagPATCHFILE@@QAE@XZ 00450820 f   Handler.obj
 0001:0004f820       __ehhandler$??_GtagBANINFO@@QAEPAXI@Z 00450820 f   Handler.obj
 0001:0004f820       __ehhandler$??$_Destroy_range@V?$allocator@V?$CStringT@DV?$StrTraitATL@DV?$ChTraitsCRT@D@ATL@@@ATL@@@ATL@@@std@@@std@@YAXPAV?$CStringT@DV?$StrTraitATL@DV?$ChTraitsCRT@D@ATL@@@ATL@@@ATL@@QAV12@AAV?$allocator@V?$CStringT@DV?$StrTraitATL@DV?$ChTraitsCRT@D@ATL@@@ATL@@@ATL@@@0@@Z 00450820 f   TControlSvr.obj
 0001:0004f820       __ehhandler$??_GtagTSVRTEMP@@QAEPAXI@Z 00450820 f   TControlSvr.obj
 0001:0004f820       __ehhandler$?_Tidy@ios_base@std@@AAEXXZ 00450820 f   libcpmt:ios.obj
 0001:0004f820       __ehhandler$??1CSession@@UAE@XZ 00450820 f   TNetLib:Session.obj
 0001:0004f820       __ehhandler$??1?$basic_filebuf@DU?$char_traits@D@std@@@std@@UAE@XZ 00450820 f   TServerSystem:TServerSystem.obj
 0001:0004f840       __ehhandler$??1?$basic_ios@DU?$char_traits@D@std@@@std@@UAE@XZ 00450840 f   TServerSystem:TServerSystem.obj
 0001:0004f840       __ehhandler$??_D?$basic_ostream@DU?$char_traits@D@std@@@std@@QAEXXZ 00450840 f   TServerSystem:TServerSystem.obj
 0001:0004f860       __ehhandler$??1sentry@?$basic_ostream@DU?$char_traits@D@std@@@std@@QAE@XZ 00450860 f   TServerSystem:TServerSystem.obj
 0001:0004f880       __unwindfunclet$??0sentry@?$basic_ostream@DU?$char_traits@D@std@@@std@@QAE@AAV12@@Z$0 00450880 f   TServerSystem:TServerSystem.obj
 0001:0004f88d       __ehhandler$??0sentry@?$basic_ostream@DU?$char_traits@D@std@@@std@@QAE@AAV12@@Z 0045088d f   TServerSystem:TServerSystem.obj
 0001:0004f8b0       __unwindfunclet$??0?$basic_ostream@DU?$char_traits@D@std@@@std@@QAE@PAV?$basic_streambuf@DU?$char_traits@D@std@@@1@_N@Z$0 004508b0 f   TServerSystem:TServerSystem.obj
 0001:0004f8cc       __unwindfunclet$??0?$basic_ostream@DU?$char_traits@D@std@@@std@@QAE@PAV?$basic_streambuf@DU?$char_traits@D@std@@@1@_N@Z$2 004508cc f   TServerSystem:TServerSystem.obj
 0001:0004f8d9       __ehhandler$??0?$basic_ostream@DU?$char_traits@D@std@@@std@@QAE@PAV?$basic_streambuf@DU?$char_traits@D@std@@@1@_N@Z 004508d9 f   TServerSystem:TServerSystem.obj
 0001:0004f900       __ehhandler$??1tagTCASHITEM@@QAE@XZ 00450900 f   Handler.obj
 0001:0004f900       __ehhandler$??1_Sentry_base@?$basic_istream@DU?$char_traits@D@std@@@std@@QAE@XZ 00450900 f   TControlSvr.obj
 0001:0004f900       __ehhandler$??1_Sentry_base@?$basic_ostream@DU?$char_traits@D@std@@@std@@QAE@XZ 00450900 f   TServerSystem:TServerSystem.obj
 0001:0004f920       __ehhandler$??0?$basic_streambuf@DU?$char_traits@D@std@@@std@@IAE@XZ 00450920 f   TServerSystem:TServerSystem.obj
 0001:0004f940       __unwindfunclet$?flush@?$basic_ostream@DU?$char_traits@D@std@@@std@@QAEAAV12@XZ$2 00450940 f   TServerSystem:TServerSystem.obj
 0001:0004f94d       __ehhandler$?flush@?$basic_ostream@DU?$char_traits@D@std@@@std@@QAEAAV12@XZ 0045094d f   TServerSystem:TServerSystem.obj
 0001:0004f980       __ehhandler$?_Osfx@?$basic_ostream@DU?$char_traits@D@std@@@std@@QAEXXZ 00450980 f   TServerSystem:TServerSystem.obj
 0001:0004f9a0       __unwindfunclet$??$use_facet@V?$ctype@D@std@@@std@@YAABV?$ctype@D@0@ABVlocale@0@@Z$0 004509a0 f   TServerSystem:TServerSystem.obj
 0001:0004f9a8       __unwindfunclet$??$use_facet@V?$ctype@D@std@@@std@@YAABV?$ctype@D@0@ABVlocale@0@@Z$2 004509a8 f   TServerSystem:TServerSystem.obj
 0001:0004f9b7       __unwindfunclet$??$use_facet@V?$ctype@D@std@@@std@@YAABV?$ctype@D@0@ABVlocale@0@@Z$1 004509b7 f   TServerSystem:TServerSystem.obj
 0001:0004f9c4       __ehhandler$??$use_facet@V?$ctype@D@std@@@std@@YAABV?$ctype@D@0@ABVlocale@0@@Z 004509c4 f   TServerSystem:TServerSystem.obj
 0001:0004f9f0       __unwindfunclet$??$?6U?$char_traits@D@std@@@std@@YAAAV?$basic_ostream@DU?$char_traits@D@std@@@0@AAV10@PBD@Z$5 004509f0 f   TServerSystem:TServerSystem.obj
 0001:0004f9f8       __unwindfunclet$??$?6U?$char_traits@D@std@@@std@@YAAAV?$basic_ostream@DU?$char_traits@D@std@@@0@AAV10@PBD@Z$2 004509f8 f   TServerSystem:TServerSystem.obj
 0001:0004fa05       __ehhandler$??$?6U?$char_traits@D@std@@@std@@YAAAV?$basic_ostream@DU?$char_traits@D@std@@@0@AAV10@PBD@Z 00450a05 f   TServerSystem:TServerSystem.obj
 0001:0004fa30       __unwindfunclet$??$endl@DU?$char_traits@D@std@@@std@@YAAAV?$basic_ostream@DU?$char_traits@D@std@@@0@AAV10@@Z$0 00450a30 f   TServerSystem:TServerSystem.obj
 0001:0004fa3d       __ehhandler$??$endl@DU?$char_traits@D@std@@@std@@YAAAV?$basic_ostream@DU?$char_traits@D@std@@@0@AAV10@@Z 00450a3d f   TServerSystem:TServerSystem.obj
 0001:0004fa60       __unwindfunclet$??$use_facet@V?$codecvt@DDU_Mbstatet@@@std@@@std@@YAABV?$codecvt@DDU_Mbstatet@@@0@ABVlocale@0@@Z$0 00450a60 f   TServerSystem:TServerSystem.obj
 0001:0004fa68       __unwindfunclet$??$use_facet@V?$codecvt@DDU_Mbstatet@@@std@@@std@@YAABV?$codecvt@DDU_Mbstatet@@@0@ABVlocale@0@@Z$2 00450a68 f   TServerSystem:TServerSystem.obj
 0001:0004fa77       __unwindfunclet$??$use_facet@V?$codecvt@DDU_Mbstatet@@@std@@@std@@YAABV?$codecvt@DDU_Mbstatet@@@0@ABVlocale@0@@Z$1 00450a77 f   TServerSystem:TServerSystem.obj
 0001:0004fa84       __ehhandler$??$use_facet@V?$codecvt@DDU_Mbstatet@@@std@@@std@@YAABV?$codecvt@DDU_Mbstatet@@@0@ABVlocale@0@@Z 00450a84 f   TServerSystem:TServerSystem.obj
 0001:0004fab0       __unwindfunclet$??$use_facet@V?$numpunct@D@std@@@std@@YAABV?$numpunct@D@0@ABVlocale@0@@Z$0 00450ab0 f   TServerSystem:TServerSystem.obj
 0001:0004fab8       __unwindfunclet$??$use_facet@V?$numpunct@D@std@@@std@@YAABV?$numpunct@D@0@ABVlocale@0@@Z$2 00450ab8 f   TServerSystem:TServerSystem.obj
 0001:0004fac7       __unwindfunclet$??$use_facet@V?$numpunct@D@std@@@std@@YAABV?$numpunct@D@0@ABVlocale@0@@Z$3 00450ac7 f   TServerSystem:TServerSystem.obj
 0001:0004fae0       __unwindfunclet$??$use_facet@V?$numpunct@D@std@@@std@@YAABV?$numpunct@D@0@ABVlocale@0@@Z$4 00450ae0 f   TServerSystem:TServerSystem.obj
 0001:0004fae8       __unwindfunclet$??$use_facet@V?$numpunct@D@std@@@std@@YAABV?$numpunct@D@0@ABVlocale@0@@Z$5 00450ae8 f   TServerSystem:TServerSystem.obj
 0001:0004faf0       __unwindfunclet$??$use_facet@V?$numpunct@D@std@@@std@@YAABV?$numpunct@D@0@ABVlocale@0@@Z$1 00450af0 f   TServerSystem:TServerSystem.obj
 0001:0004fafd       __ehhandler$??$use_facet@V?$numpunct@D@std@@@std@@YAABV?$numpunct@D@0@ABVlocale@0@@Z 00450afd f   TServerSystem:TServerSystem.obj
 0001:0004fb30       __unwindfunclet$?put@?$basic_ostream@DU?$char_traits@D@std@@@std@@QAEAAV12@D@Z$3 00450b30 f   TServerSystem:TServerSystem.obj
 0001:0004fb38       __unwindfunclet$?put@?$basic_ostream@DU?$char_traits@D@std@@@std@@QAEAAV12@D@Z$2 00450b38 f   TServerSystem:TServerSystem.obj
 0001:0004fb45       __ehhandler$?put@?$basic_ostream@DU?$char_traits@D@std@@@std@@QAEAAV12@D@Z 00450b45 f   TServerSystem:TServerSystem.obj
 0001:0004fb70       __unwindfunclet$??$_Insert_string@DU?$char_traits@D@std@@I@std@@YAAAV?$basic_ostream@DU?$char_traits@D@std@@@0@AAV10@QBDI@Z$5 00450b70 f   TServerSystem:TServerSystem.obj
 0001:0004fb78       __unwindfunclet$??$_Insert_string@DU?$char_traits@D@std@@I@std@@YAAAV?$basic_ostream@DU?$char_traits@D@std@@@0@AAV10@QBDI@Z$2 00450b78 f   TServerSystem:TServerSystem.obj
 0001:0004fb85       __ehhandler$??$_Insert_string@DU?$char_traits@D@std@@I@std@@YAAAV?$basic_ostream@DU?$char_traits@D@std@@@0@AAV10@QBDI@Z 00450b85 f   TServerSystem:TServerSystem.obj
 0001:0004fbb0       __ehhandler$??$_Emplace_reallocate@ABV?$basic_string@DU?$char_traits@D@std@@V?$allocator@D@2@@std@@@?$vector@V?$basic_string@DU?$char_traits@D@std@@V?$allocator@D@2@@std@@V?$allocator@V?$basic_string@DU?$char_traits@D@std@@V?$allocator@D@2@@std@@@2@@std@@AAEPAV?$basic_string@DU?$char_traits@D@std@@V?$allocator@D@2@@1@QAV21@ABV21@@Z 00450bb0 f   TServerSystem:TServerSystem.obj
 0001:0004fbd0       __ehhandler$??$_Emplace_reallocate@ABV?$vector@V?$basic_string@DU?$char_traits@D@std@@V?$allocator@D@2@@std@@V?$allocator@V?$basic_string@DU?$char_traits@D@std@@V?$allocator@D@2@@std@@@2@@std@@@?$vector@V?$vector@V?$basic_string@DU?$char_traits@D@std@@V?$allocator@D@2@@std@@V?$allocator@V?$basic_string@DU?$char_traits@D@std@@V?$allocator@D@2@@std@@@2@@std@@V?$allocator@V?$vector@V?$basic_string@DU?$char_traits@D@std@@V?$allocator@D@2@@std@@V?$allocator@V?$basic_string@DU?$char_traits@D@std@@V?$allocator@D@2@@std@@@2@@std@@@2@@std@@AAEPAV?$vector@V?$basic_string@DU?$char_traits@D@std@@V?$allocator@D@2@@std@@V?$allocator@V?$basic_string@DU?$char_traits@D@std@@V?$allocator@D@2@@std@@@2@@1@QAV21@ABV21@@Z 00450bd0 f   TServerSystem:TServerSystem.obj
 0001:0004fbf0       __unwindfunclet$?AddEntry@?$CSimpleIniTempl@DU?$SI_NoCase@D@@V?$SI_ConvertA@D@@@@AAE?AW4SI_Error@@PBD000_N1@Z$0 00450bf0 f   TServerSystem:TServerSystem.obj
 0001:0004fbf8       __unwindfunclet$?AddEntry@?$CSimpleIniTempl@DU?$SI_NoCase@D@@V?$SI_ConvertA@D@@@@AAE?AW4SI_Error@@PBD000_N1@Z$1 00450bf8 f   TServerSystem:TServerSystem.obj
 0001:0004fc00       __unwindfunclet$?AddEntry@?$CSimpleIniTempl@DU?$SI_NoCase@D@@V?$SI_ConvertA@D@@@@AAE?AW4SI_Error@@PBD000_N1@Z$7 00450c00 f   TServerSystem:TServerSystem.obj
 0001:0004fc08       __unwindfunclet$?AddEntry@?$CSimpleIniTempl@DU?$SI_NoCase@D@@V?$SI_ConvertA@D@@@@AAE?AW4SI_Error@@PBD000_N1@Z$5 00450c08 f   TServerSystem:TServerSystem.obj
 0001:0004fc15       __ehhandler$?AddEntry@?$CSimpleIniTempl@DU?$SI_NoCase@D@@V?$SI_ConvertA@D@@@@AAE?AW4SI_Error@@PBD000_N1@Z 00450c15 f   TServerSystem:TServerSystem.obj
 0001:0004fc40       __unwindfunclet$?CopyString@?$CSimpleIniTempl@DU?$SI_NoCase@D@@V?$SI_ConvertA@D@@@@AAE?AW4SI_Error@@AAPBD@Z$1 00450c40 f   TServerSystem:TServerSystem.obj
 0001:0004fc4d       __ehhandler$?CopyString@?$CSimpleIniTempl@DU?$SI_NoCase@D@@V?$SI_ConvertA@D@@@@AAE?AW4SI_Error@@AAPBD@Z 00450c4d f   TServerSystem:TServerSystem.obj
 0001:0004fc70       __unwindfunclet$??$_Emplace@AAU?$pair@$$CBUEntry@?$CSimpleIniTempl@DU?$SI_NoCase@D@@V?$SI_ConvertA@D@@@@V?$multimap@UEntry@?$CSimpleIniTempl@DU?$SI_NoCase@D@@V?$SI_ConvertA@D@@@@PBDUKeyOrder@12@V?$allocator@U?$pair@$$CBUEntry@?$CSimpleIniTempl@DU?$SI_NoCase@D@@V?$SI_ConvertA@D@@@@PBD@std@@@std@@@std@@@std@@@?$_Tree@V?$_Tmap_traits@UEntry@?$CSimpleIniTempl@DU?$SI_NoCase@D@@V?$SI_ConvertA@D@@@@V?$multimap@UEntry@?$CSimpleIniTempl@DU?$SI_NoCase@D@@V?$SI_ConvertA@D@@@@PBDUKeyOrder@12@V?$allocator@U?$pair@$$CBUEntry@?$CSimpleIniTempl@DU?$SI_NoCase@D@@V?$SI_ConvertA@D@@@@PBD@std@@@std@@@std@@UKeyOrder@12@V?$allocator@U?$pair@$$CBUEntry@?$CSimpleIniTempl@DU?$SI_NoCase@D@@V?$SI_ConvertA@D@@@@V?$multimap@UEntry@?$CSimpleIniTempl@DU?$SI_NoCase@D@@V?$SI_ConvertA@D@@@@PBDUKeyOrder@12@V?$allocator@U?$pair@$$CBUEntry@?$CSimpleIniTempl@DU?$SI_NoCase@D@@V?$SI_ConvertA@D@@@@PBD@std@@@std@@@std@@@std@@@4@$0A@@std@@@std@@IAE?AU?$pair@PAU?$_Tree_node@U?$pair@$$CBUEntry@?$CSimpleIniTempl@DU?$SI_NoCase@D@@V?$SI_ConvertA@D@@@@V?$multimap@UEntry@?$CSimpleIniTempl@DU?$SI_NoCase@D@@V?$SI_ConvertA@D@@@@PBDUKeyOrder@12@V?$allocator@U?$pair@$$CBUEntry@?$CSimpleIniTempl@DU?$SI_NoCase@D@@V?$SI_ConvertA@D@@@@PBD@std@@@std@@@std@@@std@@PAX@std@@_N@1@AAU?$pair@$$CBUEntry@?$CSimpleIniTempl@DU?$SI_NoCase@D@@V?$SI_ConvertA@D@@@@V?$multimap@UEntry@?$CSimpleIniTempl@DU?$SI_NoCase@D@@V?$SI_ConvertA@D@@@@PBDUKeyOrder@12@V?$allocator@U?$pair@$$CBUEntry@?$CSimpleIniTempl@DU?$SI_NoCase@D@@V?$SI_ConvertA@D@@@@PBD@std@@@std@@@std@@@1@@Z$2 00450c70 f   TServerSystem:TServerSystem.obj
 0001:0004fc78       __unwindfunclet$??$_Emplace@AAU?$pair@$$CBUEntry@?$CSimpleIniTempl@DU?$SI_NoCase@D@@V?$SI_ConvertA@D@@@@V?$multimap@UEntry@?$CSimpleIniTempl@DU?$SI_NoCase@D@@V?$SI_ConvertA@D@@@@PBDUKeyOrder@12@V?$allocator@U?$pair@$$CBUEntry@?$CSimpleIniTempl@DU?$SI_NoCase@D@@V?$SI_ConvertA@D@@@@PBD@std@@@std@@@std@@@std@@@?$_Tree@V?$_Tmap_traits@UEntry@?$CSimpleIniTempl@DU?$SI_NoCase@D@@V?$SI_ConvertA@D@@@@V?$multimap@UEntry@?$CSimpleIniTempl@DU?$SI_NoCase@D@@V?$SI_ConvertA@D@@@@PBDUKeyOrder@12@V?$allocator@U?$pair@$$CBUEntry@?$CSimpleIniTempl@DU?$SI_NoCase@D@@V?$SI_ConvertA@D@@@@PBD@std@@@std@@@std@@UKeyOrder@12@V?$allocator@U?$pair@$$CBUEntry@?$CSimpleIniTempl@DU?$SI_NoCase@D@@V?$SI_ConvertA@D@@@@V?$multimap@UEntry@?$CSimpleIniTempl@DU?$SI_NoCase@D@@V?$SI_ConvertA@D@@@@PBDUKeyOrder@12@V?$allocator@U?$pair@$$CBUEntry@?$CSimpleIniTempl@DU?$SI_NoCase@D@@V?$SI_ConvertA@D@@@@PBD@std@@@std@@@std@@@std@@@4@$0A@@std@@@std@@IAE?AU?$pair@PAU?$_Tree_node@U?$pair@$$CBUEntry@?$CSimpleIniTempl@DU?$SI_NoCase@D@@V?$SI_ConvertA@D@@@@V?$multimap@UEntry@?$CSimpleIniTempl@DU?$SI_NoCase@D@@V?$SI_ConvertA@D@@@@PBDUKeyOrder@12@V?$allocator@U?$pair@$$CBUEntry@?$CSimpleIniTempl@DU?$SI_NoCase@D@@V?$SI_ConvertA@D@@@@PBD@std@@@std@@@std@@@std@@PAX@std@@_N@1@AAU?$pair@$$CBUEntry@?$CSimpleIniTempl@DU?$SI_NoCase@D@@V?$SI_ConvertA@D@@@@V?$multimap@UEntry@?$CSimpleIniTempl@DU?$SI_NoCase@D@@V?$SI_ConvertA@D@@@@PBDUKeyOrder@12@V?$allocator@U?$pair@$$CBUEntry@?$CSimpleIniTempl@DU?$SI_NoCase@D@@V?$SI_ConvertA@D@@@@PBD@std@@@std@@@std@@@1@@Z$1 00450c78 f   TServerSystem:TServerSystem.obj
 0001:0004fc80       __unwindfunclet$??$_Emplace@AAU?$pair@$$CBUEntry@?$CSimpleIniTempl@DU?$SI_NoCase@D@@V?$SI_ConvertA@D@@@@V?$multimap@UEntry@?$CSimpleIniTempl@DU?$SI_NoCase@D@@V?$SI_ConvertA@D@@@@PBDUKeyOrder@12@V?$allocator@U?$pair@$$CBUEntry@?$CSimpleIniTempl@DU?$SI_NoCase@D@@V?$SI_ConvertA@D@@@@PBD@std@@@std@@@std@@@std@@@?$_Tree@V?$_Tmap_traits@UEntry@?$CSimpleIniTempl@DU?$SI_NoCase@D@@V?$SI_ConvertA@D@@@@V?$multimap@UEntry@?$CSimpleIniTempl@DU?$SI_NoCase@D@@V?$SI_ConvertA@D@@@@PBDUKeyOrder@12@V?$allocator@U?$pair@$$CBUEntry@?$CSimpleIniTempl@DU?$SI_NoCase@D@@V?$SI_ConvertA@D@@@@PBD@std@@@std@@@std@@UKeyOrder@12@V?$allocator@U?$pair@$$CBUEntry@?$CSimpleIniTempl@DU?$SI_NoCase@D@@V?$SI_ConvertA@D@@@@V?$multimap@UEntry@?$CSimpleIniTempl@DU?$SI_NoCase@D@@V?$SI_ConvertA@D@@@@PBDUKeyOrder@12@V?$allocator@U?$pair@$$CBUEntry@?$CSimpleIniTempl@DU?$SI_NoCase@D@@V?$SI_ConvertA@D@@@@PBD@std@@@std@@@std@@@std@@@4@$0A@@std@@@std@@IAE?AU?$pair@PAU?$_Tree_node@U?$pair@$$CBUEntry@?$CSimpleIniTempl@DU?$SI_NoCase@D@@V?$SI_ConvertA@D@@@@V?$multimap@UEntry@?$CSimpleIniTempl@DU?$SI_NoCase@D@@V?$SI_ConvertA@D@@@@PBDUKeyOrder@12@V?$allocator@U?$pair@$$CBUEntry@?$CSimpleIniTempl@DU?$SI_NoCase@D@@V?$SI_ConvertA@D@@@@PBD@std@@@std@@@std@@@std@@PAX@std@@_N@1@AAU?$pair@$$CBUEntry@?$CSimpleIniTempl@DU?$SI_NoCase@D@@V?$SI_ConvertA@D@@@@V?$multimap@UEntry@?$CSimpleIniTempl@DU?$SI_NoCase@D@@V?$SI_ConvertA@D@@@@PBDUKeyOrder@12@V?$allocator@U?$pair@$$CBUEntry@?$CSimpleIniTempl@DU?$SI_NoCase@D@@V?$SI_ConvertA@D@@@@PBD@std@@@std@@@std@@@1@@Z$5 00450c80 f   TServerSystem:TServerSystem.obj
 0001:0004fc8d       __ehhandler$??$_Emplace@AAU?$pair@$$CBUEntry@?$CSimpleIniTempl@DU?$SI_NoCase@D@@V?$SI_ConvertA@D@@@@V?$multimap@UEntry@?$CSimpleIniTempl@DU?$SI_NoCase@D@@V?$SI_ConvertA@D@@@@PBDUKeyOrder@12@V?$allocator@U?$pair@$$CBUEntry@?$CSimpleIniTempl@DU?$SI_NoCase@D@@V?$SI_ConvertA@D@@@@PBD@std@@@std@@@std@@@std@@@?$_Tree@V?$_Tmap_traits@UEntry@?$CSimpleIniTempl@DU?$SI_NoCase@D@@V?$SI_ConvertA@D@@@@V?$multimap@UEntry@?$CSimpleIniTempl@DU?$SI_NoCase@D@@V?$SI_ConvertA@D@@@@PBDUKeyOrder@12@V?$allocator@U?$pair@$$CBUEntry@?$CSimpleIniTempl@DU?$SI_NoCase@D@@V?$SI_ConvertA@D@@@@PBD@std@@@std@@@std@@UKeyOrder@12@V?$allocator@U?$pair@$$CBUEntry@?$CSimpleIniTempl@DU?$SI_NoCase@D@@V?$SI_ConvertA@D@@@@V?$multimap@UEntry@?$CSimpleIniTempl@DU?$SI_NoCase@D@@V?$SI_ConvertA@D@@@@PBDUKeyOrder@12@V?$allocator@U?$pair@$$CBUEntry@?$CSimpleIniTempl@DU?$SI_NoCase@D@@V?$SI_ConvertA@D@@@@PBD@std@@@std@@@std@@@std@@@4@$0A@@std@@@std@@IAE?AU?$pair@PAU?$_Tree_node@U?$pair@$$CBUEntry@?$CSimpleIniTempl@DU?$SI_NoCase@D@@V?$SI_ConvertA@D@@@@V?$multimap@UEntry@?$CSimpleIniTempl@DU?$SI_NoCase@D@@V?$SI_ConvertA@D@@@@PBDUKeyOrder@12@V?$allocator@U?$pair@$$CBUEntry@?$CSimpleIniTempl@DU?$SI_NoCase@D@@V?$SI_ConvertA@D@@@@PBD@std@@@std@@@std@@@std@@PAX@std@@_N@1@AAU?$pair@$$CBUEntry@?$CSimpleIniTempl@DU?$SI_NoCase@D@@V?$SI_ConvertA@D@@@@V?$multimap@UEntry@?$CSimpleIniTempl@DU?$SI_NoCase@D@@V?$SI_ConvertA@D@@@@PBDUKeyOrder@12@V?$allocator@U?$pair@$$CBUEntry@?$CSimpleIniTempl@DU?$SI_NoCase@D@@V?$SI_ConvertA@D@@@@PBD@std@@@std@@@std@@@1@@Z 00450c8d f   TServerSystem:TServerSystem.obj
 0001:0004fcb0       __unwindfunclet$??$_Copy_nodes@$0A@@?$_Tree@V?$_Tmap_traits@UEntry@?$CSimpleIniTempl@DU?$SI_NoCase@D@@V?$SI_ConvertA@D@@@@PBDUKeyOrder@12@V?$allocator@U?$pair@$$CBUEntry@?$CSimpleIniTempl@DU?$SI_NoCase@D@@V?$SI_ConvertA@D@@@@PBD@std@@@std@@$00@std@@@std@@IAEPAU?$_Tree_node@U?$pair@$$CBUEntry@?$CSimpleIniTempl@DU?$SI_NoCase@D@@V?$SI_ConvertA@D@@@@PBD@std@@PAX@1@PAU21@0@Z$2 00450cb0 f   TServerSystem:TServerSystem.obj
 0001:0004fcbd       __ehhandler$??$_Copy_nodes@$0A@@?$_Tree@V?$_Tmap_traits@UEntry@?$CSimpleIniTempl@DU?$SI_NoCase@D@@V?$SI_ConvertA@D@@@@PBDUKeyOrder@12@V?$allocator@U?$pair@$$CBUEntry@?$CSimpleIniTempl@DU?$SI_NoCase@D@@V?$SI_ConvertA@D@@@@PBD@std@@@std@@$00@std@@@std@@IAEPAU?$_Tree_node@U?$pair@$$CBUEntry@?$CSimpleIniTempl@DU?$SI_NoCase@D@@V?$SI_ConvertA@D@@@@PBD@std@@PAX@1@PAU21@0@Z 00450cbd f   TServerSystem:TServerSystem.obj
 0001:0004fce0       __unwindfunclet$??0CSPUserProtectedAdd@@QAE@PAVCSqlDatabase@@V?$basic_string@DU?$char_traits@D@std@@V?$allocator@D@2@@std@@@Z$0 00450ce0 f   DBAccess.obj
 0001:0004fced       __ehhandler$??0CSPUserProtectedAdd@@QAE@PAVCSqlDatabase@@V?$basic_string@DU?$char_traits@D@std@@V?$allocator@D@2@@std@@@Z 00450ced f   DBAccess.obj
 0001:0004fd10       __unwindfunclet$?InitQueryTControlSvr@@YAHPAVCSqlDatabase@@@Z$0 00450d10 f   DBAccess.obj
 0001:0004fd22       __unwindfunclet$?InitQueryTControlSvr@@YAHPAVCSqlDatabase@@@Z$40 00450d22 f   DBAccess.obj
 0001:0004fd2a       __unwindfunclet$?InitQueryTControlSvr@@YAHPAVCSqlDatabase@@@Z$2 00450d2a f   DBAccess.obj
 0001:0004fd3c       __unwindfunclet$?InitQueryTControlSvr@@YAHPAVCSqlDatabase@@@Z$44 00450d3c f   DBAccess.obj
 0001:0004fd44       __unwindfunclet$?InitQueryTControlSvr@@YAHPAVCSqlDatabase@@@Z$4 00450d44 f   DBAccess.obj
 0001:0004fd56       __unwindfunclet$?InitQueryTControlSvr@@YAHPAVCSqlDatabase@@@Z$48 00450d56 f   DBAccess.obj
 0001:0004fd5e       __unwindfunclet$?InitQueryTControlSvr@@YAHPAVCSqlDatabase@@@Z$6 00450d5e f   DBAccess.obj
 0001:0004fd70       __unwindfunclet$?InitQueryTControlSvr@@YAHPAVCSqlDatabase@@@Z$52 00450d70 f   DBAccess.obj
 0001:0004fd78       __unwindfunclet$?InitQueryTControlSvr@@YAHPAVCSqlDatabase@@@Z$8 00450d78 f   DBAccess.obj
 0001:0004fd8a       __unwindfunclet$?InitQueryTControlSvr@@YAHPAVCSqlDatabase@@@Z$56 00450d8a f   DBAccess.obj
 0001:0004fd92       __unwindfunclet$?InitQueryTControlSvr@@YAHPAVCSqlDatabase@@@Z$10 00450d92 f   DBAccess.obj
 0001:0004fda4       __unwindfunclet$?InitQueryTControlSvr@@YAHPAVCSqlDatabase@@@Z$60 00450da4 f   DBAccess.obj
 0001:0004fdac       __unwindfunclet$?InitQueryTControlSvr@@YAHPAVCSqlDatabase@@@Z$12 00450dac f   DBAccess.obj
 0001:0004fdbe       __unwindfunclet$?InitQueryTControlSvr@@YAHPAVCSqlDatabase@@@Z$64 00450dbe f   DBAccess.obj
 0001:0004fdc6       __unwindfunclet$?InitQueryTControlSvr@@YAHPAVCSqlDatabase@@@Z$14 00450dc6 f   DBAccess.obj
 0001:0004fdd8       __unwindfunclet$?InitQueryTControlSvr@@YAHPAVCSqlDatabase@@@Z$68 00450dd8 f   DBAccess.obj
 0001:0004fde0       __unwindfunclet$?InitQueryTControlSvr@@YAHPAVCSqlDatabase@@@Z$16 00450de0 f   DBAccess.obj
 0001:0004fdf2       __unwindfunclet$?InitQueryTControlSvr@@YAHPAVCSqlDatabase@@@Z$72 00450df2 f   DBAccess.obj
 0001:0004fdfa       __unwindfunclet$?InitQueryTControlSvr@@YAHPAVCSqlDatabase@@@Z$18 00450dfa f   DBAccess.obj
 0001:0004fe0c       __unwindfunclet$?InitQueryTControlSvr@@YAHPAVCSqlDatabase@@@Z$76 00450e0c f   DBAccess.obj
 0001:0004fe14       __unwindfunclet$?InitQueryTControlSvr@@YAHPAVCSqlDatabase@@@Z$20 00450e14 f   DBAccess.obj
 0001:0004fe26       __unwindfunclet$?InitQueryTControlSvr@@YAHPAVCSqlDatabase@@@Z$22 00450e26 f   DBAccess.obj
 0001:0004fe38       __unwindfunclet$?InitQueryTControlSvr@@YAHPAVCSqlDatabase@@@Z$80 00450e38 f   DBAccess.obj
 0001:0004fe40       __unwindfunclet$?InitQueryTControlSvr@@YAHPAVCSqlDatabase@@@Z$24 00450e40 f   DBAccess.obj
 0001:0004fe52       __unwindfunclet$?InitQueryTControlSvr@@YAHPAVCSqlDatabase@@@Z$84 00450e52 f   DBAccess.obj
 0001:0004fe5a       __unwindfunclet$?InitQueryTControlSvr@@YAHPAVCSqlDatabase@@@Z$26 00450e5a f   DBAccess.obj
 0001:0004fe6c       __unwindfunclet$?InitQueryTControlSvr@@YAHPAVCSqlDatabase@@@Z$88 00450e6c f   DBAccess.obj
 0001:0004fe74       __unwindfunclet$?InitQueryTControlSvr@@YAHPAVCSqlDatabase@@@Z$28 00450e74 f   DBAccess.obj
 0001:0004fe86       __unwindfunclet$?InitQueryTControlSvr@@YAHPAVCSqlDatabase@@@Z$92 00450e86 f   DBAccess.obj
 0001:0004fe8e       __unwindfunclet$?InitQueryTControlSvr@@YAHPAVCSqlDatabase@@@Z$30 00450e8e f   DBAccess.obj
 0001:0004fea0       __unwindfunclet$?InitQueryTControlSvr@@YAHPAVCSqlDatabase@@@Z$96 00450ea0 f   DBAccess.obj
 0001:0004fea8       __unwindfunclet$?InitQueryTControlSvr@@YAHPAVCSqlDatabase@@@Z$32 00450ea8 f   DBAccess.obj
 0001:0004feba       __unwindfunclet$?InitQueryTControlSvr@@YAHPAVCSqlDatabase@@@Z$100 00450eba f   DBAccess.obj
 0001:0004fec2       __unwindfunclet$?InitQueryTControlSvr@@YAHPAVCSqlDatabase@@@Z$34 00450ec2 f   DBAccess.obj
 0001:0004fed4       __unwindfunclet$?InitQueryTControlSvr@@YAHPAVCSqlDatabase@@@Z$104 00450ed4 f   DBAccess.obj
 0001:0004fedc       __unwindfunclet$?InitQueryTControlSvr@@YAHPAVCSqlDatabase@@@Z$36 00450edc f   DBAccess.obj
 0001:0004feee       __unwindfunclet$?InitQueryTControlSvr@@YAHPAVCSqlDatabase@@@Z$108 00450eee f   DBAccess.obj
 0001:0004fef6       __unwindfunclet$?InitQueryTControlSvr@@YAHPAVCSqlDatabase@@@Z$38 00450ef6 f   DBAccess.obj
 0001:0004ff0d       __ehhandler$?InitQueryTControlSvr@@YAHPAVCSqlDatabase@@@Z 00450f0d f   DBAccess.obj
 0001:0004ff30       __unwindfunclet$?FormatV@?$CStringT@DV?$StrTraitATL@DV?$ChTraitsCRT@D@ATL@@@ATL@@@ATL@@QAEXPBDPAD@Z$1 00450f30 f   DebugSocket.obj
 0001:0004ff38       __unwindfunclet$?FormatV@?$CStringT@DV?$StrTraitATL@DV?$ChTraitsCRT@D@ATL@@@ATL@@@ATL@@QAEXPBDPAD@Z$0 00450f38 f   DebugSocket.obj
 0001:0004ff45       __ehhandler$?FormatV@?$CStringT@DV?$StrTraitATL@DV?$ChTraitsCRT@D@ATL@@@ATL@@@ATL@@QAEXPBDPAD@Z 00450f45 f   DebugSocket.obj
 0001:0004ff70       __unwindfunclet$?LogInvalidPacket@CDebugSocket@@QAEXPAD@Z$0 00450f70 f   DebugSocket.obj
 0001:0004ff80       __ehhandler$?LogInvalidPacket@CDebugSocket@@QAEXPAD@Z 00450f80 f   DebugSocket.obj
 0001:0004ffb0       __unwindfunclet$??$_Emplace_reallocate@ABUtagPATCHFILE@@@?$vector@UtagPATCHFILE@@V?$allocator@UtagPATCHFILE@@@std@@@std@@AAEPAUtagPATCHFILE@@QAU2@ABU2@@Z$2 00450fb0 f   Handler.obj
 0001:0004ffb8       __unwindfunclet$??$_Emplace_reallocate@ABUtagPATCHFILE@@@?$vector@UtagPATCHFILE@@V?$allocator@UtagPATCHFILE@@@std@@@std@@AAEPAUtagPATCHFILE@@QAU2@ABU2@@Z$6 00450fb8 f   Handler.obj
 0001:0004ffc0       __unwindfunclet$??$_Emplace_reallocate@ABUtagPATCHFILE@@@?$vector@UtagPATCHFILE@@V?$allocator@UtagPATCHFILE@@@std@@@std@@AAEPAUtagPATCHFILE@@QAU2@ABU2@@Z$7 00450fc0 f   Handler.obj
 0001:0004ffcd       __ehhandler$??$_Emplace_reallocate@ABUtagPATCHFILE@@@?$vector@UtagPATCHFILE@@V?$allocator@UtagPATCHFILE@@@std@@@std@@AAEPAUtagPATCHFILE@@QAU2@ABU2@@Z 00450fcd f   Handler.obj
 0001:0004fff0       __unwindfunclet$??$_Emplace_reallocate@ABUtagTCASHITEM@@@?$vector@UtagTCASHITEM@@V?$allocator@UtagTCASHITEM@@@std@@@std@@AAEPAUtagTCASHITEM@@QAU2@ABU2@@Z$4 00450ff0 f   Handler.obj
 0001:0004fffd       __ehhandler$??$_Emplace_reallocate@ABUtagTCASHITEM@@@?$vector@UtagTCASHITEM@@V?$allocator@UtagTCASHITEM@@@std@@@std@@AAEPAUtagTCASHITEM@@QAU2@ABU2@@Z 00450ffd f   Handler.obj
 0001:00050020       __unwindfunclet$??$_Uninitialized_move@PAUtagPATCHFILE@@V?$allocator@UtagPATCHFILE@@@std@@@std@@YAPAUtagPATCHFILE@@QAU1@0PAU1@AAV?$allocator@UtagPATCHFILE@@@0@@Z$0 00451020 f   Handler.obj
 0001:00050028       __unwindfunclet$??$_Uninitialized_move@PAUtagPATCHFILE@@V?$allocator@UtagPATCHFILE@@@std@@@std@@YAPAUtagPATCHFILE@@QAU1@0PAU1@AAV?$allocator@UtagPATCHFILE@@@0@@Z$1 00451028 f   Handler.obj
 0001:00050035       __ehhandler$??$_Uninitialized_move@PAUtagPATCHFILE@@V?$allocator@UtagPATCHFILE@@@std@@@std@@YAPAUtagPATCHFILE@@QAU1@0PAU1@AAV?$allocator@UtagPATCHFILE@@@0@@Z 00451035 f   Handler.obj
 0001:00050060       __unwindfunclet$??$_Uninitialized_move@PAUtagTCASHITEM@@V?$allocator@UtagTCASHITEM@@@std@@@std@@YAPAUtagTCASHITEM@@QAU1@0PAU1@AAV?$allocator@UtagTCASHITEM@@@0@@Z$0 00451060 f   Handler.obj
 0001:0005006d       __ehhandler$??$_Uninitialized_move@PAUtagTCASHITEM@@V?$allocator@UtagTCASHITEM@@@std@@@std@@YAPAUtagTCASHITEM@@QAU1@0PAU1@AAV?$allocator@UtagTCASHITEM@@@0@@Z 0045106d f   Handler.obj
 0001:00050090       __unwindfunclet$??$insert@$0A@$0A@@?$_Tree@V?$_Tmap_traits@KPAVCTManager@@U?$less@K@std@@V?$allocator@U?$pair@$$CBKPAVCTManager@@@std@@@3@$0A@@std@@@std@@QAE?AU?$pair@V?$_Tree_iterator@V?$_Tree_val@U?$_Tree_simple_types@U?$pair@$$CBKPAVCTManager@@@std@@@std@@@std@@@std@@_N@1@$$QAU?$pair@$$CBKPAVCTManager@@@1@@Z$2 00451090 f   Handler.obj
 0001:0005009d       __ehhandler$??$insert@$0A@$0A@@?$_Tree@V?$_Tmap_traits@KPAVCTManager@@U?$less@K@std@@V?$allocator@U?$pair@$$CBKPAVCTManager@@@std@@@3@$0A@@std@@@std@@QAE?AU?$pair@V?$_Tree_iterator@V?$_Tree_val@U?$_Tree_simple_types@U?$pair@$$CBKPAVCTManager@@@std@@@std@@@std@@@std@@_N@1@$$QAU?$pair@$$CBKPAVCTManager@@@1@@Z 0045109d f   Handler.obj
 0001:000500c0       __unwindfunclet$??0tagEVENTINFO@@QAE@$$QAU0@@Z$0 004510c0 f   Handler.obj
 0001:000500cb       __unwindfunclet$??0tagEVENTINFO@@QAE@$$QAU0@@Z$1 004510cb f   Handler.obj
 0001:000500d6       __unwindfunclet$??0tagEVENTINFO@@QAE@$$QAU0@@Z$2 004510d6 f   Handler.obj
 0001:000500e1       __unwindfunclet$??0tagEVENTINFO@@QAE@$$QAU0@@Z$3 004510e1 f   Handler.obj
 0001:000500ec       __unwindfunclet$??0tagEVENTINFO@@QAE@$$QAU0@@Z$4 004510ec f   Handler.obj
 0001:000500f7       __unwindfunclet$??0tagEVENTINFO@@QAE@$$QAU0@@Z$5 004510f7 f   Handler.obj
 0001:00050102       __unwindfunclet$??0tagEVENTINFO@@QAE@$$QAU0@@Z$6 00451102 f   Handler.obj
 0001:00050112       __ehhandler$??0tagEVENTINFO@@QAE@$$QAU0@@Z 00451112 f   Handler.obj
 0001:00050130       __unwindfunclet$??0tagEVENTINFO@@QAE@ABU0@@Z$0 00451130 f   Handler.obj
 0001:0005013b       __unwindfunclet$??0tagEVENTINFO@@QAE@ABU0@@Z$1 0045113b f   Handler.obj
 0001:00050146       __unwindfunclet$??0tagEVENTINFO@@QAE@ABU0@@Z$2 00451146 f   Handler.obj
 0001:00050151       __unwindfunclet$??0tagEVENTINFO@@QAE@ABU0@@Z$3 00451151 f   Handler.obj
 0001:0005015c       __unwindfunclet$??0tagEVENTINFO@@QAE@ABU0@@Z$4 0045115c f   Handler.obj
 0001:00050167       __unwindfunclet$??0tagEVENTINFO@@QAE@ABU0@@Z$5 00451167 f   Handler.obj
 0001:00050172       __unwindfunclet$??0tagEVENTINFO@@QAE@ABU0@@Z$6 00451172 f   Handler.obj
 0001:00050182       __ehhandler$??0tagEVENTINFO@@QAE@ABU0@@Z 00451182 f   Handler.obj
 0001:000501a0       __unwindfunclet$??HATL@@YA?AV?$CStringT@DV?$StrTraitATL@DV?$ChTraitsCRT@D@ATL@@@ATL@@@0@ABV10@0@Z$0 004511a0 f   Handler.obj
 0001:000501be       __ehhandler$??HATL@@YA?AV?$CStringT@DV?$StrTraitATL@DV?$ChTraitsCRT@D@ATL@@@ATL@@@0@ABV10@0@Z 004511be f   Handler.obj
 0001:000501e0       __unwindfunclet$?OnCT_ANNOUNCEMENT_REQ@CTControlSvrModule@@IAEKPAUtagPACKETBUF@@@Z$0 004511e0 f   Handler.obj
 0001:000501e8       __unwindfunclet$?OnCT_ANNOUNCEMENT_REQ@CTControlSvrModule@@IAEKPAUtagPACKETBUF@@@Z$1 004511e8 f   Handler.obj
 0001:000501f5       __ehhandler$?OnCT_ANNOUNCEMENT_REQ@CTControlSvrModule@@IAEKPAUtagPACKETBUF@@@Z 004511f5 f   Handler.obj
 0001:00050220       __unwindfunclet$?OnCT_CASHITEMLIST_REQ@CTControlSvrModule@@IAEKPAUtagPACKETBUF@@@Z$0 00451220 f   Handler.obj
 0001:00050228       __unwindfunclet$?OnCT_CASHITEMLIST_REQ@CTControlSvrModule@@IAEKPAUtagPACKETBUF@@@Z$2 00451228 f   Handler.obj
 0001:00050230       __unwindfunclet$?OnCT_CASHITEMLIST_REQ@CTControlSvrModule@@IAEKPAUtagPACKETBUF@@@Z$3 00451230 f   Handler.obj
 0001:0005023d       __ehhandler$?OnCT_CASHITEMLIST_REQ@CTControlSvrModule@@IAEKPAUtagPACKETBUF@@@Z 0045123d f   Handler.obj
 0001:00050260       __unwindfunclet$?OnCT_CHARMSG_REQ@CTControlSvrModule@@IAEKPAUtagPACKETBUF@@@Z$0 00451260 f   Handler.obj
 0001:00050268       __unwindfunclet$?OnCT_CHARMSG_REQ@CTControlSvrModule@@IAEKPAUtagPACKETBUF@@@Z$1 00451268 f   Handler.obj
 0001:00050270       __unwindfunclet$?OnCT_CHARMSG_REQ@CTControlSvrModule@@IAEKPAUtagPACKETBUF@@@Z$2 00451270 f   Handler.obj
 0001:00050278       __unwindfunclet$?OnCT_CHARMSG_REQ@CTControlSvrModule@@IAEKPAUtagPACKETBUF@@@Z$3 00451278 f   Handler.obj
 0001:00050280       __unwindfunclet$?OnCT_CHARMSG_REQ@CTControlSvrModule@@IAEKPAUtagPACKETBUF@@@Z$5 00451280 f   Handler.obj
 0001:00050288       __unwindfunclet$?OnCT_CHARMSG_REQ@CTControlSvrModule@@IAEKPAUtagPACKETBUF@@@Z$7 00451288 f   Handler.obj
 0001:00050295       __ehhandler$?OnCT_CHARMSG_REQ@CTControlSvrModule@@IAEKPAUtagPACKETBUF@@@Z 00451295 f   Handler.obj
 0001:000502c0       __unwindfunclet$?OnCT_CHATBANLISTDEL_REQ@CTControlSvrModule@@IAEKPAUtagPACKETBUF@@@Z$0 004512c0 f   Handler.obj
 0001:000502cd       __ehhandler$?OnCT_CHATBANLISTDEL_REQ@CTControlSvrModule@@IAEKPAUtagPACKETBUF@@@Z 004512cd f   Handler.obj
 0001:000502f0       __unwindfunclet$?OnCT_CHATBAN_REQ@CTControlSvrModule@@IAEKPAUtagPACKETBUF@@@Z$0 004512f0 f   Handler.obj
 0001:000502f8       __unwindfunclet$?OnCT_CHATBAN_REQ@CTControlSvrModule@@IAEKPAUtagPACKETBUF@@@Z$1 004512f8 f   Handler.obj
 0001:00050300       __unwindfunclet$?OnCT_CHATBAN_REQ@CTControlSvrModule@@IAEKPAUtagPACKETBUF@@@Z$2 00451300 f   Handler.obj
 0001:00050308       __unwindfunclet$?OnCT_CHATBAN_REQ@CTControlSvrModule@@IAEKPAUtagPACKETBUF@@@Z$7 00451308 f   Handler.obj
 0001:00050315       __ehhandler$?OnCT_CHATBAN_REQ@CTControlSvrModule@@IAEKPAUtagPACKETBUF@@@Z 00451315 f   Handler.obj
 0001:00050340       __unwindfunclet$?OnCT_CMGIFT_REQ@CTControlSvrModule@@IAEKPAUtagPACKETBUF@@@Z$0 00451340 f   Handler.obj
 0001:00050340       __unwindfunclet$?OnCT_ITEMFIND_REQ@CTControlSvrModule@@IAEKPAUtagPACKETBUF@@@Z$0 00451340 f   Handler.obj
 0001:0005034d       __ehhandler$?OnCT_CMGIFT_REQ@CTControlSvrModule@@IAEKPAUtagPACKETBUF@@@Z 0045134d f   Handler.obj
 0001:0005034d       __ehhandler$?OnCT_ITEMFIND_REQ@CTControlSvrModule@@IAEKPAUtagPACKETBUF@@@Z 0045134d f   Handler.obj
 0001:00050370       __unwindfunclet$?OnCT_EVENTCHANGE_REQ@CTControlSvrModule@@IAEKPAUtagPACKETBUF@@@Z$6 00451370 f   Handler.obj
 0001:00050378       __unwindfunclet$?OnCT_EVENTCHANGE_REQ@CTControlSvrModule@@IAEKPAUtagPACKETBUF@@@Z$0 00451378 f   Handler.obj
 0001:00050380       __unwindfunclet$?OnCT_EVENTCHANGE_REQ@CTControlSvrModule@@IAEKPAUtagPACKETBUF@@@Z$1 00451380 f   Handler.obj
 0001:0005038b       __unwindfunclet$?OnCT_EVENTCHANGE_REQ@CTControlSvrModule@@IAEKPAUtagPACKETBUF@@@Z$4 0045138b f   Handler.obj
 0001:00050393       __unwindfunclet$?OnCT_EVENTCHANGE_REQ@CTControlSvrModule@@IAEKPAUtagPACKETBUF@@@Z$5 00451393 f   Handler.obj
 0001:0005039e       __unwindfunclet$?OnCT_EVENTCHANGE_REQ@CTControlSvrModule@@IAEKPAUtagPACKETBUF@@@Z$14 0045139e f   Handler.obj
 0001:000503a6       __unwindfunclet$?OnCT_EVENTCHANGE_REQ@CTControlSvrModule@@IAEKPAUtagPACKETBUF@@@Z$13 004513a6 f   Handler.obj
 0001:000503b3       __ehhandler$?OnCT_EVENTCHANGE_REQ@CTControlSvrModule@@IAEKPAUtagPACKETBUF@@@Z 004513b3 f   Handler.obj
 0001:000503e0       __unwindfunclet$?OnCT_EVENTDEL_REQ@CTControlSvrModule@@IAEKPAUtagPACKETBUF@@@Z$0 004513e0 f   Handler.obj
 0001:000503eb       __unwindfunclet$?OnCT_EVENTDEL_REQ@CTControlSvrModule@@IAEKPAUtagPACKETBUF@@@Z$2 004513eb f   Handler.obj
 0001:000503f8       __ehhandler$?OnCT_EVENTDEL_REQ@CTControlSvrModule@@IAEKPAUtagPACKETBUF@@@Z 004513f8 f   Handler.obj
 0001:00050420       __unwindfunclet$?OnCT_EVENTMSG_REQ@CTControlSvrModule@@IAEKPAUtagPACKETBUF@@@Z$5 00451420 f   Handler.obj
 0001:00050428       __unwindfunclet$?OnCT_EVENTMSG_REQ@CTControlSvrModule@@IAEKPAUtagPACKETBUF@@@Z$0 00451428 f   Handler.obj
 0001:00050430       __unwindfunclet$?OnCT_EVENTMSG_REQ@CTControlSvrModule@@IAEKPAUtagPACKETBUF@@@Z$1 00451430 f   Handler.obj
 0001:0005043d       __ehhandler$?OnCT_EVENTMSG_REQ@CTControlSvrModule@@IAEKPAUtagPACKETBUF@@@Z 0045143d f   Handler.obj
 0001:00050460       __unwindfunclet$?OnCT_ITEMFIND_ACK@CTControlSvrModule@@IAEKPAUtagPACKETBUF@@@Z$0 00451460 f   Handler.obj
 0001:00050468       __unwindfunclet$?OnCT_ITEMFIND_ACK@CTControlSvrModule@@IAEKPAUtagPACKETBUF@@@Z$1 00451468 f   Handler.obj
 0001:0005047c       __ehhandler$?OnCT_ITEMFIND_ACK@CTControlSvrModule@@IAEKPAUtagPACKETBUF@@@Z 0045147c f   Handler.obj
 0001:000504a0       __unwindfunclet$?OnCT_ITEMSTATE_REQ@CTControlSvrModule@@IAEKPAUtagPACKETBUF@@@Z$0 004514a0 f   Handler.obj
 0001:000504b4       __ehhandler$?OnCT_ITEMSTATE_REQ@CTControlSvrModule@@IAEKPAUtagPACKETBUF@@@Z 004514b4 f   Handler.obj
 0001:000504e0       __unwindfunclet$?OnCT_MONSPAWNFIND_ACK@CTControlSvrModule@@IAEKPAUtagPACKETBUF@@@Z$0 004514e0 f   Handler.obj
 0001:000504f4       __ehhandler$?OnCT_MONSPAWNFIND_ACK@CTControlSvrModule@@IAEKPAUtagPACKETBUF@@@Z 004514f4 f   Handler.obj
 0001:00050520       __unwindfunclet$?OnCT_NEWCONNECT_REQ@CTControlSvrModule@@IAEKPAUtagPACKETBUF@@@Z$0 00451520 f   Handler.obj
 0001:00050537       __ehhandler$?OnCT_NEWCONNECT_REQ@CTControlSvrModule@@IAEKPAUtagPACKETBUF@@@Z 00451537 f   Handler.obj
 0001:00050560       __unwindfunclet$?OnCT_OPLOGIN_REQ@CTControlSvrModule@@IAEKPAUtagPACKETBUF@@@Z$0 00451560 f   Handler.obj
 0001:00050568       __unwindfunclet$?OnCT_OPLOGIN_REQ@CTControlSvrModule@@IAEKPAUtagPACKETBUF@@@Z$1 00451568 f   Handler.obj
 0001:00050570       __unwindfunclet$?OnCT_OPLOGIN_REQ@CTControlSvrModule@@IAEKPAUtagPACKETBUF@@@Z$4 00451570 f   Handler.obj
 0001:0005057d       __ehhandler$?OnCT_OPLOGIN_REQ@CTControlSvrModule@@IAEKPAUtagPACKETBUF@@@Z 0045157d f   Handler.obj
 0001:000505a0       __unwindfunclet$?OnCT_PREVERSIONTABLE_REQ@CTControlSvrModule@@IAEKPAUtagPACKETBUF@@@Z$0 004515a0 f   Handler.obj
 0001:000505a8       __unwindfunclet$?OnCT_PREVERSIONTABLE_REQ@CTControlSvrModule@@IAEKPAUtagPACKETBUF@@@Z$2 004515a8 f   Handler.obj
 0001:000505b0       __unwindfunclet$?OnCT_PREVERSIONTABLE_REQ@CTControlSvrModule@@IAEKPAUtagPACKETBUF@@@Z$3 004515b0 f   Handler.obj
 0001:000505bd       __ehhandler$?OnCT_PREVERSIONTABLE_REQ@CTControlSvrModule@@IAEKPAUtagPACKETBUF@@@Z 004515bd f   Handler.obj
 0001:000505e0       __unwindfunclet$?OnCT_PREVERSIONUPDATE_REQ@CTControlSvrModule@@IAEKPAUtagPACKETBUF@@@Z$1 004515e0 f   Handler.obj
 0001:000505e8       __unwindfunclet$?OnCT_PREVERSIONUPDATE_REQ@CTControlSvrModule@@IAEKPAUtagPACKETBUF@@@Z$3 004515e8 f   Handler.obj
 0001:000505f0       __unwindfunclet$?OnCT_PREVERSIONUPDATE_REQ@CTControlSvrModule@@IAEKPAUtagPACKETBUF@@@Z$5 004515f0 f   Handler.obj
 0001:000505f8       __unwindfunclet$?OnCT_PREVERSIONUPDATE_REQ@CTControlSvrModule@@IAEKPAUtagPACKETBUF@@@Z$6 004515f8 f   Handler.obj
 0001:00050600       __unwindfunclet$?OnCT_PREVERSIONUPDATE_REQ@CTControlSvrModule@@IAEKPAUtagPACKETBUF@@@Z$7 00451600 f   Handler.obj
 0001:00050608       __unwindfunclet$?OnCT_PREVERSIONUPDATE_REQ@CTControlSvrModule@@IAEKPAUtagPACKETBUF@@@Z$8 00451608 f   Handler.obj
 0001:00050610       __unwindfunclet$?OnCT_PREVERSIONUPDATE_REQ@CTControlSvrModule@@IAEKPAUtagPACKETBUF@@@Z$10 00451610 f   Handler.obj
 0001:00050618       __unwindfunclet$?OnCT_PREVERSIONUPDATE_REQ@CTControlSvrModule@@IAEKPAUtagPACKETBUF@@@Z$11 00451618 f   Handler.obj
 0001:00050620       __unwindfunclet$?OnCT_PREVERSIONUPDATE_REQ@CTControlSvrModule@@IAEKPAUtagPACKETBUF@@@Z$13 00451620 f   Handler.obj
 0001:0005062d       __ehhandler$?OnCT_PREVERSIONUPDATE_REQ@CTControlSvrModule@@IAEKPAUtagPACKETBUF@@@Z 0045162d f   Handler.obj
 0001:00050650       __unwindfunclet$?OnCT_RECONNECT_REQ@CTControlSvrModule@@IAEKPAUtagPACKETBUF@@@Z$0 00451650 f   Handler.obj
 0001:00050664       __ehhandler$?OnCT_RECONNECT_REQ@CTControlSvrModule@@IAEKPAUtagPACKETBUF@@@Z 00451664 f   Handler.obj
 0001:00050690       __unwindfunclet$?OnCT_SERVICEUPLOADSTART_REQ@CTControlSvrModule@@IAEKPAUtagPACKETBUF@@@Z$0 00451690 f   Handler.obj
 0001:0005069b       __unwindfunclet$?OnCT_SERVICEUPLOADSTART_REQ@CTControlSvrModule@@IAEKPAUtagPACKETBUF@@@Z$2 0045169b f   Handler.obj
 0001:000506a6       __unwindfunclet$?OnCT_SERVICEUPLOADSTART_REQ@CTControlSvrModule@@IAEKPAUtagPACKETBUF@@@Z$3 004516a6 f   Handler.obj
 0001:000506b6       __ehhandler$?OnCT_SERVICEUPLOADSTART_REQ@CTControlSvrModule@@IAEKPAUtagPACKETBUF@@@Z 004516b6 f   Handler.obj
 0001:000506e0       __unwindfunclet$?OnCT_STLOGIN_REQ@CTControlSvrModule@@IAEKPAUtagPACKETBUF@@@Z$0 004516e0 f   Handler.obj
 0001:000506e8       __unwindfunclet$?OnCT_STLOGIN_REQ@CTControlSvrModule@@IAEKPAUtagPACKETBUF@@@Z$1 004516e8 f   Handler.obj
 0001:000506f0       __unwindfunclet$?OnCT_STLOGIN_REQ@CTControlSvrModule@@IAEKPAUtagPACKETBUF@@@Z$3 004516f0 f   Handler.obj
 0001:000506fd       __ehhandler$?OnCT_STLOGIN_REQ@CTControlSvrModule@@IAEKPAUtagPACKETBUF@@@Z 004516fd f   Handler.obj
 0001:00050720       __unwindfunclet$?OnCT_UPDATEPATCH_REQ@CTControlSvrModule@@IAEKPAUtagPACKETBUF@@@Z$0 00451720 f   Handler.obj
 0001:00050728       __unwindfunclet$?OnCT_UPDATEPATCH_REQ@CTControlSvrModule@@IAEKPAUtagPACKETBUF@@@Z$1 00451728 f   Handler.obj
 0001:00050730       __unwindfunclet$?OnCT_UPDATEPATCH_REQ@CTControlSvrModule@@IAEKPAUtagPACKETBUF@@@Z$3 00451730 f   Handler.obj
 0001:0005073d       __ehhandler$?OnCT_UPDATEPATCH_REQ@CTControlSvrModule@@IAEKPAUtagPACKETBUF@@@Z 0045173d f   Handler.obj
 0001:00050760       __unwindfunclet$?OnCT_USERKICKOUT_REQ@CTControlSvrModule@@IAEKPAUtagPACKETBUF@@@Z$0 00451760 f   Handler.obj
 0001:00050768       __unwindfunclet$?OnCT_USERKICKOUT_REQ@CTControlSvrModule@@IAEKPAUtagPACKETBUF@@@Z$1 00451768 f   Handler.obj
 0001:00050775       __ehhandler$?OnCT_USERKICKOUT_REQ@CTControlSvrModule@@IAEKPAUtagPACKETBUF@@@Z 00451775 f   Handler.obj
 0001:000507a0       __unwindfunclet$?OnCT_USERMOVE_REQ@CTControlSvrModule@@IAEKPAUtagPACKETBUF@@@Z$0 004517a0 f   Handler.obj
 0001:000507a8       __unwindfunclet$?OnCT_USERMOVE_REQ@CTControlSvrModule@@IAEKPAUtagPACKETBUF@@@Z$1 004517a8 f   Handler.obj
 0001:000507b5       __ehhandler$?OnCT_USERMOVE_REQ@CTControlSvrModule@@IAEKPAUtagPACKETBUF@@@Z 004517b5 f   Handler.obj
 0001:000507e0       __unwindfunclet$?OnCT_USERPOSITION_REQ@CTControlSvrModule@@IAEKPAUtagPACKETBUF@@@Z$0 004517e0 f   Handler.obj
 0001:000507e8       __unwindfunclet$?OnCT_USERPOSITION_REQ@CTControlSvrModule@@IAEKPAUtagPACKETBUF@@@Z$1 004517e8 f   Handler.obj
 0001:000507f0       __unwindfunclet$?OnCT_USERPOSITION_REQ@CTControlSvrModule@@IAEKPAUtagPACKETBUF@@@Z$2 004517f0 f   Handler.obj
 0001:000507f8       __unwindfunclet$?OnCT_USERPOSITION_REQ@CTControlSvrModule@@IAEKPAUtagPACKETBUF@@@Z$3 004517f8 f   Handler.obj
 0001:00050805       __ehhandler$?OnCT_USERPOSITION_REQ@CTControlSvrModule@@IAEKPAUtagPACKETBUF@@@Z 00451805 f   Handler.obj
 0001:00050830       __unwindfunclet$?OnCT_USERPROTECTED_REQ@CTControlSvrModule@@IAEKPAUtagPACKETBUF@@@Z$0 00451830 f   Handler.obj
 0001:00050838       __unwindfunclet$?OnCT_USERPROTECTED_REQ@CTControlSvrModule@@IAEKPAUtagPACKETBUF@@@Z$1 00451838 f   Handler.obj
 0001:00050840       __unwindfunclet$?OnCT_USERPROTECTED_REQ@CTControlSvrModule@@IAEKPAUtagPACKETBUF@@@Z$2 00451840 f   Handler.obj
 0001:00050848       __unwindfunclet$?OnCT_USERPROTECTED_REQ@CTControlSvrModule@@IAEKPAUtagPACKETBUF@@@Z$5 00451848 f   Handler.obj
 0001:00050855       __ehhandler$?OnCT_USERPROTECTED_REQ@CTControlSvrModule@@IAEKPAUtagPACKETBUF@@@Z 00451855 f   Handler.obj
 0001:00050880       __unwindfunclet$?push_back@?$vector@UtagPATCHFILE@@V?$allocator@UtagPATCHFILE@@@std@@@std@@QAEXABUtagPATCHFILE@@@Z$0 00451880 f   Handler.obj
 0001:0005088d       __ehhandler$?push_back@?$vector@UtagPATCHFILE@@V?$allocator@UtagPATCHFILE@@@std@@@std@@QAEXABUtagPATCHFILE@@@Z 0045188d f   Handler.obj
 0001:000508b0       __unwindfunclet$??0CPlatformUsage@@QAE@E@Z$0 004518b0 f   PlatformUsage.obj
 0001:000508cb       __ehhandler$??0CPlatformUsage@@QAE@E@Z 004518cb f   PlatformUsage.obj
 0001:000508f0       __ehhandler$??_GCPlatformUsage@@UAEPAXI@Z 004518f0 f   PlatformUsage.obj
 0001:000508f0       __ehhandler$??_G?$basic_istream@DU?$char_traits@D@std@@@std@@UAEPAXI@Z 004518f0 f   TControlSvr.obj
 0001:00050910       __unwindfunclet$?SendCT_AUTHORITY_ACK@CTManager@@QAEXXZ$0 00451910 f   Sender.obj
 0001:00050910       __unwindfunclet$?SendCT_CASTLEGUILDCHG_ACK@CTManager@@QAEXPAVCPacket@@@Z$0 00451910 f   Sender.obj
 0001:00050910       __unwindfunclet$?SendCT_CASTLEINFO_ACK@CTManager@@QAEXPAVCPacket@@@Z$0 00451910 f   Sender.obj
 0001:00050910       __unwindfunclet$?SendCT_CHATBAN_ACK@CTManager@@QAEXE@Z$0 00451910 f   Sender.obj
 0001:00050910       __unwindfunclet$?SendCT_CMGIFTLIST_ACK@CTManager@@QAEXPAVCPacket@@@Z$0 00451910 f   Sender.obj
 0001:00050910       __unwindfunclet$?SendCT_CMGIFT_ACK@CTManager@@QAEXE@Z$0 00451910 f   Sender.obj
 0001:00050910       __unwindfunclet$?SendCT_EVENTCHANGE_ACK@CTManager@@QAEXEEPAUtagEVENTINFO@@@Z$0 00451910 f   Sender.obj
 0001:00050910       __unwindfunclet$?SendCT_EVENTQUARTERLIST_ACK@CTManager@@QAEXPAVCPacket@@@Z$0 00451910 f   Sender.obj
 0001:00050910       __unwindfunclet$?SendCT_EVENTQUARTERUPDATE_ACK@CTManager@@QAEXPAVCPacket@@@Z$0 00451910 f   Sender.obj
 0001:00050910       __unwindfunclet$?SendCT_ITEMSTATE_ACK@CTManager@@QAEXPAVCPacket@@@Z$0 00451910 f   Sender.obj
 0001:00050910       __unwindfunclet$?SendCT_OPLOGIN_ACK@CTManager@@QAEXEEK@Z$0 00451910 f   Sender.obj
 0001:00050910       __unwindfunclet$?SendCT_PLATFORM_ACK@CTManager@@QAEXEKKM@Z$0 00451910 f   Sender.obj
 0001:00050910       __unwindfunclet$?SendCT_RPSGAMEDATA_ACK@CTManager@@QAEXPAVCPacket@@@Z$0 00451910 f   Sender.obj
 0001:00050910       __unwindfunclet$?SendCT_SERVICEAUTOSTART_ACK@CTManager@@QAEXE@Z$0 00451910 f   Sender.obj
 0001:00050910       __unwindfunclet$?SendCT_SERVICECHANGE_ACK@CTManager@@QAEXKK@Z$0 00451910 f   Sender.obj
 0001:00050910       __unwindfunclet$?SendCT_SERVICECONTROL_ACK@CTManager@@QAEXE@Z$0 00451910 f   Sender.obj
 0001:00050910       __unwindfunclet$?SendCT_SERVICEDATA_ACK@CTManager@@QAEXPAUtagTSVRTEMP@@KKKK@Z$0 00451910 f   Sender.obj
 0001:00050910       __unwindfunclet$?SendCT_SERVICEUPLOADEND_ACK@CTManager@@QAEXE@Z$0 00451910 f   Sender.obj
 0001:00050910       __unwindfunclet$?SendCT_SERVICEUPLOADSTART_ACK@CTManager@@QAEXE@Z$0 00451910 f   Sender.obj
 0001:00050910       __unwindfunclet$?SendCT_SERVICEUPLOAD_ACK@CTManager@@QAEXXZ$0 00451910 f   Sender.obj
 0001:00050910       __unwindfunclet$?SendCT_STLOGIN_ACK@CTManager@@QAEXEE@Z$0 00451910 f   Sender.obj
 0001:00050910       __unwindfunclet$?SendCT_TOURNAMENTEVENT_ACK@CTManager@@QAEXPAVCPacket@@@Z$0 00451910 f   Sender.obj
 0001:00050910       __unwindfunclet$?SendCT_USERPROTECTED_ACK@CTManager@@QAEXE@Z$0 00451910 f   Sender.obj
 0001:00050910       __unwindfunclet$?SendCT_CASHSHOPSTOP_REQ@CTServer@@QAEXE@Z$0 00451910 f   TServer.obj
 0001:00050910       __unwindfunclet$?SendCT_CASTLEENABLE_REQ@CTServer@@QAEXEEK@Z$0 00451910 f   TServer.obj
 0001:00050910       __unwindfunclet$?SendCT_CASTLEGUILDCHG_REQ@CTServer@@QAEXGKKK_J@Z$0 00451910 f   TServer.obj
 0001:00050910       __unwindfunclet$?SendCT_CASTLEINFO_REQ@CTServer@@QAEXK@Z$0 00451910 f   TServer.obj
 0001:00050910       __unwindfunclet$?SendCT_CMGIFTCHARTUPDATE_REQ@CTServer@@QAEXPAVCPacket@@K@Z$0 00451910 f   TServer.obj
 0001:00050910       __unwindfunclet$?SendCT_CMGIFTLIST_REQ@CTServer@@QAEXK@Z$0 00451910 f   TServer.obj
 0001:00050910       __unwindfunclet$?SendCT_CTRLSVR_REQ@CTServer@@QAEXXZ$0 00451910 f   TServer.obj
 0001:00050910       __unwindfunclet$?SendCT_EVENTQUARTERLIST_REQ@CTServer@@QAEXPAVCPacket@@@Z$0 00451910 f   TServer.obj
 0001:00050910       __unwindfunclet$?SendCT_EVENTQUARTERUPDATE_REQ@CTServer@@QAEXPAVCPacket@@@Z$0 00451910 f   TServer.obj
 0001:00050910       __unwindfunclet$?SendCT_EVENTUPDATE_REQ@CTServer@@QAEXEGPAUtagEVENTINFO@@@Z$0 00451910 f   TServer.obj
 0001:00050910       __unwindfunclet$?SendCT_HELPMESSAGE_REQ@CTServer@@QAEXPAVCPacket@@@Z$0 00451910 f   TServer.obj
 0001:00050910       __unwindfunclet$?SendCT_ITEMSTATE_REQ@CTServer@@QAEXPAVCPacket@@@Z$0 00451910 f   TServer.obj
 0001:00050910       __unwindfunclet$?SendCT_MONACTION_ACK@CTServer@@QAEXEGKEKKKEG@Z$0 00451910 f   TServer.obj
 0001:00050910       __unwindfunclet$?SendCT_MONSPAWNFIND_ACK@CTServer@@QAEXKEGG@Z$0 00451910 f   TServer.obj
 0001:00050910       __unwindfunclet$?SendCT_RPSGAMECHANGE_REQ@CTServer@@QAEXPAVCPacket@@@Z$0 00451910 f   TServer.obj
 0001:00050910       __unwindfunclet$?SendCT_RPSGAMEDATA_REQ@CTServer@@QAEXPAVCPacket@@@Z$0 00451910 f   TServer.obj
 0001:00050910       __unwindfunclet$?SendCT_SERVICEDATACLEAR_ACK@CTServer@@QAEXXZ$0 00451910 f   TServer.obj
 0001:00050910       __unwindfunclet$?SendCT_SERVICEMONITOR_ACK@CTServer@@QAEXK@Z$0 00451910 f   TServer.obj
 0001:00050910       __unwindfunclet$?SendCT_TOURNAMENTEVENT_REQ@CTServer@@QAEXPAVCPacket@@@Z$0 00451910 f   TServer.obj
 0001:00050924       __ehhandler$?SendCT_AUTHORITY_ACK@CTManager@@QAEXXZ 00451924 f   Sender.obj
 0001:00050924       __ehhandler$?SendCT_CASTLEGUILDCHG_ACK@CTManager@@QAEXPAVCPacket@@@Z 00451924 f   Sender.obj
 0001:00050924       __ehhandler$?SendCT_CASTLEINFO_ACK@CTManager@@QAEXPAVCPacket@@@Z 00451924 f   Sender.obj
 0001:00050924       __ehhandler$?SendCT_CHATBAN_ACK@CTManager@@QAEXE@Z 00451924 f   Sender.obj
 0001:00050924       __ehhandler$?SendCT_CMGIFTLIST_ACK@CTManager@@QAEXPAVCPacket@@@Z 00451924 f   Sender.obj
 0001:00050924       __ehhandler$?SendCT_CMGIFT_ACK@CTManager@@QAEXE@Z 00451924 f   Sender.obj
 0001:00050924       __ehhandler$?SendCT_EVENTCHANGE_ACK@CTManager@@QAEXEEPAUtagEVENTINFO@@@Z 00451924 f   Sender.obj
 0001:00050924       __ehhandler$?SendCT_EVENTQUARTERLIST_ACK@CTManager@@QAEXPAVCPacket@@@Z 00451924 f   Sender.obj
 0001:00050924       __ehhandler$?SendCT_EVENTQUARTERUPDATE_ACK@CTManager@@QAEXPAVCPacket@@@Z 00451924 f   Sender.obj
 0001:00050924       __ehhandler$?SendCT_ITEMSTATE_ACK@CTManager@@QAEXPAVCPacket@@@Z 00451924 f   Sender.obj
 0001:00050924       __ehhandler$?SendCT_OPLOGIN_ACK@CTManager@@QAEXEEK@Z 00451924 f   Sender.obj
 0001:00050924       __ehhandler$?SendCT_PLATFORM_ACK@CTManager@@QAEXEKKM@Z 00451924 f   Sender.obj
 0001:00050924       __ehhandler$?SendCT_RPSGAMEDATA_ACK@CTManager@@QAEXPAVCPacket@@@Z 00451924 f   Sender.obj
 0001:00050924       __ehhandler$?SendCT_SERVICEAUTOSTART_ACK@CTManager@@QAEXE@Z 00451924 f   Sender.obj
 0001:00050924       __ehhandler$?SendCT_SERVICECHANGE_ACK@CTManager@@QAEXKK@Z 00451924 f   Sender.obj
 0001:00050924       __ehhandler$?SendCT_SERVICECONTROL_ACK@CTManager@@QAEXE@Z 00451924 f   Sender.obj
 0001:00050924       __ehhandler$?SendCT_SERVICEDATA_ACK@CTManager@@QAEXPAUtagTSVRTEMP@@KKKK@Z 00451924 f   Sender.obj
 0001:00050924       __ehhandler$?SendCT_SERVICEUPLOADEND_ACK@CTManager@@QAEXE@Z 00451924 f   Sender.obj
 0001:00050924       __ehhandler$?SendCT_SERVICEUPLOADSTART_ACK@CTManager@@QAEXE@Z 00451924 f   Sender.obj
 0001:00050924       __ehhandler$?SendCT_SERVICEUPLOAD_ACK@CTManager@@QAEXXZ 00451924 f   Sender.obj
 0001:00050924       __ehhandler$?SendCT_STLOGIN_ACK@CTManager@@QAEXEE@Z 00451924 f   Sender.obj
 0001:00050924       __ehhandler$?SendCT_TOURNAMENTEVENT_ACK@CTManager@@QAEXPAVCPacket@@@Z 00451924 f   Sender.obj
 0001:00050924       __ehhandler$?SendCT_USERPROTECTED_ACK@CTManager@@QAEXE@Z 00451924 f   Sender.obj
 0001:00050924       __ehhandler$?SendCT_CASHSHOPSTOP_REQ@CTServer@@QAEXE@Z 00451924 f   TServer.obj
 0001:00050924       __ehhandler$?SendCT_CASTLEENABLE_REQ@CTServer@@QAEXEEK@Z 00451924 f   TServer.obj
 0001:00050924       __ehhandler$?SendCT_CASTLEGUILDCHG_REQ@CTServer@@QAEXGKKK_J@Z 00451924 f   TServer.obj
 0001:00050924       __ehhandler$?SendCT_CASTLEINFO_REQ@CTServer@@QAEXK@Z 00451924 f   TServer.obj
 0001:00050924       __ehhandler$?SendCT_CMGIFTCHARTUPDATE_REQ@CTServer@@QAEXPAVCPacket@@K@Z 00451924 f   TServer.obj
 0001:00050924       __ehhandler$?SendCT_CMGIFTLIST_REQ@CTServer@@QAEXK@Z 00451924 f   TServer.obj
 0001:00050924       __ehhandler$?SendCT_CTRLSVR_REQ@CTServer@@QAEXXZ 00451924 f   TServer.obj
 0001:00050924       __ehhandler$?SendCT_EVENTQUARTERLIST_REQ@CTServer@@QAEXPAVCPacket@@@Z 00451924 f   TServer.obj
 0001:00050924       __ehhandler$?SendCT_EVENTQUARTERUPDATE_REQ@CTServer@@QAEXPAVCPacket@@@Z 00451924 f   TServer.obj
 0001:00050924       __ehhandler$?SendCT_EVENTUPDATE_REQ@CTServer@@QAEXEGPAUtagEVENTINFO@@@Z 00451924 f   TServer.obj
 0001:00050924       __ehhandler$?SendCT_HELPMESSAGE_REQ@CTServer@@QAEXPAVCPacket@@@Z 00451924 f   TServer.obj
 0001:00050924       __ehhandler$?SendCT_ITEMSTATE_REQ@CTServer@@QAEXPAVCPacket@@@Z 00451924 f   TServer.obj
 0001:00050924       __ehhandler$?SendCT_MONACTION_ACK@CTServer@@QAEXEGKEKKKEG@Z 00451924 f   TServer.obj
 0001:00050924       __ehhandler$?SendCT_MONSPAWNFIND_ACK@CTServer@@QAEXKEGG@Z 00451924 f   TServer.obj
 0001:00050924       __ehhandler$?SendCT_RPSGAMECHANGE_REQ@CTServer@@QAEXPAVCPacket@@@Z 00451924 f   TServer.obj
 0001:00050924       __ehhandler$?SendCT_RPSGAMEDATA_REQ@CTServer@@QAEXPAVCPacket@@@Z 00451924 f   TServer.obj
 0001:00050924       __ehhandler$?SendCT_SERVICEDATACLEAR_ACK@CTServer@@QAEXXZ 00451924 f   TServer.obj
 0001:00050924       __ehhandler$?SendCT_SERVICEMONITOR_ACK@CTServer@@QAEXK@Z 00451924 f   TServer.obj
 0001:00050924       __ehhandler$?SendCT_TOURNAMENTEVENT_REQ@CTServer@@QAEXPAVCPacket@@@Z 00451924 f   TServer.obj
 0001:00050950       __unwindfunclet$?SendCT_CASHITEMLIST_ACK@CTManager@@QAEXPAV?$vector@UtagTCASHITEM@@V?$allocator@UtagTCASHITEM@@@std@@@std@@@Z$0 00451950 f   Sender.obj
 0001:00050950       __unwindfunclet$?SendCT_CHATBANLIST_ACK@CTManager@@QAEXPAV?$map@KPAUtagBANINFO@@U?$less@K@std@@V?$allocator@U?$pair@$$CBKPAUtagBANINFO@@@std@@@3@@std@@@Z$0 00451950 f   Sender.obj
 0001:00050950       __unwindfunclet$?SendCT_EVENTLIST_ACK@CTManager@@QAEXPAV?$map@KUtagEVENTINFO@@U?$less@K@std@@V?$allocator@U?$pair@$$CBKUtagEVENTINFO@@@std@@@3@@std@@@Z$0 00451950 f   Sender.obj
 0001:00050950       __unwindfunclet$?SendCT_GROUPLIST_ACK@CTManager@@QAEXPAV?$map@EPAUtagTGROUP@@U?$less@E@std@@V?$allocator@U?$pair@$$CBEPAUtagTGROUP@@@std@@@3@@std@@@Z$0 00451950 f   Sender.obj
 0001:00050950       __unwindfunclet$?SendCT_MACHINELIST_ACK@CTManager@@QAEXPAV?$map@EPAUtagTMACHINE@@U?$less@E@std@@V?$allocator@U?$pair@$$CBEPAUtagTMACHINE@@@std@@@3@@std@@@Z$0 00451950 f   Sender.obj
 0001:00050950       __unwindfunclet$?SendCT_SERVICESTAT_ACK@CTManager@@QAEXPAV?$map@KPAUtagTSVRTEMP@@U?$less@K@std@@V?$allocator@U?$pair@$$CBKPAUtagTSVRTEMP@@@std@@@3@@std@@@Z$0 00451950 f   Sender.obj
 0001:00050950       __unwindfunclet$?SendCT_SVRTYPELIST_ACK@CTManager@@QAEXPAV?$map@EPAUtagTSVRTYPE@@U?$less@E@std@@V?$allocator@U?$pair@$$CBEPAUtagTSVRTYPE@@@std@@@3@@std@@@Z$0 00451950 f   Sender.obj
 0001:00050950       __unwindfunclet$?SendCT_CASHITEMSALE_REQ@CTServer@@QAEXKGPAV?$vector@UtagTCASHITEMSALE@@V?$allocator@UtagTCASHITEMSALE@@@std@@@std@@@Z$0 00451950 f   TServer.obj
 0001:00050964       __ehhandler$?SendCT_CASHITEMLIST_ACK@CTManager@@QAEXPAV?$vector@UtagTCASHITEM@@V?$allocator@UtagTCASHITEM@@@std@@@std@@@Z 00451964 f   Sender.obj
 0001:00050964       __ehhandler$?SendCT_CHATBANLIST_ACK@CTManager@@QAEXPAV?$map@KPAUtagBANINFO@@U?$less@K@std@@V?$allocator@U?$pair@$$CBKPAUtagBANINFO@@@std@@@3@@std@@@Z 00451964 f   Sender.obj
 0001:00050964       __ehhandler$?SendCT_EVENTLIST_ACK@CTManager@@QAEXPAV?$map@KUtagEVENTINFO@@U?$less@K@std@@V?$allocator@U?$pair@$$CBKUtagEVENTINFO@@@std@@@3@@std@@@Z 00451964 f   Sender.obj
 0001:00050964       __ehhandler$?SendCT_GROUPLIST_ACK@CTManager@@QAEXPAV?$map@EPAUtagTGROUP@@U?$less@E@std@@V?$allocator@U?$pair@$$CBEPAUtagTGROUP@@@std@@@3@@std@@@Z 00451964 f   Sender.obj
 0001:00050964       __ehhandler$?SendCT_MACHINELIST_ACK@CTManager@@QAEXPAV?$map@EPAUtagTMACHINE@@U?$less@E@std@@V?$allocator@U?$pair@$$CBEPAUtagTMACHINE@@@std@@@3@@std@@@Z 00451964 f   Sender.obj
 0001:00050964       __ehhandler$?SendCT_SERVICESTAT_ACK@CTManager@@QAEXPAV?$map@KPAUtagTSVRTEMP@@U?$less@K@std@@V?$allocator@U?$pair@$$CBKPAUtagTSVRTEMP@@@std@@@3@@std@@@Z 00451964 f   Sender.obj
 0001:00050964       __ehhandler$?SendCT_SVRTYPELIST_ACK@CTManager@@QAEXPAV?$map@EPAUtagTSVRTYPE@@U?$less@E@std@@V?$allocator@U?$pair@$$CBEPAUtagTSVRTYPE@@@std@@@3@@std@@@Z 00451964 f   Sender.obj
 0001:00050964       __ehhandler$?SendCT_CASHITEMSALE_REQ@CTServer@@QAEXKGPAV?$vector@UtagTCASHITEMSALE@@V?$allocator@UtagTCASHITEMSALE@@@std@@@std@@@Z 00451964 f   TServer.obj
 0001:00050990       __unwindfunclet$?SendCT_PREVERSIONTABLE_ACK@CTManager@@QAEXPAV?$vector@UtagPATCHFILE@@V?$allocator@UtagPATCHFILE@@@std@@@std@@@Z$0 00451990 f   Sender.obj
 0001:0005099f       __unwindfunclet$?SendCT_PREVERSIONTABLE_ACK@CTManager@@QAEXPAV?$vector@UtagPATCHFILE@@V?$allocator@UtagPATCHFILE@@@std@@@std@@@Z$2 0045199f f   Sender.obj
 0001:000509a7       __unwindfunclet$?SendCT_PREVERSIONTABLE_ACK@CTManager@@QAEXPAV?$vector@UtagPATCHFILE@@V?$allocator@UtagPATCHFILE@@@std@@@std@@@Z$1 004519a7 f   Sender.obj
 0001:000509b4       __ehhandler$?SendCT_PREVERSIONTABLE_ACK@CTManager@@QAEXPAV?$vector@UtagPATCHFILE@@V?$allocator@UtagPATCHFILE@@@std@@@std@@@Z 004519b4 f   Sender.obj
 0001:000509e0       __unwindfunclet$??$?5DU?$char_traits@D@std@@V?$allocator@D@1@@std@@YAAAV?$basic_istream@DU?$char_traits@D@std@@@0@AAV10@AAV?$basic_string@DU?$char_traits@D@std@@V?$allocator@D@2@@0@@Z$6 004519e0 f   TControlSvr.obj
 0001:000509e8       __unwindfunclet$??$?5DU?$char_traits@D@std@@V?$allocator@D@1@@std@@YAAAV?$basic_istream@DU?$char_traits@D@std@@@0@AAV10@AAV?$basic_string@DU?$char_traits@D@std@@V?$allocator@D@2@@0@@Z$2 004519e8 f   TControlSvr.obj
 0001:000509f0       __unwindfunclet$??$?5DU?$char_traits@D@std@@V?$allocator@D@1@@std@@YAAAV?$basic_istream@DU?$char_traits@D@std@@@0@AAV10@AAV?$basic_string@DU?$char_traits@D@std@@V?$allocator@D@2@@0@@Z$3 004519f0 f   TControlSvr.obj
 0001:000509fd       __ehhandler$??$?5DU?$char_traits@D@std@@V?$allocator@D@1@@std@@YAAAV?$basic_istream@DU?$char_traits@D@std@@@0@AAV10@AAV?$basic_string@DU?$char_traits@D@std@@V?$allocator@D@2@@0@@Z 004519fd f   TControlSvr.obj
 0001:00050a20       __unwindfunclet$??$_Common_extract_with_num_get@J@?$basic_istream@DU?$char_traits@D@std@@@std@@AAEAAV01@AAJ@Z$4 00451a20 f   TControlSvr.obj
 0001:00050a28       __unwindfunclet$??$_Common_extract_with_num_get@J@?$basic_istream@DU?$char_traits@D@std@@@std@@AAEAAV01@AAJ@Z$2 00451a28 f   TControlSvr.obj
 0001:00050a30       __unwindfunclet$??$_Common_extract_with_num_get@J@?$basic_istream@DU?$char_traits@D@std@@@std@@AAEAAV01@AAJ@Z$3 00451a30 f   TControlSvr.obj
 0001:00050a3d       __ehhandler$??$_Common_extract_with_num_get@J@?$basic_istream@DU?$char_traits@D@std@@@std@@AAEAAV01@AAJ@Z 00451a3d f   TControlSvr.obj
 0001:00050a60       __unwindfunclet$??$_Emplace_reallocate@V?$CStringT@DV?$StrTraitATL@DV?$ChTraitsCRT@D@ATL@@@ATL@@@ATL@@@?$vector@V?$CStringT@DV?$StrTraitATL@DV?$ChTraitsCRT@D@ATL@@@ATL@@@ATL@@V?$allocator@V?$CStringT@DV?$StrTraitATL@DV?$ChTraitsCRT@D@ATL@@@ATL@@@ATL@@@std@@@std@@AAEPAV?$CStringT@DV?$StrTraitATL@DV?$ChTraitsCRT@D@ATL@@@ATL@@@ATL@@QAV23@$$QAV23@@Z$3 00451a60 f   TControlSvr.obj
 0001:00050a6d       __ehhandler$??$_Emplace_reallocate@V?$CStringT@DV?$StrTraitATL@DV?$ChTraitsCRT@D@ATL@@@ATL@@@ATL@@@?$vector@V?$CStringT@DV?$StrTraitATL@DV?$ChTraitsCRT@D@ATL@@@ATL@@@ATL@@V?$allocator@V?$CStringT@DV?$StrTraitATL@DV?$ChTraitsCRT@D@ATL@@@ATL@@@ATL@@@std@@@std@@AAEPAV?$CStringT@DV?$StrTraitATL@DV?$ChTraitsCRT@D@ATL@@@ATL@@@ATL@@QAV23@$$QAV23@@Z 00451a6d f   TControlSvr.obj
 0001:00050a90       __unwindfunclet$??$_Getloctxt@V?$istreambuf_iterator@DU?$char_traits@D@std@@@std@@D@std@@YAHAAV?$istreambuf_iterator@DU?$char_traits@D@std@@@0@0IPBDW4_Case_sensitive@0@@Z$0 00451a90 f   TControlSvr.obj
 0001:00050a98       __unwindfunclet$??$_Getloctxt@V?$istreambuf_iterator@DU?$char_traits@D@std@@@std@@D@std@@YAHAAV?$istreambuf_iterator@DU?$char_traits@D@std@@@0@0IPBDW4_Case_sensitive@0@@Z$1 00451a98 f   TControlSvr.obj
 0001:00050aa5       __ehhandler$??$_Getloctxt@V?$istreambuf_iterator@DU?$char_traits@D@std@@@std@@D@std@@YAHAAV?$istreambuf_iterator@DU?$char_traits@D@std@@@0@0IPBDW4_Case_sensitive@0@@Z 00451aa5 f   TControlSvr.obj
 0001:00050ad0       __unwindfunclet$??$_Uninitialized_move@PAV?$CStringT@DV?$StrTraitATL@DV?$ChTraitsCRT@D@ATL@@@ATL@@@ATL@@V?$allocator@V?$CStringT@DV?$StrTraitATL@DV?$ChTraitsCRT@D@ATL@@@ATL@@@ATL@@@std@@@std@@YAPAV?$CStringT@DV?$StrTraitATL@DV?$ChTraitsCRT@D@ATL@@@ATL@@@ATL@@QAV12@0PAV12@AAV?$allocator@V?$CStringT@DV?$StrTraitATL@DV?$ChTraitsCRT@D@ATL@@@ATL@@@ATL@@@0@@Z$0 00451ad0 f   TControlSvr.obj
 0001:00050add       __ehhandler$??$_Uninitialized_move@PAV?$CStringT@DV?$StrTraitATL@DV?$ChTraitsCRT@D@ATL@@@ATL@@@ATL@@V?$allocator@V?$CStringT@DV?$StrTraitATL@DV?$ChTraitsCRT@D@ATL@@@ATL@@@ATL@@@std@@@std@@YAPAV?$CStringT@DV?$StrTraitATL@DV?$ChTraitsCRT@D@ATL@@@ATL@@@ATL@@QAV12@0PAV12@AAV?$allocator@V?$CStringT@DV?$StrTraitATL@DV?$ChTraitsCRT@D@ATL@@@ATL@@@ATL@@@0@@Z 00451add f   TControlSvr.obj
 0001:00050b00       __unwindfunclet$??$getline@DU?$char_traits@D@std@@V?$allocator@D@2@@std@@YAAAV?$basic_istream@DU?$char_traits@D@std@@@0@$$QAV10@AAV?$basic_string@DU?$char_traits@D@std@@V?$allocator@D@2@@0@D@Z$5 00451b00 f   TControlSvr.obj
 0001:00050b08       __unwindfunclet$??$getline@DU?$char_traits@D@std@@V?$allocator@D@2@@std@@YAAAV?$basic_istream@DU?$char_traits@D@std@@@0@$$QAV10@AAV?$basic_string@DU?$char_traits@D@std@@V?$allocator@D@2@@0@D@Z$2 00451b08 f   TControlSvr.obj
 0001:00050b15       __ehhandler$??$getline@DU?$char_traits@D@std@@V?$allocator@D@2@@std@@YAAAV?$basic_istream@DU?$char_traits@D@std@@@0@$$QAV10@AAV?$basic_string@DU?$char_traits@D@std@@V?$allocator@D@2@@0@D@Z 00451b15 f   TControlSvr.obj
 0001:00050b40       __unwindfunclet$??$use_facet@V?$num_get@DV?$istreambuf_iterator@DU?$char_traits@D@std@@@std@@@std@@@std@@YAABV?$num_get@DV?$istreambuf_iterator@DU?$char_traits@D@std@@@std@@@0@ABVlocale@0@@Z$0 00451b40 f   TControlSvr.obj
 0001:00050b48       __unwindfunclet$??$use_facet@V?$num_get@DV?$istreambuf_iterator@DU?$char_traits@D@std@@@std@@@std@@@std@@YAABV?$num_get@DV?$istreambuf_iterator@DU?$char_traits@D@std@@@std@@@0@ABVlocale@0@@Z$2 00451b48 f   TControlSvr.obj
 0001:00050b57       __unwindfunclet$??$use_facet@V?$num_get@DV?$istreambuf_iterator@DU?$char_traits@D@std@@@std@@@std@@@std@@YAABV?$num_get@DV?$istreambuf_iterator@DU?$char_traits@D@std@@@std@@@0@ABVlocale@0@@Z$1 00451b57 f   TControlSvr.obj
 0001:00050b64       __ehhandler$??$use_facet@V?$num_get@DV?$istreambuf_iterator@DU?$char_traits@D@std@@@std@@@std@@@std@@YAABV?$num_get@DV?$istreambuf_iterator@DU?$char_traits@D@std@@@std@@@0@ABVlocale@0@@Z 00451b64 f   TControlSvr.obj
 0001:00050b90       __unwindfunclet$??0?$basic_istream@DU?$char_traits@D@std@@@std@@QAE@PAV?$basic_streambuf@DU?$char_traits@D@std@@@1@_N@Z$0 00451b90 f   TControlSvr.obj
 0001:00050bac       __unwindfunclet$??0?$basic_istream@DU?$char_traits@D@std@@@std@@QAE@PAV?$basic_streambuf@DU?$char_traits@D@std@@@1@_N@Z$2 00451bac f   TControlSvr.obj
 0001:00050bb9       __ehhandler$??0?$basic_istream@DU?$char_traits@D@std@@@std@@QAE@PAV?$basic_streambuf@DU?$char_traits@D@std@@@1@_N@Z 00451bb9 f   TControlSvr.obj
 0001:00050be0       __unwindfunclet$??0?$basic_stringbuf@DU?$char_traits@D@std@@V?$allocator@D@2@@std@@QAE@ABV?$basic_string@DU?$char_traits@D@std@@V?$allocator@D@2@@1@H@Z$0 00451be0 f   TControlSvr.obj
 0001:00050bed       __ehhandler$??0?$basic_stringbuf@DU?$char_traits@D@std@@V?$allocator@D@2@@std@@QAE@ABV?$basic_string@DU?$char_traits@D@std@@V?$allocator@D@2@@1@H@Z 00451bed f   TControlSvr.obj
 0001:00050c10       __unwindfunclet$??0CTControlSvrModule@@QAE@XZ$0 00451c10 f   TControlSvr.obj
 0001:00050c18       __unwindfunclet$??0CTControlSvrModule@@QAE@XZ$1 00451c18 f   TControlSvr.obj
 0001:00050c20       __unwindfunclet$??0CTControlSvrModule@@QAE@XZ$3 00451c20 f   TControlSvr.obj
 0001:00050c2e       __unwindfunclet$??0CTControlSvrModule@@QAE@XZ$4 00451c2e f   TControlSvr.obj
 0001:00050c3c       __unwindfunclet$??0CTControlSvrModule@@QAE@XZ$5 00451c3c f   TControlSvr.obj
 0001:00050c4a       __unwindfunclet$??0CTControlSvrModule@@QAE@XZ$6 00451c4a f   TControlSvr.obj
 0001:00050c58       __unwindfunclet$??0CTControlSvrModule@@QAE@XZ$7 00451c58 f   TControlSvr.obj
 0001:00050c66       __unwindfunclet$??0CTControlSvrModule@@QAE@XZ$8 00451c66 f   TControlSvr.obj
 0001:00050c74       __unwindfunclet$??0CTControlSvrModule@@QAE@XZ$9 00451c74 f   TControlSvr.obj
 0001:00050c82       __unwindfunclet$??0CTControlSvrModule@@QAE@XZ$10 00451c82 f   TControlSvr.obj
 0001:00050c90       __unwindfunclet$??0CTControlSvrModule@@QAE@XZ$11 00451c90 f   TControlSvr.obj
 0001:00050c9e       __unwindfunclet$??0CTControlSvrModule@@QAE@XZ$12 00451c9e f   TControlSvr.obj
 0001:00050cac       __unwindfunclet$??0CTControlSvrModule@@QAE@XZ$13 00451cac f   TControlSvr.obj
 0001:00050cba       __unwindfunclet$??0CTControlSvrModule@@QAE@XZ$14 00451cba f   TControlSvr.obj
 0001:00050cc8       __unwindfunclet$??0CTControlSvrModule@@QAE@XZ$15 00451cc8 f   TControlSvr.obj
 0001:00050cd6       __unwindfunclet$??0CTControlSvrModule@@QAE@XZ$16 00451cd6 f   TControlSvr.obj
 0001:00050ce4       __unwindfunclet$??0CTControlSvrModule@@QAE@XZ$17 00451ce4 f   TControlSvr.obj
 0001:00050cf2       __unwindfunclet$??0CTControlSvrModule@@QAE@XZ$18 00451cf2 f   TControlSvr.obj
 0001:00050d00       __unwindfunclet$??0CTControlSvrModule@@QAE@XZ$19 00451d00 f   TControlSvr.obj
 0001:00050d0e       __unwindfunclet$??0CTControlSvrModule@@QAE@XZ$20 00451d0e f   TControlSvr.obj
 0001:00050d1c       __unwindfunclet$??0CTControlSvrModule@@QAE@XZ$21 00451d1c f   TControlSvr.obj
 0001:00050d2a       __unwindfunclet$??0CTControlSvrModule@@QAE@XZ$22 00451d2a f   TControlSvr.obj
 0001:00050d38       __unwindfunclet$??0CTControlSvrModule@@QAE@XZ$23 00451d38 f   TControlSvr.obj
 0001:00050d46       __unwindfunclet$??0CTControlSvrModule@@QAE@XZ$24 00451d46 f   TControlSvr.obj
 0001:00050d54       __unwindfunclet$??0CTControlSvrModule@@QAE@XZ$25 00451d54 f   TControlSvr.obj
 0001:00050d68       __ehhandler$??0CTControlSvrModule@@QAE@XZ 00451d68 f   TControlSvr.obj
 0001:00050d90       __ehhandler$??1CTControlSvrModule@@UAE@XZ 00451d90 f   TControlSvr.obj
 0001:00050db0       __ehhandler$??1sentry@?$basic_istream@DU?$char_traits@D@std@@@std@@QAE@XZ 00451db0 f   TControlSvr.obj
 0001:00050db0       __ehhandler$??_D?$basic_istream@DU?$char_traits@D@std@@@std@@QAEXXZ 00451db0 f   libcpmt:cin.obj
 0001:00050dd0       __unwindfunclet$??HATL@@YA?AV?$CStringT@DV?$StrTraitATL@DV?$ChTraitsCRT@D@ATL@@@ATL@@@0@ABV10@PBD@Z$0 00451dd0 f   TControlSvr.obj
 0001:00050dee       __ehhandler$??HATL@@YA?AV?$CStringT@DV?$StrTraitATL@DV?$ChTraitsCRT@D@ATL@@@ATL@@@0@ABV10@PBD@Z 00451dee f   TControlSvr.obj
 0001:00050e10       __ehhandler$??_D?$basic_istringstream@DU?$char_traits@D@std@@V?$allocator@D@2@@std@@QAEXXZ 00451e10 f   TControlSvr.obj
 0001:00050e10       __ehhandler$??_GCSession@@UAEPAXI@Z 00451e10 f   TNetLib:Session.obj
 0001:00050e10       __ehhandler$??_GCSqlDatabase@@UAEPAXI@Z 00451e10 f   TNetLib:SqlDatabase.obj
 0001:00050e30       __unwindfunclet$?Accept@CTControlSvrModule@@IAEEXZ$0 00451e30 f   TControlSvr.obj
 0001:00050e42       __unwindfunclet$?Accept@CTControlSvrModule@@IAEEXZ$1 00451e42 f   TControlSvr.obj
 0001:00050e4a       __unwindfunclet$?Accept@CTControlSvrModule@@IAEEXZ$4 00451e4a f   TControlSvr.obj
 0001:00050e57       __ehhandler$?Accept@CTControlSvrModule@@IAEEXZ 00451e57 f   TControlSvr.obj
 0001:00050e80       __unwindfunclet$?CheckEvent@CTControlSvrModule@@IAEXXZ$0 00451e80 f   TControlSvr.obj
 0001:00050e92       __unwindfunclet$?CheckEvent@CTControlSvrModule@@IAEXXZ$1 00451e92 f   TControlSvr.obj
 0001:00050ea4       __unwindfunclet$?CheckEvent@CTControlSvrModule@@IAEXXZ$2 00451ea4 f   TControlSvr.obj
 0001:00050eb6       __unwindfunclet$?CheckEvent@CTControlSvrModule@@IAEXXZ$3 00451eb6 f   TControlSvr.obj
 0001:00050ec8       __unwindfunclet$?CheckEvent@CTControlSvrModule@@IAEXXZ$4 00451ec8 f   TControlSvr.obj
 0001:00050edf       __ehhandler$?CheckEvent@CTControlSvrModule@@IAEXXZ 00451edf f   TControlSvr.obj
 0001:00050f10       __unwindfunclet$?ClosingSession@CTControlSvrModule@@IAEXPAVCTControlSession@@@Z$0 00451f10 f   TControlSvr.obj
 0001:00050f24       __ehhandler$?ClosingSession@CTControlSvrModule@@IAEXPAVCTControlSession@@@Z 00451f24 f   TControlSvr.obj
 0001:00050f50       __unwindfunclet$?LoadConfig@CTControlSvrModule@@IAEKXZ$0 00451f50 f   TControlSvr.obj
 0001:00050f58       __unwindfunclet$?LoadConfig@CTControlSvrModule@@IAEKXZ$2 00451f58 f   TControlSvr.obj
 0001:00050f60       __unwindfunclet$?LoadConfig@CTControlSvrModule@@IAEKXZ$4 00451f60 f   TControlSvr.obj
 0001:00050f6d       __ehhandler$?LoadConfig@CTControlSvrModule@@IAEKXZ 00451f6d f   TControlSvr.obj
 0001:00050f90       __unwindfunclet$?LoadData@CTControlSvrModule@@IAEKXZ$1 00451f90 f   TControlSvr.obj
 0001:00050f98       __unwindfunclet$?LoadData@CTControlSvrModule@@IAEKXZ$59 00451f98 f   TControlSvr.obj
 0001:00050fa0       __unwindfunclet$?LoadData@CTControlSvrModule@@IAEKXZ$3 00451fa0 f   TControlSvr.obj
 0001:00050fa8       __unwindfunclet$?LoadData@CTControlSvrModule@@IAEKXZ$5 00451fa8 f   TControlSvr.obj
 0001:00050fb0       __unwindfunclet$?LoadData@CTControlSvrModule@@IAEKXZ$54 00451fb0 f   TControlSvr.obj
 0001:00050fb8       __unwindfunclet$?LoadData@CTControlSvrModule@@IAEKXZ$7 00451fb8 f   TControlSvr.obj
 0001:00050fc0       __unwindfunclet$?LoadData@CTControlSvrModule@@IAEKXZ$49 00451fc0 f   TControlSvr.obj
 0001:00050fc8       __unwindfunclet$?LoadData@CTControlSvrModule@@IAEKXZ$9 00451fc8 f   TControlSvr.obj
 0001:00050fd3       __unwindfunclet$?LoadData@CTControlSvrModule@@IAEKXZ$81 00451fd3 f   TControlSvr.obj
 0001:00050fdb       __unwindfunclet$?LoadData@CTControlSvrModule@@IAEKXZ$12 00451fdb f   TControlSvr.obj
 0001:00050fe3       __unwindfunclet$?LoadData@CTControlSvrModule@@IAEKXZ$39 00451fe3 f   TControlSvr.obj
 0001:00050feb       __unwindfunclet$?LoadData@CTControlSvrModule@@IAEKXZ$13 00451feb f   TControlSvr.obj
 0001:00050ff3       __unwindfunclet$?LoadData@CTControlSvrModule@@IAEKXZ$40 00451ff3 f   TControlSvr.obj
 0001:00050ffb       __unwindfunclet$?LoadData@CTControlSvrModule@@IAEKXZ$14 00451ffb f   TControlSvr.obj
 0001:00051003       __unwindfunclet$?LoadData@CTControlSvrModule@@IAEKXZ$16 00452003 f   TControlSvr.obj
 0001:0005100e       __unwindfunclet$?LoadData@CTControlSvrModule@@IAEKXZ$17 0045200e f   TControlSvr.obj
 0001:00051016       __unwindfunclet$?LoadData@CTControlSvrModule@@IAEKXZ$19 00452016 f   TControlSvr.obj
 0001:00051021       __unwindfunclet$?LoadData@CTControlSvrModule@@IAEKXZ$20 00452021 f   TControlSvr.obj
 0001:0005102c       __unwindfunclet$?LoadData@CTControlSvrModule@@IAEKXZ$22 0045202c f   TControlSvr.obj
 0001:00051037       __unwindfunclet$?LoadData@CTControlSvrModule@@IAEKXZ$25 00452037 f   TControlSvr.obj
 0001:0005103f       __unwindfunclet$?LoadData@CTControlSvrModule@@IAEKXZ$24 0045203f f   TControlSvr.obj
 0001:0005104c       __ehhandler$?LoadData@CTControlSvrModule@@IAEKXZ 0045204c f   TControlSvr.obj
 0001:00051080       __unwindfunclet$?MakeStrValue@CTControlSvrModule@@IAEXAAUtagEVENTINFO@@AAV?$CStringT@DV?$StrTraitATL@DV?$ChTraitsCRT@D@ATL@@@ATL@@@ATL@@E@Z$33 00452080 f   TControlSvr.obj
 0001:00051088       __unwindfunclet$?MakeStrValue@CTControlSvrModule@@IAEXAAUtagEVENTINFO@@AAV?$CStringT@DV?$StrTraitATL@DV?$ChTraitsCRT@D@ATL@@@ATL@@@ATL@@E@Z$0 00452088 f   TControlSvr.obj
 0001:00051090       __unwindfunclet$?MakeStrValue@CTControlSvrModule@@IAEXAAUtagEVENTINFO@@AAV?$CStringT@DV?$StrTraitATL@DV?$ChTraitsCRT@D@ATL@@@ATL@@@ATL@@E@Z$34 00452090 f   TControlSvr.obj
 0001:00051098       __unwindfunclet$?MakeStrValue@CTControlSvrModule@@IAEXAAUtagEVENTINFO@@AAV?$CStringT@DV?$StrTraitATL@DV?$ChTraitsCRT@D@ATL@@@ATL@@@ATL@@E@Z$1 00452098 f   TControlSvr.obj
 0001:000510a0       __unwindfunclet$?MakeStrValue@CTControlSvrModule@@IAEXAAUtagEVENTINFO@@AAV?$CStringT@DV?$StrTraitATL@DV?$ChTraitsCRT@D@ATL@@@ATL@@@ATL@@E@Z$35 004520a0 f   TControlSvr.obj
 0001:000510a8       __unwindfunclet$?MakeStrValue@CTControlSvrModule@@IAEXAAUtagEVENTINFO@@AAV?$CStringT@DV?$StrTraitATL@DV?$ChTraitsCRT@D@ATL@@@ATL@@@ATL@@E@Z$2 004520a8 f   TControlSvr.obj
 0001:000510b0       __unwindfunclet$?MakeStrValue@CTControlSvrModule@@IAEXAAUtagEVENTINFO@@AAV?$CStringT@DV?$StrTraitATL@DV?$ChTraitsCRT@D@ATL@@@ATL@@@ATL@@E@Z$36 004520b0 f   TControlSvr.obj
 0001:000510b8       __unwindfunclet$?MakeStrValue@CTControlSvrModule@@IAEXAAUtagEVENTINFO@@AAV?$CStringT@DV?$StrTraitATL@DV?$ChTraitsCRT@D@ATL@@@ATL@@@ATL@@E@Z$3 004520b8 f   TControlSvr.obj
 0001:000510c0       __unwindfunclet$?MakeStrValue@CTControlSvrModule@@IAEXAAUtagEVENTINFO@@AAV?$CStringT@DV?$StrTraitATL@DV?$ChTraitsCRT@D@ATL@@@ATL@@@ATL@@E@Z$37 004520c0 f   TControlSvr.obj
 0001:000510c8       __unwindfunclet$?MakeStrValue@CTControlSvrModule@@IAEXAAUtagEVENTINFO@@AAV?$CStringT@DV?$StrTraitATL@DV?$ChTraitsCRT@D@ATL@@@ATL@@@ATL@@E@Z$4 004520c8 f   TControlSvr.obj
 0001:000510d0       __unwindfunclet$?MakeStrValue@CTControlSvrModule@@IAEXAAUtagEVENTINFO@@AAV?$CStringT@DV?$StrTraitATL@DV?$ChTraitsCRT@D@ATL@@@ATL@@@ATL@@E@Z$38 004520d0 f   TControlSvr.obj
 0001:000510d8       __unwindfunclet$?MakeStrValue@CTControlSvrModule@@IAEXAAUtagEVENTINFO@@AAV?$CStringT@DV?$StrTraitATL@DV?$ChTraitsCRT@D@ATL@@@ATL@@@ATL@@E@Z$5 004520d8 f   TControlSvr.obj
 0001:000510e0       __unwindfunclet$?MakeStrValue@CTControlSvrModule@@IAEXAAUtagEVENTINFO@@AAV?$CStringT@DV?$StrTraitATL@DV?$ChTraitsCRT@D@ATL@@@ATL@@@ATL@@E@Z$39 004520e0 f   TControlSvr.obj
 0001:000510e8       __unwindfunclet$?MakeStrValue@CTControlSvrModule@@IAEXAAUtagEVENTINFO@@AAV?$CStringT@DV?$StrTraitATL@DV?$ChTraitsCRT@D@ATL@@@ATL@@@ATL@@E@Z$6 004520e8 f   TControlSvr.obj
 0001:000510f0       __unwindfunclet$?MakeStrValue@CTControlSvrModule@@IAEXAAUtagEVENTINFO@@AAV?$CStringT@DV?$StrTraitATL@DV?$ChTraitsCRT@D@ATL@@@ATL@@@ATL@@E@Z$7 004520f0 f   TControlSvr.obj
 0001:000510f8       __unwindfunclet$?MakeStrValue@CTControlSvrModule@@IAEXAAUtagEVENTINFO@@AAV?$CStringT@DV?$StrTraitATL@DV?$ChTraitsCRT@D@ATL@@@ATL@@@ATL@@E@Z$8 004520f8 f   TControlSvr.obj
 0001:00051100       __unwindfunclet$?MakeStrValue@CTControlSvrModule@@IAEXAAUtagEVENTINFO@@AAV?$CStringT@DV?$StrTraitATL@DV?$ChTraitsCRT@D@ATL@@@ATL@@@ATL@@E@Z$9 00452100 f   TControlSvr.obj
 0001:00051108       __unwindfunclet$?MakeStrValue@CTControlSvrModule@@IAEXAAUtagEVENTINFO@@AAV?$CStringT@DV?$StrTraitATL@DV?$ChTraitsCRT@D@ATL@@@ATL@@@ATL@@E@Z$10 00452108 f   TControlSvr.obj
 0001:00051110       __unwindfunclet$?MakeStrValue@CTControlSvrModule@@IAEXAAUtagEVENTINFO@@AAV?$CStringT@DV?$StrTraitATL@DV?$ChTraitsCRT@D@ATL@@@ATL@@@ATL@@E@Z$11 00452110 f   TControlSvr.obj
 0001:00051118       __unwindfunclet$?MakeStrValue@CTControlSvrModule@@IAEXAAUtagEVENTINFO@@AAV?$CStringT@DV?$StrTraitATL@DV?$ChTraitsCRT@D@ATL@@@ATL@@@ATL@@E@Z$12 00452118 f   TControlSvr.obj
 0001:00051120       __unwindfunclet$?MakeStrValue@CTControlSvrModule@@IAEXAAUtagEVENTINFO@@AAV?$CStringT@DV?$StrTraitATL@DV?$ChTraitsCRT@D@ATL@@@ATL@@@ATL@@E@Z$13 00452120 f   TControlSvr.obj
 0001:00051128       __unwindfunclet$?MakeStrValue@CTControlSvrModule@@IAEXAAUtagEVENTINFO@@AAV?$CStringT@DV?$StrTraitATL@DV?$ChTraitsCRT@D@ATL@@@ATL@@@ATL@@E@Z$14 00452128 f   TControlSvr.obj
 0001:00051130       __unwindfunclet$?MakeStrValue@CTControlSvrModule@@IAEXAAUtagEVENTINFO@@AAV?$CStringT@DV?$StrTraitATL@DV?$ChTraitsCRT@D@ATL@@@ATL@@@ATL@@E@Z$15 00452130 f   TControlSvr.obj
 0001:00051138       __unwindfunclet$?MakeStrValue@CTControlSvrModule@@IAEXAAUtagEVENTINFO@@AAV?$CStringT@DV?$StrTraitATL@DV?$ChTraitsCRT@D@ATL@@@ATL@@@ATL@@E@Z$16 00452138 f   TControlSvr.obj
 0001:00051140       __unwindfunclet$?MakeStrValue@CTControlSvrModule@@IAEXAAUtagEVENTINFO@@AAV?$CStringT@DV?$StrTraitATL@DV?$ChTraitsCRT@D@ATL@@@ATL@@@ATL@@E@Z$17 00452140 f   TControlSvr.obj
 0001:00051148       __unwindfunclet$?MakeStrValue@CTControlSvrModule@@IAEXAAUtagEVENTINFO@@AAV?$CStringT@DV?$StrTraitATL@DV?$ChTraitsCRT@D@ATL@@@ATL@@@ATL@@E@Z$18 00452148 f   TControlSvr.obj
 0001:00051150       __unwindfunclet$?MakeStrValue@CTControlSvrModule@@IAEXAAUtagEVENTINFO@@AAV?$CStringT@DV?$StrTraitATL@DV?$ChTraitsCRT@D@ATL@@@ATL@@@ATL@@E@Z$19 00452150 f   TControlSvr.obj
 0001:00051158       __unwindfunclet$?MakeStrValue@CTControlSvrModule@@IAEXAAUtagEVENTINFO@@AAV?$CStringT@DV?$StrTraitATL@DV?$ChTraitsCRT@D@ATL@@@ATL@@@ATL@@E@Z$20 00452158 f   TControlSvr.obj
 0001:00051160       __unwindfunclet$?MakeStrValue@CTControlSvrModule@@IAEXAAUtagEVENTINFO@@AAV?$CStringT@DV?$StrTraitATL@DV?$ChTraitsCRT@D@ATL@@@ATL@@@ATL@@E@Z$21 00452160 f   TControlSvr.obj
 0001:00051168       __unwindfunclet$?MakeStrValue@CTControlSvrModule@@IAEXAAUtagEVENTINFO@@AAV?$CStringT@DV?$StrTraitATL@DV?$ChTraitsCRT@D@ATL@@@ATL@@@ATL@@E@Z$22 00452168 f   TControlSvr.obj
 0001:00051170       __unwindfunclet$?MakeStrValue@CTControlSvrModule@@IAEXAAUtagEVENTINFO@@AAV?$CStringT@DV?$StrTraitATL@DV?$ChTraitsCRT@D@ATL@@@ATL@@@ATL@@E@Z$23 00452170 f   TControlSvr.obj
 0001:00051178       __unwindfunclet$?MakeStrValue@CTControlSvrModule@@IAEXAAUtagEVENTINFO@@AAV?$CStringT@DV?$StrTraitATL@DV?$ChTraitsCRT@D@ATL@@@ATL@@@ATL@@E@Z$24 00452178 f   TControlSvr.obj
 0001:00051180       __unwindfunclet$?MakeStrValue@CTControlSvrModule@@IAEXAAUtagEVENTINFO@@AAV?$CStringT@DV?$StrTraitATL@DV?$ChTraitsCRT@D@ATL@@@ATL@@@ATL@@E@Z$25 00452180 f   TControlSvr.obj
 0001:00051188       __unwindfunclet$?MakeStrValue@CTControlSvrModule@@IAEXAAUtagEVENTINFO@@AAV?$CStringT@DV?$StrTraitATL@DV?$ChTraitsCRT@D@ATL@@@ATL@@@ATL@@E@Z$26 00452188 f   TControlSvr.obj
 0001:00051190       __unwindfunclet$?MakeStrValue@CTControlSvrModule@@IAEXAAUtagEVENTINFO@@AAV?$CStringT@DV?$StrTraitATL@DV?$ChTraitsCRT@D@ATL@@@ATL@@@ATL@@E@Z$27 00452190 f   TControlSvr.obj
 0001:00051198       __unwindfunclet$?MakeStrValue@CTControlSvrModule@@IAEXAAUtagEVENTINFO@@AAV?$CStringT@DV?$StrTraitATL@DV?$ChTraitsCRT@D@ATL@@@ATL@@@ATL@@E@Z$28 00452198 f   TControlSvr.obj
 0001:000511a0       __unwindfunclet$?MakeStrValue@CTControlSvrModule@@IAEXAAUtagEVENTINFO@@AAV?$CStringT@DV?$StrTraitATL@DV?$ChTraitsCRT@D@ATL@@@ATL@@@ATL@@E@Z$29 004521a0 f   TControlSvr.obj
 0001:000511a8       __unwindfunclet$?MakeStrValue@CTControlSvrModule@@IAEXAAUtagEVENTINFO@@AAV?$CStringT@DV?$StrTraitATL@DV?$ChTraitsCRT@D@ATL@@@ATL@@@ATL@@E@Z$30 004521a8 f   TControlSvr.obj
 0001:000511b0       __unwindfunclet$?MakeStrValue@CTControlSvrModule@@IAEXAAUtagEVENTINFO@@AAV?$CStringT@DV?$StrTraitATL@DV?$ChTraitsCRT@D@ATL@@@ATL@@@ATL@@E@Z$31 004521b0 f   TControlSvr.obj
 0001:000511b8       __unwindfunclet$?MakeStrValue@CTControlSvrModule@@IAEXAAUtagEVENTINFO@@AAV?$CStringT@DV?$StrTraitATL@DV?$ChTraitsCRT@D@ATL@@@ATL@@@ATL@@E@Z$32 004521b8 f   TControlSvr.obj
 0001:000511c5       __ehhandler$?MakeStrValue@CTControlSvrModule@@IAEXAAUtagEVENTINFO@@AAV?$CStringT@DV?$StrTraitATL@DV?$ChTraitsCRT@D@ATL@@@ATL@@@ATL@@E@Z 004521c5 f   TControlSvr.obj
 0001:000511f0       __unwindfunclet$?OpenPlatform@CTControlSvrModule@@IAEXXZ$0 004521f0 f   TControlSvr.obj
 0001:000511ff       __unwindfunclet$?OpenPlatform@CTControlSvrModule@@IAEXXZ$3 004521ff f   TControlSvr.obj
 0001:00051218       __unwindfunclet$?OpenPlatform@CTControlSvrModule@@IAEXXZ$4 00452218 f   TControlSvr.obj
 0001:00051231       __unwindfunclet$?OpenPlatform@CTControlSvrModule@@IAEXXZ$7 00452231 f   TControlSvr.obj
 0001:0005123e       __ehhandler$?OpenPlatform@CTControlSvrModule@@IAEXXZ 0045223e f   TControlSvr.obj
 0001:00051260       __unwindfunclet$?ParseStrValue@CTControlSvrModule@@IAEXAAUtagEVENTINFO@@V?$CStringT@DV?$StrTraitATL@DV?$ChTraitsCRT@D@ATL@@@ATL@@@ATL@@E@Z$0 00452260 f   TControlSvr.obj
 0001:00051268       __unwindfunclet$?ParseStrValue@CTControlSvrModule@@IAEXAAUtagEVENTINFO@@V?$CStringT@DV?$StrTraitATL@DV?$ChTraitsCRT@D@ATL@@@ATL@@@ATL@@E@Z$1 00452268 f   TControlSvr.obj
 0001:00051270       __unwindfunclet$?ParseStrValue@CTControlSvrModule@@IAEXAAUtagEVENTINFO@@V?$CStringT@DV?$StrTraitATL@DV?$ChTraitsCRT@D@ATL@@@ATL@@@ATL@@E@Z$2 00452270 f   TControlSvr.obj
 0001:00051278       __unwindfunclet$?ParseStrValue@CTControlSvrModule@@IAEXAAUtagEVENTINFO@@V?$CStringT@DV?$StrTraitATL@DV?$ChTraitsCRT@D@ATL@@@ATL@@@ATL@@E@Z$3 00452278 f   TControlSvr.obj
 0001:00051280       __unwindfunclet$?ParseStrValue@CTControlSvrModule@@IAEXAAUtagEVENTINFO@@V?$CStringT@DV?$StrTraitATL@DV?$ChTraitsCRT@D@ATL@@@ATL@@@ATL@@E@Z$4 00452280 f   TControlSvr.obj
 0001:00051288       __unwindfunclet$?ParseStrValue@CTControlSvrModule@@IAEXAAUtagEVENTINFO@@V?$CStringT@DV?$StrTraitATL@DV?$ChTraitsCRT@D@ATL@@@ATL@@@ATL@@E@Z$5 00452288 f   TControlSvr.obj
 0001:00051290       __unwindfunclet$?ParseStrValue@CTControlSvrModule@@IAEXAAUtagEVENTINFO@@V?$CStringT@DV?$StrTraitATL@DV?$ChTraitsCRT@D@ATL@@@ATL@@@ATL@@E@Z$6 00452290 f   TControlSvr.obj
 0001:00051298       __unwindfunclet$?ParseStrValue@CTControlSvrModule@@IAEXAAUtagEVENTINFO@@V?$CStringT@DV?$StrTraitATL@DV?$ChTraitsCRT@D@ATL@@@ATL@@@ATL@@E@Z$7 00452298 f   TControlSvr.obj
 0001:000512a0       __unwindfunclet$?ParseStrValue@CTControlSvrModule@@IAEXAAUtagEVENTINFO@@V?$CStringT@DV?$StrTraitATL@DV?$ChTraitsCRT@D@ATL@@@ATL@@@ATL@@E@Z$8 004522a0 f   TControlSvr.obj
 0001:000512a8       __unwindfunclet$?ParseStrValue@CTControlSvrModule@@IAEXAAUtagEVENTINFO@@V?$CStringT@DV?$StrTraitATL@DV?$ChTraitsCRT@D@ATL@@@ATL@@@ATL@@E@Z$9 004522a8 f   TControlSvr.obj
 0001:000512b0       __unwindfunclet$?ParseStrValue@CTControlSvrModule@@IAEXAAUtagEVENTINFO@@V?$CStringT@DV?$StrTraitATL@DV?$ChTraitsCRT@D@ATL@@@ATL@@@ATL@@E@Z$10 004522b0 f   TControlSvr.obj
 0001:000512b8       __unwindfunclet$?ParseStrValue@CTControlSvrModule@@IAEXAAUtagEVENTINFO@@V?$CStringT@DV?$StrTraitATL@DV?$ChTraitsCRT@D@ATL@@@ATL@@@ATL@@E@Z$11 004522b8 f   TControlSvr.obj
 0001:000512c0       __unwindfunclet$?ParseStrValue@CTControlSvrModule@@IAEXAAUtagEVENTINFO@@V?$CStringT@DV?$StrTraitATL@DV?$ChTraitsCRT@D@ATL@@@ATL@@@ATL@@E@Z$12 004522c0 f   TControlSvr.obj
 0001:000512c8       __unwindfunclet$?ParseStrValue@CTControlSvrModule@@IAEXAAUtagEVENTINFO@@V?$CStringT@DV?$StrTraitATL@DV?$ChTraitsCRT@D@ATL@@@ATL@@@ATL@@E@Z$13 004522c8 f   TControlSvr.obj
 0001:000512d0       __unwindfunclet$?ParseStrValue@CTControlSvrModule@@IAEXAAUtagEVENTINFO@@V?$CStringT@DV?$StrTraitATL@DV?$ChTraitsCRT@D@ATL@@@ATL@@@ATL@@E@Z$14 004522d0 f   TControlSvr.obj
 0001:000512d8       __unwindfunclet$?ParseStrValue@CTControlSvrModule@@IAEXAAUtagEVENTINFO@@V?$CStringT@DV?$StrTraitATL@DV?$ChTraitsCRT@D@ATL@@@ATL@@@ATL@@E@Z$15 004522d8 f   TControlSvr.obj
 0001:000512e0       __unwindfunclet$?ParseStrValue@CTControlSvrModule@@IAEXAAUtagEVENTINFO@@V?$CStringT@DV?$StrTraitATL@DV?$ChTraitsCRT@D@ATL@@@ATL@@@ATL@@E@Z$16 004522e0 f   TControlSvr.obj
 0001:000512e8       __unwindfunclet$?ParseStrValue@CTControlSvrModule@@IAEXAAUtagEVENTINFO@@V?$CStringT@DV?$StrTraitATL@DV?$ChTraitsCRT@D@ATL@@@ATL@@@ATL@@E@Z$17 004522e8 f   TControlSvr.obj
 0001:000512f0       __unwindfunclet$?ParseStrValue@CTControlSvrModule@@IAEXAAUtagEVENTINFO@@V?$CStringT@DV?$StrTraitATL@DV?$ChTraitsCRT@D@ATL@@@ATL@@@ATL@@E@Z$18 004522f0 f   TControlSvr.obj
 0001:000512f8       __unwindfunclet$?ParseStrValue@CTControlSvrModule@@IAEXAAUtagEVENTINFO@@V?$CStringT@DV?$StrTraitATL@DV?$ChTraitsCRT@D@ATL@@@ATL@@@ATL@@E@Z$19 004522f8 f   TControlSvr.obj
 0001:00051300       __unwindfunclet$?ParseStrValue@CTControlSvrModule@@IAEXAAUtagEVENTINFO@@V?$CStringT@DV?$StrTraitATL@DV?$ChTraitsCRT@D@ATL@@@ATL@@@ATL@@E@Z$20 00452300 f   TControlSvr.obj
 0001:00051308       __unwindfunclet$?ParseStrValue@CTControlSvrModule@@IAEXAAUtagEVENTINFO@@V?$CStringT@DV?$StrTraitATL@DV?$ChTraitsCRT@D@ATL@@@ATL@@@ATL@@E@Z$21 00452308 f   TControlSvr.obj
 0001:00051310       __unwindfunclet$?ParseStrValue@CTControlSvrModule@@IAEXAAUtagEVENTINFO@@V?$CStringT@DV?$StrTraitATL@DV?$ChTraitsCRT@D@ATL@@@ATL@@@ATL@@E@Z$22 00452310 f   TControlSvr.obj
 0001:0005131d       __ehhandler$?ParseStrValue@CTControlSvrModule@@IAEXAAUtagEVENTINFO@@V?$CStringT@DV?$StrTraitATL@DV?$ChTraitsCRT@D@ATL@@@ATL@@@ATL@@E@Z 0045231d f   TControlSvr.obj
 0001:00051340       __unwindfunclet$?QueryStatus@CTControlSvrModule@@IAEXXZ$0 00452340 f   TControlSvr.obj
 0001:0005134f       __unwindfunclet$?QueryStatus@CTControlSvrModule@@IAEXXZ$1 0045234f f   TControlSvr.obj
 0001:0005135e       __unwindfunclet$?QueryStatus@CTControlSvrModule@@IAEXXZ$2 0045235e f   TControlSvr.obj
 0001:00051372       __ehhandler$?QueryStatus@CTControlSvrModule@@IAEXXZ 00452372 f   TControlSvr.obj
 0001:00051390       __unwindfunclet$?SendSvrStatusSMS@CTControlSvrModule@@IAEXEKE@Z$1 00452390 f   TControlSvr.obj
 0001:00051390       __unwindfunclet$?Flush@CSession@@QAEXXZ$0 00452390 f   TNetLib:Session.obj
 0001:00051390       __unwindfunclet$?OnInvalidSession@CSession@@QAEHXZ$0 00452390 f   TNetLib:Session.obj
 0001:00051390       __unwindfunclet$?Read@CSession@@QAEHK@Z$0 00452390 f   TNetLib:Session.obj
 0001:0005139d       __ehhandler$?SendSvrStatusSMS@CTControlSvrModule@@IAEXEKE@Z 0045239d f   TControlSvr.obj
 0001:0005139d       __ehhandler$?Flush@CSession@@QAEXXZ 0045239d f   TNetLib:Session.obj
 0001:0005139d       __ehhandler$?OnInvalidSession@CSession@@QAEHXZ 0045239d f   TNetLib:Session.obj
 0001:0005139d       __ehhandler$?Read@CSession@@QAEHK@Z 0045239d f   TNetLib:Session.obj
 0001:000513c0       __unwindfunclet$?Tokenize@?$CStringT@DV?$StrTraitATL@DV?$ChTraitsCRT@D@ATL@@@ATL@@@ATL@@QBE?AV12@PBDAAH@Z$1 004523c0 f   TControlSvr.obj
 0001:000513cd       __ehhandler$?Tokenize@?$CStringT@DV?$StrTraitATL@DV?$ChTraitsCRT@D@ATL@@@ATL@@@ATL@@QBE?AV12@PBDAAH@Z 004523cd f   TControlSvr.obj
 0001:000513f0       __unwindfunclet$?WorkThread@CTControlSvrModule@@IAEKXZ$0 004523f0 f   TControlSvr.obj
 0001:00051404       __ehhandler$?WorkThread@CTControlSvrModule@@IAEKXZ 00452404 f   TControlSvr.obj
 0001:00051430       __unwindfunclet$?_Getffld@?$num_get@DV?$istreambuf_iterator@DU?$char_traits@D@std@@@std@@@std@@ABAHPADAAV?$istreambuf_iterator@DU?$char_traits@D@std@@@2@1AAVios_base@2@PAH@Z$0 00452430 f   TControlSvr.obj
 0001:00051438       __unwindfunclet$?_Getffld@?$num_get@DV?$istreambuf_iterator@DU?$char_traits@D@std@@@std@@@std@@ABAHPADAAV?$istreambuf_iterator@DU?$char_traits@D@std@@@2@1AAVios_base@2@PAH@Z$1 00452438 f   TControlSvr.obj
 0001:00051440       __unwindfunclet$?_Getffld@?$num_get@DV?$istreambuf_iterator@DU?$char_traits@D@std@@@std@@@std@@ABAHPADAAV?$istreambuf_iterator@DU?$char_traits@D@std@@@2@1AAVios_base@2@PAH@Z$2 00452440 f   TControlSvr.obj
 0001:00051448       __unwindfunclet$?_Getffld@?$num_get@DV?$istreambuf_iterator@DU?$char_traits@D@std@@@std@@@std@@ABAHPADAAV?$istreambuf_iterator@DU?$char_traits@D@std@@@2@1AAVios_base@2@PAH@Z$3 00452448 f   TControlSvr.obj
 0001:00051455       __ehhandler$?_Getffld@?$num_get@DV?$istreambuf_iterator@DU?$char_traits@D@std@@@std@@@std@@ABAHPADAAV?$istreambuf_iterator@DU?$char_traits@D@std@@@2@1AAVios_base@2@PAH@Z 00452455 f   TControlSvr.obj
 0001:00051480       __unwindfunclet$?_Getffldx@?$num_get@DV?$istreambuf_iterator@DU?$char_traits@D@std@@@std@@@std@@ABAHPADAAV?$istreambuf_iterator@DU?$char_traits@D@std@@@2@1AAVios_base@2@PAH@Z$0 00452480 f   TControlSvr.obj
 0001:00051488       __unwindfunclet$?_Getffldx@?$num_get@DV?$istreambuf_iterator@DU?$char_traits@D@std@@@std@@@std@@ABAHPADAAV?$istreambuf_iterator@DU?$char_traits@D@std@@@2@1AAVios_base@2@PAH@Z$1 00452488 f   TControlSvr.obj
 0001:00051490       __unwindfunclet$?_Getffldx@?$num_get@DV?$istreambuf_iterator@DU?$char_traits@D@std@@@std@@@std@@ABAHPADAAV?$istreambuf_iterator@DU?$char_traits@D@std@@@2@1AAVios_base@2@PAH@Z$2 00452490 f   TControlSvr.obj
 0001:00051498       __unwindfunclet$?_Getffldx@?$num_get@DV?$istreambuf_iterator@DU?$char_traits@D@std@@@std@@@std@@ABAHPADAAV?$istreambuf_iterator@DU?$char_traits@D@std@@@2@1AAVios_base@2@PAH@Z$3 00452498 f   TControlSvr.obj
 0001:000514a5       __ehhandler$?_Getffldx@?$num_get@DV?$istreambuf_iterator@DU?$char_traits@D@std@@@std@@@std@@ABAHPADAAV?$istreambuf_iterator@DU?$char_traits@D@std@@@2@1AAVios_base@2@PAH@Z 004524a5 f   TControlSvr.obj
 0001:000514d0       __unwindfunclet$?_Getifld@?$num_get@DV?$istreambuf_iterator@DU?$char_traits@D@std@@@std@@@std@@ABAHPADAAV?$istreambuf_iterator@DU?$char_traits@D@std@@@2@1HABVlocale@2@@Z$0 004524d0 f   TControlSvr.obj
 0001:000514d8       __unwindfunclet$?_Getifld@?$num_get@DV?$istreambuf_iterator@DU?$char_traits@D@std@@@std@@@std@@ABAHPADAAV?$istreambuf_iterator@DU?$char_traits@D@std@@@2@1HABVlocale@2@@Z$1 004524d8 f   TControlSvr.obj
 0001:000514e5       __ehhandler$?_Getifld@?$num_get@DV?$istreambuf_iterator@DU?$char_traits@D@std@@@std@@@std@@ABAHPADAAV?$istreambuf_iterator@DU?$char_traits@D@std@@@2@1HABVlocale@2@@Z 004524e5 f   TControlSvr.obj
 0001:00051510       __unwindfunclet$?_Ipfx@?$basic_istream@DU?$char_traits@D@std@@@std@@QAE_N_N@Z$2 00452510 f   TControlSvr.obj
 0001:0005151d       __ehhandler$?_Ipfx@?$basic_istream@DU?$char_traits@D@std@@@std@@QAE_N_N@Z 0045251d f   TControlSvr.obj
 0001:00051540       __unwindfunclet$?_TimerThread@CTControlSvrModule@@CGKPAX@Z$0 00452540 f   TControlSvr.obj
 0001:00051554       __ehhandler$?_TimerThread@CTControlSvrModule@@CGKPAX@Z 00452554 f   TControlSvr.obj
 0001:00051580       __unwindfunclet$?do_get@?$num_get@DV?$istreambuf_iterator@DU?$char_traits@D@std@@@std@@@std@@MBE?AV?$istreambuf_iterator@DU?$char_traits@D@std@@@2@V32@0AAVios_base@2@AAHAAG@Z$0 00452580 f   TControlSvr.obj
 0001:0005158d       __ehhandler$?do_get@?$num_get@DV?$istreambuf_iterator@DU?$char_traits@D@std@@@std@@@std@@MBE?AV?$istreambuf_iterator@DU?$char_traits@D@std@@@2@V32@0AAVios_base@2@AAHAAG@Z 0045258d f   TControlSvr.obj
 0001:000515c0       __unwindfunclet$?do_get@?$num_get@DV?$istreambuf_iterator@DU?$char_traits@D@std@@@std@@@std@@MBE?AV?$istreambuf_iterator@DU?$char_traits@D@std@@@2@V32@0AAVios_base@2@AAHAAI@Z$0 004525c0 f   TControlSvr.obj
 0001:000515cd       __ehhandler$?do_get@?$num_get@DV?$istreambuf_iterator@DU?$char_traits@D@std@@@std@@@std@@MBE?AV?$istreambuf_iterator@DU?$char_traits@D@std@@@2@V32@0AAVios_base@2@AAHAAI@Z 004525cd f   TControlSvr.obj
 0001:00051600       __unwindfunclet$?do_get@?$num_get@DV?$istreambuf_iterator@DU?$char_traits@D@std@@@std@@@std@@MBE?AV?$istreambuf_iterator@DU?$char_traits@D@std@@@2@V32@0AAVios_base@2@AAHAAJ@Z$0 00452600 f   TControlSvr.obj
 0001:00051600       __unwindfunclet$?do_get@?$num_get@DV?$istreambuf_iterator@DU?$char_traits@D@std@@@std@@@std@@MBE?AV?$istreambuf_iterator@DU?$char_traits@D@std@@@2@V32@0AAVios_base@2@AAHAAK@Z$0 00452600 f   TControlSvr.obj
 0001:00051600       __unwindfunclet$?do_get@?$num_get@DV?$istreambuf_iterator@DU?$char_traits@D@std@@@std@@@std@@MBE?AV?$istreambuf_iterator@DU?$char_traits@D@std@@@2@V32@0AAVios_base@2@AAHAA_J@Z$0 00452600 f   TControlSvr.obj
 0001:00051600       __unwindfunclet$?do_get@?$num_get@DV?$istreambuf_iterator@DU?$char_traits@D@std@@@std@@@std@@MBE?AV?$istreambuf_iterator@DU?$char_traits@D@std@@@2@V32@0AAVios_base@2@AAHAA_K@Z$0 00452600 f   TControlSvr.obj
 0001:0005160d       __ehhandler$?do_get@?$num_get@DV?$istreambuf_iterator@DU?$char_traits@D@std@@@std@@@std@@MBE?AV?$istreambuf_iterator@DU?$char_traits@D@std@@@2@V32@0AAVios_base@2@AAHAAJ@Z 0045260d f   TControlSvr.obj
 0001:0005160d       __ehhandler$?do_get@?$num_get@DV?$istreambuf_iterator@DU?$char_traits@D@std@@@std@@@std@@MBE?AV?$istreambuf_iterator@DU?$char_traits@D@std@@@2@V32@0AAVios_base@2@AAHAAK@Z 0045260d f   TControlSvr.obj
 0001:0005160d       __ehhandler$?do_get@?$num_get@DV?$istreambuf_iterator@DU?$char_traits@D@std@@@std@@@std@@MBE?AV?$istreambuf_iterator@DU?$char_traits@D@std@@@2@V32@0AAVios_base@2@AAHAA_J@Z 0045260d f   TControlSvr.obj
 0001:0005160d       __ehhandler$?do_get@?$num_get@DV?$istreambuf_iterator@DU?$char_traits@D@std@@@std@@@std@@MBE?AV?$istreambuf_iterator@DU?$char_traits@D@std@@@2@V32@0AAVios_base@2@AAHAA_K@Z 0045260d f   TControlSvr.obj
 0001:00051640       __unwindfunclet$?do_get@?$num_get@DV?$istreambuf_iterator@DU?$char_traits@D@std@@@std@@@std@@MBE?AV?$istreambuf_iterator@DU?$char_traits@D@std@@@2@V32@0AAVios_base@2@AAHAAPAX@Z$0 00452640 f   TControlSvr.obj
 0001:0005164d       __ehhandler$?do_get@?$num_get@DV?$istreambuf_iterator@DU?$char_traits@D@std@@@std@@@std@@MBE?AV?$istreambuf_iterator@DU?$char_traits@D@std@@@2@V32@0AAVios_base@2@AAHAAPAX@Z 0045264d f   TControlSvr.obj
 0001:00051680       __unwindfunclet$?do_get@?$num_get@DV?$istreambuf_iterator@DU?$char_traits@D@std@@@std@@@std@@MBE?AV?$istreambuf_iterator@DU?$char_traits@D@std@@@2@V32@0AAVios_base@2@AAHAA_N@Z$0 00452680 f   TControlSvr.obj
 0001:00051688       __unwindfunclet$?do_get@?$num_get@DV?$istreambuf_iterator@DU?$char_traits@D@std@@@std@@@std@@MBE?AV?$istreambuf_iterator@DU?$char_traits@D@std@@@2@V32@0AAVios_base@2@AAHAA_N@Z$1 00452688 f   TControlSvr.obj
 0001:00051690       __unwindfunclet$?do_get@?$num_get@DV?$istreambuf_iterator@DU?$char_traits@D@std@@@std@@@std@@MBE?AV?$istreambuf_iterator@DU?$char_traits@D@std@@@2@V32@0AAVios_base@2@AAHAA_N@Z$2 00452690 f   TControlSvr.obj
 0001:00051698       __unwindfunclet$?do_get@?$num_get@DV?$istreambuf_iterator@DU?$char_traits@D@std@@@std@@@std@@MBE?AV?$istreambuf_iterator@DU?$char_traits@D@std@@@2@V32@0AAVios_base@2@AAHAA_N@Z$3 00452698 f   TControlSvr.obj
 0001:000516a0       __unwindfunclet$?do_get@?$num_get@DV?$istreambuf_iterator@DU?$char_traits@D@std@@@std@@@std@@MBE?AV?$istreambuf_iterator@DU?$char_traits@D@std@@@2@V32@0AAVios_base@2@AAHAA_N@Z$4 004526a0 f   TControlSvr.obj
 0001:000516ad       __ehhandler$?do_get@?$num_get@DV?$istreambuf_iterator@DU?$char_traits@D@std@@@std@@@std@@MBE?AV?$istreambuf_iterator@DU?$char_traits@D@std@@@2@V32@0AAVios_base@2@AAHAA_N@Z 004526ad f   TControlSvr.obj
 0001:000516e0       __unwindfunclet$_main$0    004526e0 f   TControlSvr.obj
 0001:000516e8       __unwindfunclet$_main$10   004526e8 f   TControlSvr.obj
 0001:000516f0       __unwindfunclet$_main$13   004526f0 f   TControlSvr.obj
 0001:0005170c       __unwindfunclet$_main$14   0045270c f   TControlSvr.obj
 0001:00051717       __unwindfunclet$_main$1    00452717 f   TControlSvr.obj
 0001:00051722       __unwindfunclet$_main$2    00452722 f   TControlSvr.obj
 0001:0005172f       __ehhandler$_main          0045272f f   TControlSvr.obj
 0001:00051760       __unwindfunclet$??0CTManager@@QAE@XZ$0 00452760 f   TManager.obj
 0001:00051768       __unwindfunclet$??0CTManager@@QAE@XZ$1 00452768 f   TManager.obj
 0001:0005177b       __ehhandler$??0CTManager@@QAE@XZ 0045277b f   TManager.obj
 0001:000517a0       __unwindfunclet$??HATL@@YA?AV?$CStringT@DV?$StrTraitATL@DV?$ChTraitsCRT@D@ATL@@@ATL@@@0@PBDABV10@@Z$0 004527a0 f   TMiniDump.obj
 0001:000517be       __ehhandler$??HATL@@YA?AV?$CStringT@DV?$StrTraitATL@DV?$ChTraitsCRT@D@ATL@@@ATL@@@0@PBDABV10@@Z 004527be f   TMiniDump.obj
 0001:000517e0       __unwindfunclet$?TopLevelExceptionFilter@CTMiniDump@@SGJPAU_EXCEPTION_POINTERS@@@Z$0 004527e0 f   TMiniDump.obj
 0001:000517eb       __unwindfunclet$?TopLevelExceptionFilter@CTMiniDump@@SGJPAU_EXCEPTION_POINTERS@@@Z$7 004527eb f   TMiniDump.obj
 0001:000517f6       __unwindfunclet$?TopLevelExceptionFilter@CTMiniDump@@SGJPAU_EXCEPTION_POINTERS@@@Z$1 004527f6 f   TMiniDump.obj
 0001:00051801       __unwindfunclet$?TopLevelExceptionFilter@CTMiniDump@@SGJPAU_EXCEPTION_POINTERS@@@Z$8 00452801 f   TMiniDump.obj
 0001:0005180c       __unwindfunclet$?TopLevelExceptionFilter@CTMiniDump@@SGJPAU_EXCEPTION_POINTERS@@@Z$2 0045280c f   TMiniDump.obj
 0001:00051817       __unwindfunclet$?TopLevelExceptionFilter@CTMiniDump@@SGJPAU_EXCEPTION_POINTERS@@@Z$3 00452817 f   TMiniDump.obj
 0001:00051822       __unwindfunclet$?TopLevelExceptionFilter@CTMiniDump@@SGJPAU_EXCEPTION_POINTERS@@@Z$4 00452822 f   TMiniDump.obj
 0001:0005182d       __unwindfunclet$?TopLevelExceptionFilter@CTMiniDump@@SGJPAU_EXCEPTION_POINTERS@@@Z$5 0045282d f   TMiniDump.obj
 0001:00051838       __unwindfunclet$?TopLevelExceptionFilter@CTMiniDump@@SGJPAU_EXCEPTION_POINTERS@@@Z$6 00452838 f   TMiniDump.obj
 0001:00051848       __ehhandler$?TopLevelExceptionFilter@CTMiniDump@@SGJPAU_EXCEPTION_POINTERS@@@Z 00452848 f   TMiniDump.obj
 0001:00051880       __unwindfunclet$?SendCT_ANNOUNCEMENT_ACK@CTServer@@QAEXV?$CStringT@DV?$StrTraitATL@DV?$ChTraitsCRT@D@ATL@@@ATL@@@ATL@@@Z$0 00452880 f   TServer.obj
 0001:00051880       __unwindfunclet$?SendCT_CHATBAN_REQ@CTServer@@QAEXV?$CStringT@DV?$StrTraitATL@DV?$ChTraitsCRT@D@ATL@@@ATL@@@ATL@@GKK@Z$0 00452880 f   TServer.obj
 0001:00051880       __unwindfunclet$?SendCT_CMGIFT_REQ@CTServer@@QAEXV?$CStringT@DV?$StrTraitATL@DV?$ChTraitsCRT@D@ATL@@@ATL@@@ATL@@GK@Z$0 00452880 f   TServer.obj
 0001:00051880       __unwindfunclet$?SendCT_USERKICKOUT_ACK@CTServer@@QAEXV?$CStringT@DV?$StrTraitATL@DV?$ChTraitsCRT@D@ATL@@@ATL@@@ATL@@@Z$0 00452880 f   TServer.obj
 0001:00051880       __unwindfunclet$?SendCT_USERMOVE_ACK@CTServer@@QAEXV?$CStringT@DV?$StrTraitATL@DV?$ChTraitsCRT@D@ATL@@@ATL@@@ATL@@EGMMM@Z$0 00452880 f   TServer.obj
 0001:00051888       __unwindfunclet$?SendCT_ANNOUNCEMENT_ACK@CTServer@@QAEXV?$CStringT@DV?$StrTraitATL@DV?$ChTraitsCRT@D@ATL@@@ATL@@@ATL@@@Z$1 00452888 f   TServer.obj
 0001:00051888       __unwindfunclet$?SendCT_CHATBAN_REQ@CTServer@@QAEXV?$CStringT@DV?$StrTraitATL@DV?$ChTraitsCRT@D@ATL@@@ATL@@@ATL@@GKK@Z$1 00452888 f   TServer.obj
 0001:00051888       __unwindfunclet$?SendCT_CMGIFT_REQ@CTServer@@QAEXV?$CStringT@DV?$StrTraitATL@DV?$ChTraitsCRT@D@ATL@@@ATL@@@ATL@@GK@Z$1 00452888 f   TServer.obj
 0001:00051888       __unwindfunclet$?SendCT_USERKICKOUT_ACK@CTServer@@QAEXV?$CStringT@DV?$StrTraitATL@DV?$ChTraitsCRT@D@ATL@@@ATL@@@ATL@@@Z$1 00452888 f   TServer.obj
 0001:00051888       __unwindfunclet$?SendCT_USERMOVE_ACK@CTServer@@QAEXV?$CStringT@DV?$StrTraitATL@DV?$ChTraitsCRT@D@ATL@@@ATL@@@ATL@@EGMMM@Z$1 00452888 f   TServer.obj
 0001:0005189c       __ehhandler$?SendCT_ANNOUNCEMENT_ACK@CTServer@@QAEXV?$CStringT@DV?$StrTraitATL@DV?$ChTraitsCRT@D@ATL@@@ATL@@@ATL@@@Z 0045289c f   TServer.obj
 0001:0005189c       __ehhandler$?SendCT_CHATBAN_REQ@CTServer@@QAEXV?$CStringT@DV?$StrTraitATL@DV?$ChTraitsCRT@D@ATL@@@ATL@@@ATL@@GKK@Z 0045289c f   TServer.obj
 0001:0005189c       __ehhandler$?SendCT_CMGIFT_REQ@CTServer@@QAEXV?$CStringT@DV?$StrTraitATL@DV?$ChTraitsCRT@D@ATL@@@ATL@@@ATL@@GK@Z 0045289c f   TServer.obj
 0001:0005189c       __ehhandler$?SendCT_USERKICKOUT_ACK@CTServer@@QAEXV?$CStringT@DV?$StrTraitATL@DV?$ChTraitsCRT@D@ATL@@@ATL@@@ATL@@@Z 0045289c f   TServer.obj
 0001:0005189c       __ehhandler$?SendCT_USERMOVE_ACK@CTServer@@QAEXV?$CStringT@DV?$StrTraitATL@DV?$ChTraitsCRT@D@ATL@@@ATL@@@ATL@@EGMMM@Z 0045289c f   TServer.obj
 0001:000518c0       __unwindfunclet$?SendCT_CHARMSG_ACK@CTServer@@QAEXV?$CStringT@DV?$StrTraitATL@DV?$ChTraitsCRT@D@ATL@@@ATL@@@ATL@@0@Z$0 004528c0 f   TServer.obj
 0001:000518c0       __unwindfunclet$?SendCT_USERPOSITION_ACK@CTServer@@QAEXV?$CStringT@DV?$StrTraitATL@DV?$ChTraitsCRT@D@ATL@@@ATL@@@ATL@@0@Z$0 004528c0 f   TServer.obj
 0001:000518c8       __unwindfunclet$?SendCT_CHARMSG_ACK@CTServer@@QAEXV?$CStringT@DV?$StrTraitATL@DV?$ChTraitsCRT@D@ATL@@@ATL@@@ATL@@0@Z$1 004528c8 f   TServer.obj
 0001:000518c8       __unwindfunclet$?SendCT_USERPOSITION_ACK@CTServer@@QAEXV?$CStringT@DV?$StrTraitATL@DV?$ChTraitsCRT@D@ATL@@@ATL@@@ATL@@0@Z$1 004528c8 f   TServer.obj
 0001:000518d0       __unwindfunclet$?SendCT_CHARMSG_ACK@CTServer@@QAEXV?$CStringT@DV?$StrTraitATL@DV?$ChTraitsCRT@D@ATL@@@ATL@@@ATL@@0@Z$2 004528d0 f   TServer.obj
 0001:000518d0       __unwindfunclet$?SendCT_USERPOSITION_ACK@CTServer@@QAEXV?$CStringT@DV?$StrTraitATL@DV?$ChTraitsCRT@D@ATL@@@ATL@@@ATL@@0@Z$2 004528d0 f   TServer.obj
 0001:000518e4       __ehhandler$?SendCT_CHARMSG_ACK@CTServer@@QAEXV?$CStringT@DV?$StrTraitATL@DV?$ChTraitsCRT@D@ATL@@@ATL@@@ATL@@0@Z 004528e4 f   TServer.obj
 0001:000518e4       __ehhandler$?SendCT_USERPOSITION_ACK@CTServer@@QAEXV?$CStringT@DV?$StrTraitATL@DV?$ChTraitsCRT@D@ATL@@@ATL@@@ATL@@0@Z 004528e4 f   TServer.obj
 0001:00051910       __unwindfunclet$?SendCT_EVENTMSG_REQ@CTServer@@QAEXEEV?$CStringT@DV?$StrTraitATL@DV?$ChTraitsCRT@D@ATL@@@ATL@@@ATL@@@Z$0 00452910 f   TServer.obj
 0001:00051910       __unwindfunclet$?SendCT_ITEMFIND_REQ@CTServer@@QAEXKGV?$CStringT@DV?$StrTraitATL@DV?$ChTraitsCRT@D@ATL@@@ATL@@@ATL@@@Z$0 00452910 f   TServer.obj
 0001:00051918       __unwindfunclet$?SendCT_EVENTMSG_REQ@CTServer@@QAEXEEV?$CStringT@DV?$StrTraitATL@DV?$ChTraitsCRT@D@ATL@@@ATL@@@ATL@@@Z$1 00452918 f   TServer.obj
 0001:00051918       __unwindfunclet$?SendCT_ITEMFIND_REQ@CTServer@@QAEXKGV?$CStringT@DV?$StrTraitATL@DV?$ChTraitsCRT@D@ATL@@@ATL@@@ATL@@@Z$1 00452918 f   TServer.obj
 0001:0005192c       __ehhandler$?SendCT_EVENTMSG_REQ@CTServer@@QAEXEEV?$CStringT@DV?$StrTraitATL@DV?$ChTraitsCRT@D@ATL@@@ATL@@@ATL@@@Z 0045292c f   TServer.obj
 0001:0005192c       __ehhandler$?SendCT_ITEMFIND_REQ@CTServer@@QAEXKGV?$CStringT@DV?$StrTraitATL@DV?$ChTraitsCRT@D@ATL@@@ATL@@@ATL@@@Z 0045292c f   TServer.obj
 0001:00051950       __unwindfunclet$?Fetch@CSqlBase@@QAEHXZ$0 00452950 f   TNetLib:SqlBase.obj
 0001:00051960       __ehhandler$?Fetch@CSqlBase@@QAEHXZ 00452960 f   TNetLib:SqlBase.obj
 0001:00051990       __unwindfunclet$?Open@CSqlBase@@QAEHH@Z$0 00452990 f   TNetLib:SqlBase.obj
 0001:0005199b       __unwindfunclet$?Open@CSqlBase@@QAEHH@Z$4 0045299b f   TNetLib:SqlBase.obj
 0001:000519a6       __unwindfunclet$?Open@CSqlBase@@QAEHH@Z$1 004529a6 f   TNetLib:SqlBase.obj
 0001:000519b6       __ehhandler$?Open@CSqlBase@@QAEHH@Z 004529b6 f   TNetLib:SqlBase.obj
 0001:000519e0       __unwindfunclet$??0CSqlQuery@@QAE@PAVCSqlDatabase@@V?$basic_string@DU?$char_traits@D@std@@V?$allocator@D@2@@std@@PBD@Z$0 004529e0 f   TNetLib:SqlQuery.obj
 0001:000519e8       __unwindfunclet$??0CSqlQuery@@QAE@PAVCSqlDatabase@@V?$basic_string@DU?$char_traits@D@std@@V?$allocator@D@2@@std@@PBD@Z$1 004529e8 f   TNetLib:SqlQuery.obj
 0001:000519f3       __unwindfunclet$??0CSqlQuery@@QAE@PAVCSqlDatabase@@V?$basic_string@DU?$char_traits@D@std@@V?$allocator@D@2@@std@@PBD@Z$2 004529f3 f   TNetLib:SqlQuery.obj
 0001:00051a09       __ehhandler$??0CSqlQuery@@QAE@PAVCSqlDatabase@@V?$basic_string@DU?$char_traits@D@std@@V?$allocator@D@2@@std@@PBD@Z 00452a09 f   TNetLib:SqlQuery.obj
 0001:00051a40       __ehhandler$??1CSqlQuery@@UAE@XZ 00452a40 f   TNetLib:SqlQuery.obj
 0001:00051a60       __unwindfunclet$?AddQuery@CSqlDatabase@@QAEHPAVCSqlQuery@@V?$basic_string@DU?$char_traits@D@std@@V?$allocator@D@2@@std@@@Z$0 00452a60 f   TNetLib:SqlDatabase.obj
 0001:00051a68       __unwindfunclet$?AddQuery@CSqlDatabase@@QAEHPAVCSqlQuery@@V?$basic_string@DU?$char_traits@D@std@@V?$allocator@D@2@@std@@@Z$1 00452a68 f   TNetLib:SqlDatabase.obj
 0001:00051a70       __unwindfunclet$?AddQuery@CSqlDatabase@@QAEHPAVCSqlQuery@@V?$basic_string@DU?$char_traits@D@std@@V?$allocator@D@2@@std@@@Z$6 00452a70 f   TNetLib:SqlDatabase.obj
 0001:00051a78       __unwindfunclet$?AddQuery@CSqlDatabase@@QAEHPAVCSqlQuery@@V?$basic_string@DU?$char_traits@D@std@@V?$allocator@D@2@@std@@@Z$5 00452a78 f   TNetLib:SqlDatabase.obj
 0001:00051a85       __ehhandler$?AddQuery@CSqlDatabase@@QAEHPAVCSqlQuery@@V?$basic_string@DU?$char_traits@D@std@@V?$allocator@D@2@@std@@@Z 00452a85 f   TNetLib:SqlDatabase.obj
 0001:00051ab0       __unwindfunclet$??0CSession@@QAE@XZ$0 00452ab0 f   TNetLib:Session.obj
 0001:00051abb       __unwindfunclet$??0CSession@@QAE@XZ$1 00452abb f   TNetLib:Session.obj
 0001:00051ac6       __unwindfunclet$??0CSession@@QAE@XZ$2 00452ac6 f   TNetLib:Session.obj
 0001:00051ad4       __unwindfunclet$??0CSession@@QAE@XZ$3 00452ad4 f   TNetLib:Session.obj
 0001:00051ae7       __ehhandler$??0CSession@@QAE@XZ 00452ae7 f   TNetLib:Session.obj
 0001:00051b10       __unwindfunclet$??__Eg_strSecretKey@@YAXXZ$0 00452b10 f   TNetLib:Session.obj
 0001:00051b1f       __ehhandler$??__Eg_strSecretKey@@YAXXZ 00452b1f f   TNetLib:Session.obj
 0001:00051b40       __unwindfunclet$?CheckMessage@CSession@@QAEHXZ$0 00452b40 f   TNetLib:Session.obj
 0001:00051b4d       __ehhandler$?CheckMessage@CSession@@QAEHXZ 00452b4d f   TNetLib:Session.obj
 0001:00051b70       __unwindfunclet$?Decrypt@CSession@@AAEHPAVCPacket@@@Z$0 00452b70 f   TNetLib:Session.obj
 0001:00051b7d       __ehhandler$?Decrypt@CSession@@AAEHPAVCPacket@@@Z 00452b7d f   TNetLib:Session.obj
 0001:00051ba0       __unwindfunclet$?Say@CSession@@UAEHPAVCPacket@@@Z$0 00452ba0 f   TNetLib:Session.obj
 0001:00051ba0       __unwindfunclet$?WaitForMessage@CSession@@QAEHXZ$0 00452ba0 f   TNetLib:Session.obj
 0001:00051bad       __ehhandler$?Say@CSession@@UAEHPAVCPacket@@@Z 00452bad f   TNetLib:Session.obj
 0001:00051bad       __ehhandler$?WaitForMessage@CSession@@QAEHXZ 00452bad f   TNetLib:Session.obj
 0001:00051bd0       __unwindfunclet$?SendComplete@CSession@@QAEHK@Z$0 00452bd0 f   TNetLib:Session.obj
 0001:00051bd8       __unwindfunclet$?SendComplete@CSession@@QAEHK@Z$1 00452bd8 f   TNetLib:Session.obj
 0001:00051be5       __ehhandler$?SendComplete@CSession@@QAEHK@Z 00452be5 f   TNetLib:Session.obj
 0001:00051c10       __unwindfunclet$?TraceLastError@@YAXPBD0K@Z$0 00452c10 f   TNetLib:CryptographyExt.obj
 0001:00051c1d       __ehhandler$?TraceLastError@@YAXPBD0K@Z 00452c1d f   TNetLib:CryptographyExt.obj
 0001:00051c3a       __unwindfunclet$?_Init@locale@std@@CAPAV_Locimp@12@_N@Z$0 00452c3a f   libcpmt:locale0.obj
 0001:00051c47       __ehhandler$?_Init@locale@std@@CAPAV_Locimp@12@_N@Z 00452c47 f   libcpmt:locale0.obj
 0001:00051c64       __ehhandler$?CallUnexpected@@YAXPBU_s_ESTypeList@@@Z 00452c64 f   libvcruntime:frame.obj
 0001:00051c81       __unwindfunclet$?_wcstombs_l_helper@@YAIPADPB_WIPAU__crt_locale_pointers@@@Z$0 00452c81 f   libucrt:wcstombs.obj
 0001:00051c89       __ehhandler$?_wcstombs_l_helper@@YAIPADPB_WIPAU__crt_locale_pointers@@@Z 00452c89 f   libucrt:wcstombs.obj
 0001:00051d00       ??__FMapServiceVector@@YAXXZ 00452d00 f   TControlSvr.obj
 0001:00051d60       ??__F_AtlModule@@YAXXZ     00452d60 f   TControlSvr.obj
 0001:00051d70       ??__Fg_strErrorMsg@@YAXXZ  00452d70 f   TMiniDump.obj
 0001:00051d90       ??__Fg_strUserData@@YAXXZ  00452d90 f   TMiniDump.obj
 0001:00051df0       ??__FtheTMiniDump@@YAXXZ   00452df0 f   TMiniDump.obj
 0001:00051e00       ??__Fg_strSecretKey@@YAXXZ 00452e00 f   TNetLib:Session.obj
 0001:00051e1f       ??__F_AtlBaseModule@ATL@@YAXXZ 00452e1f f   atls:atlbase.obj
 0001:00051e29       ??__Finitlocks@std@@YAXXZ  00452e29 f   libcpmt:xlock.obj
 0001:00051e33       ??__F_Fac_tidy_reg@std@@YAXXZ 00452e33 f   libcpmt:locale0.obj
 0001:00051e3d       ??__Fclassic_locale@std@@YAXXZ 00452e3d f   libcpmt:locale0.obj
 0001:00051e47       ??__Fcin@std@@YAXXZ        00452e47 f   libcpmt:cin.obj
 0001:00051e51       ??__Ffin@std@@YAXXZ        00452e51 f   libcpmt:cin.obj
 0001:00051e5b       ??__Finitlocks@@YAXXZ      00452e5b f   libcpmt:cin.obj
 0001:00051e65       ??__Fcout@std@@YAXXZ       00452e65 f   libcpmt:cout.obj
 0001:00051e6f       ??__Ffout@std@@YAXXZ       00452e6f f   libcpmt:cout.obj
 0001:00051e79       ??__Finitlocks@@YAXXZ      00452e79 f   libcpmt:cout.obj
 0001:00051e83       ??__Finit_atexit@@YAXXZ    00452e83 f   libcpmt:iosptrs.obj
 0001:00051e8d       ??__Finitlocks@std@@YAXXZ  00452e8d f   libcpmt:iosptrs.obj
 0002:000002cc       ?pre_cpp_initializer@@3P6AXXZA 004532cc     LIBCMT:exe_main.obj
 0002:000002d0       ?initlocks$initializer$@std@@3P6AXXZA 004532d0     libcpmt:xlock.obj
 0002:000002d4       ?initlocks$initializer$@@3P6AXXZA 004532d4     libcpmt:cin.obj
 0002:000002d8       ?fin$initializer$@std@@3P6AXXZA 004532d8     libcpmt:cin.obj
 0002:000002dc       ?cin$initializer$@std@@3P6AXXZA 004532dc     libcpmt:cin.obj
 0002:000002e0       ?init_cin$initializer$@std@@3P6AXXZA 004532e0     libcpmt:cin.obj
 0002:000002e4       ?initlocks$initializer$@@3P6AXXZA 004532e4     libcpmt:cout.obj
 0002:000002e8       ?fout$initializer$@std@@3P6AXXZA 004532e8     libcpmt:cout.obj
 0002:000002ec       ?cout$initializer$@std@@3P6AXXZA 004532ec     libcpmt:cout.obj
 0002:000002f0       ?init_cout$initializer$@std@@3P6AXXZA 004532f0     libcpmt:cout.obj
 0002:000002f4       ?initlocks$initializer$@std@@3P6AXXZA 004532f4     libcpmt:iosptrs.obj
 0002:000002f8       ?init_atexit$initializer$@@3P6AXXZA 004532f8     libcpmt:iosptrs.obj
 0002:000002fc       ?_AtlBaseModule$initializer$@ATL@@3P6AXXZA 004532fc     atls:atlbase.obj
 0002:00000300       ?_Fac_tidy_reg$initializer$@std@@3P6AXXZA 00453300     libcpmt:locale0.obj
 0002:00000304       ?classic_locale$initializer$@std@@3P6AXXZA 00453304     libcpmt:locale0.obj
 0002:00000308       ?InitializeCAtlStringMgr$initializer$@ATLImplementationDetails@ATL@@3P6AXXZA 00453308     DebugSocket.obj
 0002:0000030c       ??isInitialized$initializer$@CAtlStringMgr@ATL@@0P6AXXZA@@3P6AXXZA 0045330c     DebugSocket.obj
 0002:00000310       ?_AtlModule$initializer$@@3P6AXXZA 00453310     TControlSvr.obj
 0002:00000314       ?MapServiceVector$initializer$@@3P6AXXZA 00453314     TControlSvr.obj
 0002:00000318       ?g_strUserData$initializer$@@3P6AXXZA 00453318     TMiniDump.obj
 0002:0000031c       ?theTMiniDump$initializer$@@3P6AXXZA 0045331c     TMiniDump.obj
 0002:00000320       ?g_strErrorMsg$initializer$@@3P6AXXZA 00453320     TMiniDump.obj
 0002:00000324       ?g_strSecretKey$initializer$@@3P6AXXZA 00453324     TNetLib:Session.obj
 0002:00000330       ?pre_c_initializer@@3P6AHXZA 00453330     LIBCMT:exe_main.obj
 0002:00000334       ?post_pgo_initializer@@3P6AHXZA 00453334     LIBCMT:exe_main.obj
 0002:00000338       ?__scrt_initialize_tss_var@@3P6AHXZA 00453338     LIBCMT:thread_safe_statics.obj
 0002:00000380       ?_Fake_alloc@std@@3U_Fake_allocator@1@B 00453380     DBAccess.obj
 0002:00000b98       ?_Fake_alloc@std@@3U_Fake_allocator@1@B 00453b98     Handler.obj
 0002:00000eae       ?_Fake_alloc@std@@3U_Fake_allocator@1@B 00453eae     stdafx.obj
 0002:00000ec4       ?_Fake_alloc@std@@3U_Fake_allocator@1@B 00453ec4     TControlSvr.obj
 0002:000013bb       ?_Fake_alloc@std@@3U_Fake_allocator@1@B 004543bb     TMiniDump.obj
 0002:0000172b       ?_Fake_alloc@std@@3U_Fake_allocator@1@B 0045472b     TNetLib:SqlQuery.obj
 0002:00001748       ?_Fake_alloc@std@@3U_Fake_allocator@1@B 00454748     TNetLib:SqlDatabase.obj
 0002:000017a0       ?_Fake_alloc@std@@3U_Fake_allocator@1@B 004547a0     TNetLib:stdafx.obj
 0002:000018f8       ?_Win_errtab@?A0xdad2e229@@3QBU_Win_errtab_t@1@B 004548f8     libcpmt:syserror.obj
 0002:00001b98       ?_Sys_errtab@?A0xdad2e229@@3QBU_Sys_errtab_t@1@B 00454b98     libcpmt:syserror.obj
 0002:00002470       _digits                    00455470     libcpmt:xstoul.obj
 0002:00002498       _ndigs                     00455498     libcpmt:xstoul.obj
 0002:000024c0       _digits                    004554c0     libcpmt:xstoull.obj
 0002:000024e8       _ndigs                     004554e8     libcpmt:xstoull.obj
 0002:00002588       ?_Whitespace_bitmap@?A0xfa98056f@@3U_Whitespace_bitmap_t@1@B 00455588     libcpmt:syserror_import_lib.obj
 0002:00002730       _bias_low                  00455730     LIBCMT:ftol3.obj
 0002:00002740       _bias_high                 00455740     LIBCMT:ftol3.obj
 0002:00002750       _DP2to32                   00455750     LIBCMT:ftol3.obj
 0002:00002758       _NaN                       00455758     LIBCMT:ftol3.obj
 0002:0000275c       _onept5                    0045575c     LIBCMT:ftol3.obj
 0002:00002760       _GS_ExceptionPointers      00455760     LIBCMT:gs_report.obj
 0002:00002788       ?tokenTable@@3QBUStringLiteral@@B 00455788     libvcruntime:undname.obj
 0002:00002810       ?nameTable@@3QBUStringLiteral@@B 00455810     libvcruntime:undname.obj
 0002:00002aa8       ?rttiTable@@3QBUStringLiteral@@B 00455aa8     libvcruntime:undname.obj
 0002:00002ad0       ?IndirectionName@@3QBUStringLiteral@@B 00455ad0     libvcruntime:undname.obj
 0002:00002b00       ?PrefixName@@3QBUStringLiteral@@B 00455b00     libvcruntime:undname.obj
 0002:00003130       ?module_names@?A0x14174aea@@3QBQB_WB 00456130     libvcruntime:winapi_downlevel.obj
 0002:000031d8       ?candidate_modules@?1??try_get_FlsAlloc@@YAP6GKP6GXPAX@Z@ZXZ@4QBW4module_id@?A0x14174aea@@B 004561d8     libvcruntime:winapi_downlevel.obj
 0002:000031ec       ?candidate_modules@?1??try_get_FlsFree@@YAP6GHK@ZXZ@4QBW4module_id@?A0x14174aea@@B 004561ec     libvcruntime:winapi_downlevel.obj
 0002:000031fc       ?candidate_modules@?1??try_get_FlsGetValue@@YAP6GPAXK@ZXZ@4QBW4module_id@?A0x14174aea@@B 004561fc     libvcruntime:winapi_downlevel.obj
 0002:00003210       ?candidate_modules@?1??try_get_FlsSetValue@@YAP6GHKPAX@ZXZ@4QBW4module_id@?A0x14174aea@@B 00456210     libvcruntime:winapi_downlevel.obj
 0002:00003224       ?candidate_modules@?1??try_get_InitializeCriticalSectionEx@@YAP6GHPAU_RTL_CRITICAL_SECTION@@KK@ZXZ@4QBW4module_id@?A0x14174aea@@B 00456224     libvcruntime:winapi_downlevel.obj
 0002:00003248       ?errtable@@3QBUerrentry@?A0x31fdb9ec@@B 00456248     libucrt:errno.obj
 0002:00004730       Shifter                    00457730     libucrt:pow_sse2_precise.obj
 0002:00004740       SIGMASK                    00457740     libucrt:pow_sse2_precise.obj
 0002:00004750       ONEMASK                    00457750     libucrt:pow_sse2_precise.obj
 0002:00004760       ABSVALMASK                 00457760     libucrt:pow_sse2_precise.obj
 0002:00004770       cev                        00457770     libucrt:pow_sse2_precise.obj
 0002:00004798       HALFSIG                    00457798     libucrt:pow_sse2_precise.obj
 0002:000047a0       LHN                        004577a0     libucrt:pow_sse2_precise.obj
 0002:000047a8       sNaN                       004577a8     libucrt:pow_sse2_precise.obj
 0002:000047b0       INF                        004577b0     libucrt:pow_sse2_precise.obj
 0002:000047b8       NEG_INF                    004577b8     libucrt:pow_sse2_precise.obj
 0002:000047c0       NEG_ZERO                   004577c0     libucrt:pow_sse2_precise.obj
 0002:000047c8       NEG_BIG                    004577c8     libucrt:pow_sse2_precise.obj
 0002:000047d0       POS_BIG                    004577d0     libucrt:pow_sse2_precise.obj
 0002:000047d8       EMIN                       004577d8     libucrt:pow_sse2_precise.obj
 0002:000047e0       QIND                       004577e0     libucrt:pow_sse2_precise.obj
 0002:00005000       POW_name                   00458000     libucrt:pow_impl.obj
 0002:00005108       ___acrt_initializers       00458108     libucrt:initialization.obj
 0002:00005188       ?_names@?1??_get_fname@@9@9 00458188     libucrt:fpexcept.obj
 0002:00005338       __first_127char            00458338     libucrt:wsetlocale.obj
 0002:000054a8       ?strings@?1??fp_format_nan_or_infinity@@YAHW4__acrt_fp_class@@_NPADI1@Z@4QAY03QBDA 004584a8     libucrt:cvt.obj
 0002:000059f8       ?module_names@?A0x391cf84c@@3QBQB_WB 004589f8     libucrt:winapi_thunks.obj
 0002:00005e70       ?candidate_modules@?1??try_get_AreFileApisANSI@@YAP6GHXZXZ@4QBW4module_id@?A0x391cf84c@@B 00458e70     libucrt:winapi_thunks.obj
 0002:00005e84       ?candidate_modules@?1??try_get_CompareStringEx@@YAP6GHPB_WK0H0HPAU_nlsversioninfo@@PAXJ@ZXZ@4QBW4module_id@?A0x391cf84c@@B 00458e84     libucrt:winapi_thunks.obj
 0002:00005e9c       ?candidate_modules@?1??try_get_EnumSystemLocalesEx@@YAP6GHP6GHPA_WKJ@ZKJPAX@ZXZ@4QBW4module_id@?A0x391cf84c@@B 00458e9c     libucrt:winapi_thunks.obj
 0002:00005eb8       ?candidate_modules@?1??try_get_FlsAlloc@@YAP6GKP6GXPAX@Z@ZXZ@4QBW4module_id@?A0x391cf84c@@B 00458eb8     libucrt:winapi_thunks.obj
 0002:00005ec0       ?candidate_modules@?1??try_get_FlsFree@@YAP6GHK@ZXZ@4QBW4module_id@?A0x391cf84c@@B 00458ec0     libucrt:winapi_thunks.obj
 0002:00005ec8       ?candidate_modules@?1??try_get_FlsGetValue@@YAP6GPAXK@ZXZ@4QBW4module_id@?A0x391cf84c@@B 00458ec8     libucrt:winapi_thunks.obj
 0002:00005ed0       ?candidate_modules@?1??try_get_FlsSetValue@@YAP6GHKPAX@ZXZ@4QBW4module_id@?A0x391cf84c@@B 00458ed0     libucrt:winapi_thunks.obj
 0002:00005ed8       ?candidate_modules@?1??try_get_GetDateFormatEx@@YAP6GHPB_WKPBU_SYSTEMTIME@@0PA_WH0@ZXZ@4QBW4module_id@?A0x391cf84c@@B 00458ed8     libucrt:winapi_thunks.obj
 0002:00005ef0       ?candidate_modules@?1??try_get_GetLocaleInfoEx@@YAP6GHPB_WKPA_WH@ZXZ@4QBW4module_id@?A0x391cf84c@@B 00458ef0     libucrt:winapi_thunks.obj
 0002:00005f08       ?candidate_modules@?1??try_get_GetTimeFormatEx@@YAP6GHPB_WKPBU_SYSTEMTIME@@0PA_WH@ZXZ@4QBW4module_id@?A0x391cf84c@@B 00458f08     libucrt:winapi_thunks.obj
 0002:00005f20       ?candidate_modules@?1??try_get_GetUserDefaultLocaleName@@YAP6GHPA_WH@ZXZ@4QBW4module_id@?A0x391cf84c@@B 00458f20     libucrt:winapi_thunks.obj
 0002:00005f44       ?candidate_modules@?1??try_get_InitializeCriticalSectionEx@@YAP6GHPAU_RTL_CRITICAL_SECTION@@KK@ZXZ@4QBW4module_id@?A0x391cf84c@@B 00458f44     libucrt:winapi_thunks.obj
 0002:00005f4c       ?candidate_modules@?1??try_get_IsValidLocaleName@@YAP6GHPB_W@ZXZ@4QBW4module_id@?A0x391cf84c@@B 00458f4c     libucrt:winapi_thunks.obj
 0002:00005f68       ?candidate_modules@?1??try_get_LCMapStringEx@@YAP6GHPB_WK0HPA_WHPAU_nlsversioninfo@@PAXJ@ZXZ@4QBW4module_id@?A0x391cf84c@@B 00458f68     libucrt:winapi_thunks.obj
 0002:00005f80       ?candidate_modules@?1??try_get_LCIDToLocaleName@@YAP6GHKPA_WHK@ZXZ@4QBW4module_id@?A0x391cf84c@@B 00458f80     libucrt:winapi_thunks.obj
 0002:00005f9c       ?candidate_modules@?1??try_get_LocaleNameToLCID@@YAP6GKPB_WK@ZXZ@4QBW4module_id@?A0x391cf84c@@B 00458f9c     libucrt:winapi_thunks.obj
 0002:00005fb8       ?candidate_modules@?1??try_get_AppPolicyGetProcessTerminationMethod@@YAP6GJPAXPAW4AppPolicyProcessTerminationMethod@@@ZXZ@4QBW4module_id@?A0x391cf84c@@B 00458fb8     libucrt:winapi_thunks.obj
 0002:00006080       _over                      00459080     libucrt:fpctrl.obj
 0002:0000608c       _under                     0045908c     libucrt:fpctrl.obj
 0002:00009920       Shifter                    0045c920     libucrt:pow_pentium4.obj
 0002:00009930       SIGMASK                    0045c930     libucrt:pow_pentium4.obj
 0002:00009940       ONEMASK                    0045c940     libucrt:pow_pentium4.obj
 0002:00009950       ABSVALMASK                 0045c950     libucrt:pow_pentium4.obj
 0002:00009960       cev                        0045c960     libucrt:pow_pentium4.obj
 0002:00009988       HALFSIG                    0045c988     libucrt:pow_pentium4.obj
 0002:00009990       LHN                        0045c990     libucrt:pow_pentium4.obj
 0002:00009998       sNaN                       0045c998     libucrt:pow_pentium4.obj
 0002:000099a0       INF                        0045c9a0     libucrt:pow_pentium4.obj
 0002:000099a8       NEG_INF                    0045c9a8     libucrt:pow_pentium4.obj
 0002:000099b0       NEG_ZERO                   0045c9b0     libucrt:pow_pentium4.obj
 0002:000099b8       NEG_BIG                    0045c9b8     libucrt:pow_pentium4.obj
 0002:000099c0       POS_BIG                    0045c9c0     libucrt:pow_pentium4.obj
 0002:000099c8       EMIN                       0045c9c8     libucrt:pow_pentium4.obj
 0002:000099d0       QIND                       0045c9d0     libucrt:pow_pentium4.obj
 0002:000099fe       _log2max                   0045c9fe     libucrt:87tran.obj
 0002:00009a08       _smallarg                  0045ca08     libucrt:87tran.obj
 0002:00009a12       _half                      0045ca12     libucrt:87tran.obj
 0002:00009a5e       One                        0045ca5e     libucrt:87disp.obj
 0002:00009a66       Three                      0045ca66     libucrt:87disp.obj
 0002:00009a6e       XAMtoTagTab                0045ca6e     libucrt:87disp.obj
 0002:00009a80       One                        0045ca80     libucrt:common.obj
 0002:00009a94       DblMax                     0045ca94     libucrt:common.obj
 0002:00009a9c       DblMin                     0045ca9c     libucrt:common.obj
 0002:00009aa4       IeeeAdjO                   0045caa4     libucrt:common.obj
 0002:00009aac       IeeeAdjU                   0045caac     libucrt:common.obj
 0002:00009ab4       _infinity                  0045cab4     libucrt:common.obj
 0002:00009abc       _zero                      0045cabc     libucrt:common.obj
 0002:00009ad0       ?_mb_locale_names@@3QBQB_WB 0045cad0     libucrt:mbctype.obj
 0002:0000a908       ?LcidToLocaleNameTable@?A0x881e4c05@@3QBULcidToLocaleName@1@B 0045d908     libucrt:lcidtoname_downlevel.obj
 0002:0000ba28       ?LocaleNameToIndexTable@?A0x881e4c05@@3QBULocaleNameIndex@1@B 0045ea28     libucrt:lcidtoname_downlevel.obj
 0002:0000c980       LOG_name                   0045f980     libucrt:log10_impl.obj
 0002:0000c990       _One                       0045f990     libucrt:ceil_pentium4.obj
 0002:0000c9a0       _Bns                       0045f9a0     libucrt:ceil_pentium4.obj
 0002:0000c9b0       _Zero                      0045f9b0     libucrt:ceil_pentium4.obj
 0002:0000c9c0       _S                         0045f9c0     libucrt:ceil_pentium4.obj
 0002:0000c9d0       _NegZero                   0045f9d0     libucrt:ceil_pentium4.obj
 0002:0000c9f0       emask                      0045f9f0     libucrt:log10_pentium4.obj
 0002:0000ca00       CC                         0045fa00     libucrt:log10_pentium4.obj
 0002:0000ca10       Magic                      0045fa10     libucrt:log10_pentium4.obj
 0002:0000ca20       hi_mask                    0045fa20     libucrt:log10_pentium4.obj
 0002:0000ca30       LOG10_2                    0045fa30     libucrt:log10_pentium4.obj
 0002:0000ca40       place_L                    0045fa40     libucrt:log10_pentium4.obj
 0002:0000ca60       One                        0045fa60     libucrt:log10_pentium4.obj
 0002:0000ca70       Zero                       0045fa70     libucrt:log10_pentium4.obj
 0002:0000ca80       Two52                      0045fa80     libucrt:log10_pentium4.obj
 0002:0000ca90       Infs                       0045fa90     libucrt:log10_pentium4.obj
 0002:0000caa0       NaN                        0045faa0     libucrt:log10_pentium4.obj
 0002:0000cab0       coeff                      0045fab0     libucrt:log10_pentium4.obj
 0002:0000d310       two32                      00460310     LIBCMT:ftol2.obj
 0002:0000d314       two63                      00460314     LIBCMT:ftol2.obj
 0002:0000d318       _NaN                       00460318     LIBCMT:ftol2.obj
 0002:0000d6ec       ?_Fake_alloc@std@@3U_Fake_allocator@1@B 004606ec     TServerSystem:TServerSystem.obj
 0002:0000f730       __ehfuncinfo$??0_System_error@std@@IAE@Verror_code@1@ABV?$basic_string@DU?$char_traits@D@std@@V?$allocator@D@2@@1@@Z 00462730     TServerSystem:TServerSystem.obj
 0002:0000f754       __unwindtable$??0_System_error@std@@IAE@Verror_code@1@ABV?$basic_string@DU?$char_traits@D@std@@V?$allocator@D@2@@1@@Z 00462754     TServerSystem:TServerSystem.obj
 0002:0000f764       __ehfuncinfo$??0_Locinfo@std@@QAE@PBD@Z 00462764     TServerSystem:TServerSystem.obj
 0002:0000f788       __unwindtable$??0_Locinfo@std@@QAE@PBD@Z 00462788     TServerSystem:TServerSystem.obj
 0002:0000f7c0       __ehfuncinfo$??$_Destroy_range@V?$allocator@UtagPATCHFILE@@@std@@@std@@YAXPAUtagPATCHFILE@@QAU1@AAV?$allocator@UtagPATCHFILE@@@0@@Z 004627c0     Handler.obj
 0002:0000f7c0       __ehfuncinfo$??$_Destroy_range@V?$allocator@UtagTCASHITEM@@@std@@@std@@YAXPAUtagTCASHITEM@@QAU1@AAV?$allocator@UtagTCASHITEM@@@0@@Z 004627c0     Handler.obj
 0002:0000f7c0       __ehfuncinfo$??0tagEVENTINFO@@QAE@XZ 004627c0     Handler.obj
 0002:0000f7c0       __ehfuncinfo$??1tagEVENTINFO@@QAE@XZ 004627c0     Handler.obj
 0002:0000f7c0       __ehfuncinfo$??1tagPATCHFILE@@QAE@XZ 004627c0     Handler.obj
 0002:0000f7c0       __ehfuncinfo$??1tagTCASHITEM@@QAE@XZ 004627c0     Handler.obj
 0002:0000f7c0       __ehfuncinfo$??_GtagBANINFO@@QAEPAXI@Z 004627c0     Handler.obj
 0002:0000f7c0       __ehfuncinfo$??$_Destroy_range@V?$allocator@V?$CStringT@DV?$StrTraitATL@DV?$ChTraitsCRT@D@ATL@@@ATL@@@ATL@@@std@@@std@@YAXPAV?$CStringT@DV?$StrTraitATL@DV?$ChTraitsCRT@D@ATL@@@ATL@@@ATL@@QAV12@AAV?$allocator@V?$CStringT@DV?$StrTraitATL@DV?$ChTraitsCRT@D@ATL@@@ATL@@@ATL@@@0@@Z 004627c0     TControlSvr.obj
 0002:0000f7c0       __ehfuncinfo$??1CTControlSvrModule@@UAE@XZ 004627c0     TControlSvr.obj
 0002:0000f7c0       __ehfuncinfo$??1_Sentry_base@?$basic_istream@DU?$char_traits@D@std@@@std@@QAE@XZ 004627c0     TControlSvr.obj
 0002:0000f7c0       __ehfuncinfo$??_GtagTSVRTEMP@@QAEPAXI@Z 004627c0     TControlSvr.obj
 0002:0000f7c0       __ehfuncinfo$??_GCTManager@@UAEPAXI@Z 004627c0     TManager.obj
 0002:0000f7c0       __ehfuncinfo$?_Tidy@ios_base@std@@AAEXXZ 004627c0     libcpmt:ios.obj
 0002:0000f7c0       __ehfuncinfo$??1_Init_atexit@@QAE@XZ 004627c0     libcpmt:iosptrs.obj
 0002:0000f7c0       __ehfuncinfo$??1CSession@@UAE@XZ 004627c0     TNetLib:Session.obj
 0002:0000f7c0       __ehfuncinfo$??1CSqlDatabase@@UAE@XZ 004627c0     TNetLib:SqlDatabase.obj
 0002:0000f7c0       __ehfuncinfo$??1CSqlQuery@@UAE@XZ 004627c0     TNetLib:SqlQuery.obj
 0002:0000f7c0       __ehfuncinfo$??1?$basic_filebuf@DU?$char_traits@D@std@@@std@@UAE@XZ 004627c0     TServerSystem:TServerSystem.obj
 0002:0000f7c0       __ehfuncinfo$??1_Locinfo@std@@QAE@XZ 004627c0     TServerSystem:TServerSystem.obj
 0002:0000f7c0       __ehfuncinfo$??1_Sentry_base@?$basic_ostream@DU?$char_traits@D@std@@@std@@QAE@XZ 004627c0     TServerSystem:TServerSystem.obj
 0002:0000f7e4       __ehfuncinfo$??0failure@ios_base@std@@QAE@PBDABVerror_code@2@@Z 004627e4     TServerSystem:TServerSystem.obj
 0002:0000f808       __unwindtable$??0failure@ios_base@std@@QAE@PBDABVerror_code@2@@Z 00462808     TServerSystem:TServerSystem.obj
 0002:0000f810       __ehfuncinfo$??1?$basic_ios@DU?$char_traits@D@std@@@std@@UAE@XZ 00462810     TServerSystem:TServerSystem.obj
 0002:0000f810       __ehfuncinfo$??1sentry@?$basic_ostream@DU?$char_traits@D@std@@@std@@QAE@XZ 00462810     TServerSystem:TServerSystem.obj
 0002:0000f810       __ehfuncinfo$??_D?$basic_ostream@DU?$char_traits@D@std@@@std@@QAEXXZ 00462810     TServerSystem:TServerSystem.obj
 0002:0000f810       __ehfuncinfo$??_G?$basic_ios@DU?$char_traits@D@std@@@std@@UAEPAXI@Z 00462810     TServerSystem:TServerSystem.obj
 0002:0000f810       __ehfuncinfo$??_G?$basic_ostream@DU?$char_traits@D@std@@@std@@UAEPAXI@Z 00462810     TServerSystem:TServerSystem.obj
 0002:0000f810       __ehfuncinfo$??_Gios_base@std@@UAEPAXI@Z 00462810     TServerSystem:TServerSystem.obj
 0002:0000f834       __unwindtable$??1?$basic_ios@DU?$char_traits@D@std@@@std@@UAE@XZ 00462834     TServerSystem:TServerSystem.obj
 0002:0000f834       __unwindtable$??1sentry@?$basic_ostream@DU?$char_traits@D@std@@@std@@QAE@XZ 00462834     TServerSystem:TServerSystem.obj
 0002:0000f834       __unwindtable$??_D?$basic_ostream@DU?$char_traits@D@std@@@std@@QAEXXZ 00462834     TServerSystem:TServerSystem.obj
 0002:0000f834       __unwindtable$??_G?$basic_ios@DU?$char_traits@D@std@@@std@@UAEPAXI@Z 00462834     TServerSystem:TServerSystem.obj
 0002:0000f834       __unwindtable$??_G?$basic_ostream@DU?$char_traits@D@std@@@std@@UAEPAXI@Z 00462834     TServerSystem:TServerSystem.obj
 0002:0000f834       __unwindtable$??_Gios_base@std@@UAEPAXI@Z 00462834     TServerSystem:TServerSystem.obj
 0002:0000f840       __ehfuncinfo$??0TServerSystem@@QAE@V?$basic_string@DU?$char_traits@D@std@@V?$allocator@D@2@@std@@0@Z 00462840     TServerSystem:TServerSystem.obj
 0002:0000f868       __unwindtable$??0TServerSystem@@QAE@V?$basic_string@DU?$char_traits@D@std@@V?$allocator@D@2@@std@@0@Z 00462868     TServerSystem:TServerSystem.obj
 0002:0000f8c8       __ehfuncinfo$?SSLogError@TServerSystem@@IAEXV?$basic_string@DU?$char_traits@D@std@@V?$allocator@D@2@@std@@H@Z 004628c8     TServerSystem:TServerSystem.obj
 0002:0000f8c8       __ehfuncinfo$?SSLogInfo@TServerSystem@@IAEXV?$basic_string@DU?$char_traits@D@std@@V?$allocator@D@2@@std@@H@Z 004628c8     TServerSystem:TServerSystem.obj
 0002:0000f8ec       __unwindtable$?SSLogError@TServerSystem@@IAEXV?$basic_string@DU?$char_traits@D@std@@V?$allocator@D@2@@std@@H@Z 004628ec     TServerSystem:TServerSystem.obj
 0002:0000f8ec       __unwindtable$?SSLogInfo@TServerSystem@@IAEXV?$basic_string@DU?$char_traits@D@std@@V?$allocator@D@2@@std@@H@Z 004628ec     TServerSystem:TServerSystem.obj
 0002:0000f8f4       __ehfuncinfo$?DisplayIni@TServerSystem@@IAEXXZ 004628f4     TServerSystem:TServerSystem.obj
 0002:0000f918       __unwindtable$?DisplayIni@TServerSystem@@IAEXXZ 00462918     TServerSystem:TServerSystem.obj
 0002:0000f938       __ehfuncinfo$?LoadIntFromIni@TServerSystem@@IAEXV?$basic_string@DU?$char_traits@D@std@@V?$allocator@D@2@@std@@HAAH@Z 00462938     TServerSystem:TServerSystem.obj
 0002:0000f95c       __unwindtable$?LoadIntFromIni@TServerSystem@@IAEXV?$basic_string@DU?$char_traits@D@std@@V?$allocator@D@2@@std@@HAAH@Z 0046295c     TServerSystem:TServerSystem.obj
 0002:0000f98c       __ehfuncinfo$?LoadStringFromIni@TServerSystem@@IAEXV?$basic_string@DU?$char_traits@D@std@@V?$allocator@D@2@@std@@0AAV23@@Z 0046298c     TServerSystem:TServerSystem.obj
 0002:0000f9b0       __unwindtable$?LoadStringFromIni@TServerSystem@@IAEXV?$basic_string@DU?$char_traits@D@std@@V?$allocator@D@2@@std@@0AAV23@@Z 004629b0     TServerSystem:TServerSystem.obj
 0002:0000f9d0       __ehfuncinfo$??0?$vector@V?$basic_string@DU?$char_traits@D@std@@V?$allocator@D@2@@std@@V?$allocator@V?$basic_string@DU?$char_traits@D@std@@V?$allocator@D@2@@std@@@2@@std@@QAE@ABV01@@Z 004629d0     TServerSystem:TServerSystem.obj
 0002:0000f9f4       __unwindtable$??0?$vector@V?$basic_string@DU?$char_traits@D@std@@V?$allocator@D@2@@std@@V?$allocator@V?$basic_string@DU?$char_traits@D@std@@V?$allocator@D@2@@std@@@2@@std@@QAE@ABV01@@Z 004629f4     TServerSystem:TServerSystem.obj
 0002:0000fa04       __ehfuncinfo$?uflow@?$basic_filebuf@DU?$char_traits@D@std@@@std@@MAEHXZ 00462a04     TServerSystem:TServerSystem.obj
 0002:0000fa28       __unwindtable$?uflow@?$basic_filebuf@DU?$char_traits@D@std@@@std@@MAEHXZ 00462a28     TServerSystem:TServerSystem.obj
 0002:0000fa30       __ehfuncinfo$??0sentry@?$basic_ostream@DU?$char_traits@D@std@@@std@@QAE@AAV12@@Z 00462a30     TServerSystem:TServerSystem.obj
 0002:0000fa54       __unwindtable$??0sentry@?$basic_ostream@DU?$char_traits@D@std@@@std@@QAE@AAV12@@Z 00462a54     TServerSystem:TServerSystem.obj
 0002:0000fa5c       __ehfuncinfo$??0?$basic_ostream@DU?$char_traits@D@std@@@std@@QAE@PAV?$basic_streambuf@DU?$char_traits@D@std@@@1@_N@Z 00462a5c     TServerSystem:TServerSystem.obj
 0002:0000fa80       __unwindtable$??0?$basic_ostream@DU?$char_traits@D@std@@@std@@QAE@PAV?$basic_streambuf@DU?$char_traits@D@std@@@1@_N@Z 00462a80     TServerSystem:TServerSystem.obj
 0002:0000fa98       __ehfuncinfo$??0?$basic_streambuf@DU?$char_traits@D@std@@@std@@IAE@XZ 00462a98     TServerSystem:TServerSystem.obj
 0002:0000fabc       __unwindtable$??0?$basic_streambuf@DU?$char_traits@D@std@@@std@@IAE@XZ 00462abc     TServerSystem:TServerSystem.obj
 0002:0000fac4       __ehfuncinfo$?flush@?$basic_ostream@DU?$char_traits@D@std@@@std@@QAEAAV12@XZ 00462ac4     TServerSystem:TServerSystem.obj
 0002:0000fae8       __unwindtable$?flush@?$basic_ostream@DU?$char_traits@D@std@@@std@@QAEAAV12@XZ 00462ae8     TServerSystem:TServerSystem.obj
 0002:0000fb08       __tryblocktable$?flush@?$basic_ostream@DU?$char_traits@D@std@@@std@@QAEAAV12@XZ 00462b08     TServerSystem:TServerSystem.obj
 0002:0000fb1c       __catchsym$?flush@?$basic_ostream@DU?$char_traits@D@std@@@std@@QAEAAV12@XZ$11 00462b1c     TServerSystem:TServerSystem.obj
 0002:0000fb2c       __ehfuncinfo$?_Osfx@?$basic_ostream@DU?$char_traits@D@std@@@std@@QAEXXZ 00462b2c     TServerSystem:TServerSystem.obj
 0002:0000fb50       __unwindtable$?_Osfx@?$basic_ostream@DU?$char_traits@D@std@@@std@@QAEXXZ 00462b50     TServerSystem:TServerSystem.obj
 0002:0000fb60       __tryblocktable$?_Osfx@?$basic_ostream@DU?$char_traits@D@std@@@std@@QAEXXZ 00462b60     TServerSystem:TServerSystem.obj
 0002:0000fb74       __catchsym$?_Osfx@?$basic_ostream@DU?$char_traits@D@std@@@std@@QAEXXZ$2 00462b74     TServerSystem:TServerSystem.obj
 0002:0000fb84       __ehfuncinfo$??$use_facet@V?$ctype@D@std@@@std@@YAABV?$ctype@D@0@ABVlocale@0@@Z 00462b84     TServerSystem:TServerSystem.obj
 0002:0000fba8       __unwindtable$??$use_facet@V?$ctype@D@std@@@std@@YAABV?$ctype@D@0@ABVlocale@0@@Z 00462ba8     TServerSystem:TServerSystem.obj
 0002:0000fbc0       __ehfuncinfo$??$?6U?$char_traits@D@std@@@std@@YAAAV?$basic_ostream@DU?$char_traits@D@std@@@0@AAV10@PBD@Z 00462bc0     TServerSystem:TServerSystem.obj
 0002:0000fbe4       __unwindtable$??$?6U?$char_traits@D@std@@@std@@YAAAV?$basic_ostream@DU?$char_traits@D@std@@@0@AAV10@PBD@Z 00462be4     TServerSystem:TServerSystem.obj
 0002:0000fc0c       __tryblocktable$??$?6U?$char_traits@D@std@@@std@@YAAAV?$basic_ostream@DU?$char_traits@D@std@@@0@AAV10@PBD@Z 00462c0c     TServerSystem:TServerSystem.obj
 0002:0000fc20       __catchsym$??$?6U?$char_traits@D@std@@@std@@YAAAV?$basic_ostream@DU?$char_traits@D@std@@@0@AAV10@PBD@Z$6 00462c20     TServerSystem:TServerSystem.obj
 0002:0000fc30       __ehfuncinfo$??$endl@DU?$char_traits@D@std@@@std@@YAAAV?$basic_ostream@DU?$char_traits@D@std@@@0@AAV10@@Z 00462c30     TServerSystem:TServerSystem.obj
 0002:0000fc54       __unwindtable$??$endl@DU?$char_traits@D@std@@@std@@YAAAV?$basic_ostream@DU?$char_traits@D@std@@@0@AAV10@@Z 00462c54     TServerSystem:TServerSystem.obj
 0002:0000fc5c       __ehfuncinfo$??$use_facet@V?$codecvt@DDU_Mbstatet@@@std@@@std@@YAABV?$codecvt@DDU_Mbstatet@@@0@ABVlocale@0@@Z 00462c5c     TServerSystem:TServerSystem.obj
 0002:0000fc80       __unwindtable$??$use_facet@V?$codecvt@DDU_Mbstatet@@@std@@@std@@YAABV?$codecvt@DDU_Mbstatet@@@0@ABVlocale@0@@Z 00462c80     TServerSystem:TServerSystem.obj
 0002:0000fc98       __ehfuncinfo$??$use_facet@V?$numpunct@D@std@@@std@@YAABV?$numpunct@D@0@ABVlocale@0@@Z 00462c98     TServerSystem:TServerSystem.obj
 0002:0000fcbc       __unwindtable$??$use_facet@V?$numpunct@D@std@@@std@@YAABV?$numpunct@D@0@ABVlocale@0@@Z 00462cbc     TServerSystem:TServerSystem.obj
 0002:0000fcf4       __ehfuncinfo$?put@?$basic_ostream@DU?$char_traits@D@std@@@std@@QAEAAV12@D@Z 00462cf4     TServerSystem:TServerSystem.obj
 0002:0000fd18       __unwindtable$?put@?$basic_ostream@DU?$char_traits@D@std@@@std@@QAEAAV12@D@Z 00462d18     TServerSystem:TServerSystem.obj
 0002:0000fd40       __tryblocktable$?put@?$basic_ostream@DU?$char_traits@D@std@@@std@@QAEAAV12@D@Z 00462d40     TServerSystem:TServerSystem.obj
 0002:0000fd54       __catchsym$?put@?$basic_ostream@DU?$char_traits@D@std@@@std@@QAEAAV12@D@Z$6 00462d54     TServerSystem:TServerSystem.obj
 0002:0000fd64       __ehfuncinfo$??$_Insert_string@DU?$char_traits@D@std@@I@std@@YAAAV?$basic_ostream@DU?$char_traits@D@std@@@0@AAV10@QBDI@Z 00462d64     TServerSystem:TServerSystem.obj
 0002:0000fd88       __unwindtable$??$_Insert_string@DU?$char_traits@D@std@@I@std@@YAAAV?$basic_ostream@DU?$char_traits@D@std@@@0@AAV10@QBDI@Z 00462d88     TServerSystem:TServerSystem.obj
 0002:0000fdb0       __tryblocktable$??$_Insert_string@DU?$char_traits@D@std@@I@std@@YAAAV?$basic_ostream@DU?$char_traits@D@std@@@0@AAV10@QBDI@Z 00462db0     TServerSystem:TServerSystem.obj
 0002:0000fdc4       __catchsym$??$_Insert_string@DU?$char_traits@D@std@@I@std@@YAAAV?$basic_ostream@DU?$char_traits@D@std@@@0@AAV10@QBDI@Z$6 00462dc4     TServerSystem:TServerSystem.obj
 0002:0000fdd4       __ehfuncinfo$??$_Emplace_reallocate@ABV?$basic_string@DU?$char_traits@D@std@@V?$allocator@D@2@@std@@@?$vector@V?$basic_string@DU?$char_traits@D@std@@V?$allocator@D@2@@std@@V?$allocator@V?$basic_string@DU?$char_traits@D@std@@V?$allocator@D@2@@std@@@2@@std@@AAEPAV?$basic_string@DU?$char_traits@D@std@@V?$allocator@D@2@@1@QAV21@ABV21@@Z 00462dd4     TServerSystem:TServerSystem.obj
 0002:0000fdf8       __unwindtable$??$_Emplace_reallocate@ABV?$basic_string@DU?$char_traits@D@std@@V?$allocator@D@2@@std@@@?$vector@V?$basic_string@DU?$char_traits@D@std@@V?$allocator@D@2@@std@@V?$allocator@V?$basic_string@DU?$char_traits@D@std@@V?$allocator@D@2@@std@@@2@@std@@AAEPAV?$basic_string@DU?$char_traits@D@std@@V?$allocator@D@2@@1@QAV21@ABV21@@Z 00462df8     TServerSystem:TServerSystem.obj
 0002:0000fe08       __tryblocktable$??$_Emplace_reallocate@ABV?$basic_string@DU?$char_traits@D@std@@V?$allocator@D@2@@std@@@?$vector@V?$basic_string@DU?$char_traits@D@std@@V?$allocator@D@2@@std@@V?$allocator@V?$basic_string@DU?$char_traits@D@std@@V?$allocator@D@2@@std@@@2@@std@@AAEPAV?$basic_string@DU?$char_traits@D@std@@V?$allocator@D@2@@1@QAV21@ABV21@@Z 00462e08     TServerSystem:TServerSystem.obj
 0002:0000fe1c       __catchsym$??$_Emplace_reallocate@ABV?$basic_string@DU?$char_traits@D@std@@V?$allocator@D@2@@std@@@?$vector@V?$basic_string@DU?$char_traits@D@std@@V?$allocator@D@2@@std@@V?$allocator@V?$basic_string@DU?$char_traits@D@std@@V?$allocator@D@2@@std@@@2@@std@@AAEPAV?$basic_string@DU?$char_traits@D@std@@V?$allocator@D@2@@1@QAV21@ABV21@@Z$2 00462e1c     TServerSystem:TServerSystem.obj
 0002:0000fe2c       __ehfuncinfo$??$_Emplace_reallocate@ABV?$vector@V?$basic_string@DU?$char_traits@D@std@@V?$allocator@D@2@@std@@V?$allocator@V?$basic_string@DU?$char_traits@D@std@@V?$allocator@D@2@@std@@@2@@std@@@?$vector@V?$vector@V?$basic_string@DU?$char_traits@D@std@@V?$allocator@D@2@@std@@V?$allocator@V?$basic_string@DU?$char_traits@D@std@@V?$allocator@D@2@@std@@@2@@std@@V?$allocator@V?$vector@V?$basic_string@DU?$char_traits@D@std@@V?$allocator@D@2@@std@@V?$allocator@V?$basic_string@DU?$char_traits@D@std@@V?$allocator@D@2@@std@@@2@@std@@@2@@std@@AAEPAV?$vector@V?$basic_string@DU?$char_traits@D@std@@V?$allocator@D@2@@std@@V?$allocator@V?$basic_string@DU?$char_traits@D@std@@V?$allocator@D@2@@std@@@2@@1@QAV21@ABV21@@Z 00462e2c     TServerSystem:TServerSystem.obj
 0002:0000fe50       __unwindtable$??$_Emplace_reallocate@ABV?$vector@V?$basic_string@DU?$char_traits@D@std@@V?$allocator@D@2@@std@@V?$allocator@V?$basic_string@DU?$char_traits@D@std@@V?$allocator@D@2@@std@@@2@@std@@@?$vector@V?$vector@V?$basic_string@DU?$char_traits@D@std@@V?$allocator@D@2@@std@@V?$allocator@V?$basic_string@DU?$char_traits@D@std@@V?$allocator@D@2@@std@@@2@@std@@V?$allocator@V?$vector@V?$basic_string@DU?$char_traits@D@std@@V?$allocator@D@2@@std@@V?$allocator@V?$basic_string@DU?$char_traits@D@std@@V?$allocator@D@2@@std@@@2@@std@@@2@@std@@AAEPAV?$vector@V?$basic_string@DU?$char_traits@D@std@@V?$allocator@D@2@@std@@V?$allocator@V?$basic_string@DU?$char_traits@D@std@@V?$allocator@D@2@@std@@@2@@1@QAV21@ABV21@@Z 00462e50     TServerSystem:TServerSystem.obj
 0002:0000fe60       __tryblocktable$??$_Emplace_reallocate@ABV?$vector@V?$basic_string@DU?$char_traits@D@std@@V?$allocator@D@2@@std@@V?$allocator@V?$basic_string@DU?$char_traits@D@std@@V?$allocator@D@2@@std@@@2@@std@@@?$vector@V?$vector@V?$basic_string@DU?$char_traits@D@std@@V?$allocator@D@2@@std@@V?$allocator@V?$basic_string@DU?$char_traits@D@std@@V?$allocator@D@2@@std@@@2@@std@@V?$allocator@V?$vector@V?$basic_string@DU?$char_traits@D@std@@V?$allocator@D@2@@std@@V?$allocator@V?$basic_string@DU?$char_traits@D@std@@V?$allocator@D@2@@std@@@2@@std@@@2@@std@@AAEPAV?$vector@V?$basic_string@DU?$char_traits@D@std@@V?$allocator@D@2@@std@@V?$allocator@V?$basic_string@DU?$char_traits@D@std@@V?$allocator@D@2@@std@@@2@@1@QAV21@ABV21@@Z 00462e60     TServerSystem:TServerSystem.obj
 0002:0000fe74       __catchsym$??$_Emplace_reallocate@ABV?$vector@V?$basic_string@DU?$char_traits@D@std@@V?$allocator@D@2@@std@@V?$allocator@V?$basic_string@DU?$char_traits@D@std@@V?$allocator@D@2@@std@@@2@@std@@@?$vector@V?$vector@V?$basic_string@DU?$char_traits@D@std@@V?$allocator@D@2@@std@@V?$allocator@V?$basic_string@DU?$char_traits@D@std@@V?$allocator@D@2@@std@@@2@@std@@V?$allocator@V?$vector@V?$basic_string@DU?$char_traits@D@std@@V?$allocator@D@2@@std@@V?$allocator@V?$basic_string@DU?$char_traits@D@std@@V?$allocator@D@2@@std@@@2@@std@@@2@@std@@AAEPAV?$vector@V?$basic_string@DU?$char_traits@D@std@@V?$allocator@D@2@@std@@V?$allocator@V?$basic_string@DU?$char_traits@D@std@@V?$allocator@D@2@@std@@@2@@1@QAV21@ABV21@@Z$2 00462e74     TServerSystem:TServerSystem.obj
 0002:0000fe84       __ehfuncinfo$?AddEntry@?$CSimpleIniTempl@DU?$SI_NoCase@D@@V?$SI_ConvertA@D@@@@AAE?AW4SI_Error@@PBD000_N1@Z 00462e84     TServerSystem:TServerSystem.obj
 0002:0000fea8       __unwindtable$?AddEntry@?$CSimpleIniTempl@DU?$SI_NoCase@D@@V?$SI_ConvertA@D@@@@AAE?AW4SI_Error@@PBD000_N1@Z 00462ea8     TServerSystem:TServerSystem.obj
 0002:0000fed0       __ehfuncinfo$?CopyString@?$CSimpleIniTempl@DU?$SI_NoCase@D@@V?$SI_ConvertA@D@@@@AAE?AW4SI_Error@@AAPBD@Z 00462ed0     TServerSystem:TServerSystem.obj
 0002:0000fef4       __unwindtable$?CopyString@?$CSimpleIniTempl@DU?$SI_NoCase@D@@V?$SI_ConvertA@D@@@@AAE?AW4SI_Error@@AAPBD@Z 00462ef4     TServerSystem:TServerSystem.obj
 0002:0000fefc       __ehfuncinfo$??$_Emplace@AAU?$pair@$$CBUEntry@?$CSimpleIniTempl@DU?$SI_NoCase@D@@V?$SI_ConvertA@D@@@@V?$multimap@UEntry@?$CSimpleIniTempl@DU?$SI_NoCase@D@@V?$SI_ConvertA@D@@@@PBDUKeyOrder@12@V?$allocator@U?$pair@$$CBUEntry@?$CSimpleIniTempl@DU?$SI_NoCase@D@@V?$SI_ConvertA@D@@@@PBD@std@@@std@@@std@@@std@@@?$_Tree@V?$_Tmap_traits@UEntry@?$CSimpleIniTempl@DU?$SI_NoCase@D@@V?$SI_ConvertA@D@@@@V?$multimap@UEntry@?$CSimpleIniTempl@DU?$SI_NoCase@D@@V?$SI_ConvertA@D@@@@PBDUKeyOrder@12@V?$allocator@U?$pair@$$CBUEntry@?$CSimpleIniTempl@DU?$SI_NoCase@D@@V?$SI_ConvertA@D@@@@PBD@std@@@std@@@std@@UKeyOrder@12@V?$allocator@U?$pair@$$CBUEntry@?$CSimpleIniTempl@DU?$SI_NoCase@D@@V?$SI_ConvertA@D@@@@V?$multimap@UEntry@?$CSimpleIniTempl@DU?$SI_NoCase@D@@V?$SI_ConvertA@D@@@@PBDUKeyOrder@12@V?$allocator@U?$pair@$$CBUEntry@?$CSimpleIniTempl@DU?$SI_NoCase@D@@V?$SI_ConvertA@D@@@@PBD@std@@@std@@@std@@@std@@@4@$0A@@std@@@std@@IAE?AU?$pair@PAU?$_Tree_node@U?$pair@$$CBUEntry@?$CSimpleIniTempl@DU?$SI_NoCase@D@@V?$SI_ConvertA@D@@@@V?$multimap@UEntry@?$CSimpleIniTempl@DU?$SI_NoCase@D@@V?$SI_ConvertA@D@@@@PBDUKeyOrder@12@V?$allocator@U?$pair@$$CBUEntry@?$CSimpleIniTempl@DU?$SI_NoCase@D@@V?$SI_ConvertA@D@@@@PBD@std@@@std@@@std@@@std@@PAX@std@@_N@1@AAU?$pair@$$CBUEntry@?$CSimpleIniTempl@DU?$SI_NoCase@D@@V?$SI_ConvertA@D@@@@V?$multimap@UEntry@?$CSimpleIniTempl@DU?$SI_NoCase@D@@V?$SI_ConvertA@D@@@@PBDUKeyOrder@12@V?$allocator@U?$pair@$$CBUEntry@?$CSimpleIniTempl@DU?$SI_NoCase@D@@V?$SI_ConvertA@D@@@@PBD@std@@@std@@@std@@@1@@Z 00462efc     TServerSystem:TServerSystem.obj
 0002:0000ff20       __unwindtable$??$_Emplace@AAU?$pair@$$CBUEntry@?$CSimpleIniTempl@DU?$SI_NoCase@D@@V?$SI_ConvertA@D@@@@V?$multimap@UEntry@?$CSimpleIniTempl@DU?$SI_NoCase@D@@V?$SI_ConvertA@D@@@@PBDUKeyOrder@12@V?$allocator@U?$pair@$$CBUEntry@?$CSimpleIniTempl@DU?$SI_NoCase@D@@V?$SI_ConvertA@D@@@@PBD@std@@@std@@@std@@@std@@@?$_Tree@V?$_Tmap_traits@UEntry@?$CSimpleIniTempl@DU?$SI_NoCase@D@@V?$SI_ConvertA@D@@@@V?$multimap@UEntry@?$CSimpleIniTempl@DU?$SI_NoCase@D@@V?$SI_ConvertA@D@@@@PBDUKeyOrder@12@V?$allocator@U?$pair@$$CBUEntry@?$CSimpleIniTempl@DU?$SI_NoCase@D@@V?$SI_ConvertA@D@@@@PBD@std@@@std@@@std@@UKeyOrder@12@V?$allocator@U?$pair@$$CBUEntry@?$CSimpleIniTempl@DU?$SI_NoCase@D@@V?$SI_ConvertA@D@@@@V?$multimap@UEntry@?$CSimpleIniTempl@DU?$SI_NoCase@D@@V?$SI_ConvertA@D@@@@PBDUKeyOrder@12@V?$allocator@U?$pair@$$CBUEntry@?$CSimpleIniTempl@DU?$SI_NoCase@D@@V?$SI_ConvertA@D@@@@PBD@std@@@std@@@std@@@std@@@4@$0A@@std@@@std@@IAE?AU?$pair@PAU?$_Tree_node@U?$pair@$$CBUEntry@?$CSimpleIniTempl@DU?$SI_NoCase@D@@V?$SI_ConvertA@D@@@@V?$multimap@UEntry@?$CSimpleIniTempl@DU?$SI_NoCase@D@@V?$SI_ConvertA@D@@@@PBDUKeyOrder@12@V?$allocator@U?$pair@$$CBUEntry@?$CSimpleIniTempl@DU?$SI_NoCase@D@@V?$SI_ConvertA@D@@@@PBD@std@@@std@@@std@@@std@@PAX@std@@_N@1@AAU?$pair@$$CBUEntry@?$CSimpleIniTempl@DU?$SI_NoCase@D@@V?$SI_ConvertA@D@@@@V?$multimap@UEntry@?$CSimpleIniTempl@DU?$SI_NoCase@D@@V?$SI_ConvertA@D@@@@PBDUKeyOrder@12@V?$allocator@U?$pair@$$CBUEntry@?$CSimpleIniTempl@DU?$SI_NoCase@D@@V?$SI_ConvertA@D@@@@PBD@std@@@std@@@std@@@1@@Z 00462f20     TServerSystem:TServerSystem.obj
 0002:0000ff38       __ehfuncinfo$??$_Copy_nodes@$0A@@?$_Tree@V?$_Tmap_traits@UEntry@?$CSimpleIniTempl@DU?$SI_NoCase@D@@V?$SI_ConvertA@D@@@@PBDUKeyOrder@12@V?$allocator@U?$pair@$$CBUEntry@?$CSimpleIniTempl@DU?$SI_NoCase@D@@V?$SI_ConvertA@D@@@@PBD@std@@@std@@$00@std@@@std@@IAEPAU?$_Tree_node@U?$pair@$$CBUEntry@?$CSimpleIniTempl@DU?$SI_NoCase@D@@V?$SI_ConvertA@D@@@@PBD@std@@PAX@1@PAU21@0@Z 00462f38     TServerSystem:TServerSystem.obj
 0002:0000ff5c       __unwindtable$??$_Copy_nodes@$0A@@?$_Tree@V?$_Tmap_traits@UEntry@?$CSimpleIniTempl@DU?$SI_NoCase@D@@V?$SI_ConvertA@D@@@@PBDUKeyOrder@12@V?$allocator@U?$pair@$$CBUEntry@?$CSimpleIniTempl@DU?$SI_NoCase@D@@V?$SI_ConvertA@D@@@@PBD@std@@@std@@$00@std@@@std@@IAEPAU?$_Tree_node@U?$pair@$$CBUEntry@?$CSimpleIniTempl@DU?$SI_NoCase@D@@V?$SI_ConvertA@D@@@@PBD@std@@PAX@1@PAU21@0@Z 00462f5c     TServerSystem:TServerSystem.obj
 0002:0000ff74       __tryblocktable$??$_Copy_nodes@$0A@@?$_Tree@V?$_Tmap_traits@UEntry@?$CSimpleIniTempl@DU?$SI_NoCase@D@@V?$SI_ConvertA@D@@@@PBDUKeyOrder@12@V?$allocator@U?$pair@$$CBUEntry@?$CSimpleIniTempl@DU?$SI_NoCase@D@@V?$SI_ConvertA@D@@@@PBD@std@@@std@@$00@std@@@std@@IAEPAU?$_Tree_node@U?$pair@$$CBUEntry@?$CSimpleIniTempl@DU?$SI_NoCase@D@@V?$SI_ConvertA@D@@@@PBD@std@@PAX@1@PAU21@0@Z 00462f74     TServerSystem:TServerSystem.obj
 0002:0000ff88       __catchsym$??$_Copy_nodes@$0A@@?$_Tree@V?$_Tmap_traits@UEntry@?$CSimpleIniTempl@DU?$SI_NoCase@D@@V?$SI_ConvertA@D@@@@PBDUKeyOrder@12@V?$allocator@U?$pair@$$CBUEntry@?$CSimpleIniTempl@DU?$SI_NoCase@D@@V?$SI_ConvertA@D@@@@PBD@std@@@std@@$00@std@@@std@@IAEPAU?$_Tree_node@U?$pair@$$CBUEntry@?$CSimpleIniTempl@DU?$SI_NoCase@D@@V?$SI_ConvertA@D@@@@PBD@std@@PAX@1@PAU21@0@Z$3 00462f88     TServerSystem:TServerSystem.obj
 0002:0000ff98       __unwindtable$??0CSPUserProtectedAdd@@QAE@PAVCSqlDatabase@@V?$basic_string@DU?$char_traits@D@std@@V?$allocator@D@2@@std@@@Z 00462f98     DBAccess.obj
 0002:0000ffa0       __ehfuncinfo$??0CSPUserProtectedAdd@@QAE@PAVCSqlDatabase@@V?$basic_string@DU?$char_traits@D@std@@V?$allocator@D@2@@std@@@Z 00462fa0     DBAccess.obj
 0002:0000ffc4       __ehfuncinfo$?InitQueryTControlSvr@@YAHPAVCSqlDatabase@@@Z 00462fc4     DBAccess.obj
 0002:0000ffe8       __unwindtable$?InitQueryTControlSvr@@YAHPAVCSqlDatabase@@@Z 00462fe8     DBAccess.obj
 0002:00010118       __unwindtable$?FormatV@?$CStringT@DV?$StrTraitATL@DV?$ChTraitsCRT@D@ATL@@@ATL@@@ATL@@QAEXPBDPAD@Z 00463118     DebugSocket.obj
 0002:00010128       __ehfuncinfo$?FormatV@?$CStringT@DV?$StrTraitATL@DV?$ChTraitsCRT@D@ATL@@@ATL@@@ATL@@QAEXPBDPAD@Z 00463128     DebugSocket.obj
 0002:0001014c       __unwindtable$?LogInvalidPacket@CDebugSocket@@QAEXPAD@Z 0046314c     DebugSocket.obj
 0002:00010154       __ehfuncinfo$?LogInvalidPacket@CDebugSocket@@QAEXPAD@Z 00463154     DebugSocket.obj
 0002:000101ac       __unwindtable$??HATL@@YA?AV?$CStringT@DV?$StrTraitATL@DV?$ChTraitsCRT@D@ATL@@@ATL@@@0@ABV10@0@Z 004631ac     Handler.obj
 0002:000101b4       __ehfuncinfo$??HATL@@YA?AV?$CStringT@DV?$StrTraitATL@DV?$ChTraitsCRT@D@ATL@@@ATL@@@0@ABV10@0@Z 004631b4     Handler.obj
 0002:000101d8       __ehfuncinfo$??0tagEVENTINFO@@QAE@ABU0@@Z 004631d8     Handler.obj
 0002:000101fc       __unwindtable$??0tagEVENTINFO@@QAE@ABU0@@Z 004631fc     Handler.obj
 0002:00010234       __ehfuncinfo$??0tagEVENTINFO@@QAE@$$QAU0@@Z 00463234     Handler.obj
 0002:00010258       __unwindtable$??0tagEVENTINFO@@QAE@$$QAU0@@Z 00463258     Handler.obj
 0002:00010290       __unwindtable$?OnCT_OPLOGIN_REQ@CTControlSvrModule@@IAEKPAUtagPACKETBUF@@@Z 00463290     Handler.obj
 0002:000102a8       __ehfuncinfo$?OnCT_OPLOGIN_REQ@CTControlSvrModule@@IAEKPAUtagPACKETBUF@@@Z 004632a8     Handler.obj
 0002:000102cc       __unwindtable$?OnCT_NEWCONNECT_REQ@CTControlSvrModule@@IAEKPAUtagPACKETBUF@@@Z 004632cc     Handler.obj
 0002:000102d4       __ehfuncinfo$?OnCT_NEWCONNECT_REQ@CTControlSvrModule@@IAEKPAUtagPACKETBUF@@@Z 004632d4     Handler.obj
 0002:000102f8       __unwindtable$?OnCT_SERVICEUPLOADSTART_REQ@CTControlSvrModule@@IAEKPAUtagPACKETBUF@@@Z 004632f8     Handler.obj
 0002:00010310       __ehfuncinfo$?OnCT_SERVICEUPLOADSTART_REQ@CTControlSvrModule@@IAEKPAUtagPACKETBUF@@@Z 00463310     Handler.obj
 0002:00010334       __unwindtable$?OnCT_UPDATEPATCH_REQ@CTControlSvrModule@@IAEKPAUtagPACKETBUF@@@Z 00463334     Handler.obj
 0002:0001034c       __ehfuncinfo$?OnCT_UPDATEPATCH_REQ@CTControlSvrModule@@IAEKPAUtagPACKETBUF@@@Z 0046334c     Handler.obj
 0002:00010370       __unwindtable$?OnCT_ANNOUNCEMENT_REQ@CTControlSvrModule@@IAEKPAUtagPACKETBUF@@@Z 00463370     Handler.obj
 0002:00010380       __ehfuncinfo$?OnCT_ANNOUNCEMENT_REQ@CTControlSvrModule@@IAEKPAUtagPACKETBUF@@@Z 00463380     Handler.obj
 0002:000103a4       __unwindtable$?OnCT_USERKICKOUT_REQ@CTControlSvrModule@@IAEKPAUtagPACKETBUF@@@Z 004633a4     Handler.obj
 0002:000103b4       __ehfuncinfo$?OnCT_USERKICKOUT_REQ@CTControlSvrModule@@IAEKPAUtagPACKETBUF@@@Z 004633b4     Handler.obj
 0002:000103d8       __unwindtable$?OnCT_USERMOVE_REQ@CTControlSvrModule@@IAEKPAUtagPACKETBUF@@@Z 004633d8     Handler.obj
 0002:000103e8       __ehfuncinfo$?OnCT_USERMOVE_REQ@CTControlSvrModule@@IAEKPAUtagPACKETBUF@@@Z 004633e8     Handler.obj
 0002:0001040c       __unwindtable$?OnCT_USERPOSITION_REQ@CTControlSvrModule@@IAEKPAUtagPACKETBUF@@@Z 0046340c     Handler.obj
 0002:0001042c       __ehfuncinfo$?OnCT_USERPOSITION_REQ@CTControlSvrModule@@IAEKPAUtagPACKETBUF@@@Z 0046342c     Handler.obj
 0002:00010450       __unwindtable$?OnCT_MONSPAWNFIND_ACK@CTControlSvrModule@@IAEKPAUtagPACKETBUF@@@Z 00463450     Handler.obj
 0002:00010458       __ehfuncinfo$?OnCT_MONSPAWNFIND_ACK@CTControlSvrModule@@IAEKPAUtagPACKETBUF@@@Z 00463458     Handler.obj
 0002:0001047c       __unwindtable$?OnCT_STLOGIN_REQ@CTControlSvrModule@@IAEKPAUtagPACKETBUF@@@Z 0046347c     Handler.obj
 0002:00010494       __ehfuncinfo$?OnCT_STLOGIN_REQ@CTControlSvrModule@@IAEKPAUtagPACKETBUF@@@Z 00463494     Handler.obj
 0002:000104b8       __unwindtable$?OnCT_USERPROTECTED_REQ@CTControlSvrModule@@IAEKPAUtagPACKETBUF@@@Z 004634b8     Handler.obj
 0002:000104d8       __ehfuncinfo$?OnCT_USERPROTECTED_REQ@CTControlSvrModule@@IAEKPAUtagPACKETBUF@@@Z 004634d8     Handler.obj
 0002:000104fc       __ehfuncinfo$?OnCT_CHARMSG_REQ@CTControlSvrModule@@IAEKPAUtagPACKETBUF@@@Z 004634fc     Handler.obj
 0002:00010520       __unwindtable$?OnCT_CHARMSG_REQ@CTControlSvrModule@@IAEKPAUtagPACKETBUF@@@Z 00463520     Handler.obj
 0002:00010550       __unwindtable$?OnCT_RECONNECT_REQ@CTControlSvrModule@@IAEKPAUtagPACKETBUF@@@Z 00463550     Handler.obj
 0002:00010558       __ehfuncinfo$?OnCT_RECONNECT_REQ@CTControlSvrModule@@IAEKPAUtagPACKETBUF@@@Z 00463558     Handler.obj
 0002:0001057c       __unwindtable$?OnCT_CHATBAN_REQ@CTControlSvrModule@@IAEKPAUtagPACKETBUF@@@Z 0046357c     Handler.obj
 0002:0001059c       __ehfuncinfo$?OnCT_CHATBAN_REQ@CTControlSvrModule@@IAEKPAUtagPACKETBUF@@@Z 0046359c     Handler.obj
 0002:000105c0       __unwindtable$?OnCT_CMGIFT_REQ@CTControlSvrModule@@IAEKPAUtagPACKETBUF@@@Z 004635c0     Handler.obj
 0002:000105c0       __unwindtable$?OnCT_ITEMFIND_REQ@CTControlSvrModule@@IAEKPAUtagPACKETBUF@@@Z 004635c0     Handler.obj
 0002:000105c8       __ehfuncinfo$?OnCT_CMGIFT_REQ@CTControlSvrModule@@IAEKPAUtagPACKETBUF@@@Z 004635c8     Handler.obj
 0002:000105c8       __ehfuncinfo$?OnCT_ITEMFIND_REQ@CTControlSvrModule@@IAEKPAUtagPACKETBUF@@@Z 004635c8     Handler.obj
 0002:000105ec       __unwindtable$?OnCT_ITEMSTATE_REQ@CTControlSvrModule@@IAEKPAUtagPACKETBUF@@@Z 004635ec     Handler.obj
 0002:000105f4       __ehfuncinfo$?OnCT_ITEMSTATE_REQ@CTControlSvrModule@@IAEKPAUtagPACKETBUF@@@Z 004635f4     Handler.obj
 0002:00010618       __unwindtable$?OnCT_ITEMFIND_ACK@CTControlSvrModule@@IAEKPAUtagPACKETBUF@@@Z 00463618     Handler.obj
 0002:00010628       __ehfuncinfo$?OnCT_ITEMFIND_ACK@CTControlSvrModule@@IAEKPAUtagPACKETBUF@@@Z 00463628     Handler.obj
 0002:0001064c       __unwindtable$?OnCT_CHATBANLISTDEL_REQ@CTControlSvrModule@@IAEKPAUtagPACKETBUF@@@Z 0046364c     Handler.obj
 0002:00010654       __ehfuncinfo$?OnCT_CHATBANLISTDEL_REQ@CTControlSvrModule@@IAEKPAUtagPACKETBUF@@@Z 00463654     Handler.obj
 0002:00010678       __ehfuncinfo$?OnCT_EVENTCHANGE_REQ@CTControlSvrModule@@IAEKPAUtagPACKETBUF@@@Z 00463678     Handler.obj
 0002:0001069c       __unwindtable$?OnCT_EVENTCHANGE_REQ@CTControlSvrModule@@IAEKPAUtagPACKETBUF@@@Z 0046369c     Handler.obj
 0002:000106d4       __unwindtable$?OnCT_EVENTMSG_REQ@CTControlSvrModule@@IAEKPAUtagPACKETBUF@@@Z 004636d4     Handler.obj
 0002:000106ec       __ehfuncinfo$?OnCT_EVENTMSG_REQ@CTControlSvrModule@@IAEKPAUtagPACKETBUF@@@Z 004636ec     Handler.obj
 0002:00010710       __unwindtable$?OnCT_EVENTDEL_REQ@CTControlSvrModule@@IAEKPAUtagPACKETBUF@@@Z 00463710     Handler.obj
 0002:00010720       __ehfuncinfo$?OnCT_EVENTDEL_REQ@CTControlSvrModule@@IAEKPAUtagPACKETBUF@@@Z 00463720     Handler.obj
 0002:00010744       __unwindtable$?OnCT_CASHITEMLIST_REQ@CTControlSvrModule@@IAEKPAUtagPACKETBUF@@@Z 00463744     Handler.obj
 0002:0001075c       __ehfuncinfo$?OnCT_CASHITEMLIST_REQ@CTControlSvrModule@@IAEKPAUtagPACKETBUF@@@Z 0046375c     Handler.obj
 0002:00010780       __ehfuncinfo$?OnCT_PREVERSIONUPDATE_REQ@CTControlSvrModule@@IAEKPAUtagPACKETBUF@@@Z 00463780     Handler.obj
 0002:000107a4       __unwindtable$?OnCT_PREVERSIONUPDATE_REQ@CTControlSvrModule@@IAEKPAUtagPACKETBUF@@@Z 004637a4     Handler.obj
 0002:000107ec       __unwindtable$?OnCT_PREVERSIONTABLE_REQ@CTControlSvrModule@@IAEKPAUtagPACKETBUF@@@Z 004637ec     Handler.obj
 0002:00010804       __ehfuncinfo$?OnCT_PREVERSIONTABLE_REQ@CTControlSvrModule@@IAEKPAUtagPACKETBUF@@@Z 00463804     Handler.obj
 0002:00010828       __unwindtable$??$insert@$0A@$0A@@?$_Tree@V?$_Tmap_traits@KPAVCTManager@@U?$less@K@std@@V?$allocator@U?$pair@$$CBKPAVCTManager@@@std@@@3@$0A@@std@@@std@@QAE?AU?$pair@V?$_Tree_iterator@V?$_Tree_val@U?$_Tree_simple_types@U?$pair@$$CBKPAVCTManager@@@std@@@std@@@std@@@std@@_N@1@$$QAU?$pair@$$CBKPAVCTManager@@@1@@Z 00463828     Handler.obj
 0002:00010830       __ehfuncinfo$??$insert@$0A@$0A@@?$_Tree@V?$_Tmap_traits@KPAVCTManager@@U?$less@K@std@@V?$allocator@U?$pair@$$CBKPAVCTManager@@@std@@@3@$0A@@std@@@std@@QAE?AU?$pair@V?$_Tree_iterator@V?$_Tree_val@U?$_Tree_simple_types@U?$pair@$$CBKPAVCTManager@@@std@@@std@@@std@@@std@@_N@1@$$QAU?$pair@$$CBKPAVCTManager@@@1@@Z 00463830     Handler.obj
 0002:00010854       __unwindtable$?push_back@?$vector@UtagPATCHFILE@@V?$allocator@UtagPATCHFILE@@@std@@@std@@QAEXABUtagPATCHFILE@@@Z 00463854     Handler.obj
 0002:0001085c       __ehfuncinfo$?push_back@?$vector@UtagPATCHFILE@@V?$allocator@UtagPATCHFILE@@@std@@@std@@QAEXABUtagPATCHFILE@@@Z 0046385c     Handler.obj
 0002:00010880       __catchsym$??$_Emplace_reallocate@ABUtagTCASHITEM@@@?$vector@UtagTCASHITEM@@V?$allocator@UtagTCASHITEM@@@std@@@std@@AAEPAUtagTCASHITEM@@QAU2@ABU2@@Z$7 00463880     Handler.obj
 0002:00010890       __tryblocktable$??$_Emplace_reallocate@ABUtagTCASHITEM@@@?$vector@UtagTCASHITEM@@V?$allocator@UtagTCASHITEM@@@std@@@std@@AAEPAUtagTCASHITEM@@QAU2@ABU2@@Z 00463890     Handler.obj
 0002:000108a4       __unwindtable$??$_Emplace_reallocate@ABUtagTCASHITEM@@@?$vector@UtagTCASHITEM@@V?$allocator@UtagTCASHITEM@@@std@@@std@@AAEPAUtagTCASHITEM@@QAU2@ABU2@@Z 004638a4     Handler.obj
 0002:000108bc       __ehfuncinfo$??$_Emplace_reallocate@ABUtagTCASHITEM@@@?$vector@UtagTCASHITEM@@V?$allocator@UtagTCASHITEM@@@std@@@std@@AAEPAUtagTCASHITEM@@QAU2@ABU2@@Z 004638bc     Handler.obj
 0002:000108e0       __catchsym$??$_Emplace_reallocate@ABUtagPATCHFILE@@@?$vector@UtagPATCHFILE@@V?$allocator@UtagPATCHFILE@@@std@@@std@@AAEPAUtagPATCHFILE@@QAU2@ABU2@@Z$11 004638e0     Handler.obj
 0002:000108f0       __tryblocktable$??$_Emplace_reallocate@ABUtagPATCHFILE@@@?$vector@UtagPATCHFILE@@V?$allocator@UtagPATCHFILE@@@std@@@std@@AAEPAUtagPATCHFILE@@QAU2@ABU2@@Z 004638f0     Handler.obj
 0002:00010904       __ehfuncinfo$??$_Emplace_reallocate@ABUtagPATCHFILE@@@?$vector@UtagPATCHFILE@@V?$allocator@UtagPATCHFILE@@@std@@@std@@AAEPAUtagPATCHFILE@@QAU2@ABU2@@Z 00463904     Handler.obj
 0002:00010928       __unwindtable$??$_Emplace_reallocate@ABUtagPATCHFILE@@@?$vector@UtagPATCHFILE@@V?$allocator@UtagPATCHFILE@@@std@@@std@@AAEPAUtagPATCHFILE@@QAU2@ABU2@@Z 00463928     Handler.obj
 0002:00010950       __unwindtable$??$_Uninitialized_move@PAUtagTCASHITEM@@V?$allocator@UtagTCASHITEM@@@std@@@std@@YAPAUtagTCASHITEM@@QAU1@0PAU1@AAV?$allocator@UtagTCASHITEM@@@0@@Z 00463950     Handler.obj
 0002:00010958       __ehfuncinfo$??$_Uninitialized_move@PAUtagTCASHITEM@@V?$allocator@UtagTCASHITEM@@@std@@@std@@YAPAUtagTCASHITEM@@QAU1@0PAU1@AAV?$allocator@UtagTCASHITEM@@@0@@Z 00463958     Handler.obj
 0002:0001097c       __unwindtable$??$_Uninitialized_move@PAUtagPATCHFILE@@V?$allocator@UtagPATCHFILE@@@std@@@std@@YAPAUtagPATCHFILE@@QAU1@0PAU1@AAV?$allocator@UtagPATCHFILE@@@0@@Z 0046397c     Handler.obj
 0002:0001098c       __ehfuncinfo$??$_Uninitialized_move@PAUtagPATCHFILE@@V?$allocator@UtagPATCHFILE@@@std@@@std@@YAPAUtagPATCHFILE@@QAU1@0PAU1@AAV?$allocator@UtagPATCHFILE@@@0@@Z 0046398c     Handler.obj
 0002:000109b0       __unwindtable$??0CPlatformUsage@@QAE@E@Z 004639b0     PlatformUsage.obj
 0002:000109b8       __ehfuncinfo$??0CPlatformUsage@@QAE@E@Z 004639b8     PlatformUsage.obj
 0002:000109dc       __unwindtable$??_GCPlatformUsage@@UAEPAXI@Z 004639dc     PlatformUsage.obj
 0002:000109dc       __unwindtable$??1sentry@?$basic_istream@DU?$char_traits@D@std@@@std@@QAE@XZ 004639dc     TControlSvr.obj
 0002:000109dc       __unwindtable$??_D?$basic_istringstream@DU?$char_traits@D@std@@V?$allocator@D@2@@std@@QAEXXZ 004639dc     TControlSvr.obj
 0002:000109dc       __unwindtable$??_G?$basic_istream@DU?$char_traits@D@std@@@std@@UAEPAXI@Z 004639dc     TControlSvr.obj
 0002:000109dc       __unwindtable$??_D?$basic_istream@DU?$char_traits@D@std@@@std@@QAEXXZ 004639dc     libcpmt:cin.obj
 0002:000109dc       __unwindtable$??_GCSession@@UAEPAXI@Z 004639dc     TNetLib:Session.obj
 0002:000109dc       __unwindtable$??_GCSqlDatabase@@UAEPAXI@Z 004639dc     TNetLib:SqlDatabase.obj
 0002:000109e4       __ehfuncinfo$??_GCPlatformUsage@@UAEPAXI@Z 004639e4     PlatformUsage.obj
 0002:000109e4       __ehfuncinfo$??1sentry@?$basic_istream@DU?$char_traits@D@std@@@std@@QAE@XZ 004639e4     TControlSvr.obj
 0002:000109e4       __ehfuncinfo$??_D?$basic_istringstream@DU?$char_traits@D@std@@V?$allocator@D@2@@std@@QAEXXZ 004639e4     TControlSvr.obj
 0002:000109e4       __ehfuncinfo$??_G?$basic_istream@DU?$char_traits@D@std@@@std@@UAEPAXI@Z 004639e4     TControlSvr.obj
 0002:000109e4       __ehfuncinfo$??_D?$basic_istream@DU?$char_traits@D@std@@@std@@QAEXXZ 004639e4     libcpmt:cin.obj
 0002:000109e4       __ehfuncinfo$??_GCSession@@UAEPAXI@Z 004639e4     TNetLib:Session.obj
 0002:000109e4       __ehfuncinfo$??_GCSqlDatabase@@UAEPAXI@Z 004639e4     TNetLib:SqlDatabase.obj
 0002:00010a08       __unwindtable$?SendCT_AUTHORITY_ACK@CTManager@@QAEXXZ 00463a08     Sender.obj
 0002:00010a08       __unwindtable$?SendCT_CASTLEGUILDCHG_ACK@CTManager@@QAEXPAVCPacket@@@Z 00463a08     Sender.obj
 0002:00010a08       __unwindtable$?SendCT_CASTLEINFO_ACK@CTManager@@QAEXPAVCPacket@@@Z 00463a08     Sender.obj
 0002:00010a08       __unwindtable$?SendCT_CHATBAN_ACK@CTManager@@QAEXE@Z 00463a08     Sender.obj
 0002:00010a08       __unwindtable$?SendCT_CMGIFTLIST_ACK@CTManager@@QAEXPAVCPacket@@@Z 00463a08     Sender.obj
 0002:00010a08       __unwindtable$?SendCT_CMGIFT_ACK@CTManager@@QAEXE@Z 00463a08     Sender.obj
 0002:00010a08       __unwindtable$?SendCT_EVENTCHANGE_ACK@CTManager@@QAEXEEPAUtagEVENTINFO@@@Z 00463a08     Sender.obj
 0002:00010a08       __unwindtable$?SendCT_EVENTQUARTERLIST_ACK@CTManager@@QAEXPAVCPacket@@@Z 00463a08     Sender.obj
 0002:00010a08       __unwindtable$?SendCT_EVENTQUARTERUPDATE_ACK@CTManager@@QAEXPAVCPacket@@@Z 00463a08     Sender.obj
 0002:00010a08       __unwindtable$?SendCT_ITEMSTATE_ACK@CTManager@@QAEXPAVCPacket@@@Z 00463a08     Sender.obj
 0002:00010a08       __unwindtable$?SendCT_OPLOGIN_ACK@CTManager@@QAEXEEK@Z 00463a08     Sender.obj
 0002:00010a08       __unwindtable$?SendCT_PLATFORM_ACK@CTManager@@QAEXEKKM@Z 00463a08     Sender.obj
 0002:00010a08       __unwindtable$?SendCT_RPSGAMEDATA_ACK@CTManager@@QAEXPAVCPacket@@@Z 00463a08     Sender.obj
 0002:00010a08       __unwindtable$?SendCT_SERVICEAUTOSTART_ACK@CTManager@@QAEXE@Z 00463a08     Sender.obj
 0002:00010a08       __unwindtable$?SendCT_SERVICECHANGE_ACK@CTManager@@QAEXKK@Z 00463a08     Sender.obj
 0002:00010a08       __unwindtable$?SendCT_SERVICECONTROL_ACK@CTManager@@QAEXE@Z 00463a08     Sender.obj
 0002:00010a08       __unwindtable$?SendCT_SERVICEDATA_ACK@CTManager@@QAEXPAUtagTSVRTEMP@@KKKK@Z 00463a08     Sender.obj
 0002:00010a08       __unwindtable$?SendCT_SERVICEUPLOADEND_ACK@CTManager@@QAEXE@Z 00463a08     Sender.obj
 0002:00010a08       __unwindtable$?SendCT_SERVICEUPLOADSTART_ACK@CTManager@@QAEXE@Z 00463a08     Sender.obj
 0002:00010a08       __unwindtable$?SendCT_SERVICEUPLOAD_ACK@CTManager@@QAEXXZ 00463a08     Sender.obj
 0002:00010a08       __unwindtable$?SendCT_STLOGIN_ACK@CTManager@@QAEXEE@Z 00463a08     Sender.obj
 0002:00010a08       __unwindtable$?SendCT_TOURNAMENTEVENT_ACK@CTManager@@QAEXPAVCPacket@@@Z 00463a08     Sender.obj
 0002:00010a08       __unwindtable$?SendCT_USERPROTECTED_ACK@CTManager@@QAEXE@Z 00463a08     Sender.obj
 0002:00010a08       __unwindtable$?SendCT_CASHSHOPSTOP_REQ@CTServer@@QAEXE@Z 00463a08     TServer.obj
 0002:00010a08       __unwindtable$?SendCT_CASTLEENABLE_REQ@CTServer@@QAEXEEK@Z 00463a08     TServer.obj
 0002:00010a08       __unwindtable$?SendCT_CASTLEGUILDCHG_REQ@CTServer@@QAEXGKKK_J@Z 00463a08     TServer.obj
 0002:00010a08       __unwindtable$?SendCT_CASTLEINFO_REQ@CTServer@@QAEXK@Z 00463a08     TServer.obj
 0002:00010a08       __unwindtable$?SendCT_CMGIFTCHARTUPDATE_REQ@CTServer@@QAEXPAVCPacket@@K@Z 00463a08     TServer.obj
 0002:00010a08       __unwindtable$?SendCT_CMGIFTLIST_REQ@CTServer@@QAEXK@Z 00463a08     TServer.obj
 0002:00010a08       __unwindtable$?SendCT_CTRLSVR_REQ@CTServer@@QAEXXZ 00463a08     TServer.obj
 0002:00010a08       __unwindtable$?SendCT_EVENTQUARTERLIST_REQ@CTServer@@QAEXPAVCPacket@@@Z 00463a08     TServer.obj
 0002:00010a08       __unwindtable$?SendCT_EVENTQUARTERUPDATE_REQ@CTServer@@QAEXPAVCPacket@@@Z 00463a08     TServer.obj
 0002:00010a08       __unwindtable$?SendCT_EVENTUPDATE_REQ@CTServer@@QAEXEGPAUtagEVENTINFO@@@Z 00463a08     TServer.obj
 0002:00010a08       __unwindtable$?SendCT_HELPMESSAGE_REQ@CTServer@@QAEXPAVCPacket@@@Z 00463a08     TServer.obj
 0002:00010a08       __unwindtable$?SendCT_ITEMSTATE_REQ@CTServer@@QAEXPAVCPacket@@@Z 00463a08     TServer.obj
 0002:00010a08       __unwindtable$?SendCT_MONACTION_ACK@CTServer@@QAEXEGKEKKKEG@Z 00463a08     TServer.obj
 0002:00010a08       __unwindtable$?SendCT_MONSPAWNFIND_ACK@CTServer@@QAEXKEGG@Z 00463a08     TServer.obj
 0002:00010a08       __unwindtable$?SendCT_RPSGAMECHANGE_REQ@CTServer@@QAEXPAVCPacket@@@Z 00463a08     TServer.obj
 0002:00010a08       __unwindtable$?SendCT_RPSGAMEDATA_REQ@CTServer@@QAEXPAVCPacket@@@Z 00463a08     TServer.obj
 0002:00010a08       __unwindtable$?SendCT_SERVICEDATACLEAR_ACK@CTServer@@QAEXXZ 00463a08     TServer.obj
 0002:00010a08       __unwindtable$?SendCT_SERVICEMONITOR_ACK@CTServer@@QAEXK@Z 00463a08     TServer.obj
 0002:00010a08       __unwindtable$?SendCT_TOURNAMENTEVENT_REQ@CTServer@@QAEXPAVCPacket@@@Z 00463a08     TServer.obj
 0002:00010a10       __ehfuncinfo$?SendCT_AUTHORITY_ACK@CTManager@@QAEXXZ 00463a10     Sender.obj
 0002:00010a10       __ehfuncinfo$?SendCT_CASTLEGUILDCHG_ACK@CTManager@@QAEXPAVCPacket@@@Z 00463a10     Sender.obj
 0002:00010a10       __ehfuncinfo$?SendCT_CASTLEINFO_ACK@CTManager@@QAEXPAVCPacket@@@Z 00463a10     Sender.obj
 0002:00010a10       __ehfuncinfo$?SendCT_CHATBAN_ACK@CTManager@@QAEXE@Z 00463a10     Sender.obj
 0002:00010a10       __ehfuncinfo$?SendCT_CMGIFTLIST_ACK@CTManager@@QAEXPAVCPacket@@@Z 00463a10     Sender.obj
 0002:00010a10       __ehfuncinfo$?SendCT_CMGIFT_ACK@CTManager@@QAEXE@Z 00463a10     Sender.obj
 0002:00010a10       __ehfuncinfo$?SendCT_EVENTCHANGE_ACK@CTManager@@QAEXEEPAUtagEVENTINFO@@@Z 00463a10     Sender.obj
 0002:00010a10       __ehfuncinfo$?SendCT_EVENTQUARTERLIST_ACK@CTManager@@QAEXPAVCPacket@@@Z 00463a10     Sender.obj
 0002:00010a10       __ehfuncinfo$?SendCT_EVENTQUARTERUPDATE_ACK@CTManager@@QAEXPAVCPacket@@@Z 00463a10     Sender.obj
 0002:00010a10       __ehfuncinfo$?SendCT_ITEMSTATE_ACK@CTManager@@QAEXPAVCPacket@@@Z 00463a10     Sender.obj
 0002:00010a10       __ehfuncinfo$?SendCT_OPLOGIN_ACK@CTManager@@QAEXEEK@Z 00463a10     Sender.obj
 0002:00010a10       __ehfuncinfo$?SendCT_PLATFORM_ACK@CTManager@@QAEXEKKM@Z 00463a10     Sender.obj
 0002:00010a10       __ehfuncinfo$?SendCT_RPSGAMEDATA_ACK@CTManager@@QAEXPAVCPacket@@@Z 00463a10     Sender.obj
 0002:00010a10       __ehfuncinfo$?SendCT_SERVICEAUTOSTART_ACK@CTManager@@QAEXE@Z 00463a10     Sender.obj
 0002:00010a10       __ehfuncinfo$?SendCT_SERVICECHANGE_ACK@CTManager@@QAEXKK@Z 00463a10     Sender.obj
 0002:00010a10       __ehfuncinfo$?SendCT_SERVICECONTROL_ACK@CTManager@@QAEXE@Z 00463a10     Sender.obj
 0002:00010a10       __ehfuncinfo$?SendCT_SERVICEDATA_ACK@CTManager@@QAEXPAUtagTSVRTEMP@@KKKK@Z 00463a10     Sender.obj
 0002:00010a10       __ehfuncinfo$?SendCT_SERVICEUPLOADEND_ACK@CTManager@@QAEXE@Z 00463a10     Sender.obj
 0002:00010a10       __ehfuncinfo$?SendCT_SERVICEUPLOADSTART_ACK@CTManager@@QAEXE@Z 00463a10     Sender.obj
 0002:00010a10       __ehfuncinfo$?SendCT_SERVICEUPLOAD_ACK@CTManager@@QAEXXZ 00463a10     Sender.obj
 0002:00010a10       __ehfuncinfo$?SendCT_STLOGIN_ACK@CTManager@@QAEXEE@Z 00463a10     Sender.obj
 0002:00010a10       __ehfuncinfo$?SendCT_TOURNAMENTEVENT_ACK@CTManager@@QAEXPAVCPacket@@@Z 00463a10     Sender.obj
 0002:00010a10       __ehfuncinfo$?SendCT_USERPROTECTED_ACK@CTManager@@QAEXE@Z 00463a10     Sender.obj
 0002:00010a10       __ehfuncinfo$?SendCT_CASHSHOPSTOP_REQ@CTServer@@QAEXE@Z 00463a10     TServer.obj
 0002:00010a10       __ehfuncinfo$?SendCT_CASTLEENABLE_REQ@CTServer@@QAEXEEK@Z 00463a10     TServer.obj
 0002:00010a10       __ehfuncinfo$?SendCT_CASTLEGUILDCHG_REQ@CTServer@@QAEXGKKK_J@Z 00463a10     TServer.obj
 0002:00010a10       __ehfuncinfo$?SendCT_CASTLEINFO_REQ@CTServer@@QAEXK@Z 00463a10     TServer.obj
 0002:00010a10       __ehfuncinfo$?SendCT_CMGIFTCHARTUPDATE_REQ@CTServer@@QAEXPAVCPacket@@K@Z 00463a10     TServer.obj
 0002:00010a10       __ehfuncinfo$?SendCT_CMGIFTLIST_REQ@CTServer@@QAEXK@Z 00463a10     TServer.obj
 0002:00010a10       __ehfuncinfo$?SendCT_CTRLSVR_REQ@CTServer@@QAEXXZ 00463a10     TServer.obj
 0002:00010a10       __ehfuncinfo$?SendCT_EVENTQUARTERLIST_REQ@CTServer@@QAEXPAVCPacket@@@Z 00463a10     TServer.obj
 0002:00010a10       __ehfuncinfo$?SendCT_EVENTQUARTERUPDATE_REQ@CTServer@@QAEXPAVCPacket@@@Z 00463a10     TServer.obj
 0002:00010a10       __ehfuncinfo$?SendCT_EVENTUPDATE_REQ@CTServer@@QAEXEGPAUtagEVENTINFO@@@Z 00463a10     TServer.obj
 0002:00010a10       __ehfuncinfo$?SendCT_HELPMESSAGE_REQ@CTServer@@QAEXPAVCPacket@@@Z 00463a10     TServer.obj
 0002:00010a10       __ehfuncinfo$?SendCT_ITEMSTATE_REQ@CTServer@@QAEXPAVCPacket@@@Z 00463a10     TServer.obj
 0002:00010a10       __ehfuncinfo$?SendCT_MONACTION_ACK@CTServer@@QAEXEGKEKKKEG@Z 00463a10     TServer.obj
 0002:00010a10       __ehfuncinfo$?SendCT_MONSPAWNFIND_ACK@CTServer@@QAEXKEGG@Z 00463a10     TServer.obj
 0002:00010a10       __ehfuncinfo$?SendCT_RPSGAMECHANGE_REQ@CTServer@@QAEXPAVCPacket@@@Z 00463a10     TServer.obj
 0002:00010a10       __ehfuncinfo$?SendCT_RPSGAMEDATA_REQ@CTServer@@QAEXPAVCPacket@@@Z 00463a10     TServer.obj
 0002:00010a10       __ehfuncinfo$?SendCT_SERVICEDATACLEAR_ACK@CTServer@@QAEXXZ 00463a10     TServer.obj
 0002:00010a10       __ehfuncinfo$?SendCT_SERVICEMONITOR_ACK@CTServer@@QAEXK@Z 00463a10     TServer.obj
 0002:00010a10       __ehfuncinfo$?SendCT_TOURNAMENTEVENT_REQ@CTServer@@QAEXPAVCPacket@@@Z 00463a10     TServer.obj
 0002:00010a34       __unwindtable$?SendCT_CASHITEMLIST_ACK@CTManager@@QAEXPAV?$vector@UtagTCASHITEM@@V?$allocator@UtagTCASHITEM@@@std@@@std@@@Z 00463a34     Sender.obj
 0002:00010a34       __unwindtable$?SendCT_CHATBANLIST_ACK@CTManager@@QAEXPAV?$map@KPAUtagBANINFO@@U?$less@K@std@@V?$allocator@U?$pair@$$CBKPAUtagBANINFO@@@std@@@3@@std@@@Z 00463a34     Sender.obj
 0002:00010a34       __unwindtable$?SendCT_EVENTLIST_ACK@CTManager@@QAEXPAV?$map@KUtagEVENTINFO@@U?$less@K@std@@V?$allocator@U?$pair@$$CBKUtagEVENTINFO@@@std@@@3@@std@@@Z 00463a34     Sender.obj
 0002:00010a34       __unwindtable$?SendCT_GROUPLIST_ACK@CTManager@@QAEXPAV?$map@EPAUtagTGROUP@@U?$less@E@std@@V?$allocator@U?$pair@$$CBEPAUtagTGROUP@@@std@@@3@@std@@@Z 00463a34     Sender.obj
 0002:00010a34       __unwindtable$?SendCT_MACHINELIST_ACK@CTManager@@QAEXPAV?$map@EPAUtagTMACHINE@@U?$less@E@std@@V?$allocator@U?$pair@$$CBEPAUtagTMACHINE@@@std@@@3@@std@@@Z 00463a34     Sender.obj
 0002:00010a34       __unwindtable$?SendCT_SERVICESTAT_ACK@CTManager@@QAEXPAV?$map@KPAUtagTSVRTEMP@@U?$less@K@std@@V?$allocator@U?$pair@$$CBKPAUtagTSVRTEMP@@@std@@@3@@std@@@Z 00463a34     Sender.obj
 0002:00010a34       __unwindtable$?SendCT_SVRTYPELIST_ACK@CTManager@@QAEXPAV?$map@EPAUtagTSVRTYPE@@U?$less@E@std@@V?$allocator@U?$pair@$$CBEPAUtagTSVRTYPE@@@std@@@3@@std@@@Z 00463a34     Sender.obj
 0002:00010a34       __unwindtable$?SendCT_CASHITEMSALE_REQ@CTServer@@QAEXKGPAV?$vector@UtagTCASHITEMSALE@@V?$allocator@UtagTCASHITEMSALE@@@std@@@std@@@Z 00463a34     TServer.obj
 0002:00010a3c       __ehfuncinfo$?SendCT_CASHITEMLIST_ACK@CTManager@@QAEXPAV?$vector@UtagTCASHITEM@@V?$allocator@UtagTCASHITEM@@@std@@@std@@@Z 00463a3c     Sender.obj
 0002:00010a3c       __ehfuncinfo$?SendCT_CHATBANLIST_ACK@CTManager@@QAEXPAV?$map@KPAUtagBANINFO@@U?$less@K@std@@V?$allocator@U?$pair@$$CBKPAUtagBANINFO@@@std@@@3@@std@@@Z 00463a3c     Sender.obj
 0002:00010a3c       __ehfuncinfo$?SendCT_EVENTLIST_ACK@CTManager@@QAEXPAV?$map@KUtagEVENTINFO@@U?$less@K@std@@V?$allocator@U?$pair@$$CBKUtagEVENTINFO@@@std@@@3@@std@@@Z 00463a3c     Sender.obj
 0002:00010a3c       __ehfuncinfo$?SendCT_GROUPLIST_ACK@CTManager@@QAEXPAV?$map@EPAUtagTGROUP@@U?$less@E@std@@V?$allocator@U?$pair@$$CBEPAUtagTGROUP@@@std@@@3@@std@@@Z 00463a3c     Sender.obj
 0002:00010a3c       __ehfuncinfo$?SendCT_MACHINELIST_ACK@CTManager@@QAEXPAV?$map@EPAUtagTMACHINE@@U?$less@E@std@@V?$allocator@U?$pair@$$CBEPAUtagTMACHINE@@@std@@@3@@std@@@Z 00463a3c     Sender.obj
 0002:00010a3c       __ehfuncinfo$?SendCT_SERVICESTAT_ACK@CTManager@@QAEXPAV?$map@KPAUtagTSVRTEMP@@U?$less@K@std@@V?$allocator@U?$pair@$$CBKPAUtagTSVRTEMP@@@std@@@3@@std@@@Z 00463a3c     Sender.obj
 0002:00010a3c       __ehfuncinfo$?SendCT_SVRTYPELIST_ACK@CTManager@@QAEXPAV?$map@EPAUtagTSVRTYPE@@U?$less@E@std@@V?$allocator@U?$pair@$$CBEPAUtagTSVRTYPE@@@std@@@3@@std@@@Z 00463a3c     Sender.obj
 0002:00010a3c       __ehfuncinfo$?SendCT_CASHITEMSALE_REQ@CTServer@@QAEXKGPAV?$vector@UtagTCASHITEMSALE@@V?$allocator@UtagTCASHITEMSALE@@@std@@@std@@@Z 00463a3c     TServer.obj
 0002:00010a60       __unwindtable$?SendCT_PREVERSIONTABLE_ACK@CTManager@@QAEXPAV?$vector@UtagPATCHFILE@@V?$allocator@UtagPATCHFILE@@@std@@@std@@@Z 00463a60     Sender.obj
 0002:00010a78       __ehfuncinfo$?SendCT_PREVERSIONTABLE_ACK@CTManager@@QAEXPAV?$vector@UtagPATCHFILE@@V?$allocator@UtagPATCHFILE@@@std@@@std@@@Z 00463a78     Sender.obj
 0002:00010a9c       __unwindtable$?Tokenize@?$CStringT@DV?$StrTraitATL@DV?$ChTraitsCRT@D@ATL@@@ATL@@@ATL@@QBE?AV12@PBDAAH@Z 00463a9c     TControlSvr.obj
 0002:00010aa4       __ehfuncinfo$?Tokenize@?$CStringT@DV?$StrTraitATL@DV?$ChTraitsCRT@D@ATL@@@ATL@@@ATL@@QBE?AV12@PBDAAH@Z 00463aa4     TControlSvr.obj
 0002:00010ac8       __unwindtable$??HATL@@YA?AV?$CStringT@DV?$StrTraitATL@DV?$ChTraitsCRT@D@ATL@@@ATL@@@0@ABV10@PBD@Z 00463ac8     TControlSvr.obj
 0002:00010ad0       __ehfuncinfo$??HATL@@YA?AV?$CStringT@DV?$StrTraitATL@DV?$ChTraitsCRT@D@ATL@@@ATL@@@0@ABV10@PBD@Z 00463ad0     TControlSvr.obj
 0002:00010af4       __unwindtable$?QueryStatus@CTControlSvrModule@@IAEXXZ 00463af4     TControlSvr.obj
 0002:00010b0c       __ehfuncinfo$?QueryStatus@CTControlSvrModule@@IAEXXZ 00463b0c     TControlSvr.obj
 0002:00010b30       __ehfuncinfo$?OpenPlatform@CTControlSvrModule@@IAEXXZ 00463b30     TControlSvr.obj
 0002:00010b54       __unwindtable$?OpenPlatform@CTControlSvrModule@@IAEXXZ 00463b54     TControlSvr.obj
 0002:00010b7c       __unwindtable$?ClosingSession@CTControlSvrModule@@IAEXPAVCTControlSession@@@Z 00463b7c     TControlSvr.obj
 0002:00010b84       __ehfuncinfo$?ClosingSession@CTControlSvrModule@@IAEXPAVCTControlSession@@@Z 00463b84     TControlSvr.obj
 0002:00010ba8       __unwindtable$?LoadConfig@CTControlSvrModule@@IAEKXZ 00463ba8     TControlSvr.obj
 0002:00010bc0       __ehfuncinfo$?LoadConfig@CTControlSvrModule@@IAEKXZ 00463bc0     TControlSvr.obj
 0002:00010be4       __ehfuncinfo$?LoadData@CTControlSvrModule@@IAEKXZ 00463be4     TControlSvr.obj
 0002:00010c08       __unwindtable$?LoadData@CTControlSvrModule@@IAEKXZ 00463c08     TControlSvr.obj
 0002:00010cb0       __unwindtable$?Accept@CTControlSvrModule@@IAEEXZ 00463cb0     TControlSvr.obj
 0002:00010cc8       __ehfuncinfo$?Accept@CTControlSvrModule@@IAEEXZ 00463cc8     TControlSvr.obj
 0002:00010cec       __unwindtable$?WorkThread@CTControlSvrModule@@IAEKXZ 00463cec     TControlSvr.obj
 0002:00010cf4       __ehfuncinfo$?WorkThread@CTControlSvrModule@@IAEKXZ 00463cf4     TControlSvr.obj
 0002:00010d18       __unwindtable$?SendSvrStatusSMS@CTControlSvrModule@@IAEXEKE@Z 00463d18     TControlSvr.obj
 0002:00010d18       __unwindtable$?Flush@CSession@@QAEXXZ 00463d18     TNetLib:Session.obj
 0002:00010d18       __unwindtable$?OnInvalidSession@CSession@@QAEHXZ 00463d18     TNetLib:Session.obj
 0002:00010d18       __unwindtable$?Read@CSession@@QAEHK@Z 00463d18     TNetLib:Session.obj
 0002:00010d20       __ehfuncinfo$?SendSvrStatusSMS@CTControlSvrModule@@IAEXEKE@Z 00463d20     TControlSvr.obj
 0002:00010d20       __ehfuncinfo$?Flush@CSession@@QAEXXZ 00463d20     TNetLib:Session.obj
 0002:00010d20       __ehfuncinfo$?OnInvalidSession@CSession@@QAEHXZ 00463d20     TNetLib:Session.obj
 0002:00010d20       __ehfuncinfo$?Read@CSession@@QAEHK@Z 00463d20     TNetLib:Session.obj
 0002:00010d44       __ehfuncinfo$?CheckEvent@CTControlSvrModule@@IAEXXZ 00463d44     TControlSvr.obj
 0002:00010d68       __unwindtable$?CheckEvent@CTControlSvrModule@@IAEXXZ 00463d68     TControlSvr.obj
 0002:00010d90       __ehfuncinfo$?ParseStrValue@CTControlSvrModule@@IAEXAAUtagEVENTINFO@@V?$CStringT@DV?$StrTraitATL@DV?$ChTraitsCRT@D@ATL@@@ATL@@@ATL@@E@Z 00463d90     TControlSvr.obj
 0002:00010db4       __unwindtable$?ParseStrValue@CTControlSvrModule@@IAEXAAUtagEVENTINFO@@V?$CStringT@DV?$StrTraitATL@DV?$ChTraitsCRT@D@ATL@@@ATL@@@ATL@@E@Z 00463db4     TControlSvr.obj
 0002:00010eb4       __ehfuncinfo$?MakeStrValue@CTControlSvrModule@@IAEXAAUtagEVENTINFO@@AAV?$CStringT@DV?$StrTraitATL@DV?$ChTraitsCRT@D@ATL@@@ATL@@@ATL@@E@Z 00463eb4     TControlSvr.obj
 0002:00010ed8       __unwindtable$?MakeStrValue@CTControlSvrModule@@IAEXAAUtagEVENTINFO@@AAV?$CStringT@DV?$StrTraitATL@DV?$ChTraitsCRT@D@ATL@@@ATL@@@ATL@@E@Z 00463ed8     TControlSvr.obj
 0002:00011018       __unwindtable$?_TimerThread@CTControlSvrModule@@CGKPAX@Z 00464018     TControlSvr.obj
 0002:00011020       __ehfuncinfo$?_TimerThread@CTControlSvrModule@@CGKPAX@Z 00464020     TControlSvr.obj
 0002:00011044       __ehfuncinfo$??0CTControlSvrModule@@QAE@XZ 00464044     TControlSvr.obj
 0002:00011068       __unwindtable$??0CTControlSvrModule@@QAE@XZ 00464068     TControlSvr.obj
 0002:00011130       __ehfuncinfo$_main         00464130     TControlSvr.obj
 0002:00011154       __unwindtable$_main        00464154     TControlSvr.obj
 0002:00011184       __unwindtable$??0?$basic_istream@DU?$char_traits@D@std@@@std@@QAE@PAV?$basic_streambuf@DU?$char_traits@D@std@@@1@_N@Z 00464184     TControlSvr.obj
 0002:0001119c       __ehfuncinfo$??0?$basic_istream@DU?$char_traits@D@std@@@std@@QAE@PAV?$basic_streambuf@DU?$char_traits@D@std@@@1@_N@Z 0046419c     TControlSvr.obj
 0002:000111c0       __catchsym$?_Ipfx@?$basic_istream@DU?$char_traits@D@std@@@std@@QAE_N_N@Z$4 004641c0     TControlSvr.obj
 0002:000111d0       __tryblocktable$?_Ipfx@?$basic_istream@DU?$char_traits@D@std@@@std@@QAE_N_N@Z 004641d0     TControlSvr.obj
 0002:000111e4       __unwindtable$?_Ipfx@?$basic_istream@DU?$char_traits@D@std@@@std@@QAE_N_N@Z 004641e4     TControlSvr.obj
 0002:000111fc       __ehfuncinfo$?_Ipfx@?$basic_istream@DU?$char_traits@D@std@@@std@@QAE_N_N@Z 004641fc     TControlSvr.obj
 0002:00011220       __unwindtable$??0?$basic_stringbuf@DU?$char_traits@D@std@@V?$allocator@D@2@@std@@QAE@ABV?$basic_string@DU?$char_traits@D@std@@V?$allocator@D@2@@1@H@Z 00464220     TControlSvr.obj
 0002:00011230       __ehfuncinfo$??0?$basic_stringbuf@DU?$char_traits@D@std@@V?$allocator@D@2@@std@@QAE@ABV?$basic_string@DU?$char_traits@D@std@@V?$allocator@D@2@@1@H@Z 00464230     TControlSvr.obj
 0002:00011254       __catchsym$??$?5DU?$char_traits@D@std@@V?$allocator@D@1@@std@@YAAAV?$basic_istream@DU?$char_traits@D@std@@@0@AAV10@AAV?$basic_string@DU?$char_traits@D@std@@V?$allocator@D@2@@0@@Z$8 00464254     TControlSvr.obj
 0002:00011264       __tryblocktable$??$?5DU?$char_traits@D@std@@V?$allocator@D@1@@std@@YAAAV?$basic_istream@DU?$char_traits@D@std@@@0@AAV10@AAV?$basic_string@DU?$char_traits@D@std@@V?$allocator@D@2@@0@@Z 00464264     TControlSvr.obj
 0002:00011278       __ehfuncinfo$??$?5DU?$char_traits@D@std@@V?$allocator@D@1@@std@@YAAAV?$basic_istream@DU?$char_traits@D@std@@@0@AAV10@AAV?$basic_string@DU?$char_traits@D@std@@V?$allocator@D@2@@0@@Z 00464278     TControlSvr.obj
 0002:0001129c       __unwindtable$??$?5DU?$char_traits@D@std@@V?$allocator@D@1@@std@@YAAAV?$basic_istream@DU?$char_traits@D@std@@@0@AAV10@AAV?$basic_string@DU?$char_traits@D@std@@V?$allocator@D@2@@0@@Z 0046429c     TControlSvr.obj
 0002:000112cc       __catchsym$??$_Common_extract_with_num_get@J@?$basic_istream@DU?$char_traits@D@std@@@std@@AAEAAV01@AAJ@Z$8 004642cc     TControlSvr.obj
 0002:000112dc       __tryblocktable$??$_Common_extract_with_num_get@J@?$basic_istream@DU?$char_traits@D@std@@@std@@AAEAAV01@AAJ@Z 004642dc     TControlSvr.obj
 0002:000112f0       __ehfuncinfo$??$_Common_extract_with_num_get@J@?$basic_istream@DU?$char_traits@D@std@@@std@@AAEAAV01@AAJ@Z 004642f0     TControlSvr.obj
 0002:00011314       __unwindtable$??$_Common_extract_with_num_get@J@?$basic_istream@DU?$char_traits@D@std@@@std@@AAEAAV01@AAJ@Z 00464314     TControlSvr.obj
 0002:00011344       __catchsym$??$getline@DU?$char_traits@D@std@@V?$allocator@D@2@@std@@YAAAV?$basic_istream@DU?$char_traits@D@std@@@0@$$QAV10@AAV?$basic_string@DU?$char_traits@D@std@@V?$allocator@D@2@@0@D@Z$6 00464344     TControlSvr.obj
 0002:00011354       __tryblocktable$??$getline@DU?$char_traits@D@std@@V?$allocator@D@2@@std@@YAAAV?$basic_istream@DU?$char_traits@D@std@@@0@$$QAV10@AAV?$basic_string@DU?$char_traits@D@std@@V?$allocator@D@2@@0@D@Z 00464354     TControlSvr.obj
 0002:00011368       __ehfuncinfo$??$getline@DU?$char_traits@D@std@@V?$allocator@D@2@@std@@YAAAV?$basic_istream@DU?$char_traits@D@std@@@0@$$QAV10@AAV?$basic_string@DU?$char_traits@D@std@@V?$allocator@D@2@@0@D@Z 00464368     TControlSvr.obj
 0002:0001138c       __unwindtable$??$getline@DU?$char_traits@D@std@@V?$allocator@D@2@@std@@YAAAV?$basic_istream@DU?$char_traits@D@std@@@0@$$QAV10@AAV?$basic_string@DU?$char_traits@D@std@@V?$allocator@D@2@@0@D@Z 0046438c     TControlSvr.obj
 0002:000113b4       __unwindtable$??$use_facet@V?$num_get@DV?$istreambuf_iterator@DU?$char_traits@D@std@@@std@@@std@@@std@@YAABV?$num_get@DV?$istreambuf_iterator@DU?$char_traits@D@std@@@std@@@0@ABVlocale@0@@Z 004643b4     TControlSvr.obj
 0002:000113cc       __ehfuncinfo$??$use_facet@V?$num_get@DV?$istreambuf_iterator@DU?$char_traits@D@std@@@std@@@std@@@std@@YAABV?$num_get@DV?$istreambuf_iterator@DU?$char_traits@D@std@@@std@@@0@ABVlocale@0@@Z 004643cc     TControlSvr.obj
 0002:000113f0       __ehfuncinfo$?do_get@?$num_get@DV?$istreambuf_iterator@DU?$char_traits@D@std@@@std@@@std@@MBE?AV?$istreambuf_iterator@DU?$char_traits@D@std@@@2@V32@0AAVios_base@2@AAHAA_N@Z 004643f0     TControlSvr.obj
 0002:00011414       __unwindtable$?do_get@?$num_get@DV?$istreambuf_iterator@DU?$char_traits@D@std@@@std@@@std@@MBE?AV?$istreambuf_iterator@DU?$char_traits@D@std@@@2@V32@0AAVios_base@2@AAHAA_N@Z 00464414     TControlSvr.obj
 0002:0001143c       __unwindtable$?do_get@?$num_get@DV?$istreambuf_iterator@DU?$char_traits@D@std@@@std@@@std@@MBE?AV?$istreambuf_iterator@DU?$char_traits@D@std@@@2@V32@0AAVios_base@2@AAHAAG@Z 0046443c     TControlSvr.obj
 0002:00011444       __ehfuncinfo$?do_get@?$num_get@DV?$istreambuf_iterator@DU?$char_traits@D@std@@@std@@@std@@MBE?AV?$istreambuf_iterator@DU?$char_traits@D@std@@@2@V32@0AAVios_base@2@AAHAAG@Z 00464444     TControlSvr.obj
 0002:00011468       __unwindtable$?do_get@?$num_get@DV?$istreambuf_iterator@DU?$char_traits@D@std@@@std@@@std@@MBE?AV?$istreambuf_iterator@DU?$char_traits@D@std@@@2@V32@0AAVios_base@2@AAHAAI@Z 00464468     TControlSvr.obj
 0002:00011470       __ehfuncinfo$?do_get@?$num_get@DV?$istreambuf_iterator@DU?$char_traits@D@std@@@std@@@std@@MBE?AV?$istreambuf_iterator@DU?$char_traits@D@std@@@2@V32@0AAVios_base@2@AAHAAI@Z 00464470     TControlSvr.obj
 0002:00011494       __unwindtable$?do_get@?$num_get@DV?$istreambuf_iterator@DU?$char_traits@D@std@@@std@@@std@@MBE?AV?$istreambuf_iterator@DU?$char_traits@D@std@@@2@V32@0AAVios_base@2@AAHAAJ@Z 00464494     TControlSvr.obj
 0002:00011494       __unwindtable$?do_get@?$num_get@DV?$istreambuf_iterator@DU?$char_traits@D@std@@@std@@@std@@MBE?AV?$istreambuf_iterator@DU?$char_traits@D@std@@@2@V32@0AAVios_base@2@AAHAAK@Z 00464494     TControlSvr.obj
 0002:00011494       __unwindtable$?do_get@?$num_get@DV?$istreambuf_iterator@DU?$char_traits@D@std@@@std@@@std@@MBE?AV?$istreambuf_iterator@DU?$char_traits@D@std@@@2@V32@0AAVios_base@2@AAHAA_J@Z 00464494     TControlSvr.obj
 0002:00011494       __unwindtable$?do_get@?$num_get@DV?$istreambuf_iterator@DU?$char_traits@D@std@@@std@@@std@@MBE?AV?$istreambuf_iterator@DU?$char_traits@D@std@@@2@V32@0AAVios_base@2@AAHAA_K@Z 00464494     TControlSvr.obj
 0002:0001149c       __ehfuncinfo$?do_get@?$num_get@DV?$istreambuf_iterator@DU?$char_traits@D@std@@@std@@@std@@MBE?AV?$istreambuf_iterator@DU?$char_traits@D@std@@@2@V32@0AAVios_base@2@AAHAAJ@Z 0046449c     TControlSvr.obj
 0002:0001149c       __ehfuncinfo$?do_get@?$num_get@DV?$istreambuf_iterator@DU?$char_traits@D@std@@@std@@@std@@MBE?AV?$istreambuf_iterator@DU?$char_traits@D@std@@@2@V32@0AAVios_base@2@AAHAAK@Z 0046449c     TControlSvr.obj
 0002:0001149c       __ehfuncinfo$?do_get@?$num_get@DV?$istreambuf_iterator@DU?$char_traits@D@std@@@std@@@std@@MBE?AV?$istreambuf_iterator@DU?$char_traits@D@std@@@2@V32@0AAVios_base@2@AAHAA_J@Z 0046449c     TControlSvr.obj
 0002:0001149c       __ehfuncinfo$?do_get@?$num_get@DV?$istreambuf_iterator@DU?$char_traits@D@std@@@std@@@std@@MBE?AV?$istreambuf_iterator@DU?$char_traits@D@std@@@2@V32@0AAVios_base@2@AAHAA_K@Z 0046449c     TControlSvr.obj
 0002:000114c0       __unwindtable$?do_get@?$num_get@DV?$istreambuf_iterator@DU?$char_traits@D@std@@@std@@@std@@MBE?AV?$istreambuf_iterator@DU?$char_traits@D@std@@@2@V32@0AAVios_base@2@AAHAAPAX@Z 004644c0     TControlSvr.obj
 0002:000114c8       __ehfuncinfo$?do_get@?$num_get@DV?$istreambuf_iterator@DU?$char_traits@D@std@@@std@@@std@@MBE?AV?$istreambuf_iterator@DU?$char_traits@D@std@@@2@V32@0AAVios_base@2@AAHAAPAX@Z 004644c8     TControlSvr.obj
 0002:000114ec       __unwindtable$?_Getifld@?$num_get@DV?$istreambuf_iterator@DU?$char_traits@D@std@@@std@@@std@@ABAHPADAAV?$istreambuf_iterator@DU?$char_traits@D@std@@@2@1HABVlocale@2@@Z 004644ec     TControlSvr.obj
 0002:000114fc       __ehfuncinfo$?_Getifld@?$num_get@DV?$istreambuf_iterator@DU?$char_traits@D@std@@@std@@@std@@ABAHPADAAV?$istreambuf_iterator@DU?$char_traits@D@std@@@2@1HABVlocale@2@@Z 004644fc     TControlSvr.obj
 0002:00011520       __unwindtable$?_Getffld@?$num_get@DV?$istreambuf_iterator@DU?$char_traits@D@std@@@std@@@std@@ABAHPADAAV?$istreambuf_iterator@DU?$char_traits@D@std@@@2@1AAVios_base@2@PAH@Z 00464520     TControlSvr.obj
 0002:00011540       __ehfuncinfo$?_Getffld@?$num_get@DV?$istreambuf_iterator@DU?$char_traits@D@std@@@std@@@std@@ABAHPADAAV?$istreambuf_iterator@DU?$char_traits@D@std@@@2@1AAVios_base@2@PAH@Z 00464540     TControlSvr.obj
 0002:00011564       __unwindtable$?_Getffldx@?$num_get@DV?$istreambuf_iterator@DU?$char_traits@D@std@@@std@@@std@@ABAHPADAAV?$istreambuf_iterator@DU?$char_traits@D@std@@@2@1AAVios_base@2@PAH@Z 00464564     TControlSvr.obj
 0002:00011584       __ehfuncinfo$?_Getffldx@?$num_get@DV?$istreambuf_iterator@DU?$char_traits@D@std@@@std@@@std@@ABAHPADAAV?$istreambuf_iterator@DU?$char_traits@D@std@@@2@1AAVios_base@2@PAH@Z 00464584     TControlSvr.obj
 0002:000115a8       __catchsym$??$_Emplace_reallocate@V?$CStringT@DV?$StrTraitATL@DV?$ChTraitsCRT@D@ATL@@@ATL@@@ATL@@@?$vector@V?$CStringT@DV?$StrTraitATL@DV?$ChTraitsCRT@D@ATL@@@ATL@@@ATL@@V?$allocator@V?$CStringT@DV?$StrTraitATL@DV?$ChTraitsCRT@D@ATL@@@ATL@@@ATL@@@std@@@std@@AAEPAV?$CStringT@DV?$StrTraitATL@DV?$ChTraitsCRT@D@ATL@@@ATL@@@ATL@@QAV23@$$QAV23@@Z$5 004645a8     TControlSvr.obj
 0002:000115b8       __tryblocktable$??$_Emplace_reallocate@V?$CStringT@DV?$StrTraitATL@DV?$ChTraitsCRT@D@ATL@@@ATL@@@ATL@@@?$vector@V?$CStringT@DV?$StrTraitATL@DV?$ChTraitsCRT@D@ATL@@@ATL@@@ATL@@V?$allocator@V?$CStringT@DV?$StrTraitATL@DV?$ChTraitsCRT@D@ATL@@@ATL@@@ATL@@@std@@@std@@AAEPAV?$CStringT@DV?$StrTraitATL@DV?$ChTraitsCRT@D@ATL@@@ATL@@@ATL@@QAV23@$$QAV23@@Z 004645b8     TControlSvr.obj
 0002:000115cc       __unwindtable$??$_Emplace_reallocate@V?$CStringT@DV?$StrTraitATL@DV?$ChTraitsCRT@D@ATL@@@ATL@@@ATL@@@?$vector@V?$CStringT@DV?$StrTraitATL@DV?$ChTraitsCRT@D@ATL@@@ATL@@@ATL@@V?$allocator@V?$CStringT@DV?$StrTraitATL@DV?$ChTraitsCRT@D@ATL@@@ATL@@@ATL@@@std@@@std@@AAEPAV?$CStringT@DV?$StrTraitATL@DV?$ChTraitsCRT@D@ATL@@@ATL@@@ATL@@QAV23@$$QAV23@@Z 004645cc     TControlSvr.obj
 0002:000115e4       __ehfuncinfo$??$_Emplace_reallocate@V?$CStringT@DV?$StrTraitATL@DV?$ChTraitsCRT@D@ATL@@@ATL@@@ATL@@@?$vector@V?$CStringT@DV?$StrTraitATL@DV?$ChTraitsCRT@D@ATL@@@ATL@@@ATL@@V?$allocator@V?$CStringT@DV?$StrTraitATL@DV?$ChTraitsCRT@D@ATL@@@ATL@@@ATL@@@std@@@std@@AAEPAV?$CStringT@DV?$StrTraitATL@DV?$ChTraitsCRT@D@ATL@@@ATL@@@ATL@@QAV23@$$QAV23@@Z 004645e4     TControlSvr.obj
 0002:00011608       __unwindtable$??$_Getloctxt@V?$istreambuf_iterator@DU?$char_traits@D@std@@@std@@D@std@@YAHAAV?$istreambuf_iterator@DU?$char_traits@D@std@@@0@0IPBDW4_Case_sensitive@0@@Z 00464608     TControlSvr.obj
 0002:00011620       __ehfuncinfo$??$_Getloctxt@V?$istreambuf_iterator@DU?$char_traits@D@std@@@std@@D@std@@YAHAAV?$istreambuf_iterator@DU?$char_traits@D@std@@@0@0IPBDW4_Case_sensitive@0@@Z 00464620     TControlSvr.obj
 0002:00011644       __unwindtable$??$_Uninitialized_move@PAV?$CStringT@DV?$StrTraitATL@DV?$ChTraitsCRT@D@ATL@@@ATL@@@ATL@@V?$allocator@V?$CStringT@DV?$StrTraitATL@DV?$ChTraitsCRT@D@ATL@@@ATL@@@ATL@@@std@@@std@@YAPAV?$CStringT@DV?$StrTraitATL@DV?$ChTraitsCRT@D@ATL@@@ATL@@@ATL@@QAV12@0PAV12@AAV?$allocator@V?$CStringT@DV?$StrTraitATL@DV?$ChTraitsCRT@D@ATL@@@ATL@@@ATL@@@0@@Z 00464644     TControlSvr.obj
 0002:0001164c       __ehfuncinfo$??$_Uninitialized_move@PAV?$CStringT@DV?$StrTraitATL@DV?$ChTraitsCRT@D@ATL@@@ATL@@@ATL@@V?$allocator@V?$CStringT@DV?$StrTraitATL@DV?$ChTraitsCRT@D@ATL@@@ATL@@@ATL@@@std@@@std@@YAPAV?$CStringT@DV?$StrTraitATL@DV?$ChTraitsCRT@D@ATL@@@ATL@@@ATL@@QAV12@0PAV12@AAV?$allocator@V?$CStringT@DV?$StrTraitATL@DV?$ChTraitsCRT@D@ATL@@@ATL@@@ATL@@@0@@Z 0046464c     TControlSvr.obj
 0002:00011670       __unwindtable$??0CTManager@@QAE@XZ 00464670     TManager.obj
 0002:00011680       __ehfuncinfo$??0CTManager@@QAE@XZ 00464680     TManager.obj
 0002:000116a4       __unwindtable$??HATL@@YA?AV?$CStringT@DV?$StrTraitATL@DV?$ChTraitsCRT@D@ATL@@@ATL@@@0@PBDABV10@@Z 004646a4     TMiniDump.obj
 0002:000116ac       __ehfuncinfo$??HATL@@YA?AV?$CStringT@DV?$StrTraitATL@DV?$ChTraitsCRT@D@ATL@@@ATL@@@0@PBDABV10@@Z 004646ac     TMiniDump.obj
 0002:000116d0       __ehfuncinfo$?TopLevelExceptionFilter@CTMiniDump@@SGJPAU_EXCEPTION_POINTERS@@@Z 004646d0     TMiniDump.obj
 0002:000116f4       __unwindtable$?TopLevelExceptionFilter@CTMiniDump@@SGJPAU_EXCEPTION_POINTERS@@@Z 004646f4     TMiniDump.obj
 0002:0001173c       __unwindtable$?SendCT_ANNOUNCEMENT_ACK@CTServer@@QAEXV?$CStringT@DV?$StrTraitATL@DV?$ChTraitsCRT@D@ATL@@@ATL@@@ATL@@@Z 0046473c     TServer.obj
 0002:0001173c       __unwindtable$?SendCT_CHATBAN_REQ@CTServer@@QAEXV?$CStringT@DV?$StrTraitATL@DV?$ChTraitsCRT@D@ATL@@@ATL@@@ATL@@GKK@Z 0046473c     TServer.obj
 0002:0001173c       __unwindtable$?SendCT_CMGIFT_REQ@CTServer@@QAEXV?$CStringT@DV?$StrTraitATL@DV?$ChTraitsCRT@D@ATL@@@ATL@@@ATL@@GK@Z 0046473c     TServer.obj
 0002:0001173c       __unwindtable$?SendCT_USERKICKOUT_ACK@CTServer@@QAEXV?$CStringT@DV?$StrTraitATL@DV?$ChTraitsCRT@D@ATL@@@ATL@@@ATL@@@Z 0046473c     TServer.obj
 0002:0001173c       __unwindtable$?SendCT_USERMOVE_ACK@CTServer@@QAEXV?$CStringT@DV?$StrTraitATL@DV?$ChTraitsCRT@D@ATL@@@ATL@@@ATL@@EGMMM@Z 0046473c     TServer.obj
 0002:0001174c       __ehfuncinfo$?SendCT_ANNOUNCEMENT_ACK@CTServer@@QAEXV?$CStringT@DV?$StrTraitATL@DV?$ChTraitsCRT@D@ATL@@@ATL@@@ATL@@@Z 0046474c     TServer.obj
 0002:0001174c       __ehfuncinfo$?SendCT_CHATBAN_REQ@CTServer@@QAEXV?$CStringT@DV?$StrTraitATL@DV?$ChTraitsCRT@D@ATL@@@ATL@@@ATL@@GKK@Z 0046474c     TServer.obj
 0002:0001174c       __ehfuncinfo$?SendCT_CMGIFT_REQ@CTServer@@QAEXV?$CStringT@DV?$StrTraitATL@DV?$ChTraitsCRT@D@ATL@@@ATL@@@ATL@@GK@Z 0046474c     TServer.obj
 0002:0001174c       __ehfuncinfo$?SendCT_USERKICKOUT_ACK@CTServer@@QAEXV?$CStringT@DV?$StrTraitATL@DV?$ChTraitsCRT@D@ATL@@@ATL@@@ATL@@@Z 0046474c     TServer.obj
 0002:0001174c       __ehfuncinfo$?SendCT_USERMOVE_ACK@CTServer@@QAEXV?$CStringT@DV?$StrTraitATL@DV?$ChTraitsCRT@D@ATL@@@ATL@@@ATL@@EGMMM@Z 0046474c     TServer.obj
 0002:00011770       __unwindtable$?SendCT_CHARMSG_ACK@CTServer@@QAEXV?$CStringT@DV?$StrTraitATL@DV?$ChTraitsCRT@D@ATL@@@ATL@@@ATL@@0@Z 00464770     TServer.obj
 0002:00011770       __unwindtable$?SendCT_USERPOSITION_ACK@CTServer@@QAEXV?$CStringT@DV?$StrTraitATL@DV?$ChTraitsCRT@D@ATL@@@ATL@@@ATL@@0@Z 00464770     TServer.obj
 0002:00011788       __ehfuncinfo$?SendCT_CHARMSG_ACK@CTServer@@QAEXV?$CStringT@DV?$StrTraitATL@DV?$ChTraitsCRT@D@ATL@@@ATL@@@ATL@@0@Z 00464788     TServer.obj
 0002:00011788       __ehfuncinfo$?SendCT_USERPOSITION_ACK@CTServer@@QAEXV?$CStringT@DV?$StrTraitATL@DV?$ChTraitsCRT@D@ATL@@@ATL@@@ATL@@0@Z 00464788     TServer.obj
 0002:000117ac       __unwindtable$?SendCT_EVENTMSG_REQ@CTServer@@QAEXEEV?$CStringT@DV?$StrTraitATL@DV?$ChTraitsCRT@D@ATL@@@ATL@@@ATL@@@Z 004647ac     TServer.obj
 0002:000117ac       __unwindtable$?SendCT_ITEMFIND_REQ@CTServer@@QAEXKGV?$CStringT@DV?$StrTraitATL@DV?$ChTraitsCRT@D@ATL@@@ATL@@@ATL@@@Z 004647ac     TServer.obj
 0002:000117bc       __ehfuncinfo$?SendCT_EVENTMSG_REQ@CTServer@@QAEXEEV?$CStringT@DV?$StrTraitATL@DV?$ChTraitsCRT@D@ATL@@@ATL@@@ATL@@@Z 004647bc     TServer.obj
 0002:000117bc       __ehfuncinfo$?SendCT_ITEMFIND_REQ@CTServer@@QAEXKGV?$CStringT@DV?$StrTraitATL@DV?$ChTraitsCRT@D@ATL@@@ATL@@@ATL@@@Z 004647bc     TServer.obj
 0002:000117e0       __unwindtable$?Fetch@CSqlBase@@QAEHXZ 004647e0     TNetLib:SqlBase.obj
 0002:000117e8       __ehfuncinfo$?Fetch@CSqlBase@@QAEHXZ 004647e8     TNetLib:SqlBase.obj
 0002:0001180c       __unwindtable$?Open@CSqlBase@@QAEHH@Z 0046480c     TNetLib:SqlBase.obj
 0002:0001182c       __ehfuncinfo$?Open@CSqlBase@@QAEHH@Z 0046482c     TNetLib:SqlBase.obj
 0002:00011850       __unwindtable$??0CSqlQuery@@QAE@PAVCSqlDatabase@@V?$basic_string@DU?$char_traits@D@std@@V?$allocator@D@2@@std@@PBD@Z 00464850     TNetLib:SqlQuery.obj
 0002:00011868       __ehfuncinfo$??0CSqlQuery@@QAE@PAVCSqlDatabase@@V?$basic_string@DU?$char_traits@D@std@@V?$allocator@D@2@@std@@PBD@Z 00464868     TNetLib:SqlQuery.obj
 0002:0001188c       __unwindtable$?AddQuery@CSqlDatabase@@QAEHPAVCSqlQuery@@V?$basic_string@DU?$char_traits@D@std@@V?$allocator@D@2@@std@@@Z 0046488c     TNetLib:SqlDatabase.obj
 0002:000118ac       __ehfuncinfo$?AddQuery@CSqlDatabase@@QAEHPAVCSqlQuery@@V?$basic_string@DU?$char_traits@D@std@@V?$allocator@D@2@@std@@@Z 004648ac     TNetLib:SqlDatabase.obj
 0002:000118d0       __unwindtable$?Decrypt@CSession@@AAEHPAVCPacket@@@Z 004648d0     TNetLib:Session.obj
 0002:000118d8       __ehfuncinfo$?Decrypt@CSession@@AAEHPAVCPacket@@@Z 004648d8     TNetLib:Session.obj
 0002:000118fc       __unwindtable$?Say@CSession@@UAEHPAVCPacket@@@Z 004648fc     TNetLib:Session.obj
 0002:000118fc       __unwindtable$?WaitForMessage@CSession@@QAEHXZ 004648fc     TNetLib:Session.obj
 0002:00011904       __ehfuncinfo$?Say@CSession@@UAEHPAVCPacket@@@Z 00464904     TNetLib:Session.obj
 0002:00011904       __ehfuncinfo$?WaitForMessage@CSession@@QAEHXZ 00464904     TNetLib:Session.obj
 0002:00011928       __unwindtable$?SendComplete@CSession@@QAEHK@Z 00464928     TNetLib:Session.obj
 0002:00011938       __ehfuncinfo$?SendComplete@CSession@@QAEHK@Z 00464938     TNetLib:Session.obj
 0002:0001195c       __unwindtable$?CheckMessage@CSession@@QAEHXZ 0046495c     TNetLib:Session.obj
 0002:00011964       __ehfuncinfo$?CheckMessage@CSession@@QAEHXZ 00464964     TNetLib:Session.obj
 0002:00011988       __unwindtable$??0CSession@@QAE@XZ 00464988     TNetLib:Session.obj
 0002:000119a8       __ehfuncinfo$??0CSession@@QAE@XZ 004649a8     TNetLib:Session.obj
 0002:000119cc       __unwindtable$??__Eg_strSecretKey@@YAXXZ 004649cc     TNetLib:Session.obj
 0002:000119d4       __ehfuncinfo$??__Eg_strSecretKey@@YAXXZ 004649d4     TNetLib:Session.obj
 0002:000119f8       __unwindtable$?TraceLastError@@YAXPBD0K@Z 004649f8     TNetLib:CryptographyExt.obj
 0002:00011a00       __ehfuncinfo$?TraceLastError@@YAXPBD0K@Z 00464a00     TNetLib:CryptographyExt.obj
 0002:00011b2c       __unwindtable$?_Init@locale@std@@CAPAV_Locimp@12@_N@Z 00464b2c     libcpmt:locale0.obj
 0002:00011b34       __ehfuncinfo$?_Init@locale@std@@CAPAV_Locimp@12@_N@Z 00464b34     libcpmt:locale0.obj
 0002:00011b58       __sehtable$___scrt_is_nonwritable_in_current_image 00464b58     LIBCMT:utility.obj
 0002:00011b78       __sehtable$??_L@YGXPAXIIP6EX0@Z1@Z 00464b78     LIBCMT:ehvecctr.obj
 0002:00011b98       __sehtable$??_M@YGXPAXIIP6EX0@Z@Z 00464b98     LIBCMT:ehvecdtr.obj
 0002:00011bb8       __sehtable$?__ArrayUnwind@@YGXPAXIIP6EX0@Z@Z 00464bb8     LIBCMT:ehvecdtr.obj
 0002:00011bd8       __sehtable$?__scrt_common_main_seh@@YAHXZ 00464bd8     LIBCMT:exe_main.obj
 0002:00011bf8       __sehtable$___DestructExceptionObject 00464bf8     libvcruntime:ehhelpers.obj
 0002:00011c18       __sehtable$?FrameUnwindToState@__FrameHandler3@@SAXPAUEHRegistrationNode@@PAXPBU_s_FuncInfo@@H@Z 00464c18     libvcruntime:frame.obj
 0002:00011c40       __sehtable$?CallCatchBlock@@YAPAXPAUEHExceptionRecord@@PAUEHRegistrationNode@@PAU_CONTEXT@@PBU_s_FuncInfo@@PAXHK@Z 00464c40     libvcruntime:frame.obj
 0002:00011c68       __catchsym$?CallUnexpected@@YAXPBU_s_ESTypeList@@@Z$2 00464c68     libvcruntime:frame.obj
 0002:00011c78       __unwindtable$?CallUnexpected@@YAXPBU_s_ESTypeList@@@Z 00464c78     libvcruntime:frame.obj
 0002:00011c88       __tryblocktable$?CallUnexpected@@YAXPBU_s_ESTypeList@@@Z 00464c88     libvcruntime:frame.obj
 0002:00011c9c       __ehfuncinfo$?CallUnexpected@@YAXPBU_s_ESTypeList@@@Z 00464c9c     libvcruntime:frame.obj
 0002:00011cc0       __sehtable$??$BuildCatchObjectHelperInternal@V__FrameHandler3@@@@YAHPAUEHExceptionRecord@@PAXPBU_s_HandlerType@@PBU_s_CatchableType@@@Z 00464cc0     libvcruntime:frame.obj
 0002:00011ce0       __sehtable$??$BuildCatchObjectInternal@V__FrameHandler3@@@@YAXPAUEHExceptionRecord@@PAXPBU_s_HandlerType@@PBU_s_CatchableType@@@Z 00464ce0     libvcruntime:frame.obj
 0002:00011d38       __sehtable$_fclose         00464d38     libucrt:fclose.obj
 0002:00011d58       __sehtable$??$common_fsopen@D@@YAPAU_iobuf@@QBD0H@Z 00464d58     libucrt:fopen.obj
 0002:00011d78       __sehtable$_fread_s        00464d78     libucrt:fread.obj
 0002:00011d98       __sehtable$??$?RV<lambda_4ac01c32aa5b53846f05d0620572872e>@@AAV<lambda_5856287d7ecd2be6c9197bb4007c3f6e>@@V<lambda_e7a9868ed898c75c0f0637692d94351a>@@@?$__crt_seh_guarded_call@I@@QAEI$$QAV<lambda_4ac01c32aa5b53846f05d0620572872e>@@AAV<lambda_5856287d7ecd2be6c9197bb4007c3f6e>@@$$QAV<lambda_e7a9868ed898c75c0f0637692d94351a>@@@Z 00464d98     libucrt:fwrite.obj
 0002:00011db8       __sehtable$??$?RV<lambda_9a462f4e0ebb28b87551e12ccffee677>@@AAV<lambda_aa3754a7aa5b4d51093b5036e29efe7b>@@V<lambda_0e3764851bdc48140fe2cf5acfa0db04>@@@?$__crt_seh_guarded_call@H@@QAEH$$QAV<lambda_9a462f4e0ebb28b87551e12ccffee677>@@AAV<lambda_aa3754a7aa5b4d51093b5036e29efe7b>@@$$QAV<lambda_0e3764851bdc48140fe2cf5acfa0db04>@@@Z 00464db8     libucrt:puts.obj
 0002:00011dd8       __sehtable$??$common_ftell@J@@YAJV__crt_stdio_stream@@@Z 00464dd8     libucrt:ftell.obj
 0002:00011df8       __sehtable$??$common_ftell@_J@@YA_JV__crt_stdio_stream@@@Z 00464df8     libucrt:ftell.obj
 0002:00011e18       __sehtable$_fputc          00464e18     libucrt:fputc.obj
 0002:00011e38       __sehtable$??$?RV<lambda_2866be3712abc81a800a822484c830d8>@@AAV<lambda_39ca0ed439415581b5b15c265174cece>@@V<lambda_2b24c74d71094a6cd0cb82e44167d71b>@@@?$__crt_seh_guarded_call@X@@QAEX$$QAV<lambda_2866be3712abc81a800a822484c830d8>@@AAV<lambda_39ca0ed439415581b5b15c265174cece>@@$$QAV<lambda_2b24c74d71094a6cd0cb82e44167d71b>@@@Z 00464e38     libucrt:fflush.obj
 0002:00011e58       __sehtable$??$?RV<lambda_2cc53f568c5a2bb6f192f930a45d44ea>@@AAV<lambda_ab61a845afdef5b7c387490eaf3616ee>@@V<lambda_c2ffc0b7726aa6be21d5f0026187e748>@@@?$__crt_seh_guarded_call@X@@QAEX$$QAV<lambda_2cc53f568c5a2bb6f192f930a45d44ea>@@AAV<lambda_ab61a845afdef5b7c387490eaf3616ee>@@$$QAV<lambda_c2ffc0b7726aa6be21d5f0026187e748>@@@Z 00464e58     libucrt:fflush.obj
 0002:00011e78       __sehtable$??$?RV<lambda_6d20deecaf4856105ebacbad442d1079>@@AAV<lambda_9a32fed5bf61b6b509b2d3f6003082a1>@@V<lambda_63ea2239ed67c638ddbae41947fdf875>@@@?$__crt_seh_guarded_call@H@@QAEH$$QAV<lambda_6d20deecaf4856105ebacbad442d1079>@@AAV<lambda_9a32fed5bf61b6b509b2d3f6003082a1>@@$$QAV<lambda_63ea2239ed67c638ddbae41947fdf875>@@@Z 00464e78     libucrt:fflush.obj
 0002:00011e98       __sehtable$?common_fseek@@YAHV__crt_stdio_stream@@_JH@Z 00464e98     libucrt:fseek.obj
 0002:00011eb8       __sehtable$_fgetc          00464eb8     libucrt:fgetc.obj
 0002:00011ed8       __sehtable$??$?RV<lambda_b4242a90177f71b82d5a351515ac407a>@@AAV<lambda_b4f66040be5f354a654fb75160c27bfc>@@V<lambda_414c89348e1c610e2dbd648c5fde2086>@@@?$__crt_seh_guarded_call@H@@QAEH$$QAV<lambda_b4242a90177f71b82d5a351515ac407a>@@AAV<lambda_b4f66040be5f354a654fb75160c27bfc>@@$$QAV<lambda_414c89348e1c610e2dbd648c5fde2086>@@@Z 00464ed8     libucrt:setvbuf.obj
 0002:00011ef8       __sehtable$_ungetc         00464ef8     libucrt:ungetc.obj
 0002:00011f18       __sehtable$??$?RV<lambda_f5952838e36297a1e2e9d6c748429792>@@AAV<lambda_2116bde18c9e5f34230805ea4a4660ed>@@V<lambda_3c7107de1cc98bf330a3031f42c322a3>@@@?$__crt_seh_guarded_call@PAD@@QAEPAD$$QAV<lambda_f5952838e36297a1e2e9d6c748429792>@@AAV<lambda_2116bde18c9e5f34230805ea4a4660ed>@@$$QAV<lambda_3c7107de1cc98bf330a3031f42c322a3>@@@Z 00464f18     libucrt:setlocale.obj
 0002:00011f38       __sehtable$__query_new_handler 00464f38     libucrt:new_handler.obj
 0002:00011f58       __sehtable$??R<lambda_6e4b09c48022b2350581041d5f6b0c4c>@@QBE@XZ 00464f58     libucrt:exit.obj
 0002:00011f78       __sehtable$??$?RV<lambda_03b1d95aef87969028cfba75ccab2455>@@AAV<lambda_6e4b09c48022b2350581041d5f6b0c4c>@@V<lambda_22bdf7517842c4b3e53723af5aa32b9e>@@@?$__crt_seh_guarded_call@X@@QAEX$$QAV<lambda_03b1d95aef87969028cfba75ccab2455>@@AAV<lambda_6e4b09c48022b2350581041d5f6b0c4c>@@$$QAV<lambda_22bdf7517842c4b3e53723af5aa32b9e>@@@Z 00464f78     libucrt:exit.obj
 0002:00011f98       __sehtable$??$?RV<lambda_8e746cf0007f6ed984d6f78af1fec997>@@AAV<lambda_22ebabd17bc4fa466a2aca6d8deb888d>@@V<lambda_18ed0c0b38a6dc0daf1e7ac6d6adf05e>@@@?$__crt_seh_guarded_call@H@@QAEH$$QAV<lambda_8e746cf0007f6ed984d6f78af1fec997>@@AAV<lambda_22ebabd17bc4fa466a2aca6d8deb888d>@@$$QAV<lambda_18ed0c0b38a6dc0daf1e7ac6d6adf05e>@@@Z 00464f98     libucrt:onexit.obj
 0002:00011fb8       __sehtable$??$?RV<lambda_69a2805e680e0e292e8ba93315fe43a8>@@AAV<lambda_f03950bc5685219e0bcd2087efbe011e>@@V<lambda_03fcd07e894ec930e3f35da366ca99d6>@@@?$__crt_seh_guarded_call@H@@QAEH$$QAV<lambda_69a2805e680e0e292e8ba93315fe43a8>@@AAV<lambda_f03950bc5685219e0bcd2087efbe011e>@@$$QAV<lambda_03fcd07e894ec930e3f35da366ca99d6>@@@Z 00464fb8     libucrt:onexit.obj
 0002:00011fd8       __sehtable$_terminate      00464fd8     libucrt:terminate.obj
 0002:00011ff8       __sehtable$??$?RV<lambda_e5124f882df8998aaf41531e079ba474>@@AAV<lambda_3e16ef9562a7dcce91392c22ab16ea36>@@V<lambda_e25ca0880e6ef98be67edffd8c599615>@@@?$__crt_seh_guarded_call@X@@QAEX$$QAV<lambda_e5124f882df8998aaf41531e079ba474>@@AAV<lambda_3e16ef9562a7dcce91392c22ab16ea36>@@$$QAV<lambda_e25ca0880e6ef98be67edffd8c599615>@@@Z 00464ff8     libucrt:wsetlocale.obj
 0002:00012018       __sehtable$??$?RV<lambda_4fdada1b837b2abbf20876fac97688ad>@@AAV<lambda_b57350f2640456a0859d250846f69caf>@@V<lambda_eed5e4f92b5b7d55fa22c48c484aaa54>@@@?$__crt_seh_guarded_call@X@@QAEX$$QAV<lambda_4fdada1b837b2abbf20876fac97688ad>@@AAV<lambda_b57350f2640456a0859d250846f69caf>@@$$QAV<lambda_eed5e4f92b5b7d55fa22c48c484aaa54>@@@Z 00465018     libucrt:wsetlocale.obj
 0002:00012038       __sehtable$??$?RV<lambda_ac03c5d59bd18b09cb88b28331f6bfed>@@AAV<lambda_2a444430fde8c29194d880d93eed5e8f>@@AAV<lambda_02db5278e8aef8b5e4976579d73f5304>@@@?$__crt_seh_guarded_call@X@@QAEX$$QAV<lambda_ac03c5d59bd18b09cb88b28331f6bfed>@@AAV<lambda_2a444430fde8c29194d880d93eed5e8f>@@AAV<lambda_02db5278e8aef8b5e4976579d73f5304>@@@Z 00465038     libucrt:wsetlocale.obj
 0002:00012058       __sehtable$??$?RV<lambda_15ade71b0218206bbe3333a0c9b79046>@@AAV<lambda_da44e0f8b0f19ba52fefafb335991732>@@V<lambda_207f2d024fc103971653565357d6cd41>@@@?$__crt_seh_guarded_call@X@@QAEX$$QAV<lambda_15ade71b0218206bbe3333a0c9b79046>@@AAV<lambda_da44e0f8b0f19ba52fefafb335991732>@@$$QAV<lambda_207f2d024fc103971653565357d6cd41>@@@Z 00465058     libucrt:per_thread_data.obj
 0002:00012078       __sehtable$??$?RV<lambda_a7e850c220f1c8d1e6efeecdedd162c6>@@AAV<lambda_46720907175c18b6c9d2717bc0d2d362>@@V<lambda_9048902d66e8d99359bc9897bbb930a8>@@@?$__crt_seh_guarded_call@X@@QAEX$$QAV<lambda_a7e850c220f1c8d1e6efeecdedd162c6>@@AAV<lambda_46720907175c18b6c9d2717bc0d2d362>@@$$QAV<lambda_9048902d66e8d99359bc9897bbb930a8>@@@Z 00465078     libucrt:per_thread_data.obj
 0002:00012098       __sehtable$??$?RV<lambda_38edbb1296d33220d7e4dd0ed76b244a>@@AAV<lambda_5ce1d447e08cb34b2473517608e21441>@@V<lambda_fb385d3da700c9147fc39e65dd577a8c>@@@?$__crt_seh_guarded_call@X@@QAEX$$QAV<lambda_38edbb1296d33220d7e4dd0ed76b244a>@@AAV<lambda_5ce1d447e08cb34b2473517608e21441>@@$$QAV<lambda_fb385d3da700c9147fc39e65dd577a8c>@@@Z 00465098     libucrt:per_thread_data.obj
 0002:000120b8       __sehtable$??$?RV<lambda_6affb1475c98b40b75cdec977db92e3c>@@AAV<lambda_b8d4b9c228a6ecc3f80208dbb4b4a104>@@V<lambda_608742c3c92a14382c1684fc64f96c88>@@@?$__crt_seh_guarded_call@X@@QAEX$$QAV<lambda_6affb1475c98b40b75cdec977db92e3c>@@AAV<lambda_b8d4b9c228a6ecc3f80208dbb4b4a104>@@$$QAV<lambda_608742c3c92a14382c1684fc64f96c88>@@@Z 004650b8     libucrt:per_thread_data.obj
 0002:000120d8       __sehtable$___acrt_initialize_lowio 004650d8     libucrt:ioinit.obj
 0002:000120f8       __sehtable$__isindst       004650f8     libucrt:tzset.obj
 0002:00012118       __sehtable$___tzset        00465118     libucrt:tzset.obj
 0002:00012138       __sehtable$??$?RV<lambda_6b4b7855443974f2b4b77000ea21c99c>@@AAV<lambda_8f7d3b162ab39427f4fa9995c67a7986>@@V<lambda_cc9a5ba8a5d8428b9634eab82665e5dc>@@@?$__crt_seh_guarded_call@H@@QAEH$$QAV<lambda_6b4b7855443974f2b4b77000ea21c99c>@@AAV<lambda_8f7d3b162ab39427f4fa9995c67a7986>@@$$QAV<lambda_cc9a5ba8a5d8428b9634eab82665e5dc>@@@Z 00465138     libucrt:winapi_thunks.obj
 0002:00012158       __sehtable$??$?RV<lambda_218ce3db14220d0be481dae8ef3383b6>@@AAV<lambda_628dfdc04ba53c8bfc02c9951375f3f5>@@V<lambda_57dc472bd5c9d5f3b2cbca59b8a843ae>@@@?$__crt_seh_guarded_call@H@@QAEH$$QAV<lambda_218ce3db14220d0be481dae8ef3383b6>@@AAV<lambda_628dfdc04ba53c8bfc02c9951375f3f5>@@$$QAV<lambda_57dc472bd5c9d5f3b2cbca59b8a843ae>@@@Z 00465158     libucrt:close.obj
 0002:00012178       __sehtable$?__acrt_stdio_allocate_stream@@YA?AV__crt_stdio_stream@@XZ 00465178     libucrt:stream.obj
 0002:00012198       __sehtable$__read          00465198     libucrt:read.obj
 0002:000121b8       __sehtable$__write         004651b8     libucrt:write.obj
 0002:000121d8       __sehtable$___set_fpsr_sse2 004651d8     libucrt:fpctrl.obj
 0002:000121f8       __sehtable$??$common_lseek@_J@@YA_JH_JH@Z 004651f8     libucrt:lseek.obj
 0002:00012218       __sehtable$??$?RV<lambda_9e9de3de5fa147e2223d7db92bc10aa6>@@AAV<lambda_38ce7e780aa69e748d6df282ebc68efe>@@V<lambda_8ca6da459f0f6780f1cff60fdc3d00e5>@@@?$__crt_seh_guarded_call@H@@QAEH$$QAV<lambda_9e9de3de5fa147e2223d7db92bc10aa6>@@AAV<lambda_38ce7e780aa69e748d6df282ebc68efe>@@$$QAV<lambda_8ca6da459f0f6780f1cff60fdc3d00e5>@@@Z 00465218     libucrt:commit.obj
 0002:00012238       __sehtable$__fcloseall     00465238     libucrt:closeall.obj
 0002:00012254       __unwindtable$?_wcstombs_l_helper@@YAIPADPB_WIPAU__crt_locale_pointers@@@Z 00465254     libucrt:wcstombs.obj
 0002:0001225c       __ehfuncinfo$?_wcstombs_l_helper@@YAIPADPB_WIPAU__crt_locale_pointers@@@Z 0046525c     libucrt:wcstombs.obj
 0002:00012280       __sehtable$_raise          00465280     libucrt:signal.obj
 0002:000122a0       __sehtable$??$?RV<lambda_cbab9ec6f41b0180b23cc171c22676b0>@@AAV<lambda_44731a7d0e6d81c3e6aa82d741081786>@@V<lambda_4b292cb8dd18144e164572427af410ab>@@@?$__crt_seh_guarded_call@P6AXH@Z@@QAEP6AXH@Z$$QAV<lambda_cbab9ec6f41b0180b23cc171c22676b0>@@AAV<lambda_44731a7d0e6d81c3e6aa82d741081786>@@$$QAV<lambda_4b292cb8dd18144e164572427af410ab>@@@Z 004652a0     libucrt:signal.obj
 0002:000122c0       __sehtable$?update_thread_multibyte_data_internal@@YAPAU__crt_multibyte_data@@QAU__acrt_ptd@@QAPAU1@@Z 004652c0     libucrt:mbctype.obj
 0002:000122e0       __sehtable$??$?RV<lambda_ceb1ee4838e85a9d631eb091e2fbe199>@@AAV<lambda_ae742caa10f662c28703da3d2ea5e57e>@@V<lambda_cd08b5d6af4937fe54fc07d0c9bf6b37>@@@?$__crt_seh_guarded_call@X@@QAEX$$QAV<lambda_ceb1ee4838e85a9d631eb091e2fbe199>@@AAV<lambda_ae742caa10f662c28703da3d2ea5e57e>@@$$QAV<lambda_cd08b5d6af4937fe54fc07d0c9bf6b37>@@@Z 004652e0     libucrt:mbctype.obj
 0002:00012300       __sehtable$__alloc_osfhnd  00465300     libucrt:osfinfo.obj
 0002:00012320       __sehtable$___acrt_lowio_ensure_fh_exists 00465320     libucrt:osfinfo.obj
 0002:00012340       __sehtable$___acrt_update_thread_locale_data 00465340     libucrt:locale_refcounting.obj
 0002:00012360       __sehtable$??$common_getenv_s@_W@@YAHQAIQA_WIQB_W@Z 00465360     libucrt:getenv.obj
 0002:00012380       __sehtable$??$common_sopen_dispatch@D@@YAHQBDHHHQAHH@Z 00465380     libucrt:open.obj
 0002:000123a0       __sehtable$__IsNonwritableInCurrentImage 004653a0     LIBCMT:pesect.obj
 0002:0001283c       .idata$6                   0046583c     ws2_32:WS2_32.dll
 0002:00012854       .idata$6                   00465854     mswsock:MSWSOCK.dll
 0002:00012c40       .idata$6                   00465c40     kernel32:KERNEL32.dll
 0002:00012c5c       .idata$6                   00465c5c     user32:USER32.dll
 0002:00012d9a       .idata$6                   00465d9a     advapi32:ADVAPI32.dll
 0002:00012dee       .idata$6                   00465dee     ole32:ole32.dll
 0002:00012e1c       .idata$6                   00465e1c     pdh:pdh.dll
 0002:00012e24       .idata$6                   00465e24     odbc32:ODBC32.dll
 0003:00000050       ?init@std@@3JA             00467050     libcpmt:xlock.obj
 0003:00000058       ?atcount_cdecl@@3IA        00467058     libcpmt:iosptrs.obj
 0003:00000090       ?__vcrt_flsindex@@3KA      00467090     libvcruntime:per_thread_data.obj
 0003:000000b0       ?errno_no_memory@@3HA      004670b0     libucrt:errno.obj
 0003:000000b4       ?doserrno_no_memory@@3KA   004670b4     libucrt:errno.obj
 0003:000001d4       __ctype_loc_style          004671d4     libucrt:wsetlocale.obj
 0003:000001e0       ?__acrt_flsindex@@3KA      004671e0     libucrt:per_thread_data.obj
 0003:000002e8       ?tzstd_program@@3PADA      004672e8     libucrt:timeset.obj
 0003:00000328       ?tzdst_program@@3PADA      00467328     libucrt:timeset.obj
 0003:00000368       ?w_tzstd_program@@3PA_WA   00467368     libucrt:timeset.obj
 0003:000003e8       ?w_tzdst_program@@3PA_WA   004673e8     libucrt:timeset.obj
 0003:00000468       ?tzname_states@@3PAY01PADA 00467468     libucrt:timeset.obj
 0003:00000470       ?w_tzname_states@@3PAY01PA_WA 00467470     libucrt:timeset.obj
 0003:00000478       ?dststart@@3Utransitiondate@?A0x7639d0b4@@A 00467478     libucrt:tzset.obj
 0003:00000484       ?dstend@@3Utransitiondate@?A0x7639d0b4@@A 00467484     libucrt:tzset.obj
 0003:00000590       ?__DAZ_ENABLED@?1??__set_fpsr_sse2@@9@9 00467590     libucrt:fpctrl.obj
 0003:000007c0       __mbctypes                 004677c0     libucrt:mbctype.obj
 0003:000008c8       __mbcasemaps               004678c8     libucrt:mbctype.obj
 0003:000009c8       ?__rgctypeflag@@3PADA      004679c8     libucrt:mbctype.obj
 0003:000009d0       ?__rgcode_page_info@@3PAUcode_page_info@@A 004679d0     libucrt:mbctype.obj
 0003:00000ac0       ?__dcrt_lowio_console_output_handle@@3PAXA 00467ac0     libucrt:initcon.obj
 0003:00000ad8       ?bPresent@?1???0TServerSystem@@QAE@V?$basic_string@DU?$char_traits@D@std@@V?$allocator@D@2@@std@@0@Z@4_NA 00467ad8     TServerSystem:TServerSystem.obj
 0003:00011f08       ?Initialized@?1??main@@9@4_NA 00478f08     TControlSvr.obj
 0003:00011f70       ?initlocks@std@@3V_Init_locks@1@A 00478f70     libcpmt:xlock.obj
 0003:00011f78       ?mtx@std@@3PAU_RTL_CRITICAL_SECTION@@A 00478f78     libcpmt:xlock.obj
 0003:00012054       ?classic_locale@std@@3Vlocale@1@A 00479054     libcpmt:locale0.obj
 0003:0001205c       ?_Fac_head@std@@3PAU_Fac_node@1@A 0047905c     libcpmt:locale0.obj
 0003:00012060       ?_Fac_tidy_reg@std@@3U_Fac_tidy_reg_t@1@B 00479060     libcpmt:locale0.obj
 0003:00012064       _global_locale             00479064     libcpmt:locale0.obj
 0003:00012068       ?registered@?1??_Setgloballocale@locale@std@@CAXPAX@Z@4_NA 00479068     libcpmt:locale0.obj
 0003:00012070       ?stdstr@std@@3PAPAVios_base@1@A 00479070     libcpmt:ios.obj
 0003:00012098       ?stdopens@std@@3PADA       00479098     libcpmt:ios.obj
 0003:000120a8       ?initlocks@@3V_Init_locks@std@@A 004790a8     libcpmt:cin.obj
 0003:000120a9       ?init_cin@std@@3U_Init_cin@1@A 004790a9     libcpmt:cin.obj
 0003:000120b0       ?fin@std@@3V?$basic_filebuf@DU?$char_traits@D@std@@@1@A 004790b0     libcpmt:cin.obj
 0003:00012168       ?initlocks@@3V_Init_locks@std@@A 00479168     libcpmt:cout.obj
 0003:00012169       ?init_cout@std@@3U_Init_cout@1@A 00479169     libcpmt:cout.obj
 0003:000121c0       ?fout@std@@3V?$basic_filebuf@DU?$char_traits@D@std@@@1@A 004791c0     libcpmt:cout.obj
 0003:00012238       ?initlocks@std@@3V_Init_locks@1@A 00479238     libcpmt:iosptrs.obj
 0003:00012239       ?init_atexit@@3U_Init_atexit@@A 00479239     libcpmt:iosptrs.obj
 0003:0001223c       ?atfuns_cdecl@@3PAP6AXXZA  0047923c     libcpmt:iosptrs.obj
 0003:000122e4       ?is_initialized_as_dll@@3_NA 004792e4     LIBCMT:utility.obj
 0003:000122e5       ?module_local_atexit_table_initialized@@3_NA 004792e5     LIBCMT:utility.obj
 0003:000122e8       ?module_local_atexit_table@@3U_onexit_table_t@@A 004792e8     LIBCMT:utility.obj
 0003:000122f4       ?module_local_at_quick_exit_table@@3U_onexit_table_t@@A 004792f4     LIBCMT:utility.obj
 0003:00012300       ?g_tss_cv@@3U_RTL_CONDITION_VARIABLE@@A 00479300     LIBCMT:thread_safe_statics.obj
 0003:00012304       ?g_tss_event@@3PAXA        00479304     LIBCMT:thread_safe_statics.obj
 0003:00012308       ?g_tss_mutex@@3U_RTL_CRITICAL_SECTION@@A 00479308     LIBCMT:thread_safe_statics.obj
 0003:00012320       ?g_sleep_condition_variable_cs@@3P6GHPAU_RTL_CONDITION_VARIABLE@@PAU_RTL_CRITICAL_SECTION@@K@ZA 00479320     LIBCMT:thread_safe_statics.obj
 0003:00012324       ?g_wake_all_condition_variable@@3P6GXPAU_RTL_CONDITION_VARIABLE@@@ZA 00479324     LIBCMT:thread_safe_statics.obj
 0003:00012330       _GS_ExceptionRecord        00479330     LIBCMT:gs_report.obj
 0003:00012380       _GS_ContextRecord          00479380     LIBCMT:gs_report.obj
 0003:0001266c       ?__vcrt_startup_thread_ptd@@3U__vcrt_ptd@@A 0047966c     libvcruntime:per_thread_data.obj
 0003:00012698       ___vcrt_lock_table         00479698     libvcruntime:locks.obj
 0003:000126b0       ___vcrt_locks_initialized  004796b0     libvcruntime:locks.obj
 0003:000126dc       ?heap@@3V_HeapManager@@A   004796dc     libvcruntime:undname.obj
 0003:000126f0       ?module_handles@@3PAPAUHINSTANCE__@@A 004796f0     libvcruntime:winapi_downlevel.obj
 0003:000126fc       ?function_pointers@@3PAPAXA 004796fc     libvcruntime:winapi_downlevel.obj
 0003:00012710       ?__acrt_invalid_parameter_handler@@3V?$dual_state_global@P6AXPB_W00II@Z@__crt_state_management@@A 00479710     libucrt:invalid_parameter.obj
 0003:00012728       ?__acrt_lock_table@@3PAU_RTL_CRITICAL_SECTION@@A 00479728     libucrt:locks.obj
 0003:00012878       ?__acrt_locks_initialized@@3IA 00479878     libucrt:locks.obj
 0003:0001287c       ?__acrt_new_handler@@3V?$dual_state_global@P6AHI@Z@__crt_state_management@@A 0047987c     libucrt:new_handler.obj
 0003:00012880       ?c_termination_complete@@3JA 00479880     libucrt:exit.obj
 0003:00012884       ?thread_local_exit_callback_func@@3P6GXPAXK0@ZA 00479884     libucrt:exit.obj
 0003:00012890       ?program_name@?1???$common_configure_argv@D@@YAHW4_crt_argv_mode@@@Z@4PADA 00479890     libucrt:argv_parsing.obj
 0003:000129c0       ?__acrt_app_type@@3W4_crt_app_type@@A 004799c0     libucrt:report_runtime_error.obj
 0003:000129c4       ?user_matherr@@3V?$dual_state_global@P6AHPAU_exception@@@Z@__crt_state_management@@A 004799c4     libucrt:matherr.obj
 0003:000129e4       ?__acrt_global_new_mode@@3V?$dual_state_global@J@__crt_state_management@@A 004799e4     libucrt:new_mode.obj
 0003:000129ec       ?internal_state@?1??_mbtowc_l@@9@4U_Mbstatet@@A 004799ec     libucrt:mbtowc.obj
 0003:000129f4       ?enable_percent_n@@3IA     004799f4     libucrt:printf_count_output.obj
 0003:00012c18       ?_tzname@@3V?$dual_state_global@PAPAD@__crt_state_management@@A 00479c18     libucrt:timeset.obj
 0003:00012c1c       ?w_tzname@@3V?$dual_state_global@PAPA_W@__crt_state_management@@A 00479c1c     libucrt:timeset.obj
 0003:00012c20       ?last_wide_tz@@3PA_WA      00479c20     libucrt:tzset.obj
 0003:00012c28       ?tz_api_used@@3HA          00479c28     libucrt:tzset.obj
 0003:00012c2c       ?tzset_init_state@@3V?$dual_state_global@J@__crt_state_management@@A 00479c2c     libucrt:tzset.obj
 0003:00012c30       ?tz_info@@3U_TIME_ZONE_INFORMATION@@A 00479c30     libucrt:tzset.obj
 0003:00012ce0       ?module_handles@@3PAPAUHINSTANCE__@@A 00479ce0     libucrt:winapi_thunks.obj
 0003:00012d30       ?encoded_function_pointers@@3PAPAXA 00479d30     libucrt:winapi_thunks.obj
 0003:00012db8       ?static_enum_proc@?1??enum_system_locales_ex_nolock@@YAHQ6GHPA_WKJ@Z@Z@4P6GH0KJ@ZA 00479db8     libucrt:winapi_thunks.obj
 0003:00012dbc       __pmatherr_set             00479dbc     libucrt:libm_error.obj
 0003:00012dc4       ?ctrlc_action@@3V?$dual_state_global@P6AXH@Z@__crt_state_management@@A 00479dc4     libucrt:signal.obj
 0003:00012dc8       ?ctrlbreak_action@@3V?$dual_state_global@P6AXH@Z@__crt_state_management@@A 00479dc8     libucrt:signal.obj
 0003:00012dcc       ?abort_action@@3V?$dual_state_global@P6AXH@Z@__crt_state_management@@A 00479dcc     libucrt:signal.obj
 0003:00012dd0       ?term_action@@3V?$dual_state_global@P6AXH@Z@__crt_state_management@@A 00479dd0     libucrt:signal.obj
 0003:00012de0       ?fSystemSet@@3HA           00479de0     libucrt:mbctype.obj
 0003:00012de4       ?initialized@?1??__acrt_initialize_multibyte@@9@4_NA 00479de4     libucrt:mbctype.obj
 0003:00012df0       ?internal_pst@?1??__mbrtoc32_utf8@__crt_mbstring@@YAIPA_UPBDIPAU_Mbstatet@@@Z@4U3@A 00479df0     libucrt:mbrtoc32.obj
 0003:00012dfc       ?internal_pst@?1??__c16rtomb_utf8@__crt_mbstring@@YAIPAD_SPAU_Mbstatet@@@Z@4U3@A 00479dfc     libucrt:c16rtomb.obj
 0004:000001a0       $R000000                   0047a1a0     TControlSvr.res
 0004:00000460       $R0002C0                   0047a460     TControlSvr.res
 0004:000004e0       $R000340                   0047a4e0     TControlSvr.res
 0004:000009c0       $R000820                   0047a9c0     TControlSvr.res
 0004:000009f8       $R000858                   0047a9f8     TControlSvr.res
