 TLoginSvr

 Timestamp is 64a5d139 (Wed Jul  5 23:23:21 2023)

 Preferred load address is 00400000

 Start         Length     Name                   Class
 0001:00000000 00000250H .text$di                CODE
 0001:00000250 000397f0H .text$mn                CODE
 0001:00039a40 000019d0H .text$x                 CODE
 0001:0003b410 00000117H .text$yd                CODE
 0002:00000000 00000290H .idata$5                DATA
 0002:00000290 00000008H .00cfg                  DATA
 0002:00000298 00000004H .CRT$XCA                DATA
 0002:0000029c 00000004H .CRT$XCAA               DATA
 0002:000002a0 0000002cH .CRT$XCC                DATA
 0002:000002cc 0000000cH .CRT$XCL                DATA
 0002:000002d8 00000010H .CRT$XCU                DATA
 0002:000002e8 00000004H .CRT$XCZ                DATA
 0002:000002ec 00000004H .CRT$XIA                DATA
 0002:000002f0 00000004H .CRT$XIAA               DATA
 0002:000002f4 00000004H .CRT$XIAC               DATA
 0002:000002f8 00000018H .CRT$XIC                DATA
 0002:00000310 00000004H .CRT$XIZ                DATA
 0002:00000314 00000004H .CRT$XLA                DATA
 0002:00000318 00000004H .CRT$XLZ                DATA
 0002:0000031c 00000004H .CRT$XPA                DATA
 0002:00000320 00000008H .CRT$XPX                DATA
 0002:00000328 00000004H .CRT$XPXA               DATA
 0002:0000032c 00000004H .CRT$XPZ                DATA
 0002:00000330 00000004H .CRT$XTA                DATA
 0002:00000334 0000000cH .CRT$XTZ                DATA
 0002:00000338 00000000H .gfids$y                DATA
 0002:00000340 0000d200H .rdata                  DATA
 0002:0000d540 00000000H .rdata$CastGuardVftablesA DATA
 0002:0000d540 00000000H .rdata$CastGuardVftablesC DATA
 0002:0000d540 00000018H .rdata$T                DATA
 0002:0000d558 00001874H .rdata$r                DATA
 0002:0000edcc 00000170H .rdata$sxdata           DATA
 0002:0000ef3c 000000dcH .rdata$voltmd           DATA
 0002:0000f018 00000454H .rdata$zzzdbg           DATA
 0002:0000f46c 00000004H .rtc$IAA                DATA
 0002:0000f470 00000004H .rtc$IZZ                DATA
 0002:0000f474 00000004H .rtc$TAA                DATA
 0002:0000f478 00000004H .rtc$TZZ                DATA
 0002:0000f47c 00000004H .tls                    DATA
 0002:0000f480 00000004H .tls$                   DATA
 0002:0000f484 00000004H .tls$ZZZ                DATA
 0002:0000f488 00002048H .xdata$x                DATA
 0002:000114d0 00000000H ATL$__a                 DATA
 0002:000114d0 00000000H ATL$__z                 DATA
 0002:000114d0 00000000H .edata                  DATA
 0002:000114d0 0000008cH .idata$2                DATA
 0002:0001155c 00000014H .idata$3                DATA
 0002:00011570 00000290H .idata$4                DATA
 0002:00011800 000009ccH .idata$6                DATA
 0003:00000000 00000adcH .data                   DATA
 0003:00000adc 000001acH .data$r                 DATA
 0003:00000c88 00000908H .data$rs                DATA
 0003:00001590 000117b0H .bss                    DATA
 0004:00000000 000001a0H .rsrc$01                DATA
 0004:000001a0 000009d0H .rsrc$02                DATA

  Address         Publics by Value              Rva+Base       Lib:Object

 0000:00000000       ___AbsoluteZero            00000000     <absolute>
 0000:00000000       ___arm64x_extra_rfe_table  00000000     <absolute>
 0000:00000000       ___arm64x_extra_rfe_table_size 00000000     <absolute>
 0000:00000000       ___arm64x_native_entrypoint 00000000     <absolute>
 0000:00000000       ___arm64x_redirection_metadata 00000000     <absolute>
 0000:00000000       ___arm64x_redirection_metadata_count 00000000     <absolute>
 0000:00000000       ___dynamic_value_reloc_table 00000000     <absolute>
 0000:00000000       ___enclave_config          00000000     <absolute>
 0000:00000000       ___guard_check_icall_a64n_fptr 00000000     <absolute>
 0000:00000000       ___guard_eh_cont_count     00000000     <absolute>
 0000:00000000       ___guard_eh_cont_table     00000000     <absolute>
 0000:00000000       ___guard_fids_count        00000000     <absolute>
 0000:00000000       ___guard_fids_table        00000000     <absolute>
 0000:00000000       ___guard_iat_count         00000000     <absolute>
 0000:00000000       ___guard_iat_table         00000000     <absolute>
 0000:00000000       ___guard_longjmp_count     00000000     <absolute>
 0000:00000000       ___guard_longjmp_table     00000000     <absolute>
 0000:00000000       ___hybrid_auxiliary_delayload_iat 00000000     <absolute>
 0000:00000000       ___hybrid_auxiliary_delayload_iat_copy 00000000     <absolute>
 0000:00000000       ___hybrid_auxiliary_iat    00000000     <absolute>
 0000:00000000       ___hybrid_auxiliary_iat_copy 00000000     <absolute>
 0000:00000000       ___hybrid_code_map         00000000     <absolute>
 0000:00000000       ___hybrid_code_map_count   00000000     <absolute>
 0000:00000000       ___x64_code_ranges_to_entry_points 00000000     <absolute>
 0000:00000000       ___x64_code_ranges_to_entry_points_count 00000000     <absolute>
 0000:00000000       __except_list              00000000     <absolute>
 0000:0000002c       __tls_array                0000002c     <absolute>
 0000:0000005c       ___safe_se_handler_count   0000005c     <absolute>
 0000:00000100       ___guard_flags             00000100     <absolute>
 0000:00000000       ___ImageBase               00400000     <linker-defined>
 0001:00000250       ___local_stdio_printf_options 00401250 f i TServerSystem:TServerSystem.obj
 0001:00000260       ??0exception@std@@QAE@QBD@Z 00401260 f i TServerSystem:TServerSystem.obj
 0001:000002b0       ??0exception@std@@QAE@ABV01@@Z 004012b0 f i TServerSystem:TServerSystem.obj
 0001:000002e0       ?what@exception@std@@UBEPBDXZ 004012e0 f i TServerSystem:TServerSystem.obj
 0001:000002f0       ??_Ebad_alloc@std@@UAEPAXI@Z 004012f0 f i * CIL library *:* CIL module *
 0001:000002f0       ??_Ebad_array_new_length@std@@UAEPAXI@Z 004012f0 f i * CIL library *:* CIL module *
 0001:000002f0       ??_Eexception@std@@UAEPAXI@Z 004012f0 f i * CIL library *:* CIL module *
 0001:000002f0       ??_Eruntime_error@std@@UAEPAXI@Z 004012f0 f i * CIL library *:* CIL module *
 0001:000002f0       ??_Gbad_alloc@std@@UAEPAXI@Z 004012f0 f i TServerSystem:TServerSystem.obj
 0001:000002f0       ??_Gbad_array_new_length@std@@UAEPAXI@Z 004012f0 f i TServerSystem:TServerSystem.obj
 0001:000002f0       ??_Gexception@std@@UAEPAXI@Z 004012f0 f i TServerSystem:TServerSystem.obj
 0001:000002f0       ??_Gruntime_error@std@@UAEPAXI@Z 004012f0 f i TServerSystem:TServerSystem.obj
 0001:00000320       ??1bad_alloc@std@@UAE@XZ   00401320 f i TServerSystem:TServerSystem.obj
 0001:00000320       ??1bad_array_new_length@std@@UAE@XZ 00401320 f i TServerSystem:TServerSystem.obj
 0001:00000320       ??1bad_exception@std@@UAE@XZ 00401320 f i libvcruntime:frame.obj
 0001:00000320       ??1failure@ios_base@std@@UAE@XZ 00401320 f i TServerSystem:TServerSystem.obj
 0001:00000320       ??1invalid_argument@std@@UAE@XZ 00401320 f i libcpmt:xthrow.obj
 0001:00000320       ??1length_error@std@@UAE@XZ 00401320 f i libcpmt:xthrow.obj
 0001:00000320       ??1out_of_range@std@@UAE@XZ 00401320 f i libcpmt:xthrow.obj
 0001:00000320       ??1runtime_error@std@@UAE@XZ 00401320 f i TServerSystem:TServerSystem.obj
 0001:00000340       ??0bad_array_new_length@std@@QAE@XZ 00401340 f i TServerSystem:TServerSystem.obj
 0001:00000360       ?_Throw_bad_array_new_length@std@@YAXXZ 00401360 f i TServerSystem:TServerSystem.obj
 0001:00000360       ?__scrt_throw_std_bad_array_new_length@@YAXXZ 00401360 f i LIBCMT:throw_bad_alloc.obj
 0001:00000380       ??0bad_array_new_length@std@@QAE@ABV01@@Z 00401380 f i TServerSystem:TServerSystem.obj
 0001:000003c0       ??0bad_alloc@std@@QAE@ABV01@@Z 004013c0 f i TServerSystem:TServerSystem.obj
 0001:00000400       ?_Xlen_string@std@@YAXXZ   00401400 f i TServerSystem:TServerSystem.obj
 0001:00000410       ??0runtime_error@std@@QAE@ABV01@@Z 00401410 f i TServerSystem:TServerSystem.obj
 0001:00000450       ?default_error_condition@error_category@std@@UBE?AVerror_condition@2@H@Z 00401450 f i TServerSystem:TServerSystem.obj
 0001:00000470       ?equivalent@error_category@std@@UBE_NHABVerror_condition@2@@Z 00401470 f i TServerSystem:TServerSystem.obj
 0001:000004b0       ?equivalent@error_category@std@@UBE_NABVerror_code@2@H@Z 004014b0 f i TServerSystem:TServerSystem.obj
 0001:000004e0       ?make_error_code@std@@YA?AVerror_code@1@W4io_errc@1@@Z 004014e0 f i TServerSystem:TServerSystem.obj
 0001:00000500       ??0_System_error@std@@IAE@Verror_code@1@ABV?$basic_string@DU?$char_traits@D@std@@V?$allocator@D@2@@1@@Z 00401500 f i TServerSystem:TServerSystem.obj
 0001:00000720       ??_E_System_error@std@@UAEPAXI@Z 00401720 f i * CIL library *:* CIL module *
 0001:00000720       ??_Efailure@ios_base@std@@UAEPAXI@Z 00401720 f i * CIL library *:* CIL module *
 0001:00000720       ??_Esystem_error@std@@UAEPAXI@Z 00401720 f i * CIL library *:* CIL module *
 0001:00000720       ??_G_System_error@std@@UAEPAXI@Z 00401720 f i TServerSystem:TServerSystem.obj
 0001:00000720       ??_Gfailure@ios_base@std@@UAEPAXI@Z 00401720 f i TServerSystem:TServerSystem.obj
 0001:00000720       ??_Gsystem_error@std@@UAEPAXI@Z 00401720 f i TServerSystem:TServerSystem.obj
 0001:00000750       ??0system_error@std@@QAE@ABV01@@Z 00401750 f i TServerSystem:TServerSystem.obj
 0001:000007a0       ??0_System_error@std@@QAE@ABV01@@Z 004017a0 f i TServerSystem:TServerSystem.obj
 0001:000007f0       ?name@_Iostream_error_category2@std@@UBEPBDXZ 004017f0 f i TServerSystem:TServerSystem.obj
 0001:00000800       ?message@_Iostream_error_category2@std@@UBE?AV?$basic_string@DU?$char_traits@D@std@@V?$allocator@D@2@@2@H@Z 00401800 f i TServerSystem:TServerSystem.obj
 0001:00000880       ??_E_Iostream_error_category2@std@@UAEPAXI@Z 00401880 f i * CIL library *:* CIL module *
 0001:00000880       ??_G_Iostream_error_category2@std@@UAEPAXI@Z 00401880 f i TServerSystem:TServerSystem.obj
 0001:000008a0       ??_E_Facet_base@std@@UAEPAXI@Z 004018a0 f i * CIL library *:* CIL module *
 0001:000008a0       ??_G_Facet_base@std@@UAEPAXI@Z 004018a0 f i TServerSystem:TServerSystem.obj
 0001:000008d0       ??0_Locinfo@std@@QAE@PBD@Z 004018d0 f i TServerSystem:TServerSystem.obj
 0001:00000980       ??1_Locinfo@std@@QAE@XZ    00401980 f i TServerSystem:TServerSystem.obj
 0001:00000a60       ?_Incref@facet@locale@std@@UAEXXZ 00401a60 f i TServerSystem:TServerSystem.obj
 0001:00000a70       ?_Decref@facet@locale@std@@UAEPAV_Facet_base@3@XZ 00401a70 f i TServerSystem:TServerSystem.obj
 0001:00000a90       ??1locale@std@@QAE@XZ      00401a90 f i TServerSystem:TServerSystem.obj
 0001:00000ab0       ?GetNumParam@CSPAgreement@@UAEHXZ 00401ab0 f i DBAccess.obj
 0001:00000ab0       ?GetNumParam@CSPGetNation@@UAEHXZ 00401ab0 f i DBAccess.obj
 0001:00000ab0       ?GetNumParam@CTBLChannel@@UAEHXZ 00401ab0 f i DBAccess.obj
 0001:00000ab0       ?GetNumParam@CTBLChar@@UAEHXZ 00401ab0 f i DBAccess.obj
 0001:00000ab0       ?GetNumParam@CTBLGroupList@@UAEHXZ 00401ab0 f i DBAccess.obj
 0001:00000ab0       ?do_encoding@codecvt_base@std@@MBEHXZ 00401ab0 f i TServerSystem:TServerSystem.obj
 0001:00000ab0       ?do_max_length@codecvt_base@std@@MBEHXZ 00401ab0 f i TServerSystem:TServerSystem.obj
 0001:00000ac0       ?do_tolower@?$ctype@D@std@@MBEDD@Z 00401ac0 f i TServerSystem:TServerSystem.obj
 0001:00000ae0       ?do_tolower@?$ctype@D@std@@MBEPBDPADPBD@Z 00401ae0 f i TServerSystem:TServerSystem.obj
 0001:00000b10       ?do_toupper@?$ctype@D@std@@MBEDD@Z 00401b10 f i TServerSystem:TServerSystem.obj
 0001:00000b30       ?do_toupper@?$ctype@D@std@@MBEPBDPADPBD@Z 00401b30 f i TServerSystem:TServerSystem.obj
 0001:00000b60       ?do_widen@?$ctype@D@std@@MBEDD@Z 00401b60 f i TServerSystem:TServerSystem.obj
 0001:00000b70       ?do_widen@?$ctype@D@std@@MBEPBDPBD0PAD@Z 00401b70 f i TServerSystem:TServerSystem.obj
 0001:00000ba0       ?do_narrow@?$ctype@D@std@@MBEDDD@Z 00401ba0 f i TServerSystem:TServerSystem.obj
 0001:00000bb0       ?do_narrow@?$ctype@D@std@@MBEPBDPBD0DPAD@Z 00401bb0 f i TServerSystem:TServerSystem.obj
 0001:00000be0       ??_E?$ctype@D@std@@MAEPAXI@Z 00401be0 f i * CIL library *:* CIL module *
 0001:00000be0       ??_G?$ctype@D@std@@MAEPAXI@Z 00401be0 f i TServerSystem:TServerSystem.obj
 0001:00000c40       ??0failure@ios_base@std@@QAE@PBDABVerror_code@2@@Z 00401c40 f i TServerSystem:TServerSystem.obj
 0001:00000d30       ?clear@ios_base@std@@QAEXH_N@Z 00401d30 f i TServerSystem:TServerSystem.obj
 0001:00000db0       ??0failure@ios_base@std@@QAE@ABV012@@Z 00401db0 f i TServerSystem:TServerSystem.obj
 0001:00000e00       ??_Eios_base@std@@UAEPAXI@Z 00401e00 f i * CIL library *:* CIL module *
 0001:00000e00       ??_Gios_base@std@@UAEPAXI@Z 00401e00 f i TServerSystem:TServerSystem.obj
 0001:00000e70       ?_Throw_tree_length_error@std@@YAXXZ 00401e70 f i TServerSystem:TServerSystem.obj
 0001:00000e80       ??$_Fputc@D@std@@YA_NDPAU_iobuf@@@Z 00401e80 f i TServerSystem:TServerSystem.obj
 0001:00000ea0       ??0TServerSystem@@QAE@V?$basic_string@DU?$char_traits@D@std@@V?$allocator@D@2@@std@@0@Z 00401ea0 f   TServerSystem:TServerSystem.obj
 0001:000013d0       ??1TServerSystem@@QAE@XZ   004023d0 f   TServerSystem:TServerSystem.obj
 0001:00001510       ?SSLogInfo@TServerSystem@@IAEXV?$basic_string@DU?$char_traits@D@std@@V?$allocator@D@2@@std@@H@Z 00402510 f   TServerSystem:TServerSystem.obj
 0001:00001650       ?SSLogInfo@TServerSystem@@IAEXPADH@Z 00402650 f   TServerSystem:TServerSystem.obj
 0001:000016b0       ?SSLogEvent@TServerSystem@@IAAXIPBDZZ 004026b0 f   TServerSystem:TServerSystem.obj
 0001:000017c0       ?SSLogError@TServerSystem@@IAEXV?$basic_string@DU?$char_traits@D@std@@V?$allocator@D@2@@std@@H@Z 004027c0 f   TServerSystem:TServerSystem.obj
 0001:00001900       ?DisplayIni@TServerSystem@@IAEXXZ 00402900 f   TServerSystem:TServerSystem.obj
 0001:00001d10       ?LoadIntFromIni@TServerSystem@@IAEXV?$basic_string@DU?$char_traits@D@std@@V?$allocator@D@2@@std@@HAAH@Z 00402d10 f   TServerSystem:TServerSystem.obj
 0001:000020e0       ?LoadStringFromIni@TServerSystem@@IAEXV?$basic_string@DU?$char_traits@D@std@@V?$allocator@D@2@@std@@0AAV23@@Z 004030e0 f   TServerSystem:TServerSystem.obj
 0001:00002380       ?OnEnter@TServerSystem@@MAEKXZ 00403380 f   TServerSystem:TServerSystem.obj
 0001:00002390       ?OnExit@TServerSystem@@MAEXXZ 00403390 f   TServerSystem:TServerSystem.obj
 0001:000023d0       ?StartServer@TServerSystem@@QAEXXZ 004033d0 f   TServerSystem:TServerSystem.obj
 0001:00002420       ?ExitServer@TServerSystem@@QAEXXZ 00403420 f   TServerSystem:TServerSystem.obj
 0001:00002430       ?StartupError@TServerSystem@@IAEXK@Z 00403430 f   TServerSystem:TServerSystem.obj
 0001:00002600       ??1?$vector@V?$basic_string@DU?$char_traits@D@std@@V?$allocator@D@2@@std@@V?$allocator@V?$basic_string@DU?$char_traits@D@std@@V?$allocator@D@2@@std@@@2@@std@@QAE@XZ 00403600 f i TServerSystem:TServerSystem.obj
 0001:00002610       ??0?$vector@V?$basic_string@DU?$char_traits@D@std@@V?$allocator@D@2@@std@@V?$allocator@V?$basic_string@DU?$char_traits@D@std@@V?$allocator@D@2@@std@@@2@@std@@QAE@ABV01@@Z 00403610 f i TServerSystem:TServerSystem.obj
 0001:00002760       ?imbue@?$basic_filebuf@DU?$char_traits@D@std@@@std@@MAEXABVlocale@2@@Z 00403760 f i TServerSystem:TServerSystem.obj
 0001:00002780       ?sync@?$basic_filebuf@DU?$char_traits@D@std@@@std@@MAEHXZ 00403780 f i TServerSystem:TServerSystem.obj
 0001:000027b0       ?setbuf@?$basic_filebuf@DU?$char_traits@D@std@@@std@@MAEPAV?$basic_streambuf@DU?$char_traits@D@std@@@2@PAD_J@Z 004037b0 f i TServerSystem:TServerSystem.obj
 0001:00002810       ?seekpos@?$basic_filebuf@DU?$char_traits@D@std@@@std@@MAE?AV?$fpos@U_Mbstatet@@@2@V32@H@Z 00403810 f i TServerSystem:TServerSystem.obj
 0001:000028f0       ?seekoff@?$basic_filebuf@DU?$char_traits@D@std@@@std@@MAE?AV?$fpos@U_Mbstatet@@@2@_JHH@Z 004038f0 f i TServerSystem:TServerSystem.obj
 0001:00002a10       ?xsputn@?$basic_filebuf@DU?$char_traits@D@std@@@std@@MAE_JPBD_J@Z 00403a10 f i TServerSystem:TServerSystem.obj
 0001:00002bd0       ?xsgetn@?$basic_filebuf@DU?$char_traits@D@std@@@std@@MAE_JPAD_J@Z 00403bd0 f i TServerSystem:TServerSystem.obj
 0001:00002d90       ?uflow@?$basic_filebuf@DU?$char_traits@D@std@@@std@@MAEHXZ 00403d90 f i TServerSystem:TServerSystem.obj
 0001:00003000       ?underflow@?$basic_filebuf@DU?$char_traits@D@std@@@std@@MAEHXZ 00404000 f i TServerSystem:TServerSystem.obj
 0001:00003040       ?pbackfail@?$basic_filebuf@DU?$char_traits@D@std@@@std@@MAEHH@Z 00404040 f i TServerSystem:TServerSystem.obj
 0001:000030f0       ?overflow@?$basic_filebuf@DU?$char_traits@D@std@@@std@@MAEHH@Z 004040f0 f i TServerSystem:TServerSystem.obj
 0001:00003270       ?_Unlock@?$basic_filebuf@DU?$char_traits@D@std@@@std@@UAEXXZ 00404270 f i TServerSystem:TServerSystem.obj
 0001:00003280       ?_Lock@?$basic_filebuf@DU?$char_traits@D@std@@@std@@UAEXXZ 00404280 f i TServerSystem:TServerSystem.obj
 0001:00003290       ??1?$basic_filebuf@DU?$char_traits@D@std@@@std@@UAE@XZ 00404290 f i TServerSystem:TServerSystem.obj
 0001:000033e0       ?OnERROR@CTLoginSvrModule@@MAEXK@Z 004043e0 f i TLoginSvr.obj
 0001:000033e0       ?imbue@?$basic_streambuf@DU?$char_traits@D@std@@@std@@MAEXABVlocale@2@@Z 004043e0 f i TServerSystem:TServerSystem.obj
 0001:000033f0       ?BindColumns@CSqlQuery@@UAEFXZ 004043f0 f i TNetLib:SqlQuery.obj
 0001:000033f0       ?GetNumCol@CSqlBase@@UAEHXZ 004043f0 f i TNetLib:SqlBase.obj
 0001:000033f0       ?GetNumParam@CSqlBase@@UAEHXZ 004043f0 f i TNetLib:SqlBase.obj
 0001:000033f0       ?sync@?$basic_streambuf@DU?$char_traits@D@std@@@std@@MAEHXZ 004043f0 f i TServerSystem:TServerSystem.obj
 0001:000033f0       ___scrt_exe_initialize_mta 004043f0 f i LIBCMT:utility_desktop.obj
 0001:000033f0       ___scrt_initialize_winrt   004043f0 f i LIBCMT:utility_desktop.obj
 0001:000033f0       ___scrt_stub_for_initialize_mta 004043f0 f i LIBCMT:utility_desktop.obj
 0001:000033f0       __get_startup_commit_mode  004043f0 f i LIBCMT:commit_mode.obj
 0001:000033f0       __get_startup_new_mode     004043f0 f i LIBCMT:new_mode.obj
 0001:000033f0       __get_startup_thread_locale_mode 004043f0 f i LIBCMT:thread_locale.obj
 0001:000033f0       __matherr                  004043f0 f i LIBCMT:matherr.obj
 0001:00003400       ?setbuf@?$basic_streambuf@DU?$char_traits@D@std@@@std@@MAEPAV12@PAD_J@Z 00404400 f i TServerSystem:TServerSystem.obj
 0001:00003410       ?seekpos@?$basic_streambuf@DU?$char_traits@D@std@@@std@@MAE?AV?$fpos@U_Mbstatet@@@2@V32@H@Z 00404410 f i TServerSystem:TServerSystem.obj
 0001:00003440       ?seekoff@?$basic_streambuf@DU?$char_traits@D@std@@@std@@MAE?AV?$fpos@U_Mbstatet@@@2@_JHH@Z 00404440 f i TServerSystem:TServerSystem.obj
 0001:00003470       ?xsputn@?$basic_streambuf@DU?$char_traits@D@std@@@std@@MAE_JPBD_J@Z 00404470 f i TServerSystem:TServerSystem.obj
 0001:00003550       ?xsgetn@?$basic_streambuf@DU?$char_traits@D@std@@@std@@MAE_JPAD_J@Z 00404550 f i TServerSystem:TServerSystem.obj
 0001:00003630       ?uflow@?$basic_streambuf@DU?$char_traits@D@std@@@std@@MAEHXZ 00404630 f i TServerSystem:TServerSystem.obj
 0001:00003660       ?underflow@?$basic_streambuf@DU?$char_traits@D@std@@@std@@MAEHXZ 00404660 f i TServerSystem:TServerSystem.obj
 0001:00003670       ?showmanyc@?$basic_streambuf@DU?$char_traits@D@std@@@std@@MAE_JXZ 00404670 f i TServerSystem:TServerSystem.obj
 0001:00003680       ?overflow@?$basic_streambuf@DU?$char_traits@D@std@@@std@@MAEHH@Z 00404680 f i TServerSystem:TServerSystem.obj
 0001:00003680       ?pbackfail@?$basic_streambuf@DU?$char_traits@D@std@@@std@@MAEHH@Z 00404680 f i TServerSystem:TServerSystem.obj
 0001:00003690       ?_Lock@?$basic_streambuf@DU?$char_traits@D@std@@@std@@UAEXXZ 00404690 f i TServerSystem:TServerSystem.obj
 0001:00003690       ?_Unlock@?$basic_streambuf@DU?$char_traits@D@std@@@std@@UAEXXZ 00404690 f i TServerSystem:TServerSystem.obj
 0001:00003690       @_guard_check_icall_nop@4  00404690 f i LIBCMT:guard_support.obj
 0001:00003690       __initialize_denormal_control 00404690 f i LIBCMT:denormal_control.obj
 0001:00003690       __initialize_invalid_parameter_handler 00404690 f i LIBCMT:invalid_parameter_handler.obj
 0001:000036a0       ??1?$basic_ios@DU?$char_traits@D@std@@@std@@UAE@XZ 004046a0 f i TServerSystem:TServerSystem.obj
 0001:000036f0       ??1?$vector@V?$vector@V?$basic_string@DU?$char_traits@D@std@@V?$allocator@D@2@@std@@V?$allocator@V?$basic_string@DU?$char_traits@D@std@@V?$allocator@D@2@@std@@@2@@std@@V?$allocator@V?$vector@V?$basic_string@DU?$char_traits@D@std@@V?$allocator@D@2@@std@@V?$allocator@V?$basic_string@DU?$char_traits@D@std@@V?$allocator@D@2@@std@@@2@@std@@@2@@std@@QAE@XZ 004046f0 f i TServerSystem:TServerSystem.obj
 0001:00003770       ??1?$_Yarn@D@std@@QAE@XZ   00404770 f i TServerSystem:TServerSystem.obj
 0001:00003770       ??1?$_Yarn@_W@std@@QAE@XZ  00404770 f i TServerSystem:TServerSystem.obj
 0001:00003790       ??1?$basic_string@DU?$char_traits@D@std@@V?$allocator@D@2@@std@@QAE@XZ 00404790 f i TServerSystem:TServerSystem.obj
 0001:00003790       ??1?$pair@$$CBV?$basic_string@DU?$char_traits@D@std@@V?$allocator@D@2@@std@@PAVCSqlQuery@@@std@@QAE@XZ 00404790 f i TNetLib:SqlDatabase.obj
 0001:000037e0       ??4?$basic_string@DU?$char_traits@D@std@@V?$allocator@D@2@@std@@QAEAAV01@$$QAV01@@Z 004047e0 f i TServerSystem:TServerSystem.obj
 0001:00003860       ??0?$basic_string@DU?$char_traits@D@std@@V?$allocator@D@2@@std@@QAE@QBD@Z 00404860 f i TServerSystem:TServerSystem.obj
 0001:000038a0       ??0?$basic_string@DU?$char_traits@D@std@@V?$allocator@D@2@@std@@QAE@ABV01@@Z 004048a0 f i TServerSystem:TServerSystem.obj
 0001:00003950       ??_E?$basic_filebuf@DU?$char_traits@D@std@@@std@@UAEPAXI@Z 00404950 f i * CIL library *:* CIL module *
 0001:00003950       ??_G?$basic_filebuf@DU?$char_traits@D@std@@@std@@UAEPAXI@Z 00404950 f i TServerSystem:TServerSystem.obj
 0001:00003980       ??_E?$basic_streambuf@DU?$char_traits@D@std@@@std@@UAEPAXI@Z 00404980 f i * CIL library *:* CIL module *
 0001:00003980       ??_G?$basic_streambuf@DU?$char_traits@D@std@@@std@@UAEPAXI@Z 00404980 f i TServerSystem:TServerSystem.obj
 0001:000039d0       ??_E?$basic_ostream@DU?$char_traits@D@std@@@std@@UAEPAXI@Z 004049d0 f i * CIL library *:* CIL module *
 0001:000039d0       ??_G?$basic_ostream@DU?$char_traits@D@std@@@std@@UAEPAXI@Z 004049d0 f i TServerSystem:TServerSystem.obj
 0001:00003a60       ??_E?$basic_ios@DU?$char_traits@D@std@@@std@@UAEPAXI@Z 00404a60 f i * CIL library *:* CIL module *
 0001:00003a60       ??_G?$basic_ios@DU?$char_traits@D@std@@@std@@UAEPAXI@Z 00404a60 f i TServerSystem:TServerSystem.obj
 0001:00003ad0       ??_D?$basic_ostream@DU?$char_traits@D@std@@@std@@QAEXXZ 00404ad0 f i TServerSystem:TServerSystem.obj
 0001:00003b40       ??1sentry@?$basic_ostream@DU?$char_traits@D@std@@@std@@QAE@XZ 00404b40 f i TServerSystem:TServerSystem.obj
 0001:00003bb0       ??0sentry@?$basic_ostream@DU?$char_traits@D@std@@@std@@QAE@AAV12@@Z 00404bb0 f i TServerSystem:TServerSystem.obj
 0001:00003c50       ?do_length@?$codecvt@DDU_Mbstatet@@@std@@MBEHAAU_Mbstatet@@PBD1I@Z 00404c50 f i TServerSystem:TServerSystem.obj
 0001:00003c70       ?do_unshift@?$codecvt@DDU_Mbstatet@@@std@@MBEHAAU_Mbstatet@@PAD1AAPAD@Z 00404c70 f i TServerSystem:TServerSystem.obj
 0001:00003c90       ?do_in@?$codecvt@DDU_Mbstatet@@@std@@MBEHAAU_Mbstatet@@PBD1AAPBDPAD3AAPAD@Z 00404c90 f i TServerSystem:TServerSystem.obj
 0001:00003c90       ?do_out@?$codecvt@DDU_Mbstatet@@@std@@MBEHAAU_Mbstatet@@PBD1AAPBDPAD3AAPAD@Z 00404c90 f i TServerSystem:TServerSystem.obj
 0001:00003cb0       ?do_always_noconv@?$codecvt@DDU_Mbstatet@@@std@@MBE_NXZ 00404cb0 f i TServerSystem:TServerSystem.obj
 0001:00003cb0       ___acrt_uninitialize_command_line 00404cb0 f i libucrt:argv_data.obj
 0001:00003cb0       __should_initialize_environment 00404cb0 f i LIBCMT:env_mode.obj
 0001:00003cc0       ?_Xrange@?$vector@V?$basic_string@DU?$char_traits@D@std@@V?$allocator@D@2@@std@@V?$allocator@V?$basic_string@DU?$char_traits@D@std@@V?$allocator@D@2@@std@@@2@@std@@CAXXZ 00404cc0 f i TServerSystem:TServerSystem.obj
 0001:00003cc0       ?_Xrange@?$vector@V?$vector@V?$basic_string@DU?$char_traits@D@std@@V?$allocator@D@2@@std@@V?$allocator@V?$basic_string@DU?$char_traits@D@std@@V?$allocator@D@2@@std@@@2@@std@@V?$allocator@V?$vector@V?$basic_string@DU?$char_traits@D@std@@V?$allocator@D@2@@std@@V?$allocator@V?$basic_string@DU?$char_traits@D@std@@V?$allocator@D@2@@std@@@2@@std@@@2@@std@@CAXXZ 00404cc0 f i TServerSystem:TServerSystem.obj
 0001:00003cd0       ?_Tidy@?$vector@V?$basic_string@DU?$char_traits@D@std@@V?$allocator@D@2@@std@@V?$allocator@V?$basic_string@DU?$char_traits@D@std@@V?$allocator@D@2@@std@@@2@@std@@AAEXXZ 00404cd0 f i TServerSystem:TServerSystem.obj
 0001:00003d40       ?_Initcvt@?$basic_filebuf@DU?$char_traits@D@std@@@std@@IAEXABV?$codecvt@DDU_Mbstatet@@@2@@Z 00404d40 f i TServerSystem:TServerSystem.obj
 0001:00003dd0       ?_Endwrite@?$basic_filebuf@DU?$char_traits@D@std@@@std@@IAE_NXZ 00404dd0 f i TServerSystem:TServerSystem.obj
 0001:00003ea0       ?_Init@?$basic_filebuf@DU?$char_traits@D@std@@@std@@IAEXPAU_iobuf@@W4_Initfl@12@@Z 00404ea0 f i TServerSystem:TServerSystem.obj
 0001:00003fb0       ?_Pnavail@?$basic_streambuf@DU?$char_traits@D@std@@@std@@IBE_JXZ 00404fb0 f i TServerSystem:TServerSystem.obj
 0001:00003fd0       ?_Gnavail@?$basic_streambuf@DU?$char_traits@D@std@@@std@@IBE_JXZ 00404fd0 f i TServerSystem:TServerSystem.obj
 0001:00003ff0       ??0?$basic_ostream@DU?$char_traits@D@std@@@std@@QAE@PAV?$basic_streambuf@DU?$char_traits@D@std@@@1@_N@Z 00404ff0 f i TServerSystem:TServerSystem.obj
 0001:000041a0       ?setstate@?$basic_ios@DU?$char_traits@D@std@@@std@@QAEXH_N@Z 004051a0 f i TServerSystem:TServerSystem.obj
 0001:000041d0       ??_E?$codecvt@DDU_Mbstatet@@@std@@MAEPAXI@Z 004051d0 f i * CIL library *:* CIL module *
 0001:000041d0       ??_G?$codecvt@DDU_Mbstatet@@@std@@MAEPAXI@Z 004051d0 f i TServerSystem:TServerSystem.obj
 0001:00004200       ??1_Sentry_base@?$basic_istream@DU?$char_traits@D@std@@@std@@QAE@XZ 00405200 f i mailer.obj
 0001:00004200       ??1_Sentry_base@?$basic_ostream@DU?$char_traits@D@std@@@std@@QAE@XZ 00405200 f i TServerSystem:TServerSystem.obj
 0001:00004250       ?deallocate@?$allocator@V?$basic_string@DU?$char_traits@D@std@@V?$allocator@D@2@@std@@@std@@QAEXQAV?$basic_string@DU?$char_traits@D@std@@V?$allocator@D@2@@2@I@Z 00405250 f i TServerSystem:TServerSystem.obj
 0001:00004290       ??0?$basic_streambuf@DU?$char_traits@D@std@@@std@@IAE@XZ 00405290 f i TServerSystem:TServerSystem.obj
 0001:00004360       ?flush@?$basic_ostream@DU?$char_traits@D@std@@@std@@QAEAAV12@XZ 00405360 f i TServerSystem:TServerSystem.obj
 0001:00004470       ?_Osfx@?$basic_ostream@DU?$char_traits@D@std@@@std@@QAEXXZ 00405470 f i TServerSystem:TServerSystem.obj
 0001:00004500       ?deallocate@?$allocator@V?$vector@V?$basic_string@DU?$char_traits@D@std@@V?$allocator@D@2@@std@@V?$allocator@V?$basic_string@DU?$char_traits@D@std@@V?$allocator@D@2@@std@@@2@@std@@@std@@QAEXQAV?$vector@V?$basic_string@DU?$char_traits@D@std@@V?$allocator@D@2@@std@@V?$allocator@V?$basic_string@DU?$char_traits@D@std@@V?$allocator@D@2@@std@@@2@@2@I@Z 00405500 f i TServerSystem:TServerSystem.obj
 0001:00004540       ?assign@?$basic_string@DU?$char_traits@D@std@@V?$allocator@D@2@@std@@QAEAAV12@QBDI@Z 00405540 f i TServerSystem:TServerSystem.obj
 0001:00004670       ??$use_facet@V?$ctype@D@std@@@std@@YAABV?$ctype@D@0@ABVlocale@0@@Z 00405670 f i TServerSystem:TServerSystem.obj
 0001:00004800       ??$_Integral_to_string@DH@std@@YA?AV?$basic_string@DU?$char_traits@D@std@@V?$allocator@D@2@@0@H@Z 00405800 f i TServerSystem:TServerSystem.obj
 0001:00004950       ??1?$CSimpleIniTempl@DU?$SI_NoCase@D@@V?$SI_ConvertA@D@@@@QAE@XZ 00405950 f i TServerSystem:TServerSystem.obj
 0001:000049b0       ??$?6U?$char_traits@D@std@@@std@@YAAAV?$basic_ostream@DU?$char_traits@D@std@@@0@AAV10@PBD@Z 004059b0 f i TServerSystem:TServerSystem.obj
 0001:00004c50       ??$endl@DU?$char_traits@D@std@@@std@@YAAAV?$basic_ostream@DU?$char_traits@D@std@@@0@AAV10@@Z 00405c50 f i TServerSystem:TServerSystem.obj
 0001:00004cf0       ??$use_facet@V?$codecvt@DDU_Mbstatet@@@std@@@std@@YAABV?$codecvt@DDU_Mbstatet@@@0@ABVlocale@0@@Z 00405cf0 f i TServerSystem:TServerSystem.obj
 0001:00004e50       ??$_Construct@$00PBD@?$basic_string@DU?$char_traits@D@std@@V?$allocator@D@2@@std@@AAEXQBDI@Z 00405e50 f i TServerSystem:TServerSystem.obj
 0001:00004ef0       ??$_Destroy_range@V?$allocator@V?$basic_string@DU?$char_traits@D@std@@V?$allocator@D@2@@std@@@std@@@std@@YAXPAV?$basic_string@DU?$char_traits@D@std@@V?$allocator@D@2@@0@QAV10@AAV?$allocator@V?$basic_string@DU?$char_traits@D@std@@V?$allocator@D@2@@std@@@0@@Z 00405ef0 f i TServerSystem:TServerSystem.obj
 0001:00004f60       ??$_Destroy_range@V?$allocator@V?$vector@V?$basic_string@DU?$char_traits@D@std@@V?$allocator@D@2@@std@@V?$allocator@V?$basic_string@DU?$char_traits@D@std@@V?$allocator@D@2@@std@@@2@@std@@@std@@@std@@YAXPAV?$vector@V?$basic_string@DU?$char_traits@D@std@@V?$allocator@D@2@@std@@V?$allocator@V?$basic_string@DU?$char_traits@D@std@@V?$allocator@D@2@@std@@@2@@0@QAV10@AAV?$allocator@V?$vector@V?$basic_string@DU?$char_traits@D@std@@V?$allocator@D@2@@std@@V?$allocator@V?$basic_string@DU?$char_traits@D@std@@V?$allocator@D@2@@std@@@2@@std@@@0@@Z 00405f60 f i TServerSystem:TServerSystem.obj
 0001:00004f90       ??$_Reallocate_grow_by@V<lambda_1>@?1??push_back@?$basic_string@DU?$char_traits@D@std@@V?$allocator@D@2@@std@@QAEXD@Z@D@?$basic_string@DU?$char_traits@D@std@@V?$allocator@D@2@@std@@AAEAAV01@IV<lambda_1>@?1??push_back@01@QAEXD@Z@D@Z 00405f90 f i TServerSystem:TServerSystem.obj
 0001:000050d0       ??$_Reallocate_grow_by@V<lambda_1>@?1??append@?$basic_string@DU?$char_traits@D@std@@V?$allocator@D@2@@std@@QAEAAV34@QBDI@Z@PBDI@?$basic_string@DU?$char_traits@D@std@@V?$allocator@D@2@@std@@AAEAAV01@IV<lambda_1>@?1??append@01@QAEAAV01@QBDI@Z@PBDI@Z 004060d0 f i TServerSystem:TServerSystem.obj
 0001:00005230       ??1?$map@UEntry@?$CSimpleIniTempl@DU?$SI_NoCase@D@@V?$SI_ConvertA@D@@@@V?$multimap@UEntry@?$CSimpleIniTempl@DU?$SI_NoCase@D@@V?$SI_ConvertA@D@@@@PBDUKeyOrder@12@V?$allocator@U?$pair@$$CBUEntry@?$CSimpleIniTempl@DU?$SI_NoCase@D@@V?$SI_ConvertA@D@@@@PBD@std@@@std@@@std@@UKeyOrder@12@V?$allocator@U?$pair@$$CBUEntry@?$CSimpleIniTempl@DU?$SI_NoCase@D@@V?$SI_ConvertA@D@@@@V?$multimap@UEntry@?$CSimpleIniTempl@DU?$SI_NoCase@D@@V?$SI_ConvertA@D@@@@PBDUKeyOrder@12@V?$allocator@U?$pair@$$CBUEntry@?$CSimpleIniTempl@DU?$SI_NoCase@D@@V?$SI_ConvertA@D@@@@PBD@std@@@std@@@std@@@std@@@4@@std@@QAE@XZ 00406230 f i TServerSystem:TServerSystem.obj
 0001:00005250       ??1?$_Tidy_guard@V?$vector@V?$basic_string@DU?$char_traits@D@std@@V?$allocator@D@2@@std@@V?$allocator@V?$basic_string@DU?$char_traits@D@std@@V?$allocator@D@2@@std@@@2@@std@@@std@@QAE@XZ 00406250 f i TServerSystem:TServerSystem.obj
 0001:00005260       ?sputn@?$basic_streambuf@DU?$char_traits@D@std@@@std@@QAE_JPBD_J@Z 00406260 f i TServerSystem:TServerSystem.obj
 0001:00005280       ?put@?$basic_ostream@DU?$char_traits@D@std@@@std@@QAEAAV12@D@Z 00406280 f i TServerSystem:TServerSystem.obj
 0001:00005410       ??1?$unique_ptr@V_Facet_base@std@@U?$default_delete@V_Facet_base@std@@@2@@std@@QAE@XZ 00406410 f i TServerSystem:TServerSystem.obj
 0001:00005420       ??0?$basic_string@DU?$char_traits@D@std@@V?$allocator@D@2@@std@@QAE@U_String_constructor_concat_tag@1@ABV01@QBDI2I@Z 00406420 f i TServerSystem:TServerSystem.obj
 0001:00005520       ?allocate@?$allocator@D@std@@QAEPADI@Z 00406520 f i TServerSystem:TServerSystem.obj
 0001:00005580       ?_Xlength@?$vector@GV?$allocator@G@std@@@std@@CAXXZ 00406580 f i CSHandler.obj
 0001:00005580       ?_Xlength@?$vector@PAUtagTCHAR@@V?$allocator@PAUtagTCHAR@@@std@@@std@@CAXXZ 00406580 f i CSHandler.obj
 0001:00005580       ?_Xlength@?$vector@PAUtagTITEM@@V?$allocator@PAUtagTITEM@@@std@@@std@@CAXXZ 00406580 f i CSHandler.obj
 0001:00005580       ?_Xlength@?$vector@UtagLOTTERY@@V?$allocator@UtagLOTTERY@@@std@@@std@@CAXXZ 00406580 f i CSHandler.obj
 0001:00005580       ?_Xlength@?$vector@UtagMONREGEN@@V?$allocator@UtagMONREGEN@@@std@@@std@@CAXXZ 00406580 f i CSHandler.obj
 0001:00005580       ?_Xlength@?$vector@UtagTCASHITEMSALE@@V?$allocator@UtagTCASHITEMSALE@@@std@@@std@@CAXXZ 00406580 f i CSHandler.obj
 0001:00005580       ?_Xlength@?$vector@UtagTVETERAN@@V?$allocator@UtagTVETERAN@@@std@@@std@@CAXXZ 00406580 f i TLoginSvr.obj
 0001:00005580       ?_Xlength@?$vector@V?$basic_string@DU?$char_traits@D@std@@V?$allocator@D@2@@std@@V?$allocator@V?$basic_string@DU?$char_traits@D@std@@V?$allocator@D@2@@std@@@2@@std@@CAXXZ 00406580 f i TServerSystem:TServerSystem.obj
 0001:00005580       ?_Xlength@?$vector@V?$vector@V?$basic_string@DU?$char_traits@D@std@@V?$allocator@D@2@@std@@V?$allocator@V?$basic_string@DU?$char_traits@D@std@@V?$allocator@D@2@@std@@@2@@std@@V?$allocator@V?$vector@V?$basic_string@DU?$char_traits@D@std@@V?$allocator@D@2@@std@@V?$allocator@V?$basic_string@DU?$char_traits@D@std@@V?$allocator@D@2@@std@@@2@@std@@@2@@std@@CAXXZ 00406580 f i TServerSystem:TServerSystem.obj
 0001:00005590       ?allocate@?$allocator@UtagMONREGEN@@@std@@QAEPAUtagMONREGEN@@I@Z 00406590 f i CSHandler.obj
 0001:00005590       ?allocate@?$allocator@V?$basic_string@DU?$char_traits@D@std@@V?$allocator@D@2@@std@@@std@@QAEPAV?$basic_string@DU?$char_traits@D@std@@V?$allocator@D@2@@2@I@Z 00406590 f i TServerSystem:TServerSystem.obj
 0001:000055f0       ?Reset@?$CSimpleIniTempl@DU?$SI_NoCase@D@@V?$SI_ConvertA@D@@@@QAEXXZ 004065f0 f i TServerSystem:TServerSystem.obj
 0001:00005750       ??$_Insert_string@DU?$char_traits@D@std@@I@std@@YAAAV?$basic_ostream@DU?$char_traits@D@std@@@0@AAV10@QBDI@Z 00406750 f i TServerSystem:TServerSystem.obj
 0001:000059a0       ??$_Emplace_reallocate@V?$basic_string@DU?$char_traits@D@std@@V?$allocator@D@2@@std@@@?$vector@V?$basic_string@DU?$char_traits@D@std@@V?$allocator@D@2@@std@@V?$allocator@V?$basic_string@DU?$char_traits@D@std@@V?$allocator@D@2@@std@@@2@@std@@AAEPAV?$basic_string@DU?$char_traits@D@std@@V?$allocator@D@2@@1@QAV21@$$QAV21@@Z 004069a0 f i TServerSystem:TServerSystem.obj
 0001:00005ac0       ??$_Emplace_reallocate@ABV?$basic_string@DU?$char_traits@D@std@@V?$allocator@D@2@@std@@@?$vector@V?$basic_string@DU?$char_traits@D@std@@V?$allocator@D@2@@std@@V?$allocator@V?$basic_string@DU?$char_traits@D@std@@V?$allocator@D@2@@std@@@2@@std@@AAEPAV?$basic_string@DU?$char_traits@D@std@@V?$allocator@D@2@@1@QAV21@ABV21@@Z 00406ac0 f i TServerSystem:TServerSystem.obj
 0001:00005c10       ??$_Emplace_reallocate@ABV?$vector@V?$basic_string@DU?$char_traits@D@std@@V?$allocator@D@2@@std@@V?$allocator@V?$basic_string@DU?$char_traits@D@std@@V?$allocator@D@2@@std@@@2@@std@@@?$vector@V?$vector@V?$basic_string@DU?$char_traits@D@std@@V?$allocator@D@2@@std@@V?$allocator@V?$basic_string@DU?$char_traits@D@std@@V?$allocator@D@2@@std@@@2@@std@@V?$allocator@V?$vector@V?$basic_string@DU?$char_traits@D@std@@V?$allocator@D@2@@std@@V?$allocator@V?$basic_string@DU?$char_traits@D@std@@V?$allocator@D@2@@std@@@2@@std@@@2@@std@@AAEPAV?$vector@V?$basic_string@DU?$char_traits@D@std@@V?$allocator@D@2@@std@@V?$allocator@V?$basic_string@DU?$char_traits@D@std@@V?$allocator@D@2@@std@@@2@@1@QAV21@ABV21@@Z 00406c10 f i TServerSystem:TServerSystem.obj
 0001:00005e20       ??$_Find@UEntry@?$CSimpleIniTempl@DU?$SI_NoCase@D@@V?$SI_ConvertA@D@@@@@?$_Tree@V?$_Tmap_traits@UEntry@?$CSimpleIniTempl@DU?$SI_NoCase@D@@V?$SI_ConvertA@D@@@@PBDUKeyOrder@12@V?$allocator@U?$pair@$$CBUEntry@?$CSimpleIniTempl@DU?$SI_NoCase@D@@V?$SI_ConvertA@D@@@@PBD@std@@@std@@$00@std@@@std@@ABEPAU?$_Tree_node@U?$pair@$$CBUEntry@?$CSimpleIniTempl@DU?$SI_NoCase@D@@V?$SI_ConvertA@D@@@@PBD@std@@PAX@1@ABUEntry@?$CSimpleIniTempl@DU?$SI_NoCase@D@@V?$SI_ConvertA@D@@@@@Z 00406e20 f i TServerSystem:TServerSystem.obj
 0001:00005e90       ??1?$_Uninitialized_backout_al@V?$allocator@V?$basic_string@DU?$char_traits@D@std@@V?$allocator@D@2@@std@@@std@@@std@@QAE@XZ 00406e90 f i TServerSystem:TServerSystem.obj
 0001:00005eb0       ?_Change_array@?$vector@V?$basic_string@DU?$char_traits@D@std@@V?$allocator@D@2@@std@@V?$allocator@V?$basic_string@DU?$char_traits@D@std@@V?$allocator@D@2@@std@@@2@@std@@AAEXQAV?$basic_string@DU?$char_traits@D@std@@V?$allocator@D@2@@2@II@Z 00406eb0 f i TServerSystem:TServerSystem.obj
 0001:00005f30       ?_Extract@?$_Tree_val@U?$_Tree_simple_types@U?$pair@$$CBUEntry@?$CSimpleIniTempl@DU?$SI_NoCase@D@@V?$SI_ConvertA@D@@@@V?$multimap@UEntry@?$CSimpleIniTempl@DU?$SI_NoCase@D@@V?$SI_ConvertA@D@@@@PBDUKeyOrder@12@V?$allocator@U?$pair@$$CBUEntry@?$CSimpleIniTempl@DU?$SI_NoCase@D@@V?$SI_ConvertA@D@@@@PBD@std@@@std@@@std@@@std@@@std@@@std@@QAEPAU?$_Tree_node@U?$pair@$$CBUEntry@?$CSimpleIniTempl@DU?$SI_NoCase@D@@V?$SI_ConvertA@D@@@@V?$multimap@UEntry@?$CSimpleIniTempl@DU?$SI_NoCase@D@@V?$SI_ConvertA@D@@@@PBDUKeyOrder@12@V?$allocator@U?$pair@$$CBUEntry@?$CSimpleIniTempl@DU?$SI_NoCase@D@@V?$SI_ConvertA@D@@@@PBD@std@@@std@@@std@@@std@@PAX@2@V?$_Tree_unchecked_const_iterator@V?$_Tree_val@U?$_Tree_simple_types@U?$pair@$$CBUEntry@?$CSimpleIniTempl@DU?$SI_NoCase@D@@V?$SI_ConvertA@D@@@@V?$multimap@UEntry@?$CSimpleIniTempl@DU?$SI_NoCase@D@@V?$SI_ConvertA@D@@@@PBDUKeyOrder@12@V?$allocator@U?$pair@$$CBUEntry@?$CSimpleIniTempl@DU?$SI_NoCase@D@@V?$SI_ConvertA@D@@@@PBD@std@@@std@@@std@@@std@@@std@@@std@@U_Iterator_base0@2@@2@@Z 00406f30 f i TServerSystem:TServerSystem.obj
 0001:00006280       ?_Rrotate@?$_Tree_val@U?$_Tree_simple_types@U?$pair@$$CBKPAVCTUser@@@std@@@std@@@std@@QAEXPAU?$_Tree_node@U?$pair@$$CBKPAVCTUser@@@std@@PAX@2@@Z 00407280 f i TLoginSvr.obj
 0001:00006280       ?_Rrotate@?$_Tree_val@U?$_Tree_simple_types@U?$pair@$$CBKUtagEVENTINFO@@@std@@@std@@@std@@QAEXPAU?$_Tree_node@U?$pair@$$CBKUtagEVENTINFO@@@std@@PAX@2@@Z 00407280 f i CSHandler.obj
 0001:00006280       ?_Rrotate@?$_Tree_val@U?$_Tree_simple_types@U?$pair@$$CBUEntry@?$CSimpleIniTempl@DU?$SI_NoCase@D@@V?$SI_ConvertA@D@@@@V?$multimap@UEntry@?$CSimpleIniTempl@DU?$SI_NoCase@D@@V?$SI_ConvertA@D@@@@PBDUKeyOrder@12@V?$allocator@U?$pair@$$CBUEntry@?$CSimpleIniTempl@DU?$SI_NoCase@D@@V?$SI_ConvertA@D@@@@PBD@std@@@std@@@std@@@std@@@std@@@std@@QAEXPAU?$_Tree_node@U?$pair@$$CBUEntry@?$CSimpleIniTempl@DU?$SI_NoCase@D@@V?$SI_ConvertA@D@@@@V?$multimap@UEntry@?$CSimpleIniTempl@DU?$SI_NoCase@D@@V?$SI_ConvertA@D@@@@PBDUKeyOrder@12@V?$allocator@U?$pair@$$CBUEntry@?$CSimpleIniTempl@DU?$SI_NoCase@D@@V?$SI_ConvertA@D@@@@PBD@std@@@std@@@std@@@std@@PAX@2@@Z 00407280 f i TServerSystem:TServerSystem.obj
 0001:00006280       ?_Rrotate@?$_Tree_val@U?$_Tree_simple_types@U?$pair@$$CBV?$basic_string@DU?$char_traits@D@std@@V?$allocator@D@2@@std@@PAVCSqlQuery@@@std@@@std@@@std@@QAEXPAU?$_Tree_node@U?$pair@$$CBV?$basic_string@DU?$char_traits@D@std@@V?$allocator@D@2@@std@@PAVCSqlQuery@@@std@@PAX@2@@Z 00407280 f i TNetLib:SqlDatabase.obj
 0001:000062e0       ?_Lrotate@?$_Tree_val@U?$_Tree_simple_types@U?$pair@$$CBKPAVCTUser@@@std@@@std@@@std@@QAEXPAU?$_Tree_node@U?$pair@$$CBKPAVCTUser@@@std@@PAX@2@@Z 004072e0 f i TLoginSvr.obj
 0001:000062e0       ?_Lrotate@?$_Tree_val@U?$_Tree_simple_types@U?$pair@$$CBKUtagEVENTINFO@@@std@@@std@@@std@@QAEXPAU?$_Tree_node@U?$pair@$$CBKUtagEVENTINFO@@@std@@PAX@2@@Z 004072e0 f i CSHandler.obj
 0001:000062e0       ?_Lrotate@?$_Tree_val@U?$_Tree_simple_types@U?$pair@$$CBUEntry@?$CSimpleIniTempl@DU?$SI_NoCase@D@@V?$SI_ConvertA@D@@@@V?$multimap@UEntry@?$CSimpleIniTempl@DU?$SI_NoCase@D@@V?$SI_ConvertA@D@@@@PBDUKeyOrder@12@V?$allocator@U?$pair@$$CBUEntry@?$CSimpleIniTempl@DU?$SI_NoCase@D@@V?$SI_ConvertA@D@@@@PBD@std@@@std@@@std@@@std@@@std@@@std@@QAEXPAU?$_Tree_node@U?$pair@$$CBUEntry@?$CSimpleIniTempl@DU?$SI_NoCase@D@@V?$SI_ConvertA@D@@@@V?$multimap@UEntry@?$CSimpleIniTempl@DU?$SI_NoCase@D@@V?$SI_ConvertA@D@@@@PBDUKeyOrder@12@V?$allocator@U?$pair@$$CBUEntry@?$CSimpleIniTempl@DU?$SI_NoCase@D@@V?$SI_ConvertA@D@@@@PBD@std@@@std@@@std@@@std@@PAX@2@@Z 004072e0 f i TServerSystem:TServerSystem.obj
 0001:000062e0       ?_Lrotate@?$_Tree_val@U?$_Tree_simple_types@U?$pair@$$CBV?$basic_string@DU?$char_traits@D@std@@V?$allocator@D@2@@std@@PAVCSqlQuery@@@std@@@std@@@std@@QAEXPAU?$_Tree_node@U?$pair@$$CBV?$basic_string@DU?$char_traits@D@std@@V?$allocator@D@2@@std@@PAVCSqlQuery@@@std@@PAX@2@@Z 004072e0 f i TNetLib:SqlDatabase.obj
 0001:00006340       ?LoadData@?$CSimpleIniTempl@DU?$SI_NoCase@D@@V?$SI_ConvertA@D@@@@QAE?AW4SI_Error@@PBDI@Z 00407340 f i TServerSystem:TServerSystem.obj
 0001:000064c0       ??$_Uninitialized_move@PAV?$basic_string@DU?$char_traits@D@std@@V?$allocator@D@2@@std@@V?$allocator@V?$basic_string@DU?$char_traits@D@std@@V?$allocator@D@2@@std@@@2@@std@@YAPAV?$basic_string@DU?$char_traits@D@std@@V?$allocator@D@2@@0@QAV10@0PAV10@AAV?$allocator@V?$basic_string@DU?$char_traits@D@std@@V?$allocator@D@2@@std@@@0@@Z 004074c0 f i TServerSystem:TServerSystem.obj
 0001:00006540       ??$_Uninitialized_move@PAV?$vector@V?$basic_string@DU?$char_traits@D@std@@V?$allocator@D@2@@std@@V?$allocator@V?$basic_string@DU?$char_traits@D@std@@V?$allocator@D@2@@std@@@2@@std@@V?$allocator@V?$vector@V?$basic_string@DU?$char_traits@D@std@@V?$allocator@D@2@@std@@V?$allocator@V?$basic_string@DU?$char_traits@D@std@@V?$allocator@D@2@@std@@@2@@std@@@2@@std@@YAPAV?$vector@V?$basic_string@DU?$char_traits@D@std@@V?$allocator@D@2@@std@@V?$allocator@V?$basic_string@DU?$char_traits@D@std@@V?$allocator@D@2@@std@@@2@@0@QAV10@0PAV10@AAV?$allocator@V?$vector@V?$basic_string@DU?$char_traits@D@std@@V?$allocator@D@2@@std@@V?$allocator@V?$basic_string@DU?$char_traits@D@std@@V?$allocator@D@2@@std@@@2@@std@@@0@@Z 00407540 f i TServerSystem:TServerSystem.obj
 0001:000065a0       ??$_Find_lower_bound@UEntry@?$CSimpleIniTempl@DU?$SI_NoCase@D@@V?$SI_ConvertA@D@@@@@?$_Tree@V?$_Tmap_traits@UEntry@?$CSimpleIniTempl@DU?$SI_NoCase@D@@V?$SI_ConvertA@D@@@@V?$multimap@UEntry@?$CSimpleIniTempl@DU?$SI_NoCase@D@@V?$SI_ConvertA@D@@@@PBDUKeyOrder@12@V?$allocator@U?$pair@$$CBUEntry@?$CSimpleIniTempl@DU?$SI_NoCase@D@@V?$SI_ConvertA@D@@@@PBD@std@@@std@@@std@@UKeyOrder@12@V?$allocator@U?$pair@$$CBUEntry@?$CSimpleIniTempl@DU?$SI_NoCase@D@@V?$SI_ConvertA@D@@@@V?$multimap@UEntry@?$CSimpleIniTempl@DU?$SI_NoCase@D@@V?$SI_ConvertA@D@@@@PBDUKeyOrder@12@V?$allocator@U?$pair@$$CBUEntry@?$CSimpleIniTempl@DU?$SI_NoCase@D@@V?$SI_ConvertA@D@@@@PBD@std@@@std@@@std@@@std@@@4@$0A@@std@@@std@@IBE?AU?$_Tree_find_result@PAU?$_Tree_node@U?$pair@$$CBUEntry@?$CSimpleIniTempl@DU?$SI_NoCase@D@@V?$SI_ConvertA@D@@@@V?$multimap@UEntry@?$CSimpleIniTempl@DU?$SI_NoCase@D@@V?$SI_ConvertA@D@@@@PBDUKeyOrder@12@V?$allocator@U?$pair@$$CBUEntry@?$CSimpleIniTempl@DU?$SI_NoCase@D@@V?$SI_ConvertA@D@@@@PBD@std@@@std@@@std@@@std@@PAX@std@@@1@ABUEntry@?$CSimpleIniTempl@DU?$SI_NoCase@D@@V?$SI_ConvertA@D@@@@@Z 004075a0 f i TServerSystem:TServerSystem.obj
 0001:00006600       ??$_Erase_tree@V?$allocator@U?$_Tree_node@U?$pair@$$CBUEntry@?$CSimpleIniTempl@DU?$SI_NoCase@D@@V?$SI_ConvertA@D@@@@V?$multimap@UEntry@?$CSimpleIniTempl@DU?$SI_NoCase@D@@V?$SI_ConvertA@D@@@@PBDUKeyOrder@12@V?$allocator@U?$pair@$$CBUEntry@?$CSimpleIniTempl@DU?$SI_NoCase@D@@V?$SI_ConvertA@D@@@@PBD@std@@@std@@@std@@@std@@PAX@std@@@std@@@?$_Tree_val@U?$_Tree_simple_types@U?$pair@$$CBUEntry@?$CSimpleIniTempl@DU?$SI_NoCase@D@@V?$SI_ConvertA@D@@@@V?$multimap@UEntry@?$CSimpleIniTempl@DU?$SI_NoCase@D@@V?$SI_ConvertA@D@@@@PBDUKeyOrder@12@V?$allocator@U?$pair@$$CBUEntry@?$CSimpleIniTempl@DU?$SI_NoCase@D@@V?$SI_ConvertA@D@@@@PBD@std@@@std@@@std@@@std@@@std@@@std@@QAEXAAV?$allocator@U?$_Tree_node@U?$pair@$$CBUEntry@?$CSimpleIniTempl@DU?$SI_NoCase@D@@V?$SI_ConvertA@D@@@@V?$multimap@UEntry@?$CSimpleIniTempl@DU?$SI_NoCase@D@@V?$SI_ConvertA@D@@@@PBDUKeyOrder@12@V?$allocator@U?$pair@$$CBUEntry@?$CSimpleIniTempl@DU?$SI_NoCase@D@@V?$SI_ConvertA@D@@@@PBD@std@@@std@@@std@@@std@@PAX@std@@@1@PAU?$_Tree_node@U?$pair@$$CBUEntry@?$CSimpleIniTempl@DU?$SI_NoCase@D@@V?$SI_ConvertA@D@@@@V?$multimap@UEntry@?$CSimpleIniTempl@DU?$SI_NoCase@D@@V?$SI_ConvertA@D@@@@PBDUKeyOrder@12@V?$allocator@U?$pair@$$CBUEntry@?$CSimpleIniTempl@DU?$SI_NoCase@D@@V?$SI_ConvertA@D@@@@PBD@std@@@std@@@std@@@std@@PAX@1@@Z 00407600 f i TServerSystem:TServerSystem.obj
 0001:00006690       ??$_Freenode@V?$allocator@U?$_Tree_node@U?$pair@$$CBUEntry@?$CSimpleIniTempl@DU?$SI_NoCase@D@@V?$SI_ConvertA@D@@@@V?$multimap@UEntry@?$CSimpleIniTempl@DU?$SI_NoCase@D@@V?$SI_ConvertA@D@@@@PBDUKeyOrder@12@V?$allocator@U?$pair@$$CBUEntry@?$CSimpleIniTempl@DU?$SI_NoCase@D@@V?$SI_ConvertA@D@@@@PBD@std@@@std@@@std@@@std@@PAX@std@@@std@@@?$_Tree_node@U?$pair@$$CBUEntry@?$CSimpleIniTempl@DU?$SI_NoCase@D@@V?$SI_ConvertA@D@@@@V?$multimap@UEntry@?$CSimpleIniTempl@DU?$SI_NoCase@D@@V?$SI_ConvertA@D@@@@PBDUKeyOrder@12@V?$allocator@U?$pair@$$CBUEntry@?$CSimpleIniTempl@DU?$SI_NoCase@D@@V?$SI_ConvertA@D@@@@PBD@std@@@std@@@std@@@std@@PAX@std@@SAXAAV?$allocator@U?$_Tree_node@U?$pair@$$CBUEntry@?$CSimpleIniTempl@DU?$SI_NoCase@D@@V?$SI_ConvertA@D@@@@V?$multimap@UEntry@?$CSimpleIniTempl@DU?$SI_NoCase@D@@V?$SI_ConvertA@D@@@@PBDUKeyOrder@12@V?$allocator@U?$pair@$$CBUEntry@?$CSimpleIniTempl@DU?$SI_NoCase@D@@V?$SI_ConvertA@D@@@@PBD@std@@@std@@@std@@@std@@PAX@std@@@1@PAU01@@Z 00407690 f i TServerSystem:TServerSystem.obj
 0001:000066e0       ?FindEntry@?$CSimpleIniTempl@DU?$SI_NoCase@D@@V?$SI_ConvertA@D@@@@ABE_NAAPADAAPBD111@Z 004076e0 f i TServerSystem:TServerSystem.obj
 0001:00006990       ?AddEntry@?$CSimpleIniTempl@DU?$SI_NoCase@D@@V?$SI_ConvertA@D@@@@AAE?AW4SI_Error@@PBD000_N1@Z 00407990 f i TServerSystem:TServerSystem.obj
 0001:00006cd0       ??1?$multimap@UEntry@?$CSimpleIniTempl@DU?$SI_NoCase@D@@V?$SI_ConvertA@D@@@@PBDUKeyOrder@12@V?$allocator@U?$pair@$$CBUEntry@?$CSimpleIniTempl@DU?$SI_NoCase@D@@V?$SI_ConvertA@D@@@@PBD@std@@@std@@@std@@QAE@XZ 00407cd0 f i TServerSystem:TServerSystem.obj
 0001:00006d10       ??1?$pair@$$CBUEntry@?$CSimpleIniTempl@DU?$SI_NoCase@D@@V?$SI_ConvertA@D@@@@V?$multimap@UEntry@?$CSimpleIniTempl@DU?$SI_NoCase@D@@V?$SI_ConvertA@D@@@@PBDUKeyOrder@12@V?$allocator@U?$pair@$$CBUEntry@?$CSimpleIniTempl@DU?$SI_NoCase@D@@V?$SI_ConvertA@D@@@@PBD@std@@@std@@@std@@@std@@QAE@XZ 00407d10 f i TServerSystem:TServerSystem.obj
 0001:00006d50       ?SkipNewLine@?$CSimpleIniTempl@DU?$SI_NoCase@D@@V?$SI_ConvertA@D@@@@ABEXAAPAD@Z 00407d50 f i TServerSystem:TServerSystem.obj
 0001:00006d80       ?IsSpace@?$CSimpleIniTempl@DU?$SI_NoCase@D@@V?$SI_ConvertA@D@@@@ABE_ND@Z 00407d80 f i TServerSystem:TServerSystem.obj
 0001:00006db0       ?Clone@CAtlStringMgr@ATL@@UAEPAUIAtlStringMgr@2@XZ 00407db0 f i CSHandler.obj
 0001:00006db0       ?EnsureLinked@CAtlStringMgrStaticInitializer@ATLImplementationDetails@ATL@@QAEPAXXZ 00407db0 f i CSHandler.obj
 0001:00006db0       ?_Getal@?$_Tree@V?$_Tmap_traits@UEntry@?$CSimpleIniTempl@DU?$SI_NoCase@D@@V?$SI_ConvertA@D@@@@PBDUKeyOrder@12@V?$allocator@U?$pair@$$CBUEntry@?$CSimpleIniTempl@DU?$SI_NoCase@D@@V?$SI_ConvertA@D@@@@PBD@std@@@std@@$00@std@@@std@@IAEAAV?$allocator@U?$_Tree_node@U?$pair@$$CBUEntry@?$CSimpleIniTempl@DU?$SI_NoCase@D@@V?$SI_ConvertA@D@@@@PBD@std@@PAX@std@@@2@XZ 00407db0 f i TServerSystem:TServerSystem.obj
 0001:00006dc0       ?CopyString@?$CSimpleIniTempl@DU?$SI_NoCase@D@@V?$SI_ConvertA@D@@@@AAE?AW4SI_Error@@AAPBD@Z 00407dc0 f i TServerSystem:TServerSystem.obj
 0001:00006e90       ?LoadMultiLineText@?$CSimpleIniTempl@DU?$SI_NoCase@D@@V?$SI_ConvertA@D@@@@ABE_NAAPADAAPBDPBD_N@Z 00407e90 f i TServerSystem:TServerSystem.obj
 0001:00007030       ?IsNewLineChar@?$CSimpleIniTempl@DU?$SI_NoCase@D@@V?$SI_ConvertA@D@@@@ABE_ND@Z 00408030 f i TServerSystem:TServerSystem.obj
 0001:00007050       ??$_Erase_head@V?$allocator@U?$_Tree_node@U?$pair@$$CBUEntry@?$CSimpleIniTempl@DU?$SI_NoCase@D@@V?$SI_ConvertA@D@@@@PBD@std@@PAX@std@@@std@@@?$_Tree_val@U?$_Tree_simple_types@U?$pair@$$CBUEntry@?$CSimpleIniTempl@DU?$SI_NoCase@D@@V?$SI_ConvertA@D@@@@PBD@std@@@std@@@std@@QAEXAAV?$allocator@U?$_Tree_node@U?$pair@$$CBUEntry@?$CSimpleIniTempl@DU?$SI_NoCase@D@@V?$SI_ConvertA@D@@@@PBD@std@@PAX@std@@@1@@Z 00408050 f i TServerSystem:TServerSystem.obj
 0001:000070a0       ??$_Erase_tree@V?$allocator@U?$_Tree_node@U?$pair@$$CBUEntry@?$CSimpleIniTempl@DU?$SI_NoCase@D@@V?$SI_ConvertA@D@@@@PBD@std@@PAX@std@@@std@@@?$_Tree_val@U?$_Tree_simple_types@U?$pair@$$CBUEntry@?$CSimpleIniTempl@DU?$SI_NoCase@D@@V?$SI_ConvertA@D@@@@PBD@std@@@std@@@std@@QAEXAAV?$allocator@U?$_Tree_node@U?$pair@$$CBUEntry@?$CSimpleIniTempl@DU?$SI_NoCase@D@@V?$SI_ConvertA@D@@@@PBD@std@@PAX@std@@@1@PAU?$_Tree_node@U?$pair@$$CBUEntry@?$CSimpleIniTempl@DU?$SI_NoCase@D@@V?$SI_ConvertA@D@@@@PBD@std@@PAX@1@@Z 004080a0 f i TServerSystem:TServerSystem.obj
 0001:000070a0       ??$_Erase_tree_and_orphan@V?$allocator@U?$_Tree_node@U?$pair@$$CBUEntry@?$CSimpleIniTempl@DU?$SI_NoCase@D@@V?$SI_ConvertA@D@@@@PBD@std@@PAX@std@@@std@@@?$_Tree_val@U?$_Tree_simple_types@U?$pair@$$CBUEntry@?$CSimpleIniTempl@DU?$SI_NoCase@D@@V?$SI_ConvertA@D@@@@PBD@std@@@std@@@std@@QAEXAAV?$allocator@U?$_Tree_node@U?$pair@$$CBUEntry@?$CSimpleIniTempl@DU?$SI_NoCase@D@@V?$SI_ConvertA@D@@@@PBD@std@@PAX@std@@@1@PAU?$_Tree_node@U?$pair@$$CBUEntry@?$CSimpleIniTempl@DU?$SI_NoCase@D@@V?$SI_ConvertA@D@@@@PBD@std@@PAX@1@@Z 004080a0 f i TServerSystem:TServerSystem.obj
 0001:000070e0       ??1?$_Alloc_construct_ptr@V?$allocator@U?$_List_node@UEntry@?$CSimpleIniTempl@DU?$SI_NoCase@D@@V?$SI_ConvertA@D@@@@PAX@std@@@std@@@std@@QAE@XZ 004080e0 f i TServerSystem:TServerSystem.obj
 0001:00007100       ??$_Emplace@AAU?$pair@$$CBUEntry@?$CSimpleIniTempl@DU?$SI_NoCase@D@@V?$SI_ConvertA@D@@@@V?$multimap@UEntry@?$CSimpleIniTempl@DU?$SI_NoCase@D@@V?$SI_ConvertA@D@@@@PBDUKeyOrder@12@V?$allocator@U?$pair@$$CBUEntry@?$CSimpleIniTempl@DU?$SI_NoCase@D@@V?$SI_ConvertA@D@@@@PBD@std@@@std@@@std@@@std@@@?$_Tree@V?$_Tmap_traits@UEntry@?$CSimpleIniTempl@DU?$SI_NoCase@D@@V?$SI_ConvertA@D@@@@V?$multimap@UEntry@?$CSimpleIniTempl@DU?$SI_NoCase@D@@V?$SI_ConvertA@D@@@@PBDUKeyOrder@12@V?$allocator@U?$pair@$$CBUEntry@?$CSimpleIniTempl@DU?$SI_NoCase@D@@V?$SI_ConvertA@D@@@@PBD@std@@@std@@@std@@UKeyOrder@12@V?$allocator@U?$pair@$$CBUEntry@?$CSimpleIniTempl@DU?$SI_NoCase@D@@V?$SI_ConvertA@D@@@@V?$multimap@UEntry@?$CSimpleIniTempl@DU?$SI_NoCase@D@@V?$SI_ConvertA@D@@@@PBDUKeyOrder@12@V?$allocator@U?$pair@$$CBUEntry@?$CSimpleIniTempl@DU?$SI_NoCase@D@@V?$SI_ConvertA@D@@@@PBD@std@@@std@@@std@@@std@@@4@$0A@@std@@@std@@IAE?AU?$pair@PAU?$_Tree_node@U?$pair@$$CBUEntry@?$CSimpleIniTempl@DU?$SI_NoCase@D@@V?$SI_ConvertA@D@@@@V?$multimap@UEntry@?$CSimpleIniTempl@DU?$SI_NoCase@D@@V?$SI_ConvertA@D@@@@PBDUKeyOrder@12@V?$allocator@U?$pair@$$CBUEntry@?$CSimpleIniTempl@DU?$SI_NoCase@D@@V?$SI_ConvertA@D@@@@PBD@std@@@std@@@std@@@std@@PAX@std@@_N@1@AAU?$pair@$$CBUEntry@?$CSimpleIniTempl@DU?$SI_NoCase@D@@V?$SI_ConvertA@D@@@@V?$multimap@UEntry@?$CSimpleIniTempl@DU?$SI_NoCase@D@@V?$SI_ConvertA@D@@@@PBDUKeyOrder@12@V?$allocator@U?$pair@$$CBUEntry@?$CSimpleIniTempl@DU?$SI_NoCase@D@@V?$SI_ConvertA@D@@@@PBD@std@@@std@@@std@@@1@@Z 00408100 f i TServerSystem:TServerSystem.obj
 0001:000072a0       ?_Insert_node@?$_Tree_val@U?$_Tree_simple_types@U?$pair@$$CBEPAUtagTGROUP@@@std@@@std@@@std@@QAEPAU?$_Tree_node@U?$pair@$$CBEPAUtagTGROUP@@@std@@PAX@2@U?$_Tree_id@PAU?$_Tree_node@U?$pair@$$CBEPAUtagTGROUP@@@std@@PAX@std@@@2@QAU32@@Z 004082a0 f i TLoginSvr.obj
 0001:000072a0       ?_Insert_node@?$_Tree_val@U?$_Tree_simple_types@U?$pair@$$CBKK@std@@@std@@@std@@QAEPAU?$_Tree_node@U?$pair@$$CBKK@std@@PAX@2@U?$_Tree_id@PAU?$_Tree_node@U?$pair@$$CBKK@std@@PAX@std@@@2@QAU32@@Z 004082a0 f i CSHandler.obj
 0001:000072a0       ?_Insert_node@?$_Tree_val@U?$_Tree_simple_types@U?$pair@$$CBKPAVCTUser@@@std@@@std@@@std@@QAEPAU?$_Tree_node@U?$pair@$$CBKPAVCTUser@@@std@@PAX@2@U?$_Tree_id@PAU?$_Tree_node@U?$pair@$$CBKPAVCTUser@@@std@@PAX@std@@@2@QAU32@@Z 004082a0 f i CSHandler.obj
 0001:000072a0       ?_Insert_node@?$_Tree_val@U?$_Tree_simple_types@U?$pair@$$CBKUtagEVENTINFO@@@std@@@std@@@std@@QAEPAU?$_Tree_node@U?$pair@$$CBKUtagEVENTINFO@@@std@@PAX@2@U?$_Tree_id@PAU?$_Tree_node@U?$pair@$$CBKUtagEVENTINFO@@@std@@PAX@std@@@2@QAU32@@Z 004082a0 f i CSHandler.obj
 0001:000072a0       ?_Insert_node@?$_Tree_val@U?$_Tree_simple_types@U?$pair@$$CBUEntry@?$CSimpleIniTempl@DU?$SI_NoCase@D@@V?$SI_ConvertA@D@@@@PBD@std@@@std@@@std@@QAEPAU?$_Tree_node@U?$pair@$$CBUEntry@?$CSimpleIniTempl@DU?$SI_NoCase@D@@V?$SI_ConvertA@D@@@@PBD@std@@PAX@2@U?$_Tree_id@PAU?$_Tree_node@U?$pair@$$CBUEntry@?$CSimpleIniTempl@DU?$SI_NoCase@D@@V?$SI_ConvertA@D@@@@PBD@std@@PAX@std@@@2@QAU32@@Z 004082a0 f i TServerSystem:TServerSystem.obj
 0001:000072a0       ?_Insert_node@?$_Tree_val@U?$_Tree_simple_types@U?$pair@$$CBUEntry@?$CSimpleIniTempl@DU?$SI_NoCase@D@@V?$SI_ConvertA@D@@@@V?$multimap@UEntry@?$CSimpleIniTempl@DU?$SI_NoCase@D@@V?$SI_ConvertA@D@@@@PBDUKeyOrder@12@V?$allocator@U?$pair@$$CBUEntry@?$CSimpleIniTempl@DU?$SI_NoCase@D@@V?$SI_ConvertA@D@@@@PBD@std@@@std@@@std@@@std@@@std@@@std@@QAEPAU?$_Tree_node@U?$pair@$$CBUEntry@?$CSimpleIniTempl@DU?$SI_NoCase@D@@V?$SI_ConvertA@D@@@@V?$multimap@UEntry@?$CSimpleIniTempl@DU?$SI_NoCase@D@@V?$SI_ConvertA@D@@@@PBDUKeyOrder@12@V?$allocator@U?$pair@$$CBUEntry@?$CSimpleIniTempl@DU?$SI_NoCase@D@@V?$SI_ConvertA@D@@@@PBD@std@@@std@@@std@@@std@@PAX@2@U?$_Tree_id@PAU?$_Tree_node@U?$pair@$$CBUEntry@?$CSimpleIniTempl@DU?$SI_NoCase@D@@V?$SI_ConvertA@D@@@@V?$multimap@UEntry@?$CSimpleIniTempl@DU?$SI_NoCase@D@@V?$SI_ConvertA@D@@@@PBDUKeyOrder@12@V?$allocator@U?$pair@$$CBUEntry@?$CSimpleIniTempl@DU?$SI_NoCase@D@@V?$SI_ConvertA@D@@@@PBD@std@@@std@@@std@@@std@@PAX@std@@@2@QAU32@@Z 004082a0 f i TServerSystem:TServerSystem.obj
 0001:000072a0       ?_Insert_node@?$_Tree_val@U?$_Tree_simple_types@U?$pair@$$CBV?$basic_string@DU?$char_traits@D@std@@V?$allocator@D@2@@std@@PAVCSqlQuery@@@std@@@std@@@std@@QAEPAU?$_Tree_node@U?$pair@$$CBV?$basic_string@DU?$char_traits@D@std@@V?$allocator@D@2@@std@@PAVCSqlQuery@@@std@@PAX@2@U?$_Tree_id@PAU?$_Tree_node@U?$pair@$$CBV?$basic_string@DU?$char_traits@D@std@@V?$allocator@D@2@@std@@PAVCSqlQuery@@@std@@PAX@std@@@2@QAU32@@Z 004082a0 f i TNetLib:SqlDatabase.obj
 0001:00007490       ??1?$_Alloc_construct_ptr@V?$allocator@U?$_Tree_node@U?$pair@$$CBUEntry@?$CSimpleIniTempl@DU?$SI_NoCase@D@@V?$SI_ConvertA@D@@@@V?$multimap@UEntry@?$CSimpleIniTempl@DU?$SI_NoCase@D@@V?$SI_ConvertA@D@@@@PBDUKeyOrder@12@V?$allocator@U?$pair@$$CBUEntry@?$CSimpleIniTempl@DU?$SI_NoCase@D@@V?$SI_ConvertA@D@@@@PBD@std@@@std@@@std@@@std@@PAX@std@@@std@@@std@@QAE@XZ 00408490 f i TServerSystem:TServerSystem.obj
 0001:00007490       ??1?$_Tree_temp_node_alloc@V?$allocator@U?$_Tree_node@U?$pair@$$CBUEntry@?$CSimpleIniTempl@DU?$SI_NoCase@D@@V?$SI_ConvertA@D@@@@V?$multimap@UEntry@?$CSimpleIniTempl@DU?$SI_NoCase@D@@V?$SI_ConvertA@D@@@@PBDUKeyOrder@12@V?$allocator@U?$pair@$$CBUEntry@?$CSimpleIniTempl@DU?$SI_NoCase@D@@V?$SI_ConvertA@D@@@@PBD@std@@@std@@@std@@@std@@PAX@std@@@std@@@std@@QAE@XZ 00408490 f i TServerSystem:TServerSystem.obj
 0001:000074b0       ??1?$_Alloc_construct_ptr@V?$allocator@U?$_Tree_node@U?$pair@$$CBUEntry@?$CSimpleIniTempl@DU?$SI_NoCase@D@@V?$SI_ConvertA@D@@@@PBD@std@@PAX@std@@@std@@@std@@QAE@XZ 004084b0 f i TServerSystem:TServerSystem.obj
 0001:000074b0       ??1?$_Tree_temp_node@V?$allocator@U?$_Tree_node@U?$pair@$$CBUEntry@?$CSimpleIniTempl@DU?$SI_NoCase@D@@V?$SI_ConvertA@D@@@@PBD@std@@PAX@std@@@std@@@std@@QAE@XZ 004084b0 f i TServerSystem:TServerSystem.obj
 0001:000074d0       ??1?$_Tree_head_scoped_ptr@V?$allocator@U?$_Tree_node@U?$pair@$$CBUEntry@?$CSimpleIniTempl@DU?$SI_NoCase@D@@V?$SI_ConvertA@D@@@@PBD@std@@PAX@std@@@std@@V?$_Tree_val@U?$_Tree_simple_types@U?$pair@$$CBUEntry@?$CSimpleIniTempl@DU?$SI_NoCase@D@@V?$SI_ConvertA@D@@@@PBD@std@@@std@@@2@@std@@QAE@XZ 004084d0 f i TServerSystem:TServerSystem.obj
 0001:000074f0       ??$_Copy_nodes@$0A@@?$_Tree@V?$_Tmap_traits@UEntry@?$CSimpleIniTempl@DU?$SI_NoCase@D@@V?$SI_ConvertA@D@@@@PBDUKeyOrder@12@V?$allocator@U?$pair@$$CBUEntry@?$CSimpleIniTempl@DU?$SI_NoCase@D@@V?$SI_ConvertA@D@@@@PBD@std@@@std@@$00@std@@@std@@IAEPAU?$_Tree_node@U?$pair@$$CBUEntry@?$CSimpleIniTempl@DU?$SI_NoCase@D@@V?$SI_ConvertA@D@@@@PBD@std@@PAX@1@PAU21@0@Z 004084f0 f i TServerSystem:TServerSystem.obj
 0001:000075e1       ??_E?$basic_ostream@DU?$char_traits@D@std@@@std@@$4PPPPPPPM@A@AEPAXI@Z 004085e1 f i TServerSystem:TServerSystem.obj
 0001:000075f0       ??$_Emplace_reallocate@ABG@?$vector@GV?$allocator@G@std@@@std@@AAEPAGQAGABG@Z 004085f0 f i CSHandler.obj
 0001:00007700       ??$_Emplace_reallocate@ABQAUtagTCHAR@@@?$vector@PAUtagTCHAR@@V?$allocator@PAUtagTCHAR@@@std@@@std@@AAEPAPAUtagTCHAR@@QAPAU2@ABQAU2@@Z 00408700 f i CSHandler.obj
 0001:00007700       ??$_Emplace_reallocate@ABQAUtagTITEM@@@?$vector@PAUtagTITEM@@V?$allocator@PAUtagTITEM@@@std@@@std@@AAEPAPAUtagTITEM@@QAPAU2@ABQAU2@@Z 00408700 f i CSHandler.obj
 0001:00007860       ??$_Emplace_reallocate@ABUtagLOTTERY@@@?$vector@UtagLOTTERY@@V?$allocator@UtagLOTTERY@@@std@@@std@@AAEPAUtagLOTTERY@@QAU2@ABU2@@Z 00408860 f i CSHandler.obj
 0001:000079c0       ??$_Emplace_reallocate@ABUtagMONREGEN@@@?$vector@UtagMONREGEN@@V?$allocator@UtagMONREGEN@@@std@@@std@@AAEPAUtagMONREGEN@@QAU2@ABU2@@Z 004089c0 f i CSHandler.obj
 0001:00007b30       ??$_Emplace_reallocate@ABUtagTCASHITEMSALE@@@?$vector@UtagTCASHITEMSALE@@V?$allocator@UtagTCASHITEMSALE@@@std@@@std@@AAEPAUtagTCASHITEMSALE@@QAU2@ABU2@@Z 00408b30 f i CSHandler.obj
 0001:00007c40       ??$_Erase_tree@V?$allocator@U?$_Tree_node@U?$pair@$$CBEPAUtagTGROUP@@@std@@PAX@std@@@std@@@?$_Tree_val@U?$_Tree_simple_types@U?$pair@$$CBEPAUtagTGROUP@@@std@@@std@@@std@@QAEXAAV?$allocator@U?$_Tree_node@U?$pair@$$CBEPAUtagTGROUP@@@std@@PAX@std@@@1@PAU?$_Tree_node@U?$pair@$$CBEPAUtagTGROUP@@@std@@PAX@1@@Z 00408c40 f i TLoginSvr.obj
 0001:00007c40       ??$_Erase_tree@V?$allocator@U?$_Tree_node@U?$pair@$$CBKK@std@@PAX@std@@@std@@@?$_Tree_val@U?$_Tree_simple_types@U?$pair@$$CBKK@std@@@std@@@std@@QAEXAAV?$allocator@U?$_Tree_node@U?$pair@$$CBKK@std@@PAX@std@@@1@PAU?$_Tree_node@U?$pair@$$CBKK@std@@PAX@1@@Z 00408c40 f i CSHandler.obj
 0001:00007c40       ??$_Erase_tree@V?$allocator@U?$_Tree_node@U?$pair@$$CBKPAVCTUser@@@std@@PAX@std@@@std@@@?$_Tree_val@U?$_Tree_simple_types@U?$pair@$$CBKPAVCTUser@@@std@@@std@@@std@@QAEXAAV?$allocator@U?$_Tree_node@U?$pair@$$CBKPAVCTUser@@@std@@PAX@std@@@1@PAU?$_Tree_node@U?$pair@$$CBKPAVCTUser@@@std@@PAX@1@@Z 00408c40 f i TLoginSvr.obj
 0001:00007c80       ??$_Find_lower_bound@K@?$_Tree@V?$_Tmap_traits@KKU?$less@K@std@@V?$allocator@U?$pair@$$CBKK@std@@@2@$0A@@std@@@std@@IBE?AU?$_Tree_find_result@PAU?$_Tree_node@U?$pair@$$CBKK@std@@PAX@std@@@1@ABK@Z 00408c80 f i CSHandler.obj
 0001:00007c80       ??$_Find_lower_bound@K@?$_Tree@V?$_Tmap_traits@KPAVCTUser@@U?$less@K@std@@V?$allocator@U?$pair@$$CBKPAVCTUser@@@std@@@3@$0A@@std@@@std@@IBE?AU?$_Tree_find_result@PAU?$_Tree_node@U?$pair@$$CBKPAVCTUser@@@std@@PAX@std@@@1@ABK@Z 00408c80 f i CSHandler.obj
 0001:00007c80       ??$_Find_lower_bound@K@?$_Tree@V?$_Tmap_traits@KUtagEVENTINFO@@U?$less@K@std@@V?$allocator@U?$pair@$$CBKUtagEVENTINFO@@@std@@@3@$0A@@std@@@std@@IBE?AU?$_Tree_find_result@PAU?$_Tree_node@U?$pair@$$CBKUtagEVENTINFO@@@std@@PAX@std@@@1@ABK@Z 00408c80 f i CSHandler.obj
 0001:00007cd0       ??$insert@$0A@$0A@@?$_Tree@V?$_Tmap_traits@KKU?$less@K@std@@V?$allocator@U?$pair@$$CBKK@std@@@2@$0A@@std@@@std@@QAE?AU?$pair@V?$_Tree_iterator@V?$_Tree_val@U?$_Tree_simple_types@U?$pair@$$CBKK@std@@@std@@@std@@@std@@_N@1@$$QAU?$pair@$$CBKK@1@@Z 00408cd0 f i CSHandler.obj
 0001:00007cd0       ??$insert@$0A@$0A@@?$_Tree@V?$_Tmap_traits@KPAVCTUser@@U?$less@K@std@@V?$allocator@U?$pair@$$CBKPAVCTUser@@@std@@@3@$0A@@std@@@std@@QAE?AU?$pair@V?$_Tree_iterator@V?$_Tree_val@U?$_Tree_simple_types@U?$pair@$$CBKPAVCTUser@@@std@@@std@@@std@@@std@@_N@1@$$QAU?$pair@$$CBKPAVCTUser@@@1@@Z 00408cd0 f i CSHandler.obj
 0001:00007da0       ??0?$CStringT@DV?$StrTraitATL@DV?$ChTraitsCRT@D@ATL@@@ATL@@@ATL@@QAE@ABV01@@Z 00408da0 f i CSHandler.obj
 0001:00007dd0       ??0?$CStringT@DV?$StrTraitATL@DV?$ChTraitsCRT@D@ATL@@@ATL@@@ATL@@QAE@PBD@Z 00408dd0 f i CSHandler.obj
 0001:00007e70       ??0CAtlException@ATL@@QAE@J@Z 00408e70 f i CSHandler.obj
 0001:00007e80       ??0tagEVENTINFO@@QAE@$$QAU0@@Z 00408e80 f i CSHandler.obj
 0001:00008050       ??0tagEVENTINFO@@QAE@ABU0@@Z 00409050 f i CSHandler.obj
 0001:00008390       ??1?$CSimpleStringT@D$0A@@ATL@@QAE@XZ 00409390 f i CSHandler.obj
 0001:00008390       ??1?$CStringT@DV?$StrTraitATL@DV?$ChTraitsCRT@D@ATL@@@ATL@@@ATL@@QAE@XZ 00409390 f i CSHandler.obj
 0001:000083b0       ??1?$_Alloc_construct_ptr@V?$allocator@U?$_Tree_node@U?$pair@$$CBEPAUtagTGROUP@@@std@@PAX@std@@@std@@@std@@QAE@XZ 004093b0 f i TLoginSvr.obj
 0001:000083b0       ??1?$_Alloc_construct_ptr@V?$allocator@U?$_Tree_node@U?$pair@$$CBKK@std@@PAX@std@@@std@@@std@@QAE@XZ 004093b0 f i CSHandler.obj
 0001:000083b0       ??1?$_Alloc_construct_ptr@V?$allocator@U?$_Tree_node@U?$pair@$$CBKPAVCTUser@@@std@@PAX@std@@@std@@@std@@QAE@XZ 004093b0 f i CSHandler.obj
 0001:000083d0       ??1?$_Alloc_construct_ptr@V?$allocator@U?$_Tree_node@U?$pair@$$CBKUtagEVENTINFO@@@std@@PAX@std@@@std@@@std@@QAE@XZ 004093d0 f i CSHandler.obj
 0001:000083d0       ??1?$_Tree_temp_node_alloc@V?$allocator@U?$_Tree_node@U?$pair@$$CBKUtagEVENTINFO@@@std@@PAX@std@@@std@@@std@@QAE@XZ 004093d0 f i CSHandler.obj
 0001:000083f0       ??1?$pair@$$CBKUtagEVENTINFO@@@std@@QAE@XZ 004093f0 f i CSHandler.obj
 0001:00008400       ??1?$vector@PAUtagTCHAR@@V?$allocator@PAUtagTCHAR@@@std@@@std@@QAE@XZ 00409400 f i CSHandler.obj
 0001:00008400       ??1?$vector@UtagTCASHITEMSALE@@V?$allocator@UtagTCASHITEMSALE@@@std@@@std@@QAE@XZ 00409400 f i CSHandler.obj
 0001:00008460       ??1?$vector@UtagLOTTERY@@V?$allocator@UtagLOTTERY@@@std@@@std@@QAE@XZ 00409460 f i CSHandler.obj
 0001:00008470       ??1?$vector@UtagMONREGEN@@V?$allocator@UtagMONREGEN@@@std@@@std@@QAE@XZ 00409470 f i CSHandler.obj
 0001:00008480       ??1CCSLock@@UAE@XZ         00409480 f i CSHandler.obj
 0001:00008490       ??1tagEVENTINFO@@QAE@XZ    00409490 f i CSHandler.obj
 0001:000085e0       ??1tagMONEVENT@@QAE@XZ     004095e0 f i CSHandler.obj
 0001:00008640       ??E?$_Tree_unchecked_const_iterator@V?$_Tree_val@U?$_Tree_simple_types@U?$pair@$$CBKPAVCTUser@@@std@@@std@@@std@@U_Iterator_base0@2@@std@@QAEAAV01@XZ 00409640 f i TLoginSvr.obj
 0001:00008640       ??E?$_Tree_unchecked_const_iterator@V?$_Tree_val@U?$_Tree_simple_types@U?$pair@$$CBKUtagEVENTINFO@@@std@@@std@@@std@@U_Iterator_base0@2@@std@@QAEAAV01@XZ 00409640 f i CSHandler.obj
 0001:00008640       ??E?$_Tree_unchecked_const_iterator@V?$_Tree_val@U?$_Tree_simple_types@U?$pair@$$CBV?$basic_string@DU?$char_traits@D@std@@V?$allocator@D@2@@std@@PAVCSqlQuery@@@std@@@std@@@std@@U_Iterator_base0@2@@std@@QAEAAV01@XZ 00409640 f i TNetLib:SqlDatabase.obj
 0001:000086a0       ??_ECAtlStringMgr@ATL@@UAEPAXI@Z 004096a0 f i CSHandler.obj
 0001:000086a0       ??_GCAtlStringMgr@ATL@@UAEPAXI@Z 004096a0 f i CSHandler.obj
 0001:000086d0       ??_ECCSLock@@UAEPAXI@Z     004096d0 f i CSHandler.obj
 0001:000086d0       ??_GCCSLock@@UAEPAXI@Z     004096d0 f i CSHandler.obj
 0001:00008700       ??_ECWin32Heap@ATL@@UAEPAXI@Z 00409700 f i CSHandler.obj
 0001:00008700       ??_GCWin32Heap@ATL@@UAEPAXI@Z 00409700 f i CSHandler.obj
 0001:00008740       ?Allocate@CAtlStringMgr@ATL@@UAEPAUCStringData@2@HH@Z 00409740 f i CSHandler.obj
 0001:000087b0       ?Allocate@CWin32Heap@ATL@@UAEPAXI@Z 004097b0 f i CSHandler.obj
 0001:000087d0       ?AtlCrtErrorCheck@ATL@@YAHH@Z 004097d0 f i CSHandler.obj
 0001:00008870       ?AtlThrowImpl@ATL@@YGXJ@Z  00409870 f i CSHandler.obj
 0001:00008890       ?CloneData@?$CSimpleStringT@D$0A@@ATL@@CAPAUCStringData@2@PAU32@@Z 00409890 f i CSHandler.obj
 0001:00008950       ?Empty@?$CSimpleStringT@D$0A@@ATL@@QAEXXZ 00409950 f i CSHandler.obj
 0001:000089b0       ?Fork@?$CSimpleStringT@D$0A@@ATL@@AAEXH@Z 004099b0 f i CSHandler.obj
 0001:00008a60       ?Free@CAtlStringMgr@ATL@@UAEXPAUCStringData@2@@Z 00409a60 f i CSHandler.obj
 0001:00008a70       ?Free@CWin32Heap@ATL@@UAEXPAX@Z 00409a70 f i CSHandler.obj
 0001:00008a90       ?GetInstance@CAtlStringMgr@ATL@@SAPAUIAtlStringMgr@2@XZ 00409a90 f i CSHandler.obj
 0001:00008b90       ?GetNilString@CAtlStringMgr@ATL@@UAEPAUCStringData@2@XZ 00409b90 f i CSHandler.obj
 0001:00008ba0       ?GetSize@CWin32Heap@ATL@@UAEIPAX@Z 00409ba0 f i CSHandler.obj
 0001:00008bc0       ?LoadStringA@?$CStringT@DV?$StrTraitATL@DV?$ChTraitsCRT@D@ATL@@@ATL@@@ATL@@QAEHI@Z 00409bc0 f i CSHandler.obj
 0001:00008cf0       ?MakeUpper@?$CStringT@DV?$StrTraitATL@DV?$ChTraitsCRT@D@ATL@@@ATL@@@ATL@@QAEAAV12@XZ 00409cf0 f i CSHandler.obj
 0001:00008d50       ?OnCS_AGREEMENT_REQ@CTLoginSvrModule@@IAEKPAVCSqlDatabase@@PAV?$map@EPAUtagTGROUP@@U?$less@E@std@@V?$allocator@U?$pair@$$CBEPAUtagTGROUP@@@std@@@3@@std@@PAVCTUser@@AAVCPacket@@@Z 00409d50 f   CSHandler.obj
 0001:00008e20       ?OnCS_CHANNELLIST_REQ@CTLoginSvrModule@@IAEKPAVCSqlDatabase@@PAV?$map@EPAUtagTGROUP@@U?$less@E@std@@V?$allocator@U?$pair@$$CBEPAUtagTGROUP@@@std@@@3@@std@@PAVCTUser@@AAVCPacket@@@Z 00409e20 f   CSHandler.obj
 0001:000090d0       ?OnCS_CHARLIST_REQ@CTLoginSvrModule@@IAEKPAVCSqlDatabase@@PAV?$map@EPAUtagTGROUP@@U?$less@E@std@@V?$allocator@U?$pair@$$CBEPAUtagTGROUP@@@std@@@3@@std@@PAVCTUser@@AAVCPacket@@@Z 0040a0d0 f   CSHandler.obj
 0001:00009b00       ?OnCS_CREATECHAR_REQ@CTLoginSvrModule@@IAEKPAVCSqlDatabase@@PAV?$map@EPAUtagTGROUP@@U?$less@E@std@@V?$allocator@U?$pair@$$CBEPAUtagTGROUP@@@std@@@3@@std@@PAVCTUser@@AAVCPacket@@@Z 0040ab00 f   CSHandler.obj
 0001:00009fb0       ?OnCS_DELCHAR_REQ@CTLoginSvrModule@@IAEKPAVCSqlDatabase@@PAV?$map@EPAUtagTGROUP@@U?$less@E@std@@V?$allocator@U?$pair@$$CBEPAUtagTGROUP@@@std@@@3@@std@@PAVCTUser@@AAVCPacket@@@Z 0040afb0 f   CSHandler.obj
 0001:0000a2c0       ?OnCS_GROUPLIST_REQ@CTLoginSvrModule@@IAEKPAVCSqlDatabase@@PAV?$map@EPAUtagTGROUP@@U?$less@E@std@@V?$allocator@U?$pair@$$CBEPAUtagTGROUP@@@std@@@3@@std@@PAVCTUser@@AAVCPacket@@@Z 0040b2c0 f   CSHandler.obj
 0001:0000a600       ?OnCS_HOTSEND_REQ@CTLoginSvrModule@@IAEKPAVCSqlDatabase@@PAV?$map@EPAUtagTGROUP@@U?$less@E@std@@V?$allocator@U?$pair@$$CBEPAUtagTGROUP@@@std@@@3@@std@@PAVCTUser@@AAVCPacket@@@Z 0040b600 f   CSHandler.obj
 0001:0000a630       ?OnCS_LOGIN_REQ@CTLoginSvrModule@@IAEKPAVCSqlDatabase@@PAV?$map@EPAUtagTGROUP@@U?$less@E@std@@V?$allocator@U?$pair@$$CBEPAUtagTGROUP@@@std@@@3@@std@@PAVCTUser@@AAVCPacket@@@Z 0040b630 f   CSHandler.obj
 0001:0000aff0       ?OnCS_SECURITYCONFIRM_ACK@CTLoginSvrModule@@IAEKPAVCSqlDatabase@@PAV?$map@EPAUtagTGROUP@@U?$less@E@std@@V?$allocator@U?$pair@$$CBEPAUtagTGROUP@@@std@@@3@@std@@PAVCTUser@@AAVCPacket@@@Z 0040bff0 f   CSHandler.obj
 0001:0000b210       ?OnCS_START_REQ@CTLoginSvrModule@@IAEKPAVCSqlDatabase@@PAV?$map@EPAUtagTGROUP@@U?$less@E@std@@V?$allocator@U?$pair@$$CBEPAUtagTGROUP@@@std@@@3@@std@@PAVCTUser@@AAVCPacket@@@Z 0040c210 f   CSHandler.obj
 0001:0000b610       ?OnCS_TERMINATE_REQ@CTLoginSvrModule@@IAEKPAVCSqlDatabase@@PAV?$map@EPAUtagTGROUP@@U?$less@E@std@@V?$allocator@U?$pair@$$CBEPAUtagTGROUP@@@std@@@3@@std@@PAVCTUser@@AAVCPacket@@@Z 0040c610 f   CSHandler.obj
 0001:0000b640       ?OnCS_TESTLOGIN_REQ@CTLoginSvrModule@@IAEKPAVCSqlDatabase@@PAV?$map@EPAUtagTGROUP@@U?$less@E@std@@V?$allocator@U?$pair@$$CBEPAUtagTGROUP@@@std@@@3@@std@@PAVCTUser@@AAVCPacket@@@Z 0040c640 f   CSHandler.obj
 0001:0000b8d0       ?OnCS_TESTVERSION_REQ@CTLoginSvrModule@@IAEKPAVCSqlDatabase@@PAV?$map@EPAUtagTGROUP@@U?$less@E@std@@V?$allocator@U?$pair@$$CBEPAUtagTGROUP@@@std@@@3@@std@@PAVCTUser@@AAVCPacket@@@Z 0040c8d0 f   CSHandler.obj
 0001:0000b8f0       ?OnCS_VETERAN_REQ@CTLoginSvrModule@@IAEKPAVCSqlDatabase@@PAV?$map@EPAUtagTGROUP@@U?$less@E@std@@V?$allocator@U?$pair@$$CBEPAUtagTGROUP@@@std@@@3@@std@@PAVCTUser@@AAVCPacket@@@Z 0040c8f0 f   CSHandler.obj
 0001:0000b920       ?OnCT_CTRLSVR_REQ@CTLoginSvrModule@@IAEKPAVCSqlDatabase@@PAV?$map@EPAUtagTGROUP@@U?$less@E@std@@V?$allocator@U?$pair@$$CBEPAUtagTGROUP@@@std@@@3@@std@@PAVCTUser@@AAVCPacket@@@Z 0040c920 f   CSHandler.obj
 0001:0000b930       ?OnCT_EVENTMSG_REQ@CTLoginSvrModule@@IAEKPAVCSqlDatabase@@PAV?$map@EPAUtagTGROUP@@U?$less@E@std@@V?$allocator@U?$pair@$$CBEPAUtagTGROUP@@@std@@@3@@std@@PAVCTUser@@AAVCPacket@@@Z 0040c930 f   CSHandler.obj
 0001:0000b9e0       ?OnCT_EVENTUPDATE_REQ@CTLoginSvrModule@@IAEKPAVCSqlDatabase@@PAV?$map@EPAUtagTGROUP@@U?$less@E@std@@V?$allocator@U?$pair@$$CBEPAUtagTGROUP@@@std@@@3@@std@@PAVCTUser@@AAVCPacket@@@Z 0040c9e0 f   CSHandler.obj
 0001:0000bc60       ?OnCT_SERVICEDATACLEAR_ACK@CTLoginSvrModule@@IAEKPAVCSqlDatabase@@PAV?$map@EPAUtagTGROUP@@U?$less@E@std@@V?$allocator@U?$pair@$$CBEPAUtagTGROUP@@@std@@@3@@std@@PAVCTUser@@AAVCPacket@@@Z 0040cc60 f   CSHandler.obj
 0001:0000be30       ?OnCT_SERVICEMONITOR_ACK@CTLoginSvrModule@@IAEKPAVCSqlDatabase@@PAV?$map@EPAUtagTGROUP@@U?$less@E@std@@V?$allocator@U?$pair@$$CBEPAUtagTGROUP@@@std@@@3@@std@@PAVCTUser@@AAVCPacket@@@Z 0040ce30 f   CSHandler.obj
 0001:0000bf00       ?PrepareWrite2@?$CSimpleStringT@D$0A@@ATL@@AAEXH@Z 0040cf00 f i CSHandler.obj
 0001:0000bf60       ?Reallocate@?$CSimpleStringT@D$0A@@ATL@@AAEXH@Z 0040cf60 f i CSHandler.obj
 0001:0000bfa0       ?Reallocate@CAtlStringMgr@ATL@@UAEPAUCStringData@2@PAU32@HH@Z 0040cfa0 f i CSHandler.obj
 0001:0000c000       ?Reallocate@CWin32Heap@ATL@@UAEPAXPAXI@Z 0040d000 f i CSHandler.obj
 0001:0000c040       ?SetString@?$CSimpleStringT@D$0A@@ATL@@QAEXPBDH@Z 0040d040 f i CSHandler.obj
 0001:0000c140       ?TRand@@YAKK@Z             0040d140 f i CSHandler.obj
 0001:0000c260       ?ThrowMemoryException@?$CSimpleStringT@D$0A@@ATL@@KAXXZ 0040d260 f i CSHandler.obj
 0001:0000c270       ?WrapPacketOut@tagEVENTINFO@@QAEXPAVCPacket@@@Z 0040d270 f i CSHandler.obj
 0001:0000c510       ?_AtlGetStringResourceImage@ATL@@YAPBUATLSTRINGRESOURCEIMAGE@1@PAUHINSTANCE__@@PAUHRSRC__@@I@Z 0040d510 f i CSHandler.obj
 0001:0000c570       ?_AtlInitializeCriticalSectionEx@ATL@@YAHPAU_RTL_CRITICAL_SECTION@@KK@Z 0040d570 f i CSHandler.obj
 0001:0000c590       ?_Extract@?$_Tree_val@U?$_Tree_simple_types@U?$pair@$$CBKPAVCTUser@@@std@@@std@@@std@@QAEPAU?$_Tree_node@U?$pair@$$CBKPAVCTUser@@@std@@PAX@2@V?$_Tree_unchecked_const_iterator@V?$_Tree_val@U?$_Tree_simple_types@U?$pair@$$CBKPAVCTUser@@@std@@@std@@@std@@U_Iterator_base0@2@@2@@Z 0040d590 f i TLoginSvr.obj
 0001:0000c590       ?_Extract@?$_Tree_val@U?$_Tree_simple_types@U?$pair@$$CBKUtagEVENTINFO@@@std@@@std@@@std@@QAEPAU?$_Tree_node@U?$pair@$$CBKUtagEVENTINFO@@@std@@PAX@2@V?$_Tree_unchecked_const_iterator@V?$_Tree_val@U?$_Tree_simple_types@U?$pair@$$CBKUtagEVENTINFO@@@std@@@std@@@std@@U_Iterator_base0@2@@2@@Z 0040d590 f i CSHandler.obj
 0001:0000c590       ?_Extract@?$_Tree_val@U?$_Tree_simple_types@U?$pair@$$CBV?$basic_string@DU?$char_traits@D@std@@V?$allocator@D@2@@std@@PAVCSqlQuery@@@std@@@std@@@std@@QAEPAU?$_Tree_node@U?$pair@$$CBV?$basic_string@DU?$char_traits@D@std@@V?$allocator@D@2@@std@@PAVCSqlQuery@@@std@@PAX@2@V?$_Tree_unchecked_const_iterator@V?$_Tree_val@U?$_Tree_simple_types@U?$pair@$$CBV?$basic_string@DU?$char_traits@D@std@@V?$allocator@D@2@@std@@PAVCSqlQuery@@@std@@@std@@@std@@U_Iterator_base0@2@@2@@Z 0040d590 f i TNetLib:SqlDatabase.obj
 0001:0000c8c0       ?_Growmap@?$deque@KV?$allocator@K@std@@@std@@AAEXI@Z 0040d8c0 f i CSHandler.obj
 0001:0000c8c0       ?_Growmap@?$deque@PAVCPacket@@V?$allocator@PAVCPacket@@@std@@@std@@AAEXI@Z 0040d8c0 f i TNetLib:Session.obj
 0001:0000ca60       ?_Tidy@?$vector@UtagLOTTERY@@V?$allocator@UtagLOTTERY@@@std@@@std@@AAEXXZ 0040da60 f i CSHandler.obj
 0001:0000cad0       ?_Tidy@?$vector@UtagMONREGEN@@V?$allocator@UtagMONREGEN@@@std@@@std@@AAEXXZ 0040dad0 f i CSHandler.obj
 0001:0000cb40       ?_Xlen@?$deque@KV?$allocator@K@std@@@std@@ABEXXZ 0040db40 f i CSHandler.obj
 0001:0000cb40       ?_Xlen@?$deque@PAVCPacket@@V?$allocator@PAVCPacket@@@std@@@std@@ABEXXZ 0040db40 f i TNetLib:Session.obj
 0001:0000cb50       ?allocate@?$allocator@G@std@@QAEPAGI@Z 0040db50 f i CSHandler.obj
 0001:0000cbb0       ?allocate@?$allocator@UtagLOTTERY@@@std@@QAEPAUtagLOTTERY@@I@Z 0040dbb0 f i CSHandler.obj
 0001:0000cc10       ?allocate@?$allocator@UtagTCASHITEMSALE@@@std@@QAEPAUtagTCASHITEMSALE@@I@Z 0040dc10 f i CSHandler.obj
 0001:0000cc70       ?find@?$_Tree@V?$_Tmap_traits@KKU?$less@K@std@@V?$allocator@U?$pair@$$CBKK@std@@@2@$0A@@std@@@std@@QAE?AV?$_Tree_iterator@V?$_Tree_val@U?$_Tree_simple_types@U?$pair@$$CBKK@std@@@std@@@std@@@2@ABK@Z 0040dc70 f i CSHandler.obj
 0001:0000cc70       ?find@?$_Tree@V?$_Tmap_traits@KPAVCTUser@@U?$less@K@std@@V?$allocator@U?$pair@$$CBKPAVCTUser@@@std@@@3@$0A@@std@@@std@@QAE?AV?$_Tree_iterator@V?$_Tree_val@U?$_Tree_simple_types@U?$pair@$$CBKPAVCTUser@@@std@@@std@@@std@@@2@ABK@Z 0040dc70 f i CSHandler.obj
 0001:0000ccc0       ?SendCS_BOWPLAYERNOTIFY_ACK@CTUser@@QAEXE@Z 0040dcc0 f   CSSender.obj
 0001:0000cd50       ?SendCS_CREATECHAR_ACK@CTUser@@QAEXEKV?$CStringT@DV?$StrTraitATL@DV?$ChTraitsCRT@D@ATL@@@ATL@@@ATL@@EEEEEEEEEEEEE@Z 0040dd50 f   CSSender.obj
 0001:0000ce90       ?SendCS_DELCHAR_ACK@CTUser@@QAEXEK@Z 0040de90 f   CSSender.obj
 0001:0000cf20       ?SendCS_LOGIN_ACK@CTUser@@QAEXEKKKKGEEK_J@Z 0040df20 f   CSSender.obj
 0001:0000d020       ?SendCS_SECURITYRESULT_ACK@CTUser@@QAEXE@Z 0040e020 f   CSSender.obj
 0001:0000d0b0       ?SendCS_START_ACK@CTUser@@QAEXEKGE@Z 0040e0b0 f   CSSender.obj
 0001:0000d160       ?SendCS_TESTVERSION_ACK@CTUser@@QAEXG@Z 0040e160 f   CSSender.obj
 0001:0000d1f0       ?SendCS_VETERAN_ACK@CTUser@@QAEXEEEE@Z 0040e1f0 f   CSSender.obj
 0001:0000d2a0       ?SendCT_SERVICEMONITOR_REQ@CTUser@@QAEXKKKK@Z 0040e2a0 f   CSSender.obj
 0001:0000d350       ??_ECSPAddNewMACAddress@@UAEPAXI@Z 0040e350 f i DBAccess.obj
 0001:0000d350       ??_ECSPCheckForbiddenHWID@@UAEPAXI@Z 0040e350 f i DBAccess.obj
 0001:0000d350       ??_ECSPCheckIP@@UAEPAXI@Z  0040e350 f i DBAccess.obj
 0001:0000d350       ??_ECSPLoadService@@UAEPAXI@Z 0040e350 f i DBAccess.obj
 0001:0000d350       ??_GCSPAddNewMACAddress@@UAEPAXI@Z 0040e350 f i DBAccess.obj
 0001:0000d350       ??_GCSPCheckForbiddenHWID@@UAEPAXI@Z 0040e350 f i DBAccess.obj
 0001:0000d350       ??_GCSPCheckIP@@UAEPAXI@Z  0040e350 f i DBAccess.obj
 0001:0000d350       ??_GCSPLoadService@@UAEPAXI@Z 0040e350 f i DBAccess.obj
 0001:0000d380       ??_ECSPAgreement@@UAEPAXI@Z 0040e380 f i DBAccess.obj
 0001:0000d380       ??_ECSPGetNation@@UAEPAXI@Z 0040e380 f i DBAccess.obj
 0001:0000d380       ??_ECTBLVeteranChart@@UAEPAXI@Z 0040e380 f i DBAccess.obj
 0001:0000d380       ??_GCSPAgreement@@UAEPAXI@Z 0040e380 f i DBAccess.obj
 0001:0000d380       ??_GCSPGetNation@@UAEPAXI@Z 0040e380 f i DBAccess.obj
 0001:0000d380       ??_GCTBLVeteranChart@@UAEPAXI@Z 0040e380 f i DBAccess.obj
 0001:0000d3b0       ??_ECSPCheckPasswd@@UAEPAXI@Z 0040e3b0 f i DBAccess.obj
 0001:0000d3b0       ??_ECSPRoute@@UAEPAXI@Z    0040e3b0 f i DBAccess.obj
 0001:0000d3b0       ??_GCSPCheckPasswd@@UAEPAXI@Z 0040e3b0 f i DBAccess.obj
 0001:0000d3b0       ??_GCSPRoute@@UAEPAXI@Z    0040e3b0 f i DBAccess.obj
 0001:0000d3e0       ??_ECSPClearLoginUser@@UAEPAXI@Z 0040e3e0 f i DBAccess.obj
 0001:0000d3e0       ??_ECSqlQuery@@UAEPAXI@Z   0040e3e0 f i TNetLib:SqlQuery.obj
 0001:0000d3e0       ??_GCSPClearLoginUser@@UAEPAXI@Z 0040e3e0 f i DBAccess.obj
 0001:0000d3e0       ??_GCSqlQuery@@UAEPAXI@Z   0040e3e0 f i TNetLib:SqlQuery.obj
 0001:0000d410       ??_ECSPCreateChar@@UAEPAXI@Z 0040e410 f i DBAccess.obj
 0001:0000d410       ??_ECTBLChar@@UAEPAXI@Z    0040e410 f i DBAccess.obj
 0001:0000d410       ??_GCSPCreateChar@@UAEPAXI@Z 0040e410 f i DBAccess.obj
 0001:0000d410       ??_GCTBLChar@@UAEPAXI@Z    0040e410 f i DBAccess.obj
 0001:0000d440       ??_ECSPDeleteChar@@UAEPAXI@Z 0040e440 f i DBAccess.obj
 0001:0000d440       ??_ECSPLogout@@UAEPAXI@Z   0040e440 f i DBAccess.obj
 0001:0000d440       ??_GCSPDeleteChar@@UAEPAXI@Z 0040e440 f i DBAccess.obj
 0001:0000d440       ??_GCSPLogout@@UAEPAXI@Z   0040e440 f i DBAccess.obj
 0001:0000d470       ??_ECSPFindBOWPlayer@@UAEPAXI@Z 0040e470 f i DBAccess.obj
 0001:0000d470       ??_ECSPFindBRPlayer@@UAEPAXI@Z 0040e470 f i DBAccess.obj
 0001:0000d470       ??_ECSPVeteran@@UAEPAXI@Z  0040e470 f i DBAccess.obj
 0001:0000d470       ??_ECTBLUserCount@@UAEPAXI@Z 0040e470 f i DBAccess.obj
 0001:0000d470       ??_GCSPFindBOWPlayer@@UAEPAXI@Z 0040e470 f i DBAccess.obj
 0001:0000d470       ??_GCSPFindBRPlayer@@UAEPAXI@Z 0040e470 f i DBAccess.obj
 0001:0000d470       ??_GCSPVeteran@@UAEPAXI@Z  0040e470 f i DBAccess.obj
 0001:0000d470       ??_GCTBLUserCount@@UAEPAXI@Z 0040e470 f i DBAccess.obj
 0001:0000d4a0       ??_ECSPFindServerID@@UAEPAXI@Z 0040e4a0 f i DBAccess.obj
 0001:0000d4a0       ??_GCSPFindServerID@@UAEPAXI@Z 0040e4a0 f i DBAccess.obj
 0001:0000d4d0       ??_ECSPGetBanReason@@UAEPAXI@Z 0040e4d0 f i DBAccess.obj
 0001:0000d4d0       ??_GCSPGetBanReason@@UAEPAXI@Z 0040e4d0 f i DBAccess.obj
 0001:0000d500       ??_ECSPGetClientSha@@UAEPAXI@Z 0040e500 f i DBAccess.obj
 0001:0000d500       ??_GCSPGetClientSha@@UAEPAXI@Z 0040e500 f i DBAccess.obj
 0001:0000d530       ??_ECSPGetGuildInfo@@UAEPAXI@Z 0040e530 f i DBAccess.obj
 0001:0000d530       ??_ECTBLChannel@@UAEPAXI@Z 0040e530 f i DBAccess.obj
 0001:0000d530       ??_GCSPGetGuildInfo@@UAEPAXI@Z 0040e530 f i DBAccess.obj
 0001:0000d530       ??_GCTBLChannel@@UAEPAXI@Z 0040e530 f i DBAccess.obj
 0001:0000d560       ??_ECSPLogin@@UAEPAXI@Z    0040e560 f i DBAccess.obj
 0001:0000d560       ??_GCSPLogin@@UAEPAXI@Z    0040e560 f i DBAccess.obj
 0001:0000d590       ??_ECSPLoginJP@@UAEPAXI@Z  0040e590 f i DBAccess.obj
 0001:0000d590       ??_GCSPLoginJP@@UAEPAXI@Z  0040e590 f i DBAccess.obj
 0001:0000d5c0       ??_ECSPTestLogin@@UAEPAXI@Z 0040e5c0 f i DBAccess.obj
 0001:0000d5c0       ??_GCSPTestLogin@@UAEPAXI@Z 0040e5c0 f i DBAccess.obj
 0001:0000d5f0       ??_ECTBLGroup@@UAEPAXI@Z   0040e5f0 f i DBAccess.obj
 0001:0000d5f0       ??_GCTBLGroup@@UAEPAXI@Z   0040e5f0 f i DBAccess.obj
 0001:0000d620       ??_ECTBLGroupList@@UAEPAXI@Z 0040e620 f i DBAccess.obj
 0001:0000d620       ??_GCTBLGroupList@@UAEPAXI@Z 0040e620 f i DBAccess.obj
 0001:0000d650       ??_ECTBLItem@@UAEPAXI@Z    0040e650 f i DBAccess.obj
 0001:0000d650       ??_GCTBLItem@@UAEPAXI@Z    0040e650 f i DBAccess.obj
 0001:0000d680       ?BindColumns@CTBLChannel@@UAEFXZ 0040e680 f i DBAccess.obj
 0001:0000d740       ?BindColumns@CTBLChar@@UAEFXZ 0040e740 f i DBAccess.obj
 0001:0000d980       ?BindColumns@CTBLGroup@@UAEFXZ 0040e980 f i DBAccess.obj
 0001:0000da50       ?BindColumns@CTBLGroupList@@UAEFXZ 0040ea50 f i DBAccess.obj
 0001:0000db80       ?BindColumns@CTBLItem@@UAEFXZ 0040eb80 f i DBAccess.obj
 0001:0000dc80       ?BindColumns@CTBLUserCount@@UAEFXZ 0040ec80 f i DBAccess.obj
 0001:0000dcc0       ?BindColumns@CTBLVeteranChart@@UAEFXZ 0040ecc0 f i DBAccess.obj
 0001:0000dd00       ?BindParameters@CSPAddNewMACAddress@@UAEFH@Z 0040ed00 f i DBAccess.obj
 0001:0000dd70       ?BindParameters@CSPAgreement@@UAEFH@Z 0040ed70 f i DBAccess.obj
 0001:0000ddb0       ?BindParameters@CSPCheckForbiddenHWID@@UAEFH@Z 0040edb0 f i DBAccess.obj
 0001:0000ddb0       ?BindParameters@CSPCheckIP@@UAEFH@Z 0040edb0 f i DBAccess.obj
 0001:0000de20       ?BindParameters@CSPCheckPasswd@@UAEFH@Z 0040ee20 f i DBAccess.obj
 0001:0000dec0       ?BindParameters@CSPCreateChar@@UAEFH@Z 0040eec0 f i DBAccess.obj
 0001:0000e210       ?BindParameters@CSPDeleteChar@@UAEFH@Z 0040f210 f i DBAccess.obj
 0001:0000e300       ?BindParameters@CSPFindBOWPlayer@@UAEFH@Z 0040f300 f i DBAccess.obj
 0001:0000e300       ?BindParameters@CSPFindBRPlayer@@UAEFH@Z 0040f300 f i DBAccess.obj
 0001:0000e370       ?BindParameters@CSPFindServerID@@UAEFH@Z 0040f370 f i DBAccess.obj
 0001:0000e430       ?BindParameters@CSPGetBanReason@@UAEFH@Z 0040f430 f i DBAccess.obj
 0001:0000e520       ?BindParameters@CSPGetClientSha@@UAEFH@Z 0040f520 f i DBAccess.obj
 0001:0000e590       ?BindParameters@CSPGetGuildInfo@@UAEFH@Z 0040f590 f i DBAccess.obj
 0001:0000e650       ?BindParameters@CSPGetNation@@UAEFH@Z 0040f650 f i DBAccess.obj
 0001:0000e690       ?BindParameters@CSPLoadService@@UAEFH@Z 0040f690 f i DBAccess.obj
 0001:0000e750       ?BindParameters@CSPLogin@@UAEFH@Z 0040f750 f i DBAccess.obj
 0001:0000e9d0       ?BindParameters@CSPLoginJP@@UAEFH@Z 0040f9d0 f i DBAccess.obj
 0001:0000ec80       ?BindParameters@CSPLogout@@UAEFH@Z 0040fc80 f i DBAccess.obj
 0001:0000ed70       ?BindParameters@CSPRoute@@UAEFH@Z 0040fd70 f i DBAccess.obj
 0001:0000ee90       ?BindParameters@CSPTestLogin@@UAEFH@Z 0040fe90 f i DBAccess.obj
 0001:0000f020       ?BindParameters@CSPVeteran@@UAEFH@Z 00410020 f i DBAccess.obj
 0001:0000f090       ?BindParameters@CTBLChannel@@UAEFH@Z 00410090 f i DBAccess.obj
 0001:0000f0d0       ?BindParameters@CTBLChar@@UAEFH@Z 004100d0 f i DBAccess.obj
 0001:0000f110       ?BindParameters@CTBLGroupList@@UAEFH@Z 00410110 f i DBAccess.obj
 0001:0000f150       ?BindParameters@CTBLItem@@UAEFH@Z 00410150 f i DBAccess.obj
 0001:0000f210       ?GetNumCol@CTBLChannel@@UAEHXZ 00410210 f i DBAccess.obj
 0001:0000f210       ?GetNumCol@CTBLGroup@@UAEHXZ 00410210 f i DBAccess.obj
 0001:0000f210       ?GetNumParam@CSPRoute@@UAEHXZ 00410210 f i DBAccess.obj
 0001:0000f220       ?GetNumCol@CTBLChar@@UAEHXZ 00410220 f i DBAccess.obj
 0001:0000f230       ?GetNumCol@CTBLGroupList@@UAEHXZ 00410230 f i DBAccess.obj
 0001:0000f240       ?GetNumCol@CTBLItem@@UAEHXZ 00410240 f i DBAccess.obj
 0001:0000f240       ?GetNumParam@CSPTestLogin@@UAEHXZ 00410240 f i DBAccess.obj
 0001:0000f250       ?GetNumCol@CTBLUserCount@@UAEHXZ 00410250 f i DBAccess.obj
 0001:0000f250       ?GetNumCol@CTBLVeteranChart@@UAEHXZ 00410250 f i DBAccess.obj
 0001:0000f250       ?GetNumParam@CSPAddNewMACAddress@@UAEHXZ 00410250 f i DBAccess.obj
 0001:0000f250       ?GetNumParam@CSPCheckForbiddenHWID@@UAEHXZ 00410250 f i DBAccess.obj
 0001:0000f250       ?GetNumParam@CSPCheckIP@@UAEHXZ 00410250 f i DBAccess.obj
 0001:0000f250       ?GetNumParam@CSPFindBOWPlayer@@UAEHXZ 00410250 f i DBAccess.obj
 0001:0000f250       ?GetNumParam@CSPFindBRPlayer@@UAEHXZ 00410250 f i DBAccess.obj
 0001:0000f250       ?GetNumParam@CSPGetClientSha@@UAEHXZ 00410250 f i DBAccess.obj
 0001:0000f250       ?GetNumParam@CSPVeteran@@UAEHXZ 00410250 f i DBAccess.obj
 0001:0000f260       ?GetNumParam@CSPCheckPasswd@@UAEHXZ 00410260 f i DBAccess.obj
 0001:0000f270       ?GetNumParam@CSPCreateChar@@UAEHXZ 00410270 f i DBAccess.obj
 0001:0000f280       ?GetNumParam@CSPDeleteChar@@UAEHXZ 00410280 f i DBAccess.obj
 0001:0000f280       ?GetNumParam@CSPGetBanReason@@UAEHXZ 00410280 f i DBAccess.obj
 0001:0000f280       ?GetNumParam@CSPLogout@@UAEHXZ 00410280 f i DBAccess.obj
 0001:0000f290       ?GetNumParam@CSPFindServerID@@UAEHXZ 00410290 f i DBAccess.obj
 0001:0000f290       ?GetNumParam@CSPGetGuildInfo@@UAEHXZ 00410290 f i DBAccess.obj
 0001:0000f290       ?GetNumParam@CSPLoadService@@UAEHXZ 00410290 f i DBAccess.obj
 0001:0000f290       ?GetNumParam@CTBLItem@@UAEHXZ 00410290 f i DBAccess.obj
 0001:0000f2a0       ?GetNumParam@CSPLogin@@UAEHXZ 004102a0 f i DBAccess.obj
 0001:0000f2b0       ?GetNumParam@CSPLoginJP@@UAEHXZ 004102b0 f i DBAccess.obj
 0001:0000f2c0       ?InitQueryTGameSvr@@YAHPAVCSqlDatabase@@@Z 004102c0 f   DBAccess.obj
 0001:0000f930       ?InitQueryTLoginSvr@@YAHPAVCSqlDatabase@@@Z 00410930 f   DBAccess.obj
 0001:00010750       ??0CDebugSocket@@QAE@XZ    00411750 f   DebugSocket.obj
 0001:00010770       ?Format@?$CStringT@DV?$StrTraitATL@DV?$ChTraitsCRT@D@ATL@@@ATL@@@ATL@@QAAXPBDZZ 00411770 f i DebugSocket.obj
 0001:00010790       ?FormatV@?$CStringT@DV?$StrTraitATL@DV?$ChTraitsCRT@D@ATL@@@ATL@@@ATL@@QAEXPBDPAD@Z 00411790 f i DebugSocket.obj
 0001:00010900       ?Initialize@CDebugSocket@@QAEHPADH@Z 00411900 f   DebugSocket.obj
 0001:00010980       ??0?$basic_istream@DU?$char_traits@D@std@@@std@@QAE@PAV?$basic_streambuf@DU?$char_traits@D@std@@@1@_N@Z 00411980 f i mailer.obj
 0001:00010b80       ??1sentry@?$basic_istream@DU?$char_traits@D@std@@@std@@QAE@XZ 00411b80 f i mailer.obj
 0001:00010bd1       ??_E?$basic_istream@DU?$char_traits@D@std@@@std@@$4PPPPPPPM@A@AEPAXI@Z 00411bd1 f i mailer.obj
 0001:00010be0       ??_E?$basic_istream@DU?$char_traits@D@std@@@std@@UAEPAXI@Z 00411be0 f i mailer.obj
 0001:00010be0       ??_G?$basic_istream@DU?$char_traits@D@std@@@std@@UAEPAXI@Z 00411be0 f i mailer.obj
 0001:00010c70       ?_Ipfx@?$basic_istream@DU?$char_traits@D@std@@@std@@QAE_N_N@Z 00411c70 f i mailer.obj
 0001:00010f30       ?LogEvent@?$CAtlServiceModuleT@VCTLoginSvrModule@@$0GE@@ATL@@QAAXPBDZZ 00411f30 f i SSHandler.obj
 0001:00010fe0       ??0CTLoginSession@@QAE@XZ  00411fe0 f   TLoginSession.obj
 0001:00011000       ??1CTLoginSession@@UAE@XZ  00412000 f   TLoginSession.obj
 0001:00011010       ??_ECTLoginSession@@UAEPAXI@Z 00412010 f i TLoginSession.obj
 0001:00011010       ??_GCTLoginSession@@UAEPAXI@Z 00412010 f i TLoginSession.obj
 0001:00011040       ??$?5DU?$char_traits@D@std@@V?$allocator@D@1@@std@@YAAAV?$basic_istream@DU?$char_traits@D@std@@@0@AAV10@AAV?$basic_string@DU?$char_traits@D@std@@V?$allocator@D@2@@0@@Z 00412040 f i TLoginSvr.obj
 0001:00011380       ??$_Emplace_reallocate@ABUtagTVETERAN@@@?$vector@UtagTVETERAN@@V?$allocator@UtagTVETERAN@@@std@@@std@@AAEPAUtagTVETERAN@@QAU2@ABU2@@Z 00412380 f i TLoginSvr.obj
 0001:000114e0       ??$_Erase_tree@V?$allocator@U?$_Tree_node@U?$pair@$$CBKUtagEVENTINFO@@@std@@PAX@std@@@std@@@?$_Tree_val@U?$_Tree_simple_types@U?$pair@$$CBKUtagEVENTINFO@@@std@@@std@@@std@@QAEXAAV?$allocator@U?$_Tree_node@U?$pair@$$CBKUtagEVENTINFO@@@std@@PAX@std@@@1@PAU?$_Tree_node@U?$pair@$$CBKUtagEVENTINFO@@@std@@PAX@1@@Z 004124e0 f i TLoginSvr.obj
 0001:00011530       ??$_Find_lower_bound@E@?$_Tree@V?$_Tmap_traits@EPAUtagTGROUP@@U?$less@E@std@@V?$allocator@U?$pair@$$CBEPAUtagTGROUP@@@std@@@3@$0A@@std@@@std@@IBE?AU?$_Tree_find_result@PAU?$_Tree_node@U?$pair@$$CBEPAUtagTGROUP@@@std@@PAX@std@@@1@ABE@Z 00412530 f i TLoginSvr.obj
 0001:00011580       ??0CAtlModule@ATL@@QAE@XZ  00412580 f i TLoginSvr.obj
 0001:000115f0       ??0CTLoginSvrModule@@QAE@XZ 004125f0 f   TLoginSvr.obj
 0001:00011a20       ??1?$CAtlServiceModuleT@VCTLoginSvrModule@@$0GE@@ATL@@UAE@XZ 00412a20 f i TLoginSvr.obj
 0001:00011a30       ??1?$_Tree@V?$_Tmap_traits@EPAUtagTGROUP@@U?$less@E@std@@V?$allocator@U?$pair@$$CBEPAUtagTGROUP@@@std@@@3@$0A@@std@@@std@@QAE@XZ 00412a30 f i TLoginSvr.obj
 0001:00011a30       ??1?$_Tree@V?$_Tmap_traits@KKU?$less@K@std@@V?$allocator@U?$pair@$$CBKK@std@@@2@$0A@@std@@@std@@QAE@XZ 00412a30 f i TLoginSvr.obj
 0001:00011a30       ??1?$_Tree@V?$_Tmap_traits@KPAVCTUser@@U?$less@K@std@@V?$allocator@U?$pair@$$CBKPAVCTUser@@@std@@@3@$0A@@std@@@std@@QAE@XZ 00412a30 f i TLoginSvr.obj
 0001:00011a70       ??1?$map@EPAUtagTGROUP@@U?$less@E@std@@V?$allocator@U?$pair@$$CBEPAUtagTGROUP@@@std@@@3@@std@@QAE@XZ 00412a70 f i TLoginSvr.obj
 0001:00011a70       ??1?$map@KKU?$less@K@std@@V?$allocator@U?$pair@$$CBKK@std@@@2@@std@@QAE@XZ 00412a70 f i TLoginSvr.obj
 0001:00011a70       ??1?$map@KPAVCTUser@@U?$less@K@std@@V?$allocator@U?$pair@$$CBKPAVCTUser@@@std@@@3@@std@@QAE@XZ 00412a70 f i TLoginSvr.obj
 0001:00011a80       ??1?$map@KUtagEVENTINFO@@U?$less@K@std@@V?$allocator@U?$pair@$$CBKUtagEVENTINFO@@@std@@@3@@std@@QAE@XZ 00412a80 f i TLoginSvr.obj
 0001:00011aa0       ??1?$vector@UtagTVETERAN@@V?$allocator@UtagTVETERAN@@@std@@@std@@QAE@XZ 00412aa0 f i TLoginSvr.obj
 0001:00011b00       ??1CTLoginSvrModule@@UAE@XZ 00412b00 f   TLoginSvr.obj
 0001:00011d80       ??_ECTLoginSvrModule@@UAEPAXI@Z 00412d80 f i TLoginSvr.obj
 0001:00011d80       ??_GCTLoginSvrModule@@UAEPAXI@Z 00412d80 f i TLoginSvr.obj
 0001:00011db0       ?Accept@CTLoginSvrModule@@IAEEXZ 00412db0 f   TLoginSvr.obj
 0001:00011f90       ?AddCommonRGSReplacements@?$CAtlModuleT@VCTLoginSvrModule@@@ATL@@UAEJPAUIRegistrarBase@@@Z 00412f90 f i TLoginSvr.obj
 0001:00011fb0       ?CheckCharName@CTLoginSvrModule@@QAEEPBD@Z 00412fb0 f   TLoginSvr.obj
 0001:00012230       ?CloseSession@CTLoginSvrModule@@IAEXPAVCTUser@@@Z 00413230 f   TLoginSvr.obj
 0001:00012240       ?FindGroup@CTLoginSvrModule@@IAEPAUtagTGROUP@@PAV?$map@EPAUtagTGROUP@@U?$less@E@std@@V?$allocator@U?$pair@$$CBEPAUtagTGROUP@@@std@@@3@@std@@E@Z 00413240 f   TLoginSvr.obj
 0001:00012290       ?GetCheckFilePoint@CTLoginSvrModule@@IAEKPAVCTUser@@@Z 00413290 f   TLoginSvr.obj
 0001:00012450       ?GetCurrentUser@CTLoginSvrModule@@IAEKE@Z 00413450 f   TLoginSvr.obj
 0001:000124a0       ?GetGITPtr@CAtlModule@ATL@@UAEJPAPAUIGlobalInterfaceTable@@@Z 004134a0 f i TLoginSvr.obj
 0001:000124f0       ?GetLockCount@CAtlModule@ATL@@UAEJXZ 004134f0 f i TLoginSvr.obj
 0001:00012500       ?InitDB@CTLoginSvrModule@@IAEKPAVCSqlDatabase@@@Z 00413500 f   TLoginSvr.obj
 0001:00012570       ?LoadConfig@CTLoginSvrModule@@IAEKXZ 00413570 f   TLoginSvr.obj
 0001:00012870       ?LoadData@CTLoginSvrModule@@IAEKPAVCSqlDatabase@@PAV?$map@EPAUtagTGROUP@@U?$less@E@std@@V?$allocator@U?$pair@$$CBEPAUtagTGROUP@@@std@@@3@@std@@@Z 00413870 f   TLoginSvr.obj
 0001:00012c30       ?LoadDataLogin@CTLoginSvrModule@@IAEKXZ 00413c30 f   TLoginSvr.obj
 0001:000131e0       ?Lock@?$CAtlExeModuleT@VCTLoginSvrModule@@@ATL@@UAEJXZ 004141e0 f i TLoginSvr.obj
 0001:000131f0       ?LogExecCheck@CTLoginSvrModule@@IAEXKKV?$CStringT@DV?$StrTraitATL@DV?$ChTraitsCRT@D@ATL@@@ATL@@@ATL@@@Z 004141f0 f   TLoginSvr.obj
 0001:00013530       ?OnCloseSession@CTLoginSvrModule@@IAEXPAVCTUser@@@Z 00414530 f   TLoginSvr.obj
 0001:00013700       ?OnEnter@CTLoginSvrModule@@MAEKXZ 00414700 f   TLoginSvr.obj
 0001:00013aa0       ?OnExit@CTLoginSvrModule@@MAEXXZ 00414aa0 f   TLoginSvr.obj
 0001:00013d10       ?OnReceive@CTLoginSvrModule@@IAEKPAVCSqlDatabase@@PAV?$map@EPAUtagTGROUP@@U?$less@E@std@@V?$allocator@U?$pair@$$CBEPAUtagTGROUP@@@std@@@3@@std@@PAVCTUser@@AAVCPacket@@@Z 00414d10 f   TLoginSvr.obj
 0001:00014010       ?Term@CAtlModule@ATL@@QAEXXZ 00415010 f i TLoginSvr.obj
 0001:000140a0       ?Unlock@?$CAtlServiceModuleT@VCTLoginSvrModule@@$0GE@@ATL@@UAEJXZ 004150a0 f i TLoginSvr.obj
 0001:000140c0       ?WaitForConnect@CTLoginSvrModule@@IAEEXZ 004150c0 f   TLoginSvr.obj
 0001:00014160       ?WorkThread@CTLoginSvrModule@@IAEKXZ 00415160 f   TLoginSvr.obj
 0001:00014540       ?_AtlRaiseException@ATL@@YAXKK@Z 00415540 f i TLoginSvr.obj
 0001:00014560       ?_ControlThread@CTLoginSvrModule@@CGKPAX@Z 00415560 f   TLoginSvr.obj
 0001:00014660       ?_WorkThread@CTLoginSvrModule@@CGKPAX@Z 00415660 f   TLoginSvr.obj
 0001:00014670       ?clear@?$_Tree@V?$_Tmap_traits@KKU?$less@K@std@@V?$allocator@U?$pair@$$CBKK@std@@@2@$0A@@std@@@std@@QAEXXZ 00415670 f i TLoginSvr.obj
 0001:00014670       ?clear@?$_Tree@V?$_Tmap_traits@KPAVCTUser@@U?$less@K@std@@V?$allocator@U?$pair@$$CBKPAVCTUser@@@std@@@3@$0A@@std@@@std@@QAEXXZ 00415670 f i TLoginSvr.obj
 0001:000146c0       ?snextc@?$basic_streambuf@DU?$char_traits@D@std@@@std@@QAEHXZ 004156c0 f i TLoginSvr.obj
 0001:00014730       _main                      00415730 f   TLoginSvr.obj
 0001:00014880       ??0CTUser@@QAE@XZ          00415880 f   TUser.obj
 0001:00014ad0       ??1?$deque@KV?$allocator@K@std@@@std@@QAE@XZ 00415ad0 f i TUser.obj
 0001:00014ad0       ??1?$deque@PAVCPacket@@V?$allocator@PAVCPacket@@@std@@@std@@QAE@XZ 00415ad0 f i TNetLib:Session.obj
 0001:00014b80       ??1CTUser@@UAE@XZ          00415b80 f   TUser.obj
 0001:00014cc0       ??_ECTUser@@UAEPAXI@Z      00415cc0 f i TUser.obj
 0001:00014cc0       ??_GCTUser@@UAEPAXI@Z      00415cc0 f i TUser.obj
 0001:00014cf0       ?Say@CTUser@@UAEHPAVCPacket@@@Z 00415cf0 f   TUser.obj
 0001:00014d11       _AcceptEx@32               00415d11 f   mswsock:MSWSOCK.dll
 0001:00014d20       ??$_Erase_tree@V?$allocator@U?$_Tree_node@U?$pair@$$CBV?$basic_string@DU?$char_traits@D@std@@V?$allocator@D@2@@std@@PAVCSqlQuery@@@std@@PAX@std@@@std@@@?$_Tree_val@U?$_Tree_simple_types@U?$pair@$$CBV?$basic_string@DU?$char_traits@D@std@@V?$allocator@D@2@@std@@PAVCSqlQuery@@@std@@@std@@@std@@QAEXAAV?$allocator@U?$_Tree_node@U?$pair@$$CBV?$basic_string@DU?$char_traits@D@std@@V?$allocator@D@2@@std@@PAVCSqlQuery@@@std@@PAX@std@@@1@PAU?$_Tree_node@U?$pair@$$CBV?$basic_string@DU?$char_traits@D@std@@V?$allocator@D@2@@std@@PAVCSqlQuery@@@std@@PAX@1@@Z 00415d20 f i TNetLib:SqlDatabase.obj
 0001:00014db0       ??$_Find_lower_bound@V?$basic_string@DU?$char_traits@D@std@@V?$allocator@D@2@@std@@@?$_Tree@V?$_Tmap_traits@V?$basic_string@DU?$char_traits@D@std@@V?$allocator@D@2@@std@@PAVCSqlQuery@@U?$less@V?$basic_string@DU?$char_traits@D@std@@V?$allocator@D@2@@std@@@2@V?$allocator@U?$pair@$$CBV?$basic_string@DU?$char_traits@D@std@@V?$allocator@D@2@@std@@PAVCSqlQuery@@@std@@@2@$0A@@std@@@std@@IBE?AU?$_Tree_find_result@PAU?$_Tree_node@U?$pair@$$CBV?$basic_string@DU?$char_traits@D@std@@V?$allocator@D@2@@std@@PAVCSqlQuery@@@std@@PAX@std@@@1@ABV?$basic_string@DU?$char_traits@D@std@@V?$allocator@D@2@@1@@Z 00415db0 f i TNetLib:SqlDatabase.obj
 0001:00014ea0       ??$_Freenode@V?$allocator@U?$_Tree_node@U?$pair@$$CBV?$basic_string@DU?$char_traits@D@std@@V?$allocator@D@2@@std@@PAVCSqlQuery@@@std@@PAX@std@@@std@@@?$_Tree_node@U?$pair@$$CBV?$basic_string@DU?$char_traits@D@std@@V?$allocator@D@2@@std@@PAVCSqlQuery@@@std@@PAX@std@@SAXAAV?$allocator@U?$_Tree_node@U?$pair@$$CBV?$basic_string@DU?$char_traits@D@std@@V?$allocator@D@2@@std@@PAVCSqlQuery@@@std@@PAX@std@@@1@PAU01@@Z 00415ea0 f i TNetLib:SqlDatabase.obj
 0001:00014f00       ??0CSqlDatabase@@QAE@XZ    00415f00 f   TNetLib:SqlDatabase.obj
 0001:00014f60       ??1?$_Alloc_construct_ptr@V?$allocator@U?$_Tree_node@U?$pair@$$CBV?$basic_string@DU?$char_traits@D@std@@V?$allocator@D@2@@std@@PAVCSqlQuery@@@std@@PAX@std@@@std@@@std@@QAE@XZ 00415f60 f i TNetLib:SqlDatabase.obj
 0001:00014f60       ??1?$_Tree_temp_node_alloc@V?$allocator@U?$_Tree_node@U?$pair@$$CBV?$basic_string@DU?$char_traits@D@std@@V?$allocator@D@2@@std@@PAVCSqlQuery@@@std@@PAX@std@@@std@@@std@@QAE@XZ 00415f60 f i TNetLib:SqlDatabase.obj
 0001:00014f80       ??1CSqlDatabase@@UAE@XZ    00415f80 f   TNetLib:SqlDatabase.obj
 0001:00014ff0       ??R?$less@V?$basic_string@DU?$char_traits@D@std@@V?$allocator@D@2@@std@@@std@@QBE_NABV?$basic_string@DU?$char_traits@D@std@@V?$allocator@D@2@@1@0@Z 00415ff0 f i TNetLib:SqlDatabase.obj
 0001:000150a0       ??_ECSqlDatabase@@UAEPAXI@Z 004160a0 f i TNetLib:SqlDatabase.obj
 0001:000150a0       ??_GCSqlDatabase@@UAEPAXI@Z 004160a0 f i TNetLib:SqlDatabase.obj
 0001:00015120       ?AddQuery@CSqlDatabase@@QAEHPAVCSqlQuery@@V?$basic_string@DU?$char_traits@D@std@@V?$allocator@D@2@@std@@@Z 00416120 f   TNetLib:SqlDatabase.obj
 0001:000152d0       ?Close@CSqlDatabase@@QAEXXZ 004162d0 f   TNetLib:SqlDatabase.obj
 0001:00015390       ?DelQuery@CSqlDatabase@@QAEPAVCSqlQuery@@V?$basic_string@DU?$char_traits@D@std@@V?$allocator@D@2@@std@@@Z 00416390 f   TNetLib:SqlDatabase.obj
 0001:00015430       ?GetQuery@CSqlDatabase@@QAEPAVCSqlQuery@@V?$basic_string@DU?$char_traits@D@std@@V?$allocator@D@2@@std@@@Z 00416430 f   TNetLib:SqlDatabase.obj
 0001:000154c0       ?HDBC@CSqlDatabase@@QAEPAXXZ 004164c0 f   TNetLib:SqlDatabase.obj
 0001:000154d0       ?Open@CSqlDatabase@@QAEHPBD00@Z 004164d0 f   TNetLib:SqlDatabase.obj
 0001:000155a0       ??0CSqlBase@@QAE@PAVCSqlDatabase@@PBD@Z 004165a0 f   TNetLib:SqlBase.obj
 0001:00015630       ??1CSqlBase@@UAE@XZ        00416630 f   TNetLib:SqlBase.obj
 0001:00015660       ??_ECSqlBase@@UAEPAXI@Z    00416660 f i TNetLib:SqlBase.obj
 0001:00015660       ??_GCSqlBase@@UAEPAXI@Z    00416660 f i TNetLib:SqlBase.obj
 0001:000156b0       ?AllocStatement@CSqlBase@@UAEHXZ 004166b0 f   TNetLib:SqlBase.obj
 0001:00015720       ?BindCol@CSqlBase@@QAEFFPAE@Z 00416720 f   TNetLib:SqlBase.obj
 0001:00015750       ?BindCol@CSqlBase@@QAEFFPAG@Z 00416750 f   TNetLib:SqlBase.obj
 0001:00015780       ?BindCol@CSqlBase@@QAEFFPAK@Z 00416780 f   TNetLib:SqlBase.obj
 0001:000157b0       ?BindColStr@CSqlBase@@QAEFFPADJ@Z 004167b0 f   TNetLib:SqlBase.obj
 0001:000157e0       ?BindParam@CSqlBase@@QAEFFFPAE@Z 004167e0 f   TNetLib:SqlBase.obj
 0001:00015810       ?BindParam@CSqlBase@@QAEFFFPAG@Z 00416810 f   TNetLib:SqlBase.obj
 0001:00015840       ?BindParam@CSqlBase@@QAEFFFPAH@Z 00416840 f   TNetLib:SqlBase.obj
 0001:00015840       ?BindParam@CSqlBase@@QAEFFFPAK@Z 00416840 f   TNetLib:SqlBase.obj
 0001:00015870       ?BindParam@CSqlBase@@QAEFFFPAUtagTIMESTAMP_STRUCT@@@Z 00416870 f   TNetLib:SqlBase.obj
 0001:000158a0       ?BindParamStr@CSqlBase@@QAEFFFPADJ@Z 004168a0 f   TNetLib:SqlBase.obj
 0001:000158d0       ?Call@CSqlBase@@QAEHXZ     004168d0 f   TNetLib:SqlBase.obj
 0001:000158e0       ?Close@CSqlBase@@QAEXXZ    004168e0 f   TNetLib:SqlBase.obj
 0001:000158f0       ?Fetch@CSqlBase@@QAEHXZ    004168f0 f   TNetLib:SqlBase.obj
 0001:00015b00       ?FreeStatement@CSqlBase@@QAEXXZ 00416b00 f   TNetLib:SqlBase.obj
 0001:00015b30       ?Open@CSqlBase@@QAEHH@Z    00416b30 f   TNetLib:SqlBase.obj
 0001:00015e60       ??0COverlappedEx@@QAE@XZ   00416e60 f   TNetLib:Packet.obj
 0001:00015e90       ??0CPacket@@QAE@XZ         00416e90 f   TNetLib:Packet.obj
 0001:00015f50       ??1COverlappedEx@@UAE@XZ   00416f50 f   TNetLib:Packet.obj
 0001:00015f60       ??1CPacket@@UAE@XZ         00416f60 f   TNetLib:Packet.obj
 0001:00015f80       ??5CPacket@@QAEAAV0@AAE@Z  00416f80 f   TNetLib:Packet.obj
 0001:00015fd0       ??5CPacket@@QAEAAV0@AAG@Z  00416fd0 f   TNetLib:Packet.obj
 0001:00016030       ??5CPacket@@QAEAAV0@AAK@Z  00417030 f   TNetLib:Packet.obj
 0001:00016030       ??5CPacket@@QAEAAV0@AAM@Z  00417030 f   TNetLib:Packet.obj
 0001:00016080       ??5CPacket@@QAEAAV0@AAV?$CStringT@DV?$StrTraitATL@DV?$ChTraitsCRT@D@ATL@@@ATL@@@ATL@@@Z 00417080 f   TNetLib:Packet.obj
 0001:00016140       ??5CPacket@@QAEAAV0@AA_J@Z 00417140 f   TNetLib:Packet.obj
 0001:000161a0       ??6CPacket@@QAEAAV0@E@Z    004171a0 f   TNetLib:Packet.obj
 0001:00016210       ??6CPacket@@QAEAAV0@G@Z    00417210 f   TNetLib:Packet.obj
 0001:00016280       ??6CPacket@@QAEAAV0@K@Z    00417280 f   TNetLib:Packet.obj
 0001:000162f0       ??6CPacket@@QAEAAV0@PBD@Z  004172f0 f   TNetLib:Packet.obj
 0001:00016370       ??6CPacket@@QAEAAV0@_J@Z   00417370 f   TNetLib:Packet.obj
 0001:000163e0       ??_ECOverlappedEx@@UAEPAXI@Z 004173e0 f i TNetLib:Packet.obj
 0001:000163e0       ??_GCOverlappedEx@@UAEPAXI@Z 004173e0 f i TNetLib:Packet.obj
 0001:00016410       ??_ECPacket@@UAEPAXI@Z     00417410 f i TNetLib:Packet.obj
 0001:00016410       ??_GCPacket@@UAEPAXI@Z     00417410 f i TNetLib:Packet.obj
 0001:00016450       ?Clear@CPacket@@QAEXXZ     00417450 f   TNetLib:Packet.obj
 0001:00016490       ?Decrypt@CPacket@@QAEH_J@Z 00417490 f   TNetLib:Packet.obj
 0001:00016610       ?DecryptHeader@CPacket@@QAEX_J@Z 00417610 f   TNetLib:Packet.obj
 0001:00016660       ?Encrypt@CPacket@@QAEX_J@Z 00417660 f   TNetLib:Packet.obj
 0001:000167d0       ?EncryptHeader@CPacket@@QAEX_J@Z 004177d0 f   TNetLib:Packet.obj
 0001:00016820       ?ExpandIoBuffer@CPacket@@QAEKK@Z 00417820 f   TNetLib:Packet.obj
 0001:000168a0       ?Flush@CPacket@@QAEXXZ     004178a0 f   TNetLib:Packet.obj
 0001:00016910       ?GetBuffer@CPacket@@QAEPAEXZ 00417910 f   TNetLib:Packet.obj
 0001:00016920       ?GetID@CPacket@@QAEGXZ     00417920 f   TNetLib:Packet.obj
 0001:00016940       ?GetReadBytes@CPacket@@QAEKXZ 00417940 f   TNetLib:Packet.obj
 0001:00016950       ?GetSize@CPacket@@QAEGXZ   00417950 f   TNetLib:Packet.obj
 0001:00016970       ?IsReadBufferFull@CPacket@@QAEHXZ 00417970 f   TNetLib:Packet.obj
 0001:000169a0       ?Read@CPacket@@QAEXPAXH@Z  004179a0 f   TNetLib:Packet.obj
 0001:00016a00       ?ReadBytes@CPacket@@QAEHK@Z 00417a00 f   TNetLib:Packet.obj
 0001:00016a20       ?SetID@CPacket@@QAEAAV1@G@Z 00417a20 f   TNetLib:Packet.obj
 0001:00016a40       ?Write@CPacket@@QAEXPAXH@Z 00417a40 f   TNetLib:Packet.obj
 0001:00016ac0       ??0CSqlQuery@@QAE@PAVCSqlDatabase@@V?$basic_string@DU?$char_traits@D@std@@V?$allocator@D@2@@std@@PBD@Z 00417ac0 f   TNetLib:SqlQuery.obj
 0001:00016ec0       ??1CSqlQuery@@UAE@XZ       00417ec0 f   TNetLib:SqlQuery.obj
 0001:00017090       ?AllocStatement@CSqlQuery@@UAEHXZ 00418090 f   TNetLib:SqlQuery.obj
 0001:00017190       ?BindParameters@CSqlQuery@@UAEFH@Z 00418190 f   TNetLib:SqlQuery.obj
 0001:000171a0       ?ResetKey@CSqlQuery@@QAEXXZ 004181a0 f   TNetLib:SqlQuery.obj
 0001:000171c0       ??0CSession@@QAE@XZ        004181c0 f   TNetLib:Session.obj
 0001:00017360       ??1?$queue@PAVCPacket@@V?$deque@PAVCPacket@@V?$allocator@PAVCPacket@@@std@@@std@@@std@@QAE@XZ 00418360 f i TNetLib:Session.obj
 0001:00017370       ??1CSession@@UAE@XZ        00418370 f   TNetLib:Session.obj
 0001:00017490       ??_ECSession@@UAEPAXI@Z    00418490 f i TNetLib:Session.obj
 0001:00017490       ??_GCSession@@UAEPAXI@Z    00418490 f i TNetLib:Session.obj
 0001:000175d0       ?CheckMessage@CSession@@QAEHXZ 004185d0 f   TNetLib:Session.obj
 0001:000176b0       ?Close@CSession@@UAEXXZ    004186b0 f   TNetLib:Session.obj
 0001:00017750       ?CloseSession@CSession@@QAEHXZ 00418750 f   TNetLib:Session.obj
 0001:000177a0       ?CreateSocket@CSession@@SAHAAI@Z 004187a0 f   TNetLib:Session.obj
 0001:00017870       ?Decrypt@CSession@@AAEHPAVCPacket@@@Z 00418870 f   TNetLib:Session.obj
 0001:00017a40       ?Flush@CSession@@QAEXXZ    00418a40 f   TNetLib:Session.obj
 0001:00017ab0       ?Listen@CSession@@QAEHG@Z  00418ab0 f   TNetLib:Session.obj
 0001:00017b50       ?OnInvalidSession@CSession@@QAEHXZ 00418b50 f   TNetLib:Session.obj
 0001:00017bd0       ?Open@CSession@@UAEHIAAVCPacket@@@Z 00418bd0 f   TNetLib:Session.obj
 0001:00017c10       ?Post@CSession@@QAEHXZ     00418c10 f   TNetLib:Session.obj
 0001:00017d90       ?Read@CSession@@QAEHK@Z    00418d90 f   TNetLib:Session.obj
 0001:00017e20       ?Say@CSession@@UAEHPAVCPacket@@@Z 00418e20 f   TNetLib:Session.obj
 0001:00017f90       ?SendComplete@CSession@@QAEHK@Z 00418f90 f   TNetLib:Session.obj
 0001:00018090       ?WaitForMessage@CSession@@QAEHXZ 00419090 f   TNetLib:Session.obj
 0001:000181b0       ?EncryptBuffer@@YAHIPAEAAK0K0K@Z 004191b0 f   TNetLib:CryptographyExt.obj
 0001:00018360       ?TraceLastError@@YAXPBD0K@Z 00419360 f   TNetLib:CryptographyExt.obj
 0001:00018432       ??0CAtlBaseModule@ATL@@QAE@XZ 00419432 f   atls:atlbase.obj
 0001:00018485       ??0_ATL_BASE_MODULE70@ATL@@QAE@XZ 00419485 f i atls:atlbase.obj
 0001:000184a8       ??1CAtlBaseModule@ATL@@QAE@XZ 004194a8 f   atls:atlbase.obj
 0001:000184be       ??A?$CSimpleArray@PAUHINSTANCE__@@V?$CSimpleArrayEqualHelper@PAUHINSTANCE__@@@ATL@@@ATL@@QAEAAPAUHINSTANCE__@@H@Z 004194be f i atls:atlbase.obj
 0001:000184e1       ?GetHInstanceAt@CAtlBaseModule@ATL@@QAEPAUHINSTANCE__@@H@Z 004194e1 f   atls:atlbase.obj
 0001:00018526       ?Init@CComCriticalSection@ATL@@QAEJXZ 00419526 f i atls:atlbase.obj
 0001:00018551       ?RemoveAll@?$CSimpleArray@PAUHINSTANCE__@@V?$CSimpleArrayEqualHelper@PAUHINSTANCE__@@@ATL@@@ATL@@QAEXXZ 00419551 f i atls:atlbase.obj
 0001:0001856e       ??0bad_alloc@std@@QAE@XZ   0041956e f i libcpmt:xthrow.obj
 0001:00018586       ??0invalid_argument@std@@QAE@ABV01@@Z 00419586 f i libcpmt:xthrow.obj
 0001:000185a1       ??0invalid_argument@std@@QAE@PBD@Z 004195a1 f i libcpmt:xthrow.obj
 0001:000185c0       ??0length_error@std@@QAE@ABV01@@Z 004195c0 f i libcpmt:xthrow.obj
 0001:000185db       ??0length_error@std@@QAE@PBD@Z 004195db f i libcpmt:xthrow.obj
 0001:000185fa       ??0logic_error@std@@QAE@ABV01@@Z 004195fa f i libcpmt:xthrow.obj
 0001:00018615       ??0out_of_range@std@@QAE@ABV01@@Z 00419615 f i libcpmt:xthrow.obj
 0001:00018630       ??0out_of_range@std@@QAE@PBD@Z 00419630 f i libcpmt:xthrow.obj
 0001:0001864f       ??0runtime_error@std@@QAE@PBD@Z 0041964f f i libcpmt:xthrow.obj
 0001:0001866e       ??_Ebad_exception@std@@UAEPAXI@Z 0041966e f i libvcruntime:frame.obj
 0001:0001866e       ??_Einvalid_argument@std@@UAEPAXI@Z 0041966e f i libcpmt:xthrow.obj
 0001:0001866e       ??_Elength_error@std@@UAEPAXI@Z 0041966e f i libcpmt:xthrow.obj
 0001:0001866e       ??_Elogic_error@std@@UAEPAXI@Z 0041966e f i libcpmt:xthrow.obj
 0001:0001866e       ??_Eout_of_range@std@@UAEPAXI@Z 0041966e f i libcpmt:xthrow.obj
 0001:0001866e       ??_Gbad_exception@std@@UAEPAXI@Z 0041966e f i libvcruntime:frame.obj
 0001:0001866e       ??_Ginvalid_argument@std@@UAEPAXI@Z 0041966e f i libcpmt:xthrow.obj
 0001:0001866e       ??_Glength_error@std@@UAEPAXI@Z 0041966e f i libcpmt:xthrow.obj
 0001:0001866e       ??_Glogic_error@std@@UAEPAXI@Z 0041966e f i libcpmt:xthrow.obj
 0001:0001866e       ??_Gout_of_range@std@@UAEPAXI@Z 0041966e f i libcpmt:xthrow.obj
 0001:0001869b       ?_Xinvalid_argument@std@@YAXPBD@Z 0041969b f   libcpmt:xthrow.obj
 0001:000186bb       ?_Xlength_error@std@@YAXPBD@Z 004196bb f   libcpmt:xthrow.obj
 0001:000186db       ?_Xout_of_range@std@@YAXPBD@Z 004196db f   libcpmt:xthrow.obj
 0001:000186fb       ?_Xruntime_error@std@@YAXPBD@Z 004196fb f   libcpmt:xthrow.obj
 0001:0001871b       ??0_Init_locks@std@@QAE@XZ 0041971b f   libcpmt:xlock.obj
 0001:00018748       ??0_Lockit@std@@QAE@H@Z    00419748 f   libcpmt:xlock.obj
 0001:00018779       ??1_Init_locks@std@@QAE@XZ 00419779 f   libcpmt:xlock.obj
 0001:000187a0       ??1_Lockit@std@@QAE@XZ     004197a0 f   libcpmt:xlock.obj
 0001:000187bf       ?uncaught_exception@std@@YA_NXZ 004197bf f   libcpmt:uncaught_exception.obj
 0001:000187c4       ?_Syserror_map@std@@YAPBDH@Z 004197c4 f   libcpmt:syserror.obj
 0001:000187e9       ??0_Locimp@locale@std@@AAE@_N@Z 004197e9 f i libcpmt:locale0.obj
 0001:0001882a       ??1_Fac_node@std@@QAE@XZ   0041982a f i libcpmt:locale0.obj
 0001:0001885b       ??1_Fac_tidy_reg_t@std@@QAE@XZ 0041985b f i libcpmt:locale0.obj
 0001:00018882       ??1_Locimp@locale@std@@MAE@XZ 00419882 f i libcpmt:locale0.obj
 0001:000188ad       ??4?$_Yarn@D@std@@QAEAAV01@PBD@Z 004198ad f i libcpmt:locale0.obj
 0001:00018901       ??_E_Locimp@locale@std@@MAEPAXI@Z 00419901 f i libcpmt:locale0.obj
 0001:00018901       ??_G_Locimp@locale@std@@MAEPAXI@Z 00419901 f i libcpmt:locale0.obj
 0001:00018923       ?_Facet_Register@std@@YAXPAV_Facet_base@1@@Z 00419923 f   libcpmt:locale0.obj
 0001:0001894f       ?_Getgloballocale@locale@std@@CAPAV_Locimp@12@XZ 0041994f f   libcpmt:locale0.obj
 0001:00018955       ?_Init@locale@std@@CAPAV_Locimp@12@_N@Z 00419955 f   libcpmt:locale0.obj
 0001:000189e2       ?_Locimp_dtor@_Locimp@locale@std@@CAXPAV123@@Z 004199e2 f   libcpmt:locale0.obj
 0001:00018a52       ?_Locinfo_ctor@_Locinfo@std@@SAXPAV12@PBD@Z 00419a52 f   libcpmt:locale0.obj
 0001:00018a9d       ?_Locinfo_dtor@_Locinfo@std@@SAXPAV12@@Z 00419a9d f   libcpmt:locale0.obj
 0001:00018ab7       ?_New_Locimp@_Locimp@locale@std@@CAPAV123@_N@Z 00419ab7 f   libcpmt:locale0.obj
 0001:00018ada       ?_Setgloballocale@locale@std@@CAXPAX@Z 00419ada f   libcpmt:locale0.obj
 0001:00018b02       __Deletegloballocale       00419b02 f   libcpmt:locale0.obj
 0001:00018b67       __Getctype                 00419b67 f   libcpmt:_tolower.obj
 0001:00018bd2       __Tolower                  00419bd2 f   libcpmt:_tolower.obj
 0001:00018cde       __Toupper                  00419cde f   libcpmt:_toupper.obj
 0001:00018dea       ?_Addstd@ios_base@std@@SAXPAV12@@Z 00419dea f   libcpmt:ios.obj
 0001:00018e3c       ?_Callfns@ios_base@std@@AAEXW4event@12@@Z 00419e3c f i libcpmt:ios.obj
 0001:00018e6f       ?_Ios_base_dtor@ios_base@std@@CAXPAV12@@Z 00419e6f f   libcpmt:ios.obj
 0001:00018eaf       ?_Tidy@ios_base@std@@AAEXXZ 00419eaf f i libcpmt:ios.obj
 0001:00018f2a       ?_Random_device@std@@YAIXZ 00419f2a f   libcpmt:xrngdev.obj
 0001:00018f4c       ??_D?$basic_istream@DU?$char_traits@D@std@@@std@@QAEXXZ 00419f4c f i libcpmt:cin.obj
 0001:00018fad       ??0_Init_cout@std@@QAE@XZ  00419fad f i libcpmt:cout.obj
 0001:00018fed       __Mtxdst                   00419fed f   libcpmt:xmtx.obj
 0001:00018ffb       __Mtxinit                  00419ffb f   libcpmt:xmtx.obj
 0001:00019010       __Mtxlock                  0041a010 f   libcpmt:xmtx.obj
 0001:0001901e       __Mtxunlock                0041a01e f   libcpmt:xmtx.obj
 0001:0001902c       ??1_Init_atexit@@QAE@XZ    0041a02c f i libcpmt:iosptrs.obj
 0001:00019094       ?_Atexit@@YAXP6AXXZ@Z      0041a094 f   libcpmt:iosptrs.obj
 0001:000190c3       ??1?$__crt_scoped_stack_ptr@_W@@QAE@XZ 0041a0c3 f i libcpmt:StlLCMapStringA.obj
 0001:000190dc       ___crtLCMapStringA         0041a0dc f   libcpmt:StlLCMapStringA.obj
 0001:000192a8       __freea_crt                0041a2a8 f i libcpmt:StlLCMapStringA.obj
 0001:000192c6       ??2@YAPAXI@Z               0041a2c6 f   LIBCMT:new_scalar.obj
 0001:000192f6       ??3@YAXPAXI@Z              0041a2f6 f   LIBCMT:delete_scalar_size.obj
 0001:00019348       ___scrt_acquire_startup_lock 0041a348 f   LIBCMT:utility.obj
 0001:0001937a       ___scrt_initialize_crt     0041a37a f   LIBCMT:utility.obj
 0001:000193b3       ___scrt_initialize_onexit_tables 0041a3b3 f   LIBCMT:utility.obj
 0001:0001943a       ___scrt_is_nonwritable_in_current_image 0041a43a f   LIBCMT:utility.obj
 0001:000194ce       ___scrt_release_startup_lock 0041a4ce f   LIBCMT:utility.obj
 0001:000194eb       ___scrt_uninitialize_crt   0041a4eb f   LIBCMT:utility.obj
 0001:00019513       __onexit                   0041a513 f   LIBCMT:utility.obj
 0001:00019540       _atexit                    0041a540 f   LIBCMT:utility.obj
 0001:0001961a       __Init_thread_abort        0041a61a f   LIBCMT:thread_safe_statics.obj
 0001:0001963e       __Init_thread_footer       0041a63e f   LIBCMT:thread_safe_statics.obj
 0001:00019688       __Init_thread_header       0041a688 f   LIBCMT:thread_safe_statics.obj
 0001:000196da       __Init_thread_notify       0041a6da f   LIBCMT:thread_safe_statics.obj
 0001:00019710       __Init_thread_wait         0041a710 f   LIBCMT:thread_safe_statics.obj
 0001:0001975e       @__security_check_cookie@4 0041a75e f   LIBCMT:secchk.obj
 0001:00019770       __alldvrm                  0041a770 f   LIBCMT:lldvrm.obj
 0001:0001984f       ??_Etype_info@@UAEPAXI@Z   0041a84f f i LIBCMT:std_type_info_static.obj
 0001:0001984f       ??_Gtype_info@@UAEPAXI@Z   0041a84f f i LIBCMT:std_type_info_static.obj
 0001:00019872       ??3@YAXPAX@Z               0041a872 f   LIBCMT:delete_scalar.obj
 0001:00019877       ??_V@YAXPAX@Z              0041a877 f   LIBCMT:delete_array.obj
 0001:0001987c       ___raise_securityfailure   0041a87c f   LIBCMT:gs_report.obj
 0001:000198a4       ___report_gsfailure        0041a8a4 f   LIBCMT:gs_report.obj
 0001:0001999e       ___report_rangecheckfailure 0041a99e f   LIBCMT:gs_report.obj
 0001:000199aa       ___report_securityfailure  0041a9aa f   LIBCMT:gs_report.obj
 0001:00019cc0       _mainCRTStartup            0041acc0 f   LIBCMT:exe_main.obj
 0001:00019cca       ??_U@YAPAXI@Z              0041acca f   LIBCMT:new_array.obj
 0001:00019ce0       __alloca_probe             0041ace0 f   LIBCMT:chkstk.obj
 0001:00019ce0       __chkstk                   0041ace0 f   LIBCMT:chkstk.obj
 0001:00019d0b       __EH_epilog3               0041ad0b f   LIBCMT:ehprolg3.obj
 0001:00019d1f       __EH_epilog3_GS            0041ad1f f   LIBCMT:ehprolg3.obj
 0001:00019d2e       __EH_prolog3               0041ad2e f   LIBCMT:ehprolg3.obj
 0001:00019d61       __EH_prolog3_GS            0041ad61 f   LIBCMT:ehprolg3.obj
 0001:00019d97       __EH_prolog3_catch         0041ad97 f   LIBCMT:ehprolg3.obj
 0001:00019dd0       __alloca_probe_16          0041add0 f   LIBCMT:alloca16.obj
 0001:00019de6       __alloca_probe_8           0041ade6     LIBCMT:alloca16.obj
 0001:00019dfc       ___isa_available_init      0041adfc f   LIBCMT:cpu_disp.obj
 0001:00019fd0       __allmul                   0041afd0 f   LIBCMT:llmul.obj
 0001:0001a010       ?__scrt_throw_std_bad_alloc@@YAXXZ 0041b010 f   LIBCMT:throw_bad_alloc.obj
 0001:0001a02d       __get_startup_argv_mode    0041b02d f   LIBCMT:argv_mode.obj
 0001:0001a031       ___scrt_is_ucrt_dll_in_use 0041b031 f   LIBCMT:ucrt_detection.obj
 0001:0001a03d       ___scrt_fastfail           0041b03d f   LIBCMT:utility_desktop.obj
 0001:0001a158       ___scrt_initialize_mta     0041b158 f   LIBCMT:utility_desktop.obj
 0001:0001a15d       ___scrt_is_managed_app     0041b15d f   LIBCMT:utility_desktop.obj
 0001:0001a19f       ___scrt_set_unhandled_exception_filter 0041b19f f   LIBCMT:utility_desktop.obj
 0001:0001a1ab       ___scrt_unhandled_exception_filter@4 0041b1ab f   LIBCMT:utility_desktop.obj
 0001:0001a201       __crt_debugger_hook        0041b201 f   LIBCMT:utility_desktop.obj
 0001:0001a210       __SEH_prolog4              0041b210 f   LIBCMT:sehprolg4.obj
 0001:0001a2a2       ___security_init_cookie    0041b2a2 f   LIBCMT:gs_support.obj
 0001:0001a2ed       __get_startup_file_mode    0041b2ed f   LIBCMT:file_mode.obj
 0001:0001a2f3       ?__scrt_initialize_type_info@@YAXXZ 0041b2f3 f   LIBCMT:tncleanup.obj
 0001:0001a2ff       __initialize_default_precision 0041b2ff f   LIBCMT:default_precision.obj
 0001:0001a320       ___local_stdio_scanf_options 0041b320 f i LIBCMT:default_local_stdio_options.obj
 0001:0001a326       ___scrt_initialize_default_local_stdio_options 0041b326 f   LIBCMT:default_local_stdio_options.obj
 0001:0001a343       ___scrt_is_user_matherr_present 0041b343 f   LIBCMT:matherr_detection.obj
 0001:0001a34f       ___scrt_get_dyn_tls_init_callback 0041b34f f   LIBCMT:dyn_tls_init.obj
 0001:0001a355       ___scrt_get_dyn_tls_dtor_callback 0041b355 f   LIBCMT:dyn_tls_dtor.obj
 0001:0001a35b       __RTC_Initialize           0041b35b f   LIBCMT:initsect.obj
 0001:0001a387       __RTC_Terminate            0041b387 f   LIBCMT:initsect.obj
 0001:0001a3b3       ___DestructExceptionObject 0041b3b3 f   libvcruntime:ehhelpers.obj
 0001:0001a454       ?_CallMemberFunction0@@YGXQAX0@Z 0041b454 f i libvcruntime:ehhelpers.obj
 0001:0001a4b9       __IsExceptionObjectToBeDestroyed 0041b4b9 f   libvcruntime:ehhelpers.obj
 0001:0001a4df       ___AdjustPointer           0041b4df f   libvcruntime:ehhelpers.obj
 0001:0001a504       ___FrameUnwindFilter       0041b504 f   libvcruntime:ehhelpers.obj
 0001:0001a55a       ___current_exception       0041b55a f   libvcruntime:ehhelpers.obj
 0001:0001a563       ___current_exception_context 0041b563 f   libvcruntime:ehhelpers.obj
 0001:0001a56c       ___std_terminate           0041b56c f   libvcruntime:ehhelpers.obj
 0001:0001a571       ___std_exception_copy      0041b571 f   libvcruntime:std_exception.obj
 0001:0001a5d4       ___std_exception_destroy   0041b5d4 f   libvcruntime:std_exception.obj
 0001:0001a5f3       __CxxThrowException@8      0041b5f3 f   libvcruntime:throw.obj
 0001:0001a65f       ?GetRangeOfTrysToCheck@__FrameHandler3@@SA?AU?$pair@Viterator@TryBlockMap@__FrameHandler3@@V123@@std@@AAVTryBlockMap@1@HPAXPBU_s_FuncInfo@@H@Z 0041b65f f   libvcruntime:trnsctrl.obj
 0001:0001a6cf       ?_CallCatchBlock2@@YAPAXPAUEHRegistrationNode@@PBU_s_FuncInfo@@PAXHK@Z 0041b6cf f   libvcruntime:trnsctrl.obj
 0001:0001a72c       ?_CallSETranslator@@YAHPAUEHExceptionRecord@@PAUEHRegistrationNode@@PAX2PBU_s_FuncInfo@@H1@Z 0041b72c f   libvcruntime:trnsctrl.obj
 0001:0001a822       ?_JumpToContinuation@@YGXPAXPAUEHRegistrationNode@@@Z 0041b822 f   libvcruntime:trnsctrl.obj
 0001:0001a852       ?_UnwindNestedFrames@@YGXPAUEHRegistrationNode@@PAUEHExceptionRecord@@@Z 0041b852 f   libvcruntime:trnsctrl.obj
 0001:0001a8a5       __CatchGuardHandler        0041b8a5 f   libvcruntime:trnsctrl.obj
 0001:0001a8d6       __CreateFrameInfo          0041b8d6 f   libvcruntime:trnsctrl.obj
 0001:0001a8fa       __FindAndUnlinkFrame       0041b8fa f   libvcruntime:trnsctrl.obj
 0001:0001a942       __TranslatorGuardHandler   0041b942 f   libvcruntime:trnsctrl.obj
 0001:0001a9df       ___CxxFrameHandler3        0041b9df f   libvcruntime:trnsctrl.obj
 0001:0001aa20       _memcpy                    0041ba20 f   libvcruntime:memcpy.obj
 0001:0001aa20       _memmove                   0041ba20 f   libvcruntime:memmove.obj
 0001:0001afa0       _memset                    0041bfa0 f   libvcruntime:memset.obj
 0001:0001b0fa       __get_purecall_handler     0041c0fa f   libvcruntime:purevirt.obj
 0001:0001b101       __purecall                 0041c101 f   libvcruntime:purevirt.obj
 0001:0001b120       _strrchr                   0041c120 f   libvcruntime:strrchr.obj
 0001:0001b257       ___uncaught_exception      0041c257 f   libvcruntime:uncaught_exception.obj
 0001:0001b26b       _memcmp                    0041c26b f   libvcruntime:memcmp.obj
 0001:0001c8e7       ___vcrt_initialize         0041d8e7 f   libvcruntime:initialization.obj
 0001:0001c906       ___vcrt_uninitialize       0041d906 f   libvcruntime:initialization.obj
 0001:0001c960       __except_handler4          0041d960 f   libvcruntime:chandler4.obj
 0001:0001cabe       ___std_type_info_compare   0041dabe f   libvcruntime:std_type_info.obj
 0001:0001cafa       ___vcrt_freefls@4          0041dafa f   libvcruntime:per_thread_data.obj
 0001:0001cb16       ___vcrt_getptd             0041db16 f   libvcruntime:per_thread_data.obj
 0001:0001cb24       ___vcrt_getptd_noexit      0041db24 f   libvcruntime:per_thread_data.obj
 0001:0001cbb6       ___vcrt_getptd_noinit      0041dbb6 f   libvcruntime:per_thread_data.obj
 0001:0001cbed       ___vcrt_initialize_ptd     0041dbed f   libvcruntime:per_thread_data.obj
 0001:0001cc20       ___vcrt_uninitialize_ptd   0041dc20 f   libvcruntime:per_thread_data.obj
 0001:0001d36d       ??$TypeMatchHelper@V__FrameHandler3@@@@YAHPBU_s_HandlerType@@PBU_s_CatchableType@@PBU_s_ThrowInfo@@@Z 0041e36d f i libvcruntime:frame.obj
 0001:0001d3fb       ??$__InternalCxxFrameHandler@V__FrameHandler3@@@@YA?AW4_EXCEPTION_DISPOSITION@@PAUEHExceptionRecord@@PAUEHRegistrationNode@@PAU_CONTEXT@@PAXPBU_s_FuncInfo@@H1E@Z 0041e3fb f i libvcruntime:frame.obj
 0001:0001d4fd       ??$__InternalCxxFrameHandlerWrapper@V__FrameHandler3@@@@YA?AW4_EXCEPTION_DISPOSITION@@PAUEHExceptionRecord@@PAUEHRegistrationNode@@PAU_CONTEXT@@PAXPBU_s_FuncInfo@@H1E@Z 0041e4fd f i libvcruntime:frame.obj
 0001:0001d506       ??0bad_exception@std@@QAE@ABV01@@Z 0041e506 f i libvcruntime:frame.obj
 0001:0001d521       ??0bad_exception@std@@QAE@XZ 0041e521 f i libvcruntime:frame.obj
 0001:0001d539       ??8type_info@@QBE_NABV0@@Z 0041e539 f i libvcruntime:frame.obj
 0001:0001d7b0       ?FrameUnwindToEmptyState@__FrameHandler3@@SAXPAUEHRegistrationNode@@PAXPBU_s_FuncInfo@@@Z 0041e7b0 f   libvcruntime:frame.obj
 0001:0001d7c8       ?FrameUnwindToState@__FrameHandler3@@SAXPAUEHRegistrationNode@@PAXPBU_s_FuncInfo@@H@Z 0041e7c8 f   libvcruntime:frame.obj
 0001:0001d94a       ?_CallMemberFunction1@@YGXQAX00@Z 0041e94a f i libvcruntime:frame.obj
 0001:0001d95a       ?_CallMemberFunction2@@YGXQAX00H@Z 0041e95a f i libvcruntime:frame.obj
 0001:0001d96d       ?getESTypes@__FrameHandler3@@SAPBU_s_ESTypeList@@PBU_s_FuncInfo@@@Z 0041e96d f i libvcruntime:frame.obj
 0001:0001d980       __CallSettingFrame@12      0041e980 f   libvcruntime:lowhelpr.obj
 0001:0001d9a7       __NLG_Return               0041e9a7     libvcruntime:lowhelpr.obj
 0001:0001d9cc       ___except_validate_context_record 0041e9cc f   libvcruntime:jbcxrval.obj
 0001:0001d9fc       ___vcrt_initialize_locks   0041e9fc f   libvcruntime:locks.obj
 0001:0001da38       ___vcrt_uninitialize_locks 0041ea38 f   libvcruntime:locks.obj
 0001:0001da70       __local_unwind4            0041ea70 f   libvcruntime:exsup4.obj
 0001:0001db60       @_EH4_CallFilterFunc@8     0041eb60 f   libvcruntime:exsup4.obj
 0001:0001db80       @_EH4_TransferToHandler@8  0041eb80 f   libvcruntime:exsup4.obj
 0001:0001dba0       @_EH4_GlobalUnwind2@8      0041eba0 f   libvcruntime:exsup4.obj
 0001:0001dbc0       @_EH4_LocalUnwind@16       0041ebc0 f   libvcruntime:exsup4.obj
 0001:0001dcc2       ___vcrt_FlsAlloc           0041ecc2 f   libvcruntime:winapi_downlevel.obj
 0001:0001dcfd       ___vcrt_FlsFree            0041ecfd f   libvcruntime:winapi_downlevel.obj
 0001:0001dd38       ___vcrt_FlsGetValue        0041ed38 f   libvcruntime:winapi_downlevel.obj
 0001:0001dd73       ___vcrt_FlsSetValue        0041ed73 f   libvcruntime:winapi_downlevel.obj
 0001:0001ddb1       ___vcrt_InitializeCriticalSectionEx 0041edb1 f   libvcruntime:winapi_downlevel.obj
 0001:0001ddf8       _unexpected                0041edf8 f   libvcruntime:unexpected.obj
 0001:0001de15       ?GetCurrentState@__FrameHandler3@@SAHPAUEHRegistrationNode@@PAXPBU_s_FuncInfo@@@Z 0041ee15 f   libvcruntime:ehstate.obj
 0001:0001de32       ?SetState@__FrameHandler3@@SAXPAUEHRegistrationNode@@PBU_s_FuncInfo@@H@Z 0041ee32 f   libvcruntime:ehstate.obj
 0001:0001de40       __NLG_Notify1              0041ee40 f   libvcruntime:exsup.obj
 0001:0001de50       __NLG_Notify               0041ee50 f   libvcruntime:exsup.obj
 0001:0001de67       __NLG_Dispatch             0041ee67     libvcruntime:exsup.obj
 0001:0001de67       __NLG_Dispatch2            0041ee67     libvcruntime:exsup.obj
 0001:0001de70       __NLG_Call                 0041ee70 f   libvcruntime:exsup.obj
 0001:0001de72       __NLG_Return2              0041ee72     libvcruntime:exsup.obj
 0001:0001de73       ___acrt_call_reportfault   0041ee73 f   libucrt:invalid_parameter.obj
 0001:0001dfac       ___acrt_initialize_invalid_parameter_handler 0041efac f   libucrt:invalid_parameter.obj
 0001:0001dfbb       __invalid_parameter        0041efbb f   libucrt:invalid_parameter.obj
 0001:0001e01f       __invalid_parameter_noinfo 0041f01f f   libucrt:invalid_parameter.obj
 0001:0001e02f       __invalid_parameter_noinfo_noreturn 0041f02f f   libucrt:invalid_parameter.obj
 0001:0001e04c       __invoke_watson            0041f04c f   libucrt:invalid_parameter.obj
 0001:0001e080       ___acrt_errno_from_os_error 0041f080 f   libucrt:errno.obj
 0001:0001e0c3       ___acrt_errno_map_os_error 0041f0c3 f   libucrt:errno.obj
 0001:0001e0e6       ___doserrno                0041f0e6 f   libucrt:errno.obj
 0001:0001e0f9       __errno                    0041f0f9 f   libucrt:errno.obj
 0001:0001e10c       _free                      0041f10c f   libucrt:free.obj
 0001:0001e127       _rand                      0041f127 f   libucrt:rand.obj
 0001:0001e148       _srand                     0041f148 f   libucrt:rand.obj
 0001:0001e15a       ??0_LocaleUpdate@@QAE@QAU__crt_locale_pointers@@@Z 0041f15a f i libucrt:mbscmp.obj
 0001:0001e1dd       ??1_LocaleUpdate@@QAE@XZ   0041f1dd f i libucrt:mbscmp.obj
 0001:0001e1ed       __mbscmp                   0041f1ed f   libucrt:mbscmp.obj
 0001:0001e204       __mbscmp_l                 0041f204 f   libucrt:mbscmp.obj
 0001:0001e2e9       __mbsupr_s                 0041f2e9 f   libucrt:mbsupr.obj
 0001:0001e300       __mbsupr_s_l               0041f300 f   libucrt:mbsupr.obj
 0001:0001e401       __time64                   0041f401 f   libucrt:time.obj
 0001:0001e8d2       ??$count@D@formatting_buffer@__crt_stdio_output@@QBEIXZ 0041f8d2 f i libucrt:output.obj
 0001:0001e8ea       ??$ensure_buffer_is_big_enough@D@formatting_buffer@__crt_stdio_output@@QAE_NI@Z 0041f8ea f i libucrt:output.obj
 0001:0001e967       ??$is_wide_character_specifier@D@__crt_stdio_output@@YA_N_KDW4length_modifier@0@@Z 0041f967 f i libucrt:output.obj
 0001:0001e998       ??$scratch_data@D@formatting_buffer@__crt_stdio_output@@QAEPADXZ 0041f998 f i libucrt:output.obj
 0001:0001e9b6       ??$type_case_integer_parse_into_buffer@I@?$output_processor@DV?$string_output_adapter@D@__crt_stdio_output@@V?$format_validation_base@DV?$string_output_adapter@D@__crt_stdio_output@@@2@@__crt_stdio_output@@AAEXII_N@Z 0041f9b6 f i libucrt:output.obj
 0001:0001e9b6       ??$type_case_integer_parse_into_buffer@I@?$output_processor@DV?$string_output_adapter@D@__crt_stdio_output@@V?$standard_base@DV?$string_output_adapter@D@__crt_stdio_output@@@2@@__crt_stdio_output@@AAEXII_N@Z 0041f9b6 f i libucrt:output.obj
 0001:0001ea29       ??$type_case_integer_parse_into_buffer@_K@?$output_processor@DV?$string_output_adapter@D@__crt_stdio_output@@V?$format_validation_base@DV?$string_output_adapter@D@__crt_stdio_output@@@2@@__crt_stdio_output@@AAEX_KI_N@Z 0041fa29 f i libucrt:output.obj
 0001:0001ea29       ??$type_case_integer_parse_into_buffer@_K@?$output_processor@DV?$string_output_adapter@D@__crt_stdio_output@@V?$standard_base@DV?$string_output_adapter@D@__crt_stdio_output@@@2@@__crt_stdio_output@@AAEX_KI_N@Z 0041fa29 f i libucrt:output.obj
 0001:0001eab7       ??$write_multiple_characters@V?$string_output_adapter@D@__crt_stdio_output@@D@__crt_stdio_output@@YAXABV?$string_output_adapter@D@0@DHQAH@Z 0041fab7 f i libucrt:output.obj
 0001:0001eae3       ??0?$common_data@D@__crt_stdio_output@@IAE@XZ 0041fae3 f i libucrt:output.obj
 0001:0001eb28       ??0?$output_adapter_data@DV?$string_output_adapter@D@__crt_stdio_output@@@__crt_stdio_output@@IAE@ABV?$string_output_adapter@D@1@_KQBDQAU__crt_locale_pointers@@QAD@Z 0041fb28 f i libucrt:output.obj
 0001:0001eb64       ??1formatting_buffer@__crt_stdio_output@@QAE@XZ 0041fb64 f i libucrt:output.obj
 0001:0001eb7e       ??4?$__crt_unique_heap_ptr@DU__crt_internal_free_policy@@@@QAEAAV0@$$QAV0@@Z 0041fb7e f i libucrt:output.obj
 0001:0001ebb0       ?crop_zeroes@__crt_stdio_output@@YAXPADQAU__crt_locale_pointers@@@Z 0041fbb0 f i libucrt:output.obj
 0001:0001ec31       ?find_next_state@?$output_processor@DV?$string_output_adapter@D@__crt_stdio_output@@V?$format_validation_base@DV?$string_output_adapter@D@__crt_stdio_output@@@2@@__crt_stdio_output@@ABE?AW4state@2@DW432@@Z 0041fc31 f i libucrt:output.obj
 0001:0001ec68       ?find_next_state@?$output_processor@DV?$string_output_adapter@D@__crt_stdio_output@@V?$standard_base@DV?$string_output_adapter@D@__crt_stdio_output@@@2@@__crt_stdio_output@@ABE?AW4state@2@DW432@@Z 0041fc68 f i libucrt:output.obj
 0001:0001eca0       ?force_decimal_point@__crt_stdio_output@@YAXPADQAU__crt_locale_pointers@@@Z 0041fca0 f i libucrt:output.obj
 0001:0001ed05       ?parse_int_from_format_string@?$output_processor@DV?$string_output_adapter@D@__crt_stdio_output@@V?$format_validation_base@DV?$string_output_adapter@D@__crt_stdio_output@@@2@@__crt_stdio_output@@AAE_NQAH@Z 0041fd05 f i libucrt:output.obj
 0001:0001ed05       ?parse_int_from_format_string@?$output_processor@DV?$string_output_adapter@D@__crt_stdio_output@@V?$standard_base@DV?$string_output_adapter@D@__crt_stdio_output@@@2@@__crt_stdio_output@@AAE_NQAH@Z 0041fd05 f i libucrt:output.obj
 0001:0001ed79       ?process@?$output_processor@DV?$string_output_adapter@D@__crt_stdio_output@@V?$format_validation_base@DV?$string_output_adapter@D@__crt_stdio_output@@@2@@__crt_stdio_output@@QAEHXZ 0041fd79 f i libucrt:output.obj
 0001:0001ee9d       ?process@?$output_processor@DV?$string_output_adapter@D@__crt_stdio_output@@V?$standard_base@DV?$string_output_adapter@D@__crt_stdio_output@@@2@@__crt_stdio_output@@QAEHXZ 0041fe9d f i libucrt:output.obj
 0001:0001efb1       ?state_case_flag@?$output_processor@DV?$string_output_adapter@D@__crt_stdio_output@@V?$format_validation_base@DV?$string_output_adapter@D@__crt_stdio_output@@@2@@__crt_stdio_output@@AAE_NXZ 0041ffb1 f i libucrt:output.obj
 0001:0001efb1       ?state_case_flag@?$output_processor@DV?$string_output_adapter@D@__crt_stdio_output@@V?$standard_base@DV?$string_output_adapter@D@__crt_stdio_output@@@2@@__crt_stdio_output@@AAE_NXZ 0041ffb1 f i libucrt:output.obj
 0001:0001efee       ?state_case_normal@?$output_processor@DV?$string_output_adapter@D@__crt_stdio_output@@V?$format_validation_base@DV?$string_output_adapter@D@__crt_stdio_output@@@2@@__crt_stdio_output@@AAE_NXZ 0041ffee f i libucrt:output.obj
 0001:0001efee       ?state_case_normal@?$output_processor@DV?$string_output_adapter@D@__crt_stdio_output@@V?$standard_base@DV?$string_output_adapter@D@__crt_stdio_output@@@2@@__crt_stdio_output@@AAE_NXZ 0041ffee f i libucrt:output.obj
 0001:0001f00d       ?state_case_normal_common@?$output_processor@DV?$string_output_adapter@D@__crt_stdio_output@@V?$format_validation_base@DV?$string_output_adapter@D@__crt_stdio_output@@@2@@__crt_stdio_output@@AAE_NXZ 0042000d f i libucrt:output.obj
 0001:0001f00d       ?state_case_normal_common@?$output_processor@DV?$string_output_adapter@D@__crt_stdio_output@@V?$standard_base@DV?$string_output_adapter@D@__crt_stdio_output@@@2@@__crt_stdio_output@@AAE_NXZ 0042000d f i libucrt:output.obj
 0001:0001f037       ?state_case_normal_tchar@?$output_processor@DV?$string_output_adapter@D@__crt_stdio_output@@V?$format_validation_base@DV?$string_output_adapter@D@__crt_stdio_output@@@2@@__crt_stdio_output@@AAE_ND@Z 00420037 f i libucrt:output.obj
 0001:0001f037       ?state_case_normal_tchar@?$output_processor@DV?$string_output_adapter@D@__crt_stdio_output@@V?$standard_base@DV?$string_output_adapter@D@__crt_stdio_output@@@2@@__crt_stdio_output@@AAE_ND@Z 00420037 f i libucrt:output.obj
 0001:0001f09b       ?state_case_precision@?$output_processor@DV?$string_output_adapter@D@__crt_stdio_output@@V?$format_validation_base@DV?$string_output_adapter@D@__crt_stdio_output@@@2@@__crt_stdio_output@@AAE_NXZ 0042009b f i libucrt:output.obj
 0001:0001f09b       ?state_case_precision@?$output_processor@DV?$string_output_adapter@D@__crt_stdio_output@@V?$standard_base@DV?$string_output_adapter@D@__crt_stdio_output@@@2@@__crt_stdio_output@@AAE_NXZ 0042009b f i libucrt:output.obj
 0001:0001f0c1       ?state_case_size@?$output_processor@DV?$string_output_adapter@D@__crt_stdio_output@@V?$format_validation_base@DV?$string_output_adapter@D@__crt_stdio_output@@@2@@__crt_stdio_output@@AAE_NXZ 004200c1 f i libucrt:output.obj
 0001:0001f0c1       ?state_case_size@?$output_processor@DV?$string_output_adapter@D@__crt_stdio_output@@V?$standard_base@DV?$string_output_adapter@D@__crt_stdio_output@@@2@@__crt_stdio_output@@AAE_NXZ 004200c1 f i libucrt:output.obj
 0001:0001f20f       ?state_case_type@?$output_processor@DV?$string_output_adapter@D@__crt_stdio_output@@V?$format_validation_base@DV?$string_output_adapter@D@__crt_stdio_output@@@2@@__crt_stdio_output@@AAE_NXZ 0042020f f i libucrt:output.obj
 0001:0001f20f       ?state_case_type@?$output_processor@DV?$string_output_adapter@D@__crt_stdio_output@@V?$standard_base@DV?$string_output_adapter@D@__crt_stdio_output@@@2@@__crt_stdio_output@@AAE_NXZ 0042020f f i libucrt:output.obj
 0001:0001f441       ?state_case_width@?$output_processor@DV?$string_output_adapter@D@__crt_stdio_output@@V?$format_validation_base@DV?$string_output_adapter@D@__crt_stdio_output@@@2@@__crt_stdio_output@@AAE_NXZ 00420441 f i libucrt:output.obj
 0001:0001f441       ?state_case_width@?$output_processor@DV?$string_output_adapter@D@__crt_stdio_output@@V?$standard_base@DV?$string_output_adapter@D@__crt_stdio_output@@@2@@__crt_stdio_output@@AAE_NXZ 00420441 f i libucrt:output.obj
 0001:0001f470       ?to_integer_size@__crt_stdio_output@@YAIW4length_modifier@1@@Z 00420470 f i libucrt:output.obj
 0001:0001f4cc       ?type_case_Z@?$output_processor@DV?$string_output_adapter@D@__crt_stdio_output@@V?$format_validation_base@DV?$string_output_adapter@D@__crt_stdio_output@@@2@@__crt_stdio_output@@AAE_NXZ 004204cc f i libucrt:output.obj
 0001:0001f4cc       ?type_case_Z@?$output_processor@DV?$string_output_adapter@D@__crt_stdio_output@@V?$standard_base@DV?$string_output_adapter@D@__crt_stdio_output@@@2@@__crt_stdio_output@@AAE_NXZ 004204cc f i libucrt:output.obj
 0001:0001f526       ?type_case_a@?$output_processor@DV?$string_output_adapter@D@__crt_stdio_output@@V?$format_validation_base@DV?$string_output_adapter@D@__crt_stdio_output@@@2@@__crt_stdio_output@@AAE_NXZ 00420526 f i libucrt:output.obj
 0001:0001f526       ?type_case_a@?$output_processor@DV?$string_output_adapter@D@__crt_stdio_output@@V?$standard_base@DV?$string_output_adapter@D@__crt_stdio_output@@@2@@__crt_stdio_output@@AAE_NXZ 00420526 f i libucrt:output.obj
 0001:0001f677       ?type_case_c_tchar@?$output_processor@DV?$string_output_adapter@D@__crt_stdio_output@@V?$format_validation_base@DV?$string_output_adapter@D@__crt_stdio_output@@@2@@__crt_stdio_output@@AAE_ND@Z 00420677 f i libucrt:output.obj
 0001:0001f677       ?type_case_c_tchar@?$output_processor@DV?$string_output_adapter@D@__crt_stdio_output@@V?$standard_base@DV?$string_output_adapter@D@__crt_stdio_output@@@2@@__crt_stdio_output@@AAE_ND@Z 00420677 f i libucrt:output.obj
 0001:0001f70a       ?type_case_integer@?$output_processor@DV?$string_output_adapter@D@__crt_stdio_output@@V?$format_validation_base@DV?$string_output_adapter@D@__crt_stdio_output@@@2@@__crt_stdio_output@@AAE_NI_N@Z 0042070a f i libucrt:output.obj
 0001:0001f70a       ?type_case_integer@?$output_processor@DV?$string_output_adapter@D@__crt_stdio_output@@V?$standard_base@DV?$string_output_adapter@D@__crt_stdio_output@@@2@@__crt_stdio_output@@AAE_NI_N@Z 0042070a f i libucrt:output.obj
 0001:0001f85b       ?type_case_n@?$output_processor@DV?$string_output_adapter@D@__crt_stdio_output@@V?$format_validation_base@DV?$string_output_adapter@D@__crt_stdio_output@@@2@@__crt_stdio_output@@AAE_NXZ 0042085b f i libucrt:output.obj
 0001:0001f85b       ?type_case_n@?$output_processor@DV?$string_output_adapter@D@__crt_stdio_output@@V?$standard_base@DV?$string_output_adapter@D@__crt_stdio_output@@@2@@__crt_stdio_output@@AAE_NXZ 0042085b f i libucrt:output.obj
 0001:0001f8cf       ?type_case_o@?$output_processor@DV?$string_output_adapter@D@__crt_stdio_output@@V?$format_validation_base@DV?$string_output_adapter@D@__crt_stdio_output@@@2@@__crt_stdio_output@@AAE_NXZ 004208cf f i libucrt:output.obj
 0001:0001f8cf       ?type_case_o@?$output_processor@DV?$string_output_adapter@D@__crt_stdio_output@@V?$standard_base@DV?$string_output_adapter@D@__crt_stdio_output@@@2@@__crt_stdio_output@@AAE_NXZ 004208cf f i libucrt:output.obj
 0001:0001f8ee       ?type_case_p@?$output_processor@DV?$string_output_adapter@D@__crt_stdio_output@@V?$format_validation_base@DV?$string_output_adapter@D@__crt_stdio_output@@@2@@__crt_stdio_output@@AAE_NXZ 004208ee f i libucrt:output.obj
 0001:0001f8ee       ?type_case_p@?$output_processor@DV?$string_output_adapter@D@__crt_stdio_output@@V?$standard_base@DV?$string_output_adapter@D@__crt_stdio_output@@@2@@__crt_stdio_output@@AAE_NXZ 004208ee f i libucrt:output.obj
 0001:0001f906       ?type_case_s@?$output_processor@DV?$string_output_adapter@D@__crt_stdio_output@@V?$format_validation_base@DV?$string_output_adapter@D@__crt_stdio_output@@@2@@__crt_stdio_output@@AAE_NXZ 00420906 f i libucrt:output.obj
 0001:0001f906       ?type_case_s@?$output_processor@DV?$string_output_adapter@D@__crt_stdio_output@@V?$standard_base@DV?$string_output_adapter@D@__crt_stdio_output@@@2@@__crt_stdio_output@@AAE_NXZ 00420906 f i libucrt:output.obj
 0001:0001f977       ?validate@?$c_string_character_source@D@__crt_strtox@@QBE_NXZ 00420977 f i libucrt:strtox.obj
 0001:0001f977       ?validate@?$c_string_character_source@_W@__crt_strtox@@QBE_NXZ 00420977 f i libucrt:strtox.obj
 0001:0001f977       ?validate@?$string_output_adapter@D@__crt_stdio_output@@QBE_NXZ 00420977 f i libucrt:output.obj
 0001:0001f992       ?validate_and_update_state_at_end_of_format_string@?$format_validation_base@DV?$string_output_adapter@D@__crt_stdio_output@@@__crt_stdio_output@@IBE_NXZ 00420992 f i libucrt:output.obj
 0001:0001f9b4       ?write_character@?$string_output_adapter@D@__crt_stdio_output@@QBE_NDQAH@Z 004209b4 f i libucrt:output.obj
 0001:0001f9f6       ?write_stored_string_tchar@?$output_processor@DV?$string_output_adapter@D@__crt_stdio_output@@V?$format_validation_base@DV?$string_output_adapter@D@__crt_stdio_output@@@2@@__crt_stdio_output@@AAE_ND@Z 004209f6 f i libucrt:output.obj
 0001:0001f9f6       ?write_stored_string_tchar@?$output_processor@DV?$string_output_adapter@D@__crt_stdio_output@@V?$standard_base@DV?$string_output_adapter@D@__crt_stdio_output@@@2@@__crt_stdio_output@@AAE_ND@Z 004209f6 f i libucrt:output.obj
 0001:0001fa9b       ?write_string@?$string_output_adapter@D@__crt_stdio_output@@QBEXQBDHQAHAAV__crt_deferred_errno_cache@@@Z 00420a9b f i libucrt:output.obj
 0001:0001fb02       ___acrt_locale_get_ctype_array_value 00420b02 f i libucrt:output.obj
 0001:0001fb24       ___stdio_common_vsnprintf_s 00420b24 f   libucrt:output.obj
 0001:0001fb4b       ___stdio_common_vsprintf   00420b4b f   libucrt:output.obj
 0001:0001fb6f       ___stdio_common_vsprintf_s 00420b6f f   libucrt:output.obj
 0001:0001fb93       _strnlen                   00420b93 f   libucrt:strnlen.obj
 0001:0001fcb5       _wcsnlen                   00420cb5 f   libucrt:strnlen.obj
 0001:0001fe65       ___acrt_initialize_stdio   00420e65 f   libucrt:_file.obj
 0001:0001ff2d       ___acrt_iob_func           00420f2d f   libucrt:_file.obj
 0001:0001ff3d       ___acrt_uninitialize_stdio 00420f3d f   libucrt:_file.obj
 0001:0001ff89       __get_stream_buffer_pointers 00420f89 f   libucrt:_file.obj
 0001:0001ffcf       __lock_file                00420fcf f   libucrt:_file.obj
 0001:0001ffe3       __unlock_file              00420fe3 f   libucrt:_file.obj
 0001:0001fff7       __fclose_nolock            00420ff7 f   libucrt:fclose.obj
 0001:0002006e       _fclose                    0042106e f   libucrt:fclose.obj
 0001:0002032f       ___acrt_stdio_flush_nolock 0042132f f   libucrt:fflush.obj
 0001:00020394       __fflush_nolock            00421394 f   libucrt:fflush.obj
 0001:000203dc       __flushall                 004213dc f   libucrt:fflush.obj
 0001:000203e5       _fflush                    004213e5 f   libucrt:fflush.obj
 0001:0002043a       __fgetc_nolock             0042143a f   libucrt:fgetc.obj
 0001:00020476       _fgetc                     00421476 f   libucrt:fgetc.obj
 0001:0002057e       _fgetpos                   0042157e f   libucrt:fgetpos.obj
 0001:000205d9       __fputc_nolock             004215d9 f   libucrt:fputc.obj
 0001:00020602       _fputc                     00421602 f   libucrt:fputc.obj
 0001:0002070c       __fread_nolock_s           0042170c f   libucrt:fread.obj
 0001:000208f2       _fread                     004218f2 f   libucrt:fread.obj
 0001:0002090f       _fread_s                   0042190f f   libucrt:fread.obj
 0001:00020a2d       _fsetpos                   00421a2d f   libucrt:fsetpos.obj
 0001:00020a68       ?LongLongSub@@YAJ_J0PA_J@Z 00421a68 f i libucrt:fseek.obj
 0001:00020d24       __fseeki64                 00421d24 f   libucrt:fseek.obj
 0001:00020d3f       _fseek                     00421d3f f   libucrt:fseek.obj
 0001:00020df8       __fwrite_nolock            00421df8 f   libucrt:fwrite.obj
 0001:00020f79       _fwrite                    00421f79 f   libucrt:fwrite.obj
 0001:00021107       _setvbuf                   00422107 f   libucrt:setvbuf.obj
 0001:00021189       __ungetc_nolock            00422189 f   libucrt:ungetc.obj
 0001:00021283       _ungetc                    00422283 f   libucrt:ungetc.obj
 0001:00021585       __localtime64              00422585 f   libucrt:localtime.obj
 0001:000215ac       __localtime64_s            004225ac f   libucrt:localtime.obj
 0001:00021730       ??$__acrt_mbs_to_wcs_cp@U__crt_win32_buffer_internal_dynamic_resizing@@@@YAHQBDAAV?$__crt_win32_buffer@_WU__crt_win32_buffer_internal_dynamic_resizing@@@@I@Z 00422730 f i libucrt:strftime.obj
 0001:0002174d       ??$__acrt_wcs_to_mbs_cp@U__crt_win32_buffer_no_resizing@@@@YAHQB_WAAV?$__crt_win32_buffer@DU__crt_win32_buffer_no_resizing@@@@I@Z 0042274d f i libucrt:strftime.obj
 0001:0002176a       ?_deallocate@?$__crt_win32_buffer@DU__crt_win32_buffer_internal_dynamic_resizing@@@@AAEXXZ 0042276a f i libucrt:argv_wildcards.obj
 0001:0002176a       ?_deallocate@?$__crt_win32_buffer@_WU__crt_win32_buffer_internal_dynamic_resizing@@@@AAEXXZ 0042276a f i libucrt:strftime.obj
 0001:00021784       ?allocate@?$__crt_win32_buffer@DU__crt_win32_buffer_no_resizing@@@@QAEHI@Z 00422784 f i libucrt:strftime.obj
 0001:000217ab       ?allocate@?$__crt_win32_buffer@_WU__crt_win32_buffer_internal_dynamic_resizing@@@@QAEHI@Z 004227ab f i libucrt:strftime.obj
 0001:000217ea       ?allocate@__crt_win32_buffer_internal_dynamic_resizing@@SAHQAPAXIABV__crt_win32_buffer_empty_debug_info@@@Z 004227ea f i libucrt:strftime.obj
 0001:00021809       ?set_to_nullptr@?$__crt_win32_buffer@DU__crt_win32_buffer_no_resizing@@@@QAEXXZ 00422809 f i libucrt:strftime.obj
 0001:0002181d       __Strftime_l               0042281d f   libucrt:strftime.obj
 0001:0002191a       _strftime                  0042291a f   libucrt:strftime.obj
 0001:00021939       __toupper_l                00422939 f   libucrt:tolower_toupper.obj
 0001:00021a3e       _toupper                   00422a3e f   libucrt:tolower_toupper.obj
 0001:00021b28       _puts                      00422b28 f   libucrt:puts.obj
 0001:00021ccd       _fopen                     00422ccd f   libucrt:fopen.obj
 0001:00021ce4       _fopen_s                   00422ce4 f   libucrt:fopen.obj
 0001:0002239a       __ftelli64                 0042339a f   libucrt:ftell.obj
 0001:000223a5       __ftelli64_nolock          004233a5 f   libucrt:ftell.obj
 0001:000223b0       _ftell                     004233b0 f   libucrt:ftell.obj
 0001:000223bb       _calloc                    004233bb f   libucrt:calloc.obj
 0001:000223c6       ___ascii_wcsicmp           004233c6 f   libucrt:wcsicmp.obj
 0001:00022403       __towlower_internal        00423403 f i libucrt:wcsicmp.obj
 0001:00022442       __wcsicmp                  00423442 f   libucrt:wcsicmp.obj
 0001:0002248b       __wcsicmp_l                0042348b f   libucrt:wcsicmp.obj
 0001:00022550       _strcspn                   00423550 f   libucrt:strcspn.obj
 0001:00022596       ??$is_overflow_condition@K@__crt_strtox@@YA_NIK@Z 00423596 f i libucrt:strtox.obj
 0001:000225c7       ??$make_c_string_character_source@DPAPAD@__crt_strtox@@YA?AV?$c_string_character_source@D@0@QBDQAPAD@Z 004235c7 f i libucrt:strtox.obj
 0001:000225c7       ??$make_c_string_character_source@_WPAPA_W@__crt_strtox@@YA?AV?$c_string_character_source@_W@0@QB_WQAPA_W@Z 004235c7 f i libucrt:strtox.obj
 0001:000225e2       ??$parse_integer@KV?$c_string_character_source@D@__crt_strtox@@@__crt_strtox@@YAKQAU__crt_locale_pointers@@V?$c_string_character_source@D@0@H_N@Z 004235e2 f i libucrt:strtox.obj
 0001:00022805       ??$parse_integer@KV?$c_string_character_source@_W@__crt_strtox@@@__crt_strtox@@YAKQAU__crt_locale_pointers@@V?$c_string_character_source@_W@0@H_N@Z 00423805 f i libucrt:strtox.obj
 0001:00022e0d       ?unget@?$c_string_character_source@D@__crt_strtox@@QAEXD@Z 00423e0d f i libucrt:strtox.obj
 0001:00022e36       ?unget@?$c_string_character_source@_W@__crt_strtox@@QAEX_W@Z 00423e36 f i libucrt:strtox.obj
 0001:00022e64       __ischartype_l             00423e64 f i libucrt:strtox.obj
 0001:00022eb8       _strtol                    00423eb8 f   libucrt:strtox.obj
 0001:00022ee2       _wcstol                    00423ee2 f   libucrt:strtox.obj
 0001:00022f0c       __mbsicmp                  00423f0c f   libucrt:mbsicmp.obj
 0001:00022f23       __mbsicmp_l                00423f23 f   libucrt:mbsicmp.obj
 0001:000230c5       __recalloc_base            004240c5 f   libucrt:recalloc.obj
 0001:00023132       ___acrt_initialize_locks   00424132 f   libucrt:locks.obj
 0001:00023173       ___acrt_lock               00424173 f   libucrt:locks.obj
 0001:0002318a       ___acrt_uninitialize_locks 0042418a f   libucrt:locks.obj
 0001:000231bb       ___acrt_unlock             004241bb f   libucrt:locks.obj
 0001:000231d2       __lock_locales             004241d2 f   libucrt:locks.obj
 0001:000231e0       __unlock_locales           004241e0 f   libucrt:locks.obj
 0001:000231e9       _malloc                    004241e9 f   libucrt:malloc.obj
 0001:00023449       _setlocale                 00424449 f   libucrt:setlocale.obj
 0001:00023481       ___pctype_func             00424481 f   libucrt:ctype.obj
 0001:000234b0       _islower                   004244b0 f   libucrt:_ctype.obj
 0001:00023540       _isupper                   00424540 f   libucrt:_ctype.obj
 0001:000235c4       ____lc_codepage_func       004245c4 f   libucrt:initctype.obj
 0001:000235e9       ____lc_locale_name_func    004245e9 f   libucrt:initctype.obj
 0001:00023610       ___acrt_locale_initialize_ctype 00424610 f   libucrt:initctype.obj
 0001:00023a6e       __wcsdup                   00424a6e f   libucrt:wcsdup.obj
 0001:00023acd       _rand_s                    00424acd f   libucrt:rand_s.obj
 0001:00023b20       ?divide@__crt_strtox@@YA_KAAUbig_integer@1@ABU21@@Z 00424b20 f i libucrt:strtod.obj
 0001:00023fc0       __CIpow                    00424fc0 f   libucrt:pow_impl.obj
 0001:00023ffb       __CIpow_default            00424ffb f   libucrt:pow_impl.obj
 0001:00024014       __pow_default              00425014     libucrt:pow_impl.obj
 0001:00024209       _abort                     00425209 f   libucrt:abort.obj
 0001:0002424d       ___strncnt                 0042524d f   libucrt:strncnt.obj
 0001:00024269       ??$__crt_time_is_leap_year@H@@YA_NH@Z 00425269 f i libucrt:wcsftime.obj
 0001:000252ef       __Wcsftime_l               004262ef f   libucrt:wcsftime.obj
 0001:00025460       ___acrt_initialize_new_handler 00426460 f   libucrt:new_handler.obj
 0001:0002546f       __callnewh                 0042646f f   libucrt:new_handler.obj
 0001:0002549c       __query_new_handler        0042649c f   libucrt:new_handler.obj
 0001:000254f8       __seh_filter_exe           004264f8 f   libucrt:exception_filter.obj
 0001:0002569d       ??$__crt_fast_encode_pointer@P6AHPAU_exception@@@Z@@YAP6AHPAU_exception@@@ZQ6AH0@Z@Z 0042669d f i libucrt:matherr.obj
 0001:0002569d       ??$__crt_fast_encode_pointer@P6AHXZ@@YAP6AHXZQ6AHXZ@Z 0042669d f i libucrt:onexit.obj
 0001:0002569d       ??$__crt_fast_encode_pointer@P6GHPA_WKJ@Z@@YAP6GHPA_WKJ@ZQ6GH0KJ@Z@Z 0042669d f i libucrt:winapi_thunks.obj
 0001:0002569d       ??$__crt_fast_encode_pointer@P6GXPAXK0@Z@@YAP6GXPAXK0@ZQ6GX0K0@Z@Z 0042669d f i libucrt:exit.obj
 0001:0002569d       ??$__crt_fast_encode_pointer@PAP6AXXZ@@YAPAP6AXXZQAP6AXXZ@Z 0042669d f i libucrt:onexit.obj
 0001:0002569d       ??$__crt_fast_encode_pointer@PAX@@YAPAXQAX@Z 0042669d f i libucrt:initialization.obj
 0001:000258e5       ___acrt_initialize_thread_local_exit_callback 004268e5 f   libucrt:exit.obj
 0001:000258f4       __c_exit                   004268f4 f   libucrt:exit.obj
 0001:00025903       __cexit                    00426903 f   libucrt:exit.obj
 0001:00025912       __exit                     00426912 f   libucrt:exit.obj
 0001:00025928       __register_thread_local_exe_atexit_callback 00426928 f   libucrt:exit.obj
 0001:0002594e       _exit                      0042694e f   libucrt:exit.obj
 0001:00025c0e       ___acrt_allocate_buffer_for_argv 00426c0e f   libucrt:argv_parsing.obj
 0001:00025c5d       __configure_narrow_argv    00426c5d f   libucrt:argv_parsing.obj
 0001:0002606d       ??$uninitialize@A6AXAAPAPAD@Z@?$dual_state_global@PAPAD@__crt_state_management@@QAEXA6AXAAPAPAD@Z@Z 0042706d f i libucrt:environment_initialization.obj
 0001:0002606d       ??$uninitialize@A6AXAAPAPA_W@Z@?$dual_state_global@PAPA_W@__crt_state_management@@QAEXA6AXAAPAPA_W@Z@Z 0042706d f i libucrt:environment_initialization.obj
 0001:000260cc       ___dcrt_get_or_create_narrow_environment_nolock 004270cc f   libucrt:environment_initialization.obj
 0001:000260d1       ___dcrt_get_or_create_wide_environment_nolock 004270d1 f   libucrt:environment_initialization.obj
 0001:000260d6       ___dcrt_uninitialize_environments_nolock 004270d6 f   libucrt:environment_initialization.obj
 0001:0002610d       __get_initial_narrow_environment 0042710d f   libucrt:environment_initialization.obj
 0001:00026121       __initialize_narrow_environment 00427121 f   libucrt:environment_initialization.obj
 0001:000263df       __crt_atexit               004273df f   libucrt:onexit.obj
 0001:000263f5       __execute_onexit_table     004273f5 f   libucrt:onexit.obj
 0001:00026422       __initialize_onexit_table  00427422 f   libucrt:onexit.obj
 0001:0002644b       __register_onexit_function 0042744b f   libucrt:onexit.obj
 0001:00026579       ___acrt_initialize         00427579 f   libucrt:initialization.obj
 0001:0002658b       ___acrt_uninitialize       0042758b f   libucrt:initialization.obj
 0001:000265bb       __query_app_type           004275bb f   libucrt:report_runtime_error.obj
 0001:000265c1       __set_app_type             004275c1 f   libucrt:report_runtime_error.obj
 0001:000265d0       ___acrt_has_user_matherr   004275d0 f   libucrt:matherr.obj
 0001:000265e8       ___acrt_initialize_user_matherr 004275e8 f   libucrt:matherr.obj
 0001:000265f7       ___acrt_invoke_user_matherr 004275f7 f   libucrt:matherr.obj
 0001:00026629       ___setusermatherr          00427629 f   libucrt:matherr.obj
 0001:0002663e       __initterm                 0042763e f   libucrt:initterm.obj
 0001:00026683       __initterm_e               00427683 f   libucrt:initterm.obj
 0001:000266b1       __get_fmode                004276b1 f   libucrt:setmode.obj
 0001:000266de       __set_fmode                004276de f   libucrt:setmode.obj
 0001:0002671b       __setmode_nolock           0042771b f   libucrt:setmode.obj
 0001:000267ea       ___acrt_initialize_command_line 004277ea f   libucrt:argv_data.obj
 0001:00026803       ___p___argc                00427803 f   libucrt:argv_data.obj
 0001:00026809       ___p___argv                00427809 f   libucrt:argv_data.obj
 0001:0002690f       ??0_expandlocale_locale_name_cache@@QAE@QA_WIQAU__crt_qualified_locale_data@@@Z 0042790f f i libucrt:wsetlocale.obj
 0001:00026959       ??1_expandlocale_locale_name_cache@@QAE@XZ 00427959 f i libucrt:wsetlocale.obj
 0001:00026af1       ?commit_locale_name@_expandlocale_locale_name_cache@@QAEXQB_WI@Z 00427af1 f i libucrt:wsetlocale.obj
 0001:00026b35       ?commit_locale_name_cache_already_updated@_expandlocale_locale_name_cache@@QAEXQB_WI@Z 00427b35 f i libucrt:wsetlocale.obj
 0001:00026b6a       ___acrt_copy_locale_name   00427b6a f   libucrt:wsetlocale.obj
 0001:00026bca       ___acrt_set_locale_changed 00427bca f   libucrt:wsetlocale.obj
 0001:00026bd5       ___acrt_uninitialize_locale 00427bd5 f   libucrt:wsetlocale.obj
 0001:00026bfc       ___lc_lctowcs              00427bfc f   libucrt:wsetlocale.obj
 0001:00026c6c       ___lc_wcstolc              00427c6c f   libucrt:wsetlocale.obj
 0001:00026dbc       __configthreadlocale       00427dbc f   libucrt:wsetlocale.obj
 0001:00027213       __wcscats                  00428213 f   libucrt:wsetlocale.obj
 0001:00027254       __wsetlocale               00428254 f   libucrt:wsetlocale.obj
 0001:00027f37       __query_new_mode           00428f37 f   libucrt:new_mode.obj
 0001:00027f3e       __set_new_mode             00428f3e f   libucrt:new_mode.obj
 0001:00027f6d       ___p__commode              00428f6d f   libucrt:ncommode.obj
 0001:00027f73       _terminate                 00428f73 f   libucrt:terminate.obj
 0001:00027faf       __controlfp_s              00428faf f   libucrt:contrlfp.obj
 0001:0002800e       _strcpy_s                  0042900e f   libucrt:strcpy_s.obj
 0001:00028068       __wtol                     00429068 f   libucrt:atox.obj
 0001:00028090       _strncmp                   00429090 f   libucrt:strncmp.obj
 0001:00028108       _wcsncmp                   00429108 f   libucrt:wcsncmp.obj
 0001:00028480       ___acrt_getptd             00429480 f   libucrt:per_thread_data.obj
 0001:0002853d       ___acrt_getptd_head        0042953d f   libucrt:per_thread_data.obj
 0001:000285d7       ___acrt_getptd_noexit      004295d7 f   libucrt:per_thread_data.obj
 0001:0002868c       ___acrt_initialize_ptd     0042968c f   libucrt:per_thread_data.obj
 0001:000286b8       ___acrt_uninitialize_ptd   004296b8 f   libucrt:per_thread_data.obj
 0001:000286d2       __free_base                004296d2 f   libucrt:free_base.obj
 0001:0002870c       ___acrt_update_locale_info 0042970c f   libucrt:locale_update.obj
 0001:00028739       ___acrt_update_multibyte_info 00429739 f   libucrt:locale_update.obj
 0001:00028950       ___acrt_LCMapStringA       00429950 f   libucrt:lcmapstringa.obj
 0001:00028cb9       ___acrt_AppPolicyGetProcessTerminationMethodInternal@4 00429cb9 f   libucrt:winapi_thunks.obj
 0001:00028cf9       ___acrt_AreFileApisANSI@0  00429cf9 f   libucrt:winapi_thunks.obj
 0001:00028d18       ___acrt_CompareStringEx@36 00429d18 f   libucrt:winapi_thunks.obj
 0001:00028d75       ___acrt_EnumSystemLocalesEx@16 00429d75 f   libucrt:winapi_thunks.obj
 0001:00028dc9       ___acrt_FlsAlloc@4         00429dc9 f   libucrt:winapi_thunks.obj
 0001:00028e08       ___acrt_FlsFree@4          00429e08 f   libucrt:winapi_thunks.obj
 0001:00028e47       ___acrt_FlsGetValue@4      00429e47 f   libucrt:winapi_thunks.obj
 0001:00028e86       ___acrt_FlsSetValue@8      00429e86 f   libucrt:winapi_thunks.obj
 0001:00028ec8       ___acrt_GetDateFormatEx@28 00429ec8 f   libucrt:winapi_thunks.obj
 0001:00028f1f       ___acrt_GetLocaleInfoEx@16 00429f1f f   libucrt:winapi_thunks.obj
 0001:00028f5e       ___acrt_GetTimeFormatEx@24 00429f5e f   libucrt:winapi_thunks.obj
 0001:00028fa3       ___acrt_GetUserDefaultLocaleName@8 00429fa3 f   libucrt:winapi_thunks.obj
 0001:00028fdf       ___acrt_InitializeCriticalSectionEx@12 00429fdf f   libucrt:winapi_thunks.obj
 0001:0002902a       ___acrt_IsValidLocaleName@4 0042a02a f   libucrt:winapi_thunks.obj
 0001:00029062       ___acrt_LCIDToLocaleName@16 0042a062 f   libucrt:winapi_thunks.obj
 0001:000290a1       ___acrt_LCMapStringEx@36   0042a0a1 f   libucrt:winapi_thunks.obj
 0001:000290fe       ___acrt_LocaleNameToLCID@8 0042a0fe f   libucrt:winapi_thunks.obj
 0001:0002912f       ___acrt_RtlGenRandom@8     0042a12f f   libucrt:winapi_thunks.obj
 0001:0002916f       ___acrt_can_use_vista_locale_apis 0042a16f f   libucrt:winapi_thunks.obj
 0001:0002917a       ___acrt_eagerly_load_locale_apis 0042a17a f   libucrt:winapi_thunks.obj
 0001:000291b1       ___acrt_initialize_winapi_thunks 0042a1b1 f   libucrt:winapi_thunks.obj
 0001:000291dc       ___acrt_uninitialize_winapi_thunks 0042a1dc f   libucrt:winapi_thunks.obj
 0001:00029212       __malloc_base              0042a212 f   libucrt:malloc_base.obj
 0001:00029260       __mbtowc_l                 0042a260 f   libucrt:mbtowc.obj
 0001:000293a2       _mbtowc                    0042a3a2 f   libucrt:mbtowc.obj
 0001:000293bc       __wctomb_s_l               0042a3bc f   libucrt:wctomb.obj
 0001:00029517       ?__acrt_fp_classify@@YA?AW4__acrt_fp_class@@ABN@Z 0042a517 f i libucrt:cvt.obj
 0001:00029eca       ___acrt_fp_format          0042aeca f   libucrt:cvt.obj
 0001:0002a026       __fileno                   0042b026 f   libucrt:fileno.obj
 0001:0002a04d       __get_printf_count_output  0042b04d f   libucrt:printf_count_output.obj
 0001:0002a062       ___acrt_should_use_temporary_buffer 0042b062 f   libucrt:_sftbuf.obj
 0001:0002a09d       ___acrt_stdio_begin_temporary_buffering_nolock 0042b09d f   libucrt:_sftbuf.obj
 0001:0002a149       ___acrt_stdio_end_temporary_buffering_nolock 0042b149 f   libucrt:_sftbuf.obj
 0001:0002a2ed       ___acrt_initialize_lowio   0042b2ed f   libucrt:ioinit.obj
 0001:0002a34d       ___acrt_uninitialize_lowio 0042b34d f   libucrt:ioinit.obj
 0001:0002a379       __calloc_base              0042b379 f   libucrt:calloc_base.obj
 0001:0002a3d6       __fcloseall                0042b3d6 f   libucrt:closeall.obj
 0001:0002a481       ___acrt_stdio_free_buffer_nolock 0042b481 f   libucrt:_freebuf.obj
 0001:0002a54d       __close                    0042b54d f   libucrt:close.obj
 0001:0002a5da       __close_nolock             0042b5da f   libucrt:close.obj
 0001:0002a676       ?__acrt_stdio_allocate_stream@@YA?AV__crt_stdio_stream@@XZ 0042b676 f   libucrt:stream.obj
 0001:0002a6df       ?__acrt_stdio_free_stream@@YAXV__crt_stdio_stream@@@Z 0042b6df f   libucrt:stream.obj
 0001:0002a87e       __commit                   0042b87e f   libucrt:commit.obj
 0001:0002b076       __write                    0042c076 f   libucrt:write.obj
 0001:0002b168       __write_nolock             0042c168 f   libucrt:write.obj
 0001:0002b4cc       ___acrt_stdio_refill_and_read_narrow_nolock 0042c4cc f   libucrt:_filbuf.obj
 0001:0002b718       ___acrt_stdio_flush_and_write_narrow_nolock 0042c718 f   libucrt:_flsbuf.obj
 0001:0002bbf8       __read                     0042cbf8 f   libucrt:read.obj
 0001:0002bd0c       __read_nolock              0042cd0c f   libucrt:read.obj
 0001:0002c244       __lseeki64                 0042d244 f   libucrt:lseek.obj
 0001:0002c25f       __lseeki64_nolock          0042d25f f   libucrt:lseek.obj
 0001:0002c27a       ___acrt_stdio_allocate_buffer_nolock 0042d27a f   libucrt:_getbuf.obj
 0001:0002c2d6       ___acrt_initialize_timeset 0042d2d6 f   libucrt:timeset.obj
 0001:0002c30b       ___daylight                0042d30b f   libucrt:timeset.obj
 0001:0002c311       ___dstbias                 0042d311 f   libucrt:timeset.obj
 0001:0002c317       ___timezone                0042d317 f   libucrt:timeset.obj
 0001:0002c31d       ___tzname                  0042d31d f   libucrt:timeset.obj
 0001:0002c323       ___wide_tzname             0042d323 f   libucrt:timeset.obj
 0001:0002c329       __get_daylight             0042d329 f   libucrt:timeset.obj
 0001:0002c355       __get_dstbias              0042d355 f   libucrt:timeset.obj
 0001:0002c381       __get_timezone             0042d381 f   libucrt:timeset.obj
 0001:0002c3ad       ??$__crt_time_elapsed_leap_years@H@@YAHH@Z 0042d3ad f i libucrt:gmtime.obj
 0001:0002c5ea       ___getgmtimebuf            0042d5ea f   libucrt:gmtime.obj
 0001:0002c628       __gmtime64_s               0042d628 f   libucrt:gmtime.obj
 0001:0002c633       ?__acrt_get_utf8_acp_compatibility_codepage@@YAIXZ 0042d633 f i libucrt:tzset.obj
 0001:0002cf35       ___tzset                   0042df35 f   libucrt:tzset.obj
 0001:0002cf92       __isindst                  0042df92 f   libucrt:tzset.obj
 0001:0002cfe6       ___acrt_MultiByteToWideChar 0042dfe6 f   libucrt:multibytetowidechar.obj
 0001:0002d062       ___acrt_WideCharToMultiByte 0042e062 f   libucrt:widechartomultibyte.obj
 0001:0002d119       __isleadbyte_l             0042e119 f i libucrt:_wctype.obj
 0001:0002d153       ??$__acrt_stdio_parse_mode@D@@YA?AU__acrt_stdio_stream_mode@@QBD@Z 0042e153 f i libucrt:openfile.obj
 0001:0002d400       ?__acrt_stdio_parse_mode_D@@YA_NAAU__acrt_stdio_stream_mode@@@Z 0042e400 f i libucrt:openfile.obj
 0001:0002d41b       ?__acrt_stdio_parse_mode_T@@YA_NAAU__acrt_stdio_stream_mode@@@Z 0042e41b f i libucrt:openfile.obj
 0001:0002d43a       ?__acrt_stdio_parse_mode_b@@YA_NAAU__acrt_stdio_stream_mode@@@Z 0042e43a f i libucrt:openfile.obj
 0001:0002d45a       ?__acrt_stdio_parse_mode_c@@YA_NAAU__acrt_stdio_stream_mode@@AA_N@Z 0042e45a f i libucrt:openfile.obj
 0001:0002d47c       ?__acrt_stdio_parse_mode_n@@YA_NAAU__acrt_stdio_stream_mode@@AA_N@Z 0042e47c f i libucrt:openfile.obj
 0001:0002d49e       ?__acrt_stdio_parse_mode_plus@@YA_NAAU__acrt_stdio_stream_mode@@AA_N@Z 0042e49e f i libucrt:openfile.obj
 0001:0002d4d4       ?__acrt_stdio_parse_mode_t@@YA_NAAU__acrt_stdio_stream_mode@@@Z 0042e4d4 f i libucrt:openfile.obj
 0001:0002d4f4       ?__acrt_stdio_parse_mode_x@@YA_NAAU__acrt_stdio_stream_mode@@@Z 0042e4f4 f i libucrt:openfile.obj
 0001:0002d514       __openfile                 0042e514 f   libucrt:openfile.obj
 0001:0002d51f       __towlower_l               0042e51f f   libucrt:towlower.obj
 0001:0002d5c1       _iswctype                  0042e5c1 f   libucrt:iswctype.obj
 0001:0002d62a       __isctype_l                0042e62a f   libucrt:isctype.obj
 0001:0002d6f5       __errcode                  0042e6f5 f   libucrt:fpexcept.obj
 0001:0002d729       __except1                  0042e729 f   libucrt:fpexcept.obj
 0001:0002d7f7       __handle_exc               0042e7f7 f   libucrt:fpexcept.obj
 0001:0002d9e2       __raise_exc                0042e9e2 f   libucrt:fpexcept.obj
 0001:0002da05       __raise_exc_ex             0042ea05 f   libucrt:fpexcept.obj
 0001:0002dcfb       __set_errno_from_matherr   0042ecfb f   libucrt:fpexcept.obj
 0001:0002dd2a       __umatherr                 0042ed2a f   libucrt:fpexcept.obj
 0001:0002ddca       __decomp                   0042edca f   libucrt:util.obj
 0001:0002de9c       __set_exp                  0042ee9c f   libucrt:util.obj
 0001:0002dec9       __sptype                   0042eec9 f   libucrt:util.obj
 0001:0002df27       ___set_fpsr_sse2           0042ef27 f   libucrt:fpctrl.obj
 0001:0002dfa7       __clrfp                    0042efa7 f   libucrt:fpctrl.obj
 0001:0002dfb8       __ctrlfp                   0042efb8 f   libucrt:fpctrl.obj
 0001:0002dfe2       __set_statfp               0042efe2 f   libucrt:fpctrl.obj
 0001:0002e03b       __statfp                   0042f03b f   libucrt:fpctrl.obj
 0001:0002e04b       __stricmp_l                0042f04b f   libucrt:stricmp.obj
 0001:0002e0d9       __msize_base               0042f0d9 f   libucrt:msize.obj
 0001:0002e10c       __realloc_base             0042f10c f   libucrt:realloc_base.obj
 0001:0002e318       __mbstowcs_s_l             0042f318 f   libucrt:mbstowcs.obj
 0001:0002e3f8       _mbstowcs_s                0042f3f8 f   libucrt:mbstowcs.obj
 0001:0002e6b7       __wcstombs_s_l             0042f6b7 f   libucrt:wcstombs.obj
 0001:0002e85d       ___acrt_GetLocaleInfoA     0042f85d f   libucrt:getlocaleinfoa.obj
 0001:0002ea0d       ___acrt_GetStringTypeA     0042fa0d f   libucrt:getstringtypea.obj
 0001:0002eb10       _wcscpy_s                  0042fb10 f   libucrt:wcscpy_s.obj
 0001:0002eb74       __fpclass                  0042fb74 f   libucrt:ieeemisc.obj
 0001:0002ec18       _fegetround                0042fc18 f   libucrt:fegetround.obj
 0001:0002ec25       ___acrt_initialize_sse2    0042fc25 f   libucrt:mathfcns.obj
 0001:0002ec40       __CIpow_pentium4           0042fc40 f   libucrt:pow_pentium4.obj
 0001:0002ec59       __pow_pentium4             0042fc59     libucrt:pow_pentium4.obj
 0001:0002f780       __fFEXP                    00430780 f   libucrt:87tran.obj
 0001:0002f7d7       __rtinfpopse               004307d7     libucrt:87tran.obj
 0001:0002f7d9       __rtinfnpopse              004307d9     libucrt:87tran.obj
 0001:0002f7e9       __fFLN                     004307e9     libucrt:87tran.obj
 0001:0002f89e       __rtinfpop                 0043089e     libucrt:87tran.obj
 0001:0002f8a0       __rtinfnpop                004308a0     libucrt:87tran.obj
 0001:0002f8b0       __rtforexpinf              004308b0 f   libucrt:87tran.obj
 0001:0002f8bd       __ffexpm1                  004308bd     libucrt:87tran.obj
 0001:0002f970       __trandisp1                00430970 f   libucrt:87disp.obj
 0001:0002f9e5       __trandisp2                004309e5 f   libucrt:87disp.obj
 0001:0002fa7f       __rttospopde               00430a7f     libucrt:87disp.obj
 0001:0002fa84       __rttospop                 00430a84     libucrt:87disp.obj
 0001:0002fa90       __rtnospop                 00430a90 f   libucrt:87disp.obj
 0001:0002faa0       __rttosnpop                00430aa0 f   libucrt:87disp.obj
 0001:0002faa1       __rtnospopde               00430aa1     libucrt:87disp.obj
 0001:0002faa8       __rtzeropop                00430aa8     libucrt:87disp.obj
 0001:0002faaa       __rtzeronpop               00430aaa     libucrt:87disp.obj
 0001:0002fab0       __rtzerospop               00430ab0 f   libucrt:87disp.obj
 0001:0002fabd       __rtonepop                 00430abd     libucrt:87disp.obj
 0001:0002fac0       __rtonenpop                00430ac0 f   libucrt:87disp.obj
 0001:0002fad0       __tosnan1                  00430ad0 f   libucrt:87disp.obj
 0001:0002fb00       __nosnan2                  00430b00 f   libucrt:87disp.obj
 0001:0002fb10       __tosnan2                  00430b10 f   libucrt:87disp.obj
 0001:0002fb40       __nan2                     00430b40 f   libucrt:87disp.obj
 0001:0002fb80       __rtindfpop                00430b80 f   libucrt:87disp.obj
 0001:0002fb82       __rtindfnpop               00430b82     libucrt:87disp.obj
 0001:0002fb93       __rttosnpopde              00430b93     libucrt:87disp.obj
 0001:0002fba0       __rtatan2inf               00430ba0 f   libucrt:87disp.obj
 0001:0002fbbd       __rtchsifneg               00430bbd     libucrt:87disp.obj
 0001:0002fbd0       __startTwoArgErrorHandling 00430bd0 f   libucrt:genexcep.obj
 0001:0002fbe7       __startOneArgErrorHandling 00430be7 f   libucrt:genexcep.obj
 0001:0002fc30       __twoToTOS                 00430c30 f   libucrt:common.obj
 0001:0002fc45       __load_CW                  00430c45 f   libucrt:common.obj
 0001:0002fc5c       __convertTOStoQNaN         00430c5c f   libucrt:common.obj
 0001:0002fc75       __fload_withFB             00430c75 f   libucrt:common.obj
 0001:0002fcb8       __checkTOS_withFB          00430cb8 f   libucrt:common.obj
 0001:0002fcce       __fast_exit                00430cce f   libucrt:common.obj
 0001:0002fcdb       __math_exit                00430cdb f   libucrt:common.obj
 0001:0002fd05       __check_overflow_exit      00430d05 f   libucrt:common.obj
 0001:0002fd19       __check_range_exit         00430d19 f   libucrt:common.obj
 0001:0002fdbc       __d_inttype                00430dbc f   libucrt:powhlp.obj
 0001:0002fe24       __powhlp                   00430e24 f   libucrt:powhlp.obj
 0001:0003001d       ___acrt_get_sigabrt_handler 0043101d f   libucrt:signal.obj
 0001:00030044       ___acrt_initialize_signal_handlers 00431044 f   libucrt:signal.obj
 0001:00030062       _raise                     00431062 f   libucrt:signal.obj
 0001:00030255       ___acrt_get_process_end_policy 00431255 f   libucrt:win_policies.obj
 0001:00030864       ?allocate@?$__crt_win32_buffer@DU__crt_win32_buffer_internal_dynamic_resizing@@@@QAEHI@Z 00431864 f i libucrt:argv_wildcards.obj
 0001:00030927       ___acrt_expand_narrow_argv_wildcards 00431927 f   libucrt:argv_wildcards.obj
 0001:00030932       ___acrt_GetModuleFileNameA 00431932 f   libucrt:getmodulefilenamea.obj
 0001:00030eeb       ___acrt_initialize_multibyte 00431eeb f   libucrt:mbctype.obj
 0001:00030f33       ___acrt_update_thread_multibyte_data 00431f33 f   libucrt:mbctype.obj
 0001:00030f46       __setmbcp_nolock           00431f46 f   libucrt:mbctype.obj
 0001:00031190       __ismbblead                00432190 f   libucrt:ismbbyte.obj
 0001:000311df       ___dcrt_get_narrow_environment_from_os 004321df f   libucrt:get_environment_from_os.obj
 0001:00031263       ___dcrt_get_wide_environment_from_os 00432263 f   libucrt:get_environment_from_os.obj
 0001:00031993       ___dcrt_set_variable_in_narrow_environment_nolock 00432993 f   libucrt:setenv.obj
 0001:0003199e       ___dcrt_set_variable_in_wide_environment_nolock 0043299e f   libucrt:setenv.obj
 0001:000319a9       ___acrt_initialize_heap    004329a9 f   libucrt:heap_handle.obj
 0001:000319ba       ___acrt_uninitialize_heap  004329ba f   libucrt:heap_handle.obj
 0001:000319c4       ___acrt_execute_initializers 004329c4 f   libucrt:shared_initialization.obj
 0001:00031a2c       ___acrt_execute_uninitializers 00432a2c f   libucrt:shared_initialization.obj
 0001:00031a5d       _wcscat_s                  00432a5d f   libucrt:wcscat_s.obj
 0001:00031b9d       _wcsncpy_s                 00432b9d f   libucrt:wcsncpy_s.obj
 0001:00031ba8       ___acrt_lowio_create_handle_array 00432ba8 f   libucrt:osfinfo.obj
 0001:00031c23       ___acrt_lowio_destroy_handle_array 00432c23 f   libucrt:osfinfo.obj
 0001:00031c58       ___acrt_lowio_ensure_fh_exists 00432c58 f   libucrt:osfinfo.obj
 0001:00031cf6       ___acrt_lowio_lock_fh      00432cf6 f   libucrt:osfinfo.obj
 0001:00031d19       ___acrt_lowio_set_os_handle 00432d19 f   libucrt:osfinfo.obj
 0001:00031dab       ___acrt_lowio_unlock_fh    00432dab f   libucrt:osfinfo.obj
 0001:00031dce       __alloc_osfhnd             00432dce f   libucrt:osfinfo.obj
 0001:00031ee1       __free_osfhnd              00432ee1 f   libucrt:osfinfo.obj
 0001:00031f72       __get_osfhandle            00432f72 f   libucrt:osfinfo.obj
 0001:00031fdc       ___acrt_initialize_fmode   00432fdc f   libucrt:txtmode.obj
 0001:00031ff2       ___acrt_locale_free_monetary 00432ff2 f   libucrt:initmon.obj
 0001:000320f0       ___acrt_locale_initialize_monetary 004330f0 f   libucrt:initmon.obj
 0001:000324a6       ___acrt_locale_free_numeric 004334a6 f   libucrt:initnum.obj
 0001:0003250f       ___acrt_locale_initialize_numeric 0043350f f   libucrt:initnum.obj
 0001:000329d1       ___acrt_locale_free_time   004339d1 f   libucrt:inittime.obj
 0001:00032ab5       ___acrt_locale_initialize_time 00433ab5 f   libucrt:inittime.obj
 0001:00032c17       _wcsncat_s                 00433c17 f   libucrt:wcsncat_s.obj
 0001:00032c22       _wcscspn                   00433c22 f   libucrt:wcscspn.obj
 0001:00032c7b       _wcspbrk                   00433c7b f   libucrt:wcspbrk.obj
 0001:00032cc9       ___acrt_add_locale_ref     00433cc9 f   libucrt:locale_refcounting.obj
 0001:00032d46       ___acrt_free_locale        00433d46 f   libucrt:locale_refcounting.obj
 0001:00032e8e       ___acrt_locale_add_lc_time_reference 00433e8e f   libucrt:locale_refcounting.obj
 0001:00032eb7       ___acrt_locale_free_lc_time_if_unreferenced 00433eb7 f   libucrt:locale_refcounting.obj
 0001:00032ee8       ___acrt_locale_release_lc_time_reference 00433ee8 f   libucrt:locale_refcounting.obj
 0001:00032f11       ___acrt_release_locale_ref 00433f11 f   libucrt:locale_refcounting.obj
 0001:00032f92       ___acrt_update_thread_locale_data 00433f92 f   libucrt:locale_refcounting.obj
 0001:00033013       __updatetlocinfoEx_nolock  00434013 f   libucrt:locale_refcounting.obj
 0001:0003375f       ___acrt_get_qualified_locale 0043475f f   libucrt:get_qualified_locale.obj
 0001:000340c0       ___acrt_get_qualified_locale_downlevel 004350c0 f   libucrt:getqloc_downlevel.obj
 0001:0003435c       __clearfp                  0043535c f   libucrt:ieee87.obj
 0001:0003443a       __control87                0043543a f   libucrt:ieee87.obj
 0001:00034829       ___acrt_DownlevelLCIDToLocaleName 00435829 f   libucrt:lcidtoname_downlevel.obj
 0001:000348d3       ___acrt_DownlevelLocaleNameToLCID 004358d3 f   libucrt:lcidtoname_downlevel.obj
 0001:0003492b       ?__mbrtowc_utf8@__crt_mbstring@@YAIPA_WPBDIPAU_Mbstatet@@@Z 0043592b f   libucrt:mbrtowc.obj
 0001:0003496b       ?__mbsrtowcs_utf8@__crt_mbstring@@YAIPA_WPAPBDIPAU_Mbstatet@@@Z 0043596b f   libucrt:mbrtowc.obj
 0001:00034a66       ?__c32rtomb_utf8@__crt_mbstring@@YAIPAD_UPAU_Mbstatet@@@Z 00435a66 f   libucrt:c32rtomb.obj
 0001:00034b11       ?return_illegal_sequence@__crt_mbstring@@YAIPAU_Mbstatet@@@Z 00435b11 f i libucrt:c32rtomb.obj
 0001:00034b30       _c32rtomb                  00435b30 f   libucrt:c32rtomb.obj
 0001:00034bb5       ___acrt_fp_strflt_to_string 00435bb5 f   libucrt:_fptostr.obj
 0001:00034c91       ___acrt_fltout             00435c91 f   libucrt:cfout.obj
 0001:00036198       __isatty                   00437198 f   libucrt:isatty.obj
 0001:000361ee       __putwch_nolock            004371ee f   libucrt:putwch.obj
 0001:000363ba       __wgetenv_s                004373ba f   libucrt:getenv.obj
 0001:000363c5       ___ascii_wcsnicmp          004373c5 f   libucrt:wcsnicmp.obj
 0001:00036414       __wcsnicmp                 00437414 f   libucrt:wcsnicmp.obj
 0001:00036460       __wcsnicmp_l               00437460 f   libucrt:wcsnicmp.obj
 0001:00036533       __strnicmp                 00437533 f   libucrt:strnicmp.obj
 0001:000365a0       __strnicmp_l               004375a0 f   libucrt:strnicmp.obj
 0001:00036c36       __sopen_nolock             00437c36 f   libucrt:open.obj
 0001:00036ca4       __sopen_s                  00437ca4 f   libucrt:open.obj
 0001:00036cc4       __wsopen_nolock            00437cc4 f   libucrt:open.obj
 0001:00036fee       ___acrt_LCMapStringW       00437fee f   libucrt:lcmapstringw.obj
 0001:0003702c       ___acrt_GetStringTypeW     0043802c f   libucrt:getstringtypew.obj
 0001:00037045       ?__wcsrtombs_utf8@__crt_mbstring@@YAIPADPAPB_WIPAU_Mbstatet@@@Z 00438045 f   libucrt:wcrtomb.obj
 0001:000371f6       _strncpy_s                 004381f6 f   libucrt:strncpy_s.obj
 0001:0003751e       ___acrt_fenv_get_common_round_control 0043851e f   libucrt:_fenvutils.obj
 0001:00037540       ___acrt_fenv_get_control   00438540 f   libucrt:_fenvutils.obj
 0001:000375c0       ___acrt_fenv_get_status    004385c0 f   libucrt:_fenvutils.obj
 0001:00037678       ___acrt_fenv_set_control   00438678 f   libucrt:_fenvutils.obj
 0001:000376e0       ___acrt_fenv_set_status    004386e0 f   libucrt:_fenvutils.obj
 0001:000377d7       ___libm_error_support      004387d7 f   libucrt:libm_error.obj
 0001:000379cb       __87except                 004389cb f   libucrt:87except.obj
 0001:00037ad5       __frnd                     00438ad5 f   libucrt:frnd.obj
 0001:00037af0       _qsort                     00438af0 f   libucrt:qsort.obj
 0001:00037fe0       _strpbrk                   00438fe0 f   libucrt:strpbrk.obj
 0001:00038020       __mbsdec                   00439020 f   libucrt:mbsdec.obj
 0001:00038037       __mbsdec_l                 00439037 f   libucrt:mbsdec.obj
 0001:000380d3       __wcsnicoll                004390d3 f   libucrt:wcsnicol.obj
 0001:00038140       __wcsnicoll_l              00439140 f   libucrt:wcsnicol.obj
 0001:00038200       __strnicoll                00439200 f   libucrt:strnicol.obj
 0001:00038229       __strnicoll_l              00439229 f   libucrt:strnicol.obj
 0001:000382f1       ___acrt_SetEnvironmentVariableA 004392f1 f   libucrt:setenvironmentvariablea.obj
 0001:000384ab       __itow_s                   004394ab f   libucrt:xtoa.obj
 0001:000384de       ?__mbrtoc32_utf8@__crt_mbstring@@YAIPA_UPBDIPAU_Mbstatet@@@Z 004394de f   libucrt:mbrtoc32.obj
 0001:00038685       _fegetenv                  00439685 f   libucrt:fegetenv.obj
 0001:000386a2       _fesetenv                  004396a2 f   libucrt:fesetenv.obj
 0001:000386ed       _feholdexcept              004396ed f   libucrt:feholdexcept.obj
 0001:00038740       __CIlog10                  00439740 f   libucrt:log10_impl.obj
 0001:0003877b       __CIlog10_default          0043977b f   libucrt:log10_impl.obj
 0001:0003878f       __log10_default            0043978f     libucrt:log10_impl.obj
 0001:00038850       _ceil                      00439850 f   libucrt:ceil_pentium4.obj
 0001:00038890       __ceil_pentium4            00439890 f   libucrt:ceil_pentium4.obj
 0001:0003898c       ___dcrt_lowio_ensure_console_output_initialized 0043998c f   libucrt:initcon.obj
 0001:000389ab       ___dcrt_terminate_console_output 004399ab f   libucrt:initcon.obj
 0001:000389c2       ___dcrt_write_console      004399c2 f   libucrt:initcon.obj
 0001:00038a20       ___ascii_strnicmp          00439a20 f   libucrt:_strnicm.obj
 0001:00038a81       ??0__crt_seek_guard@@QAE@H_J@Z 00439a81 f i libucrt:chsize.obj
 0001:00038ace       __chsize_nolock            00439ace f   libucrt:chsize.obj
 0001:00038c3e       ?__c16rtomb_utf8@__crt_mbstring@@YAIPAD_SPAU_Mbstatet@@@Z 00439c3e f   libucrt:c16rtomb.obj
 0001:00038cd8       ___acrt_CompareStringW     00439cd8 f   libucrt:comparestringw.obj
 0001:00038fc8       ___acrt_CompareStringA     00439fc8 f   libucrt:comparestringa.obj
 0001:00039010       __CIlog10_pentium4         0043a010 f   libucrt:log10_pentium4.obj
 0001:00039028       __log10_pentium4           0043a028     libucrt:log10_pentium4.obj
 0001:000392a0       __ceil_default             0043a2a0 f   libucrt:ceil.obj
 0001:00039355       _SQLAllocHandle@12         0043a355 f   odbc32:ODBC32.dll
 0001:0003935b       _SQLConnect@28             0043a35b f   odbc32:ODBC32.dll
 0001:00039361       _SQLDisconnect@4           0043a361 f   odbc32:ODBC32.dll
 0001:00039367       _SQLFreeHandle@8           0043a367 f   odbc32:ODBC32.dll
 0001:0003936d       _SQLSetEnvAttr@16          0043a36d f   odbc32:ODBC32.dll
 0001:00039373       _SQLBindCol@24             0043a373 f   odbc32:ODBC32.dll
 0001:00039379       _SQLCloseCursor@4          0043a379 f   odbc32:ODBC32.dll
 0001:0003937f       _SQLExecute@4              0043a37f f   odbc32:ODBC32.dll
 0001:00039385       _SQLFetch@4                0043a385 f   odbc32:ODBC32.dll
 0001:0003938b       _SQLGetDiagRec@32          0043a38b f   odbc32:ODBC32.dll
 0001:00039391       _SQLPrepare@12             0043a391 f   odbc32:ODBC32.dll
 0001:00039397       _SQLMoreResults@4          0043a397 f   odbc32:ODBC32.dll
 0001:0003939d       _SQLBindParameter@40       0043a39d f   odbc32:ODBC32.dll
 0001:000393b0       __FindPESection            0043a3b0 f   LIBCMT:pesect.obj
 0001:00039400       __IsNonwritableInCurrentImage 0043a400 f   LIBCMT:pesect.obj
 0001:000394c0       __ValidateImageBase        0043a4c0 f   LIBCMT:pesect.obj
 0001:00039500       __aulldvrm                 0043a500 f   LIBCMT:ulldvrm.obj
 0001:000395a0       __alldiv                   0043a5a0 f   LIBCMT:lldiv.obj
 0001:00039650       __allrem                   0043a650 f   LIBCMT:llrem.obj
 0001:00039710       __allshl                   0043a710 f   LIBCMT:llshl.obj
 0001:00039730       __aullshr                  0043a730 f   LIBCMT:ullshr.obj
 0001:00039750       __ftol2_sse                0043a750 f   LIBCMT:ftol2.obj
 0001:00039760       __ftoi2                    0043a760 f   LIBCMT:ftol2.obj
 0001:000397e0       _strchr                    0043a7e0 f   libvcruntime:strchr.obj
 0001:0003984e       ___from_strstr_to_strchr   0043a84e     libvcruntime:strchr.obj
 0001:0003990b       _wcschr                    0043a90b f   libvcruntime:wcschr.obj
 0001:000399bb       __filter_x86_sse2_floating_point_exception 0043a9bb f   LIBCMT:x86_exception_filter.obj
 0001:000399bb       __filter_x86_sse2_floating_point_exception_default 0043a9bb f   LIBCMT:x86_exception_filter.obj
 0001:0003b410       ??__FstrHeap@?1??GetInstance@CAtlStringMgr@ATL@@SAPAUIAtlStringMgr@2@XZ@YAXXZ 0043c410 f i CSHandler.obj
 0001:0003b440       ??__FstrMgr@?1??GetInstance@CAtlStringMgr@ATL@@SAPAUIAtlStringMgr@2@XZ@YAXXZ 0043c440 f i CSHandler.obj
 0002:00000000       __imp__CryptAcquireContextA@20 0043d000     advapi32:ADVAPI32.dll
 0002:00000004       __imp__CryptDestroyHash@4  0043d004     advapi32:ADVAPI32.dll
 0002:00000008       __imp__CryptHashData@16    0043d008     advapi32:ADVAPI32.dll
 0002:0000000c       __imp__CryptCreateHash@20  0043d00c     advapi32:ADVAPI32.dll
 0002:00000010       __imp__CryptEncrypt@28     0043d010     advapi32:ADVAPI32.dll
 0002:00000014       __imp__CryptDestroyKey@4   0043d014     advapi32:ADVAPI32.dll
 0002:00000018       __imp__CryptDeriveKey@20   0043d018     advapi32:ADVAPI32.dll
 0002:0000001c       __imp__CryptReleaseContext@8 0043d01c     advapi32:ADVAPI32.dll
 0002:00000020       __imp__ReportEventA@36     0043d020     advapi32:ADVAPI32.dll
 0002:00000024       __imp__RegisterEventSourceA@8 0043d024     advapi32:ADVAPI32.dll
 0002:00000028       __imp__DeregisterEventSource@4 0043d028     advapi32:ADVAPI32.dll
 0002:0000002c       \177ADVAPI32_NULL_THUNK_DATA 0043d02c     advapi32:ADVAPI32.dll
 0002:00000030       __imp__GetTimeZoneInformation@4 0043d030     kernel32:KERNEL32.dll
 0002:00000034       __imp__GetModuleFileNameW@12 0043d034     kernel32:KERNEL32.dll
 0002:00000038       __imp__GetModuleHandleExW@12 0043d038     kernel32:KERNEL32.dll
 0002:0000003c       __imp__DecodePointer@4     0043d03c     kernel32:KERNEL32.dll
 0002:00000040       __imp__GetLastError@0      0043d040     kernel32:KERNEL32.dll
 0002:00000044       __imp__HeapDestroy@4       0043d044     kernel32:KERNEL32.dll
 0002:00000048       __imp__HeapAlloc@12        0043d048     kernel32:KERNEL32.dll
 0002:0000004c       __imp__HeapReAlloc@16      0043d04c     kernel32:KERNEL32.dll
 0002:00000050       __imp__HeapFree@12         0043d050     kernel32:KERNEL32.dll
 0002:00000054       __imp__HeapSize@12         0043d054     kernel32:KERNEL32.dll
 0002:00000058       __imp__GetProcessHeap@0    0043d058     kernel32:KERNEL32.dll
 0002:0000005c       __imp__EnterCriticalSection@4 0043d05c     kernel32:KERNEL32.dll
 0002:00000060       __imp__LeaveCriticalSection@4 0043d060     kernel32:KERNEL32.dll
 0002:00000064       __imp__InitializeCriticalSectionEx@12 0043d064     kernel32:KERNEL32.dll
 0002:00000068       __imp__DeleteCriticalSection@4 0043d068     kernel32:KERNEL32.dll
 0002:0000006c       __imp__GetTickCount@0      0043d06c     kernel32:KERNEL32.dll
 0002:00000070       __imp__FindResourceExW@16  0043d070     kernel32:KERNEL32.dll
 0002:00000074       __imp__LoadResource@8      0043d074     kernel32:KERNEL32.dll
 0002:00000078       __imp__LockResource@4      0043d078     kernel32:KERNEL32.dll
 0002:0000007c       __imp__SizeofResource@8    0043d07c     kernel32:KERNEL32.dll
 0002:00000080       __imp__FindResourceW@12    0043d080     kernel32:KERNEL32.dll
 0002:00000084       __imp__lstrcpyA@8          0043d084     kernel32:KERNEL32.dll
 0002:00000088       __imp__WideCharToMultiByte@32 0043d088     kernel32:KERNEL32.dll
 0002:0000008c       __imp__InitializeCriticalSection@4 0043d08c     kernel32:KERNEL32.dll
 0002:00000090       __imp__CreateFileA@28      0043d090     kernel32:KERNEL32.dll
 0002:00000094       __imp__GetFileSize@8       0043d094     kernel32:KERNEL32.dll
 0002:00000098       __imp__ReadFile@20         0043d098     kernel32:KERNEL32.dll
 0002:0000009c       __imp__CloseHandle@4       0043d09c     kernel32:KERNEL32.dll
 0002:000000a0       __imp__RaiseException@16   0043d0a0     kernel32:KERNEL32.dll
 0002:000000a4       __imp__CreateIoCompletionPort@16 0043d0a4     kernel32:KERNEL32.dll
 0002:000000a8       __imp__GetQueuedCompletionStatus@20 0043d0a8     kernel32:KERNEL32.dll
 0002:000000ac       __imp__PostQueuedCompletionStatus@16 0043d0ac     kernel32:KERNEL32.dll
 0002:000000b0       __imp__InitializeCriticalSectionAndSpinCount@8 0043d0b0     kernel32:KERNEL32.dll
 0002:000000b4       __imp__WaitForSingleObject@8 0043d0b4     kernel32:KERNEL32.dll
 0002:000000b8       __imp__WaitForMultipleObjects@16 0043d0b8     kernel32:KERNEL32.dll
 0002:000000bc       __imp__CreateThread@24     0043d0bc     kernel32:KERNEL32.dll
 0002:000000c0       __imp__GetCurrentThreadId@0 0043d0c0     kernel32:KERNEL32.dll
 0002:000000c4       __imp__ResumeThread@4      0043d0c4     kernel32:KERNEL32.dll
 0002:000000c8       __imp__GetSystemInfo@4     0043d0c8     kernel32:KERNEL32.dll
 0002:000000cc       __imp__GetModuleFileNameA@12 0043d0cc     kernel32:KERNEL32.dll
 0002:000000d0       __imp__lstrlenA@4          0043d0d0     kernel32:KERNEL32.dll
 0002:000000d4       __imp__OutputDebugStringA@4 0043d0d4     kernel32:KERNEL32.dll
 0002:000000d8       __imp__LocalFree@4         0043d0d8     kernel32:KERNEL32.dll
 0002:000000dc       __imp__FormatMessageA@28   0043d0dc     kernel32:KERNEL32.dll
 0002:000000e0       __imp__SetConsoleTextAttribute@8 0043d0e0     kernel32:KERNEL32.dll
 0002:000000e4       __imp__SetConsoleTitleA@4  0043d0e4     kernel32:KERNEL32.dll
 0002:000000e8       __imp__GetStdHandle@4      0043d0e8     kernel32:KERNEL32.dll
 0002:000000ec       __imp__ExitProcess@4       0043d0ec     kernel32:KERNEL32.dll
 0002:000000f0       __imp__ReadConsoleW@20     0043d0f0     kernel32:KERNEL32.dll
 0002:000000f4       __imp__SetFilePointerEx@20 0043d0f4     kernel32:KERNEL32.dll
 0002:000000f8       __imp__GetFileSizeEx@8     0043d0f8     kernel32:KERNEL32.dll
 0002:000000fc       __imp__GetConsoleMode@8    0043d0fc     kernel32:KERNEL32.dll
 0002:00000100       __imp__FindClose@4         0043d100     kernel32:KERNEL32.dll
 0002:00000104       __imp__FindFirstFileExW@24 0043d104     kernel32:KERNEL32.dll
 0002:00000108       __imp__FindNextFileW@8     0043d108     kernel32:KERNEL32.dll
 0002:0000010c       __imp__IsValidCodePage@4   0043d10c     kernel32:KERNEL32.dll
 0002:00000110       __imp__SetEndOfFile@4      0043d110     kernel32:KERNEL32.dll
 0002:00000114       __imp__GetACP@0            0043d114     kernel32:KERNEL32.dll
 0002:00000118       __imp__GetOEMCP@0          0043d118     kernel32:KERNEL32.dll
 0002:0000011c       __imp__GetEnvironmentStringsW@0 0043d11c     kernel32:KERNEL32.dll
 0002:00000120       __imp__FreeEnvironmentStringsW@4 0043d120     kernel32:KERNEL32.dll
 0002:00000124       __imp__SetEnvironmentVariableW@8 0043d124     kernel32:KERNEL32.dll
 0002:00000128       __imp__SetStdHandle@8      0043d128     kernel32:KERNEL32.dll
 0002:0000012c       __imp__CreateFileW@28      0043d12c     kernel32:KERNEL32.dll
 0002:00000130       __imp__WriteConsoleW@20    0043d130     kernel32:KERNEL32.dll
 0002:00000134       __imp__IsDebuggerPresent@0 0043d134     kernel32:KERNEL32.dll
 0002:00000138       __imp__GetConsoleOutputCP@0 0043d138     kernel32:KERNEL32.dll
 0002:0000013c       __imp__FlushFileBuffers@4  0043d13c     kernel32:KERNEL32.dll
 0002:00000140       __imp__GetFileType@4       0043d140     kernel32:KERNEL32.dll
 0002:00000144       __imp__EnumSystemLocalesW@8 0043d144     kernel32:KERNEL32.dll
 0002:00000148       __imp__LoadLibraryExW@12   0043d148     kernel32:KERNEL32.dll
 0002:0000014c       __imp__FreeLibrary@4       0043d14c     kernel32:KERNEL32.dll
 0002:00000150       __imp__TlsFree@4           0043d150     kernel32:KERNEL32.dll
 0002:00000154       __imp__TlsSetValue@8       0043d154     kernel32:KERNEL32.dll
 0002:00000158       __imp__TlsGetValue@4       0043d158     kernel32:KERNEL32.dll
 0002:0000015c       __imp__TlsAlloc@0          0043d15c     kernel32:KERNEL32.dll
 0002:00000160       __imp__SetLastError@4      0043d160     kernel32:KERNEL32.dll
 0002:00000164       __imp__RtlUnwind@16        0043d164     kernel32:KERNEL32.dll
 0002:00000168       __imp__InitializeSListHead@4 0043d168     kernel32:KERNEL32.dll
 0002:0000016c       __imp__GetSystemTimeAsFileTime@4 0043d16c     kernel32:KERNEL32.dll
 0002:00000170       __imp__GetCurrentProcessId@0 0043d170     kernel32:KERNEL32.dll
 0002:00000174       __imp__GetUserDefaultLCID@0 0043d174     kernel32:KERNEL32.dll
 0002:00000178       __imp__IsValidLocale@8     0043d178     kernel32:KERNEL32.dll
 0002:0000017c       __imp__GetLocaleInfoW@16   0043d17c     kernel32:KERNEL32.dll
 0002:00000180       __imp__LCMapStringW@24     0043d180     kernel32:KERNEL32.dll
 0002:00000184       __imp__CompareStringW@24   0043d184     kernel32:KERNEL32.dll
 0002:00000188       __imp__GetTimeFormatW@24   0043d188     kernel32:KERNEL32.dll
 0002:0000018c       __imp__GetDateFormatW@24   0043d18c     kernel32:KERNEL32.dll
 0002:00000190       __imp__GetCommandLineW@0   0043d190     kernel32:KERNEL32.dll
 0002:00000194       __imp__GetCommandLineA@0   0043d194     kernel32:KERNEL32.dll
 0002:00000198       __imp__OutputDebugStringW@4 0043d198     kernel32:KERNEL32.dll
 0002:0000019c       __imp__EncodePointer@4     0043d19c     kernel32:KERNEL32.dll
 0002:000001a0       __imp__MultiByteToWideChar@24 0043d1a0     kernel32:KERNEL32.dll
 0002:000001a4       __imp__LCMapStringEx@36    0043d1a4     kernel32:KERNEL32.dll
 0002:000001a8       __imp__GetStringTypeW@16   0043d1a8     kernel32:KERNEL32.dll
 0002:000001ac       __imp__GetCPInfo@8         0043d1ac     kernel32:KERNEL32.dll
 0002:000001b0       __imp__SetEvent@4          0043d1b0     kernel32:KERNEL32.dll
 0002:000001b4       __imp__ResetEvent@4        0043d1b4     kernel32:KERNEL32.dll
 0002:000001b8       __imp__WaitForSingleObjectEx@12 0043d1b8     kernel32:KERNEL32.dll
 0002:000001bc       __imp__CreateEventW@16     0043d1bc     kernel32:KERNEL32.dll
 0002:000001c0       __imp__GetModuleHandleW@4  0043d1c0     kernel32:KERNEL32.dll
 0002:000001c4       __imp__GetProcAddress@8    0043d1c4     kernel32:KERNEL32.dll
 0002:000001c8       __imp__UnhandledExceptionFilter@4 0043d1c8     kernel32:KERNEL32.dll
 0002:000001cc       __imp__SetUnhandledExceptionFilter@4 0043d1cc     kernel32:KERNEL32.dll
 0002:000001d0       __imp__GetCurrentProcess@0 0043d1d0     kernel32:KERNEL32.dll
 0002:000001d4       __imp__TerminateProcess@8  0043d1d4     kernel32:KERNEL32.dll
 0002:000001d8       __imp__IsProcessorFeaturePresent@4 0043d1d8     kernel32:KERNEL32.dll
 0002:000001dc       __imp__GetStartupInfoW@4   0043d1dc     kernel32:KERNEL32.dll
 0002:000001e0       __imp__QueryPerformanceCounter@4 0043d1e0     kernel32:KERNEL32.dll
 0002:000001e4       __imp__WriteFile@20        0043d1e4     kernel32:KERNEL32.dll
 0002:000001e8       \177KERNEL32_NULL_THUNK_DATA 0043d1e8     kernel32:KERNEL32.dll
 0002:000001ec       __imp__AcceptEx@32         0043d1ec     mswsock:MSWSOCK.dll
 0002:000001f0       \177MSWSOCK_NULL_THUNK_DATA 0043d1f0     mswsock:MSWSOCK.dll
 0002:000001f4       __imp__SQLFetch@4          0043d1f4     odbc32:ODBC32.dll
 0002:000001f8       __imp__SQLExecute@4        0043d1f8     odbc32:ODBC32.dll
 0002:000001fc       __imp__SQLCloseCursor@4    0043d1fc     odbc32:ODBC32.dll
 0002:00000200       __imp__SQLBindCol@24       0043d200     odbc32:ODBC32.dll
 0002:00000204       __imp__SQLPrepare@12       0043d204     odbc32:ODBC32.dll
 0002:00000208       __imp__SQLFreeHandle@8     0043d208     odbc32:ODBC32.dll
 0002:0000020c       __imp__SQLDisconnect@4     0043d20c     odbc32:ODBC32.dll
 0002:00000210       __imp__SQLConnect@28       0043d210     odbc32:ODBC32.dll
 0002:00000214       __imp__SQLAllocHandle@12   0043d214     odbc32:ODBC32.dll
 0002:00000218       __imp__SQLMoreResults@4    0043d218     odbc32:ODBC32.dll
 0002:0000021c       __imp__SQLGetDiagRec@32    0043d21c     odbc32:ODBC32.dll
 0002:00000220       __imp__SQLSetEnvAttr@16    0043d220     odbc32:ODBC32.dll
 0002:00000224       __imp__SQLBindParameter@40 0043d224     odbc32:ODBC32.dll
 0002:00000228       \177ODBC32_NULL_THUNK_DATA 0043d228     odbc32:ODBC32.dll
 0002:0000022c       __imp__LoadStringA@16      0043d22c     user32:USER32.dll
 0002:00000230       __imp__PostThreadMessageA@16 0043d230     user32:USER32.dll
 0002:00000234       \177USER32_NULL_THUNK_DATA 0043d234     user32:USER32.dll
 0002:00000238       __imp__listen@8            0043d238     ws2_32:WS2_32.dll
 0002:0000023c       __imp__ioctlsocket@12      0043d23c     ws2_32:WS2_32.dll
 0002:00000240       __imp__bind@12             0043d240     ws2_32:WS2_32.dll
 0002:00000244       __imp__setsockopt@20       0043d244     ws2_32:WS2_32.dll
 0002:00000248       __imp__inet_ntoa@4         0043d248     ws2_32:WS2_32.dll
 0002:0000024c       __imp__closesocket@4       0043d24c     ws2_32:WS2_32.dll
 0002:00000250       __imp__connect@12          0043d250     ws2_32:WS2_32.dll
 0002:00000254       __imp__htons@4             0043d254     ws2_32:WS2_32.dll
 0002:00000258       __imp__WSARecv@28          0043d258     ws2_32:WS2_32.dll
 0002:0000025c       __imp__WSASend@28          0043d25c     ws2_32:WS2_32.dll
 0002:00000260       __imp__WSASocketA@24       0043d260     ws2_32:WS2_32.dll
 0002:00000264       __imp__send@16             0043d264     ws2_32:WS2_32.dll
 0002:00000268       __imp__WSAGetLastError@0   0043d268     ws2_32:WS2_32.dll
 0002:0000026c       __imp__WSACleanup@0        0043d26c     ws2_32:WS2_32.dll
 0002:00000270       __imp__WSAStartup@8        0043d270     ws2_32:WS2_32.dll
 0002:00000274       __imp__socket@12           0043d274     ws2_32:WS2_32.dll
 0002:00000278       __imp__inet_addr@4         0043d278     ws2_32:WS2_32.dll
 0002:0000027c       \177WS2_32_NULL_THUNK_DATA 0043d27c     ws2_32:WS2_32.dll
 0002:00000280       __imp__CoCreateInstance@20 0043d280     ole32:ole32.dll
 0002:00000284       __imp__CoReleaseServerProcess@0 0043d284     ole32:ole32.dll
 0002:00000288       __imp__CoAddRefServerProcess@0 0043d288     ole32:ole32.dll
 0002:0000028c       \177ole32_NULL_THUNK_DATA  0043d28c     ole32:ole32.dll
 0002:00000290       ___guard_check_icall_fptr  0043d290     LIBCMT:guard_support.obj
 0002:00000294       ___castguard_check_failure_os_handled_fptr 0043d294     LIBCMT:guard_support.obj
 0002:00000298       ___xc_a                    0043d298     LIBCMT:initializers.obj
 0002:000002e8       ___xc_z                    0043d2e8     LIBCMT:initializers.obj
 0002:000002ec       ___xi_a                    0043d2ec     LIBCMT:initializers.obj
 0002:000002fc       ___acrt_stdio_initializer  0043d2fc     libucrt:stdio_initializer.obj
 0002:00000300       ___acrt_timeset_initializer 0043d300     libucrt:timeset_initializer.obj
 0002:00000304       ___acrt_tran_sse2_initializer 0043d304     libucrt:sse2_initializer.obj
 0002:00000308       ___acrt_multibyte_initializer 0043d308     libucrt:multibyte_initializer.obj
 0002:0000030c       ___acrt_fmode_initializer  0043d30c     libucrt:fmode_initializer.obj
 0002:00000310       ___xi_z                    0043d310     LIBCMT:initializers.obj
 0002:00000314       ___xl_a                    0043d314     LIBCMT:tlssup.obj
 0002:00000318       ___xl_z                    0043d318     LIBCMT:tlssup.obj
 0002:0000031c       ___xp_a                    0043d31c     LIBCMT:initializers.obj
 0002:00000320       ___acrt_locale_terminator  0043d320     libucrt:locale_initializer.obj
 0002:00000324       ___dcrt_console_output_terminator 0043d324     libucrt:console_output_initializer.obj
 0002:00000328       ___acrt_stdio_terminator   0043d328     libucrt:stdio_initializer.obj
 0002:0000032c       ___xp_z                    0043d32c     LIBCMT:initializers.obj
 0002:00000330       ___xt_a                    0043d330     LIBCMT:initializers.obj
 0002:00000334       ___xt_z                    0043d334     LIBCMT:initializers.obj
 0002:00000348       ??_7CWin32Heap@ATL@@6B@    0043d348     CSHandler.obj
 0002:00000360       ??_7CAtlStringMgr@ATL@@6B@ 0043d360     CSHandler.obj
 0002:0000037c       ??_7exception@std@@6B@     0043d37c     CSHandler.obj
 0002:00000388       ??_7bad_alloc@std@@6B@     0043d388     CSHandler.obj
 0002:00000394       ??_7bad_array_new_length@std@@6B@ 0043d394     CSHandler.obj
 0002:000003a0       ??_7CCSLock@@6B@           0043d3a0     CSHandler.obj
 0002:000003a4       ??_C@_0L@ELJEICCB@CSPCheckIP@ 0043d3a4     CSHandler.obj
 0002:000003b0       ??_C@_0L@GFPDFJMC@CSPLoginJP@ 0043d3b0     CSHandler.obj
 0002:000003bc       ??_C@_08HPOEJKLG@CSPLogin@ 0043d3bc     CSHandler.obj
 0002:000003c8       ??_C@_0CG@OGEAGJ@User?3?5?$CFs?5logged?5in?5using?5passwo@ 0043d3c8     CSHandler.obj
 0002:000003f0       ??_C@_0N@CGBFMCOF@CSPTestLogin@ 0043d3f0     CSHandler.obj
 0002:00000400       ??_C@_0O@COGHLFI@CTBLGroupList@ 0043d400     CSHandler.obj
 0002:00000410       ??_C@_0M@PBFKKLH@CTBLChannel@ 0043d410     CSHandler.obj
 0002:0000041c       ??_C@_0BB@DPKDPKJN@CSPFindBOWPlayer@ 0043d41c     CSHandler.obj
 0002:00000430       ??_C@_0BA@IENEOIFH@CSPFindBRPlayer@ 0043d430     CSHandler.obj
 0002:00000440       ??_C@_08DBFGMAPO@CTBLChar@ 0043d440     CSHandler.obj
 0002:0000044c       ??_C@_08KLHKJGDK@CTBLItem@ 0043d44c     CSHandler.obj
 0002:00000458       ??_C@_0BA@GEEJCOBC@CSPGetGuildInfo@ 0043d458     CSHandler.obj
 0002:00000468       ??_C@_0O@NJMHDGOD@CSPCreateChar@ 0043d468     CSHandler.obj
 0002:00000478       ??_C@_0P@KEKLJILN@CSPCheckPasswd@ 0043d478     CSHandler.obj
 0002:00000488       ??_C@_0O@BNGHABFA@CSPDeleteChar@ 0043d488     CSHandler.obj
 0002:00000498       ??_C@_0BA@NAMCOCHJ@CSPFindServerID@ 0043d498     CSHandler.obj
 0002:000004a8       ??_C@_08ELCCIPKB@CSPRoute@ 0043d4a8     CSHandler.obj
 0002:000004b4       ??_C@_0N@IBGPBEGA@CSPAgreement@ 0043d4b4     CSHandler.obj
 0002:000004c4       ??_C@_0BN@PCPGEAB@SecurityCode?5Empty?4?5?$CFs?5?$CFs?5?$CFd@ 0043d4c4     CSHandler.obj
 0002:000004e4       ??_C@_0BE@GKOILAPC@CSPAddNewMACAddress@ 0043d4e4     CSHandler.obj
 0002:000004f8       ??_C@_0BC@KBDMBKEH@deque?$DMT?$DO?5too?5long@ 0043d4f8     CSHandler.obj
 0002:00000510       ??_7CSPLogin@@6B@          0043d510     DBAccess.obj
 0002:00000528       ??_C@_0CM@HKEMIMCP@?$HL?5?$DP?5?$DN?5CALL?5TLogin?$CI?$DP?0?$DP?0?$DP?0?$DP?0?$DP?0?$DP?0?$DP@ 0043d528     DBAccess.obj
 0002:00000558       ??_7CSPLoginJP@@6B@        0043d558     DBAccess.obj
 0002:00000570       ??_C@_0CO@KCOCOIDI@?$HL?5?$DP?5?$DN?5CALL?5TLogin?$CI?$DP?0?$DP?0?$DP?0?$DP?0?$DP?0?$DP?0?$DP@ 0043d570     DBAccess.obj
 0002:000005a4       ??_7CSPCheckForbiddenHWID@@6B@ 0043d5a4     DBAccess.obj
 0002:000005bc       ??_C@_0BK@ENJNIMDF@?$HL?5?$DP?5?$DN?5CALL?5TCheckHWID?$CI?$DP?$CJ?$HN@ 0043d5bc     DBAccess.obj
 0002:000005dc       ??_7CSPCheckIP@@6B@        0043d5dc     DBAccess.obj
 0002:000005f4       ??_C@_0BI@KADAHKPB@?$HL?5?$DP?5?$DN?5CALL?5TCheckIP?$CI?$DP?$CJ?$HN@ 0043d5f4     DBAccess.obj
 0002:00000610       ??_7CSPLogout@@6B@         0043d610     DBAccess.obj
 0002:00000628       ??_C@_0BN@FJCFHOJC@?$HL?5?$DP?5?$DN?5CALL?5TLogout?$CI?$DP?0?$DP?0?$DP?0?$DP?$CJ?$HN@ 0043d628     DBAccess.obj
 0002:0000064c       ??_7CSPCheckPasswd@@6B@    0043d64c     DBAccess.obj
 0002:00000664       ??_C@_0BO@PGJGNOEF@?$HL?5?$DP?5?$DN?5CALL?5TCheckPasswd?$CI?$DP?0?$DP?$CJ?$HN@ 0043d664     DBAccess.obj
 0002:00000688       ??_7CSPRoute@@6B@          0043d688     DBAccess.obj
 0002:000006a0       ??_C@_0BO@LDFDEPKD@?$HL?5?$DP?5?$DN?5CALL?5TRoute?$CI?$DP?0?$DP?0?$DP?0?$DP?0?$DP?$CJ?$HN@ 0043d6a0     DBAccess.obj
 0002:000006c4       ??_7CSPVeteran@@6B@        0043d6c4     DBAccess.obj
 0002:000006dc       ??_C@_0BN@PGGHNJHH@?$HL?5?$DP?5?$DN?5CALL?5TCheckVeteran?$CI?$DP?$CJ?$HN@ 0043d6dc     DBAccess.obj
 0002:00000700       ??_7CTBLGroup@@6B@         0043d700     DBAccess.obj
 0002:00000718       ??_C@_0GB@MBMNLBIP@SELECT?5?7bGroupID?0?5?7bType?0?5?7szNA@ 0043d718     DBAccess.obj
 0002:00000780       ??_7CTBLVeteranChart@@6B@  0043d780     DBAccess.obj
 0002:00000798       ??_C@_0CJ@EBJGPABB@SELECT?5?7bID?0?5?7bLevel?5?7FROM?5TVET@ 0043d798     DBAccess.obj
 0002:000007c8       ??_7CTBLChannel@@6B@       0043d7c8     DBAccess.obj
 0002:000007e0       ??_C@_0BKB@KHNGDDLC@SELECT?5?7TCHANNEL?4bChannel?0?5?7TCH@ 0043d7e0     DBAccess.obj
 0002:00000988       ??_7CTBLGroupList@@6B@     0043d988     DBAccess.obj
 0002:000009a0       ??_C@_0CFG@KLCBDFHC@SELECT?5?7TGROUP?4bGroupID?0?5?7TGROU@ 0043d9a0     DBAccess.obj
 0002:00000bfc       ??_7CTBLUserCount@@6B@     0043dbfc     DBAccess.obj
 0002:00000c18       ??_C@_0FD@OPEJJGMC@SELECT?5?7bWorldID?0?5?7COUNT?$CIDISTIN@ 0043dc18     DBAccess.obj
 0002:00000c70       ??_7CSPTestLogin@@6B@      0043dc70     DBAccess.obj
 0002:00000c88       ??_C@_0CG@NPOGDAIJ@?$HL?5?$DP?5?$DN?5CALL?5TTestLogin?$CI?$DP?0?$DP?0?$DP?0?$DP?0?$DP@ 0043dc88     DBAccess.obj
 0002:00000cb4       ??_7CSPCreateChar@@6B@     0043dcb4     DBAccess.obj
 0002:00000ccc       ??_C@_0DL@DGLOIGPO@?$HL?5?$DP?5?$DN?5CALL?5TCreateChar?$CI?$DP?0?$DP?0?$DP?0?$DP?0@ 0043dccc     DBAccess.obj
 0002:00000d0c       ??_7CSPDeleteChar@@6B@     0043dd0c     DBAccess.obj
 0002:00000d24       ??_C@_0CB@JNHKKEIK@?$HL?5?$DP?5?$DN?5CALL?5TDeleteChar?$CI?$DP?0?$DP?0?$DP?0?$DP?$CJ@ 0043dd24     DBAccess.obj
 0002:00000d4c       ??_7CSPFindServerID@@6B@   0043dd4c     DBAccess.obj
 0002:00000d64       ??_C@_0CB@OFIMHJGF@?$HL?5?$DP?5?$DN?5CALL?5TFindServerID?$CI?$DP?0?$DP?0?$DP?$CJ@ 0043dd64     DBAccess.obj
 0002:00000d8c       ??_7CSPAddNewMACAddress@@6B@ 0043dd8c     DBAccess.obj
 0002:00000da4       ??_C@_0BL@LPEECDDN@?$HLCALL?5TAddMacAddress?$CI?$DP?0?$DP?$CJ?$HN@ 0043dda4     DBAccess.obj
 0002:00000dc4       ??_7CSPGetClientSha@@6B@   0043ddc4     DBAccess.obj
 0002:00000ddc       ??_C@_0BK@BFELDFPI@?$HLCALL?5TGetClientSha?$CI?$DP?0?$DP?$CJ?$HN@ 0043dddc     DBAccess.obj
 0002:00000dfc       ??_7CTBLChar@@6B@          0043ddfc     DBAccess.obj
 0002:00000e18       ??_C@_0PJ@ICMMEIP@SELECT?5TOP?56?5?7szNAME?0?5?7dwCharID@ 0043de18     DBAccess.obj
 0002:00000f18       ??_7CTBLItem@@6B@          0043df18     DBAccess.obj
 0002:00000f30       ??_C@_0LL@JBCCJAKJ@SELECT?5?7bItemID?0?5?7wItemID?0?5?7bLe@ 0043df30     DBAccess.obj
 0002:00000ff0       ??_7CSPLoadService@@6B@    0043dff0     DBAccess.obj
 0002:00001008       ??_C@_0BN@FKLLIGDD@?$HLCALL?5TLoadService?$CI?$DP?0?$DP?0?$DP?0?$DP?$CJ?$HN@ 0043e008     DBAccess.obj
 0002:0000102c       ??_7CSPAgreement@@6B@      0043e02c     DBAccess.obj
 0002:00001044       ??_C@_0BF@EOHCNCGK@?$HLCALL?5TAgreement?$CI?$DP?$CJ?$HN@ 0043e044     DBAccess.obj
 0002:00001060       ??_7CSPFindBOWPlayer@@6B@  0043e060     DBAccess.obj
 0002:00001078       ??_C@_0BL@IBDGEAJI@?$HLCALL?5TFindBOWPlayer?$CI?$DP?0?$DP?$CJ?$HN@ 0043e078     DBAccess.obj
 0002:00001098       ??_7CSPFindBRPlayer@@6B@   0043e098     DBAccess.obj
 0002:000010b0       ??_C@_0BK@OCHLLKJI@?$HLCALL?5TFindBRPlayer?$CI?$DP?0?$DP?$CJ?$HN@ 0043e0b0     DBAccess.obj
 0002:000010d0       ??_7CSPClearLoginUser@@6B@ 0043e0d0     DBAccess.obj
 0002:000010e8       ??_C@_0BO@FHFPIHDG@?$HLCALL?5TClearLoginCurrentUser?$HN@ 0043e0e8     DBAccess.obj
 0002:0000110c       ??_7CSPGetNation@@6B@      0043e10c     DBAccess.obj
 0002:00001124       ??_C@_0BF@MGHBOKLC@?$HLCALL?5TGetNation?$CI?$DP?$CJ?$HN@ 0043e124     DBAccess.obj
 0002:00001140       ??_7CSPGetGuildInfo@@6B@   0043e140     DBAccess.obj
 0002:00001158       ??_C@_0BO@CHEFPEBD@?$HLCALL?5TGetGuildInfo?$CI?$DP?0?$DP?0?$DP?0?$DP?$CJ?$HN@ 0043e158     DBAccess.obj
 0002:0000117c       ??_7CSPGetBanReason@@6B@   0043e17c     DBAccess.obj
 0002:00001194       ??_C@_0CA@POFFGIBH@?$HLCALL?5TGetBanReason?$CI?$DP?0?$DP?0?$DP?0?$DP?0?$DP?$CJ?$HN@ 0043e194     DBAccess.obj
 0002:000011b4       ??_C@_09CBFKFMKO@CTBLGroup@ 0043e1b4     DBAccess.obj
 0002:000011c0       ??_C@_0BB@OLJBKNDK@CTBLVeteranChart@ 0043e1c0     DBAccess.obj
 0002:000011d4       ??_C@_09FMDGFNJM@CSPLogout@ 0043e1d4     DBAccess.obj
 0002:000011e0       ??_C@_0L@DFIOMAA@CSPVeteran@ 0043e1e0     DBAccess.obj
 0002:000011ec       ??_C@_0P@EOMPGPJC@CSPLoadService@ 0043e1ec     DBAccess.obj
 0002:000011fc       ??_C@_0O@GIBPOEFL@CTBLUserCount@ 0043e1fc     DBAccess.obj
 0002:0000120c       ??_C@_0BC@EJDOGFFC@CSPClearLoginUser@ 0043e20c     DBAccess.obj
 0002:00001220       ??_C@_0N@KEAKLAPB@CSPGetNation@ 0043e220     DBAccess.obj
 0002:00001230       ??_C@_0BG@LGJDLMDK@CSPCheckForbiddenHWID@ 0043e230     DBAccess.obj
 0002:00001248       ??_C@_0BA@PIBBDNB@CSPGetBanReason@ 0043e248     DBAccess.obj
 0002:00001258       ??_C@_0BA@JGCPEADI@CSPGetClientSha@ 0043e258     DBAccess.obj
 0002:0000126c       ??_C@_0BC@BKNNLKLD@TLOGIN?5is?5online?$CB@ 0043e26c     DebugSocket.obj
 0002:00001288       ??_7runtime_error@std@@6B@ 0043e288     mailer.obj
 0002:00001294       ??_7_System_error@std@@6B@ 0043e294     mailer.obj
 0002:000012a0       ??_7system_error@std@@6B@  0043e2a0     mailer.obj
 0002:000012ac       ??_7_Iostream_error_category2@std@@6B@ 0043e2ac     mailer.obj
 0002:000012c8       ??_7_Facet_base@std@@6B@   0043e2c8     mailer.obj
 0002:000012d8       ??_7?$ctype@D@std@@6B@     0043e2d8     mailer.obj
 0002:00001308       ??_7failure@ios_base@std@@6B@ 0043e308     mailer.obj
 0002:00001314       ??_7ios_base@std@@6B@      0043e314     mailer.obj
 0002:0000131c       ??_7?$basic_ios@DU?$char_traits@D@std@@@std@@6B@ 0043e31c     mailer.obj
 0002:00001324       ??_7?$basic_istream@DU?$char_traits@D@std@@@std@@6B@ 0043e324     mailer.obj
 0002:00001328       ??_8?$basic_istream@DU?$char_traits@D@std@@@std@@7B@ 0043e328     mailer.obj
 0002:00001334       ??_7?$basic_streambuf@DU?$char_traits@D@std@@@std@@6B@ 0043e334     mailer.obj
 0002:00001374       ??_7?$basic_filebuf@DU?$char_traits@D@std@@@std@@6B@ 0043e374     mailer.obj
 0002:000013b0       ??_C@_02BAABKJLB@?9?9@     0043e3b0     mailer.obj
 0002:000013b8       ??_7?$codecvt@DDU_Mbstatet@@@std@@6B@ 0043e3b8     mailer.obj
 0002:000013e8       ??_7CTLoginSession@@6B@    0043e3e8     TLoginSession.obj
 0002:000013fc       __GUID_00000146_0000_0000_c000_000000000046 0043e3fc     TLoginSvr.obj
 0002:00001410       ??_7CTLoginSvrModule@@6B?$CAtlServiceModuleT@VCTLoginSvrModule@@$0GE@@ATL@@@ 0043e410     TLoginSvr.obj
 0002:00001430       ??_7CTLoginSvrModule@@6BTServerSystem@@@ 0043e430     TLoginSvr.obj
 0002:00001438       ??_C@_1EO@FMKJBPHL@?$AA?$HL?$AAA?$AA9?$AAC?$AA0?$AAC?$AAF?$AA5?$AA3?$AA?9?$AA7?$AAD?$AA5?$AA4?$AA?9@ 0043e438     TLoginSvr.obj
 0002:00001488       ??_C@_1M@PPPPCDEP@?$AAA?$AAP?$AAP?$AAI?$AAD@ 0043e488     TLoginSvr.obj
 0002:00001494       ??_C@_05ELMLNFKM@?1exit@   0043e494     TLoginSvr.obj
 0002:0000149c       ??_C@_05FKOINJOM@1?41?40@  0043e49c     TLoginSvr.obj
 0002:000014a4       ??_C@_06MMHILOJC@TLogin@   0043e4a4     TLoginSvr.obj
 0002:000014ac       ??_C@_0BG@PNNBJHKC@Load?5configuration?4?4?4@ 0043e4ac     TLoginSvr.obj
 0002:000014c4       ??_C@_0BL@DNIIBJED@Database?5initialization?4?4?4@ 0043e4c4     TLoginSvr.obj
 0002:000014e0       ??_C@_0BA@GBBNPNIN@Loading?5data?4?4?4@ 0043e4e0     TLoginSvr.obj
 0002:000014f0       ??_C@_0BC@ILOOIJMF@Create?5threads?4?4?4@ 0043e4f0     TLoginSvr.obj
 0002:00001504       ??_C@_0BA@JNICLIJA@Init?5network?4?4?4@ 0043e504     TLoginSvr.obj
 0002:00001514       ??_C@_0BE@EHNAFGCP@Clear?5login?5data?4?4?4@ 0043e514     TLoginSvr.obj
 0002:00001528       ??_C@_06EJEJDOGD@Ready?$CB@ 0043e528     TLoginSvr.obj
 0002:00001530       ??_C@_0M@FIBGPLBO@TGLOBAL_GSP@ 0043e530     TLoginSvr.obj
 0002:0000153c       ??_C@_03MKMNBNOL@DSN@      0043e53c     TLoginSvr.obj
 0002:00001540       ??_C@_02CKOPKKAC@sa@       0043e540     TLoginSvr.obj
 0002:00001544       ??_C@_06EKCLIHPK@DBUser@   0043e544     TLoginSvr.obj
 0002:0000154c       ??_C@_04GCLJABMA@1234@     0043e54c     TLoginSvr.obj
 0002:00001554       ??_C@_08IGJKAMJJ@DBPasswd@ 0043e554     TLoginSvr.obj
 0002:00001560       ??_C@_09KKKHNIDO@LoginPort@ 0043e560     TLoginSvr.obj
 0002:0000156c       ??_C@_08BHBELLIH@ServerID@ 0043e56c     TLoginSvr.obj
 0002:00001578       ??_C@_09PFCHIMEP@127?40?40?41@ 0043e578     TLoginSvr.obj
 0002:00001584       ??_C@_05EOMEFAHG@LogIP@    0043e584     TLoginSvr.obj
 0002:0000158c       ??_C@_07MLJANMII@LogPort@  0043e58c     TLoginSvr.obj
 0002:00001594       ??_C@_0N@MLCHBMIF@?2TClient?4exe@ 0043e594     TLoginSvr.obj
 0002:000015a4       ??_C@_0CI@CGEKHJBI@DebugSocket?5could?5not?5be?5initia@ 0043e5a4     TLoginSvr.obj
 0002:000015cc       ??_C@_0BM@OGIEIGJP@Socket?5creation?5has?5failed?$CB@ 0043e5cc     TLoginSvr.obj
 0002:000015e8       ??_C@_0BN@MMOPPEAI@Socket?5acception?5has?5failed?$CB@ 0043e5e8     TLoginSvr.obj
 0002:00001608       ??_C@_0BH@LNCFKLMM@WaitForConnect?5?3?5Error@ 0043e608     TLoginSvr.obj
 0002:00001620       ??_C@_0P@LDKKAPGC@Accept?5?3?5Error@ 0043e620     TLoginSvr.obj
 0002:00001630       ??_C@_0BI@LNOFAED@Game?5ODBC?5Connect?5Error@ 0043e630     TLoginSvr.obj
 0002:00001648       ??_C@_0BE@LACGIMFL@Overflow?5Message?5?$CFd@ 0043e648     TLoginSvr.obj
 0002:0000165c       ??_C@_0N@DJALIBDO@LoginSvr?4log@ 0043e65c     TLoginSvr.obj
 0002:0000166c       ??_C@_02DPNLHKJD@a?$CL@    0043e66c     TLoginSvr.obj
 0002:00001670       ??_C@_02CHHAKFFB@w?$CL@    0043e670     TLoginSvr.obj
 0002:00001674       ??_C@_02HAOIJKIC@?$CFc@    0043e674     TLoginSvr.obj
 0002:00001678       ??_C@_0BL@FBCAECIP@?$CFs?7USER_ID?$DN?$CFd?$CI?$CFs?$CJ?7CODE?$DN?$CFd?6@ 0043e678     TLoginSvr.obj
 0002:00001694       _LIBID_TLoginSvrLib        0043e694     TLoginSvr_i.obj
 0002:000016ac       ??_7CTUser@@6B@            0043e6ac     TUser.obj
 0002:000016c4       ??_7CSqlDatabase@@6B@      0043e6c4     TNetLib:SqlDatabase.obj
 0002:000016cc       ??_7CSqlBase@@6B@          0043e6cc     TNetLib:SqlBase.obj
 0002:000016dc       ??_C@_0BC@JGIPNMAF@C?3?24s?2dberror?4log@ 0043e6dc     TNetLib:SqlBase.obj
 0002:000016f0       ??_C@_09GPBPOFIE@?$CFs?5?$CFs?5?$CFs?6@ 0043e6f0     TNetLib:SqlBase.obj
 0002:000016fc       ??_C@_0BN@KJHFPFCF@C?3?2TServices_GSP?2dberror?4log@ 0043e6fc     TNetLib:SqlBase.obj
 0002:0000171c       ??_C@_06IINFAHFO@?$CFs?5?$CFs?6@ 0043e71c     TNetLib:SqlBase.obj
 0002:00001728       ??_7COverlappedEx@@6B@     0043e728     TNetLib:Packet.obj
 0002:00001730       ??_7CPacket@@6B@           0043e730     TNetLib:Packet.obj
 0002:0000173c       ??_7CSqlQuery@@6B@         0043e73c     TNetLib:SqlQuery.obj
 0002:00001754       ??_C@_0CI@PBLHHFBO@A5$$8AFS13A1?3?3?911?$CD?$CB?4?4?8?$KH19716AC?$CG@ 0043e754     TNetLib:Session.obj
 0002:00001780       ??_7CSession@@6B@          0043e780     TNetLib:Session.obj
 0002:00001794       ??_C@_0N@EADOKCK@?$FL?$CFs?$FN?5?$CFs?3?5?$CFs?6@ 0043e794     TNetLib:CryptographyExt.obj
 0002:000017a4       ??_C@_0N@FIMHCOJK@CryptEncrypt@ 0043e7a4     TNetLib:CryptographyExt.obj
 0002:000017b4       ??_C@_05ENHGKOIF@Crypt@    0043e7b4     TNetLib:CryptographyExt.obj
 0002:000017bc       ??_C@_0P@KONILCFO@CryptDeriveKey@ 0043e7bc     TNetLib:CryptographyExt.obj
 0002:000017cc       ??_C@_0O@DAIMODJH@CryptHashData@ 0043e7cc     TNetLib:CryptographyExt.obj
 0002:000017dc       ??_C@_0BA@IEJOIHIJ@CryptCreateHash@ 0043e7dc     TNetLib:CryptographyExt.obj
 0002:000017ec       ??_C@_0BE@FGGGKAFM@CryptAcquireContext@ 0043e7ec     TNetLib:CryptographyExt.obj
 0002:00001800       _CLSID_StdGlobalInterfaceTable 0043e800     uuid:cguid_i.obj
 0002:00001810       _GUID_ATLVer110            0043e810     atls:atlbase.obj
 0002:00001820       ??_C@_1IC@ONKHOIDK@?$AAE?$AAR?$AAR?$AAO?$AAR?$AA?5?$AA?3?$AA?5?$AAU?$AAn?$AAa?$AAb?$AAl?$AAe?$AA?5@ 0043e820     atls:atlbase.obj
 0002:000018a4       ??_C@_0P@GHFPNOJB@bad?5allocation@ 0043e8a4     libcpmt:xthrow.obj
 0002:000018b8       ??_7logic_error@std@@6B@   0043e8b8     libcpmt:xthrow.obj
 0002:000018c4       ??_7invalid_argument@std@@6B@ 0043e8c4     libcpmt:xthrow.obj
 0002:000018d0       ??_7length_error@std@@6B@  0043e8d0     libcpmt:xthrow.obj
 0002:000018dc       ??_7out_of_range@std@@6B@  0043e8dc     libcpmt:xthrow.obj
 0002:00001e00       ??_C@_07IPNMCAN@success@   0043ee00     libcpmt:syserror.obj
 0002:00001e08       ??_C@_0BN@LKKBCCDB@address?5family?5not?5supported@ 0043ee08     libcpmt:syserror.obj
 0002:00001e28       ??_C@_0P@LDMLAFHI@address?5in?5use@ 0043ee28     libcpmt:syserror.obj
 0002:00001e38       ??_C@_0BG@DHPCNBJB@address?5not?5available@ 0043ee38     libcpmt:syserror.obj
 0002:00001e50       ??_C@_0BC@DFIBIBIL@already?5connected@ 0043ee50     libcpmt:syserror.obj
 0002:00001e64       ??_C@_0BH@CAKOHOMI@argument?5list?5too?5long@ 0043ee64     libcpmt:syserror.obj
 0002:00001e7c       ??_C@_0BH@CGIMPKIM@argument?5out?5of?5domain@ 0043ee7c     libcpmt:syserror.obj
 0002:00001e94       ??_C@_0M@KGHGGJGL@bad?5address@ 0043ee94     libcpmt:syserror.obj
 0002:00001ea0       ??_C@_0BE@MPJPGCEO@bad?5file?5descriptor@ 0043eea0     libcpmt:syserror.obj
 0002:00001eb4       ??_C@_0M@PMMIEFCP@bad?5message@ 0043eeb4     libcpmt:syserror.obj
 0002:00001ec0       ??_C@_0M@KPHOFDBE@broken?5pipe@ 0043eec0     libcpmt:syserror.obj
 0002:00001ecc       ??_C@_0BD@MGNDDEGM@connection?5aborted@ 0043eecc     libcpmt:syserror.obj
 0002:00001ee0       ??_C@_0BP@KAIHPOGN@connection?5already?5in?5progress@ 0043eee0     libcpmt:syserror.obj
 0002:00001f00       ??_C@_0BD@PJLIIJEL@connection?5refused@ 0043ef00     libcpmt:syserror.obj
 0002:00001f14       ??_C@_0BB@IECNJNOI@connection?5reset@ 0043ef14     libcpmt:syserror.obj
 0002:00001f28       ??_C@_0BC@PPHBOELF@cross?5device?5link@ 0043ef28     libcpmt:syserror.obj
 0002:00001f3c       ??_C@_0BN@KDMIFEIP@destination?5address?5required@ 0043ef3c     libcpmt:syserror.obj
 0002:00001f5c       ??_C@_0BI@NGCEHDD@device?5or?5resource?5busy@ 0043ef5c     libcpmt:syserror.obj
 0002:00001f74       ??_C@_0BE@JIDOCPHM@directory?5not?5empty@ 0043ef74     libcpmt:syserror.obj
 0002:00001f88       ??_C@_0BI@BNCLIGPB@executable?5format?5error@ 0043ef88     libcpmt:syserror.obj
 0002:00001fa0       ??_C@_0M@MIDIAGJP@file?5exists@ 0043efa0     libcpmt:syserror.obj
 0002:00001fac       ??_C@_0P@DNAJLBJK@file?5too?5large@ 0043efac     libcpmt:syserror.obj
 0002:00001fbc       ??_C@_0BC@EJHOMAAK@filename?5too?5long@ 0043efbc     libcpmt:syserror.obj
 0002:00001fd0       ??_C@_0BH@KEFGLDAF@function?5not?5supported@ 0043efd0     libcpmt:syserror.obj
 0002:00001fe8       ??_C@_0BB@DHFDFGDM@host?5unreachable@ 0043efe8     libcpmt:syserror.obj
 0002:00001ffc       ??_C@_0BD@JPHBMONG@identifier?5removed@ 0043effc     libcpmt:syserror.obj
 0002:00002010       ??_C@_0BG@CDNPAGJK@illegal?5byte?5sequence@ 0043f010     libcpmt:syserror.obj
 0002:00002028       ??_C@_0CD@BNPLBMNA@inappropriate?5io?5control?5operat@ 0043f028     libcpmt:syserror.obj
 0002:0000204c       ??_C@_0M@EGEKIIMP@interrupted@ 0043f04c     libcpmt:syserror.obj
 0002:00002058       ??_C@_0BB@FCMFBGOM@invalid?5argument@ 0043f058     libcpmt:syserror.obj
 0002:0000206c       ??_C@_0N@OHAFKDEK@invalid?5seek@ 0043f06c     libcpmt:syserror.obj
 0002:0000207c       ??_C@_08GLNPIFBN@io?5error@ 0043f07c     libcpmt:syserror.obj
 0002:00002088       ??_C@_0P@FLLDBIDK@is?5a?5directory@ 0043f088     libcpmt:syserror.obj
 0002:00002098       ??_C@_0N@IFLPBIOP@message?5size@ 0043f098     libcpmt:syserror.obj
 0002:000020a8       ??_C@_0N@KIIEAAIO@network?5down@ 0043f0a8     libcpmt:syserror.obj
 0002:000020b8       ??_C@_0O@FNPDBHEE@network?5reset@ 0043f0b8     libcpmt:syserror.obj
 0002:000020c8       ??_C@_0BE@IFNCKGE@network?5unreachable@ 0043f0c8     libcpmt:syserror.obj
 0002:000020dc       ??_C@_0BA@PFFCAOFK@no?5buffer?5space@ 0043f0dc     libcpmt:syserror.obj
 0002:000020ec       ??_C@_0BB@IEPBLJHK@no?5child?5process@ 0043f0ec     libcpmt:syserror.obj
 0002:00002100       ??_C@_07PLECNNKG@no?5link@ 0043f100     libcpmt:syserror.obj
 0002:00002108       ??_C@_0BC@NJECKMKE@no?5lock?5available@ 0043f108     libcpmt:syserror.obj
 0002:0000211c       ??_C@_0BF@PBGGPKKE@no?5message?5available@ 0043f11c     libcpmt:syserror.obj
 0002:00002134       ??_C@_0L@EDOLMPAK@no?5message@ 0043f134     libcpmt:syserror.obj
 0002:00002140       ??_C@_0BD@EAMBFIDF@no?5protocol?5option@ 0043f140     libcpmt:syserror.obj
 0002:00002154       ??_C@_0BD@IJDJKDEA@no?5space?5on?5device@ 0043f154     libcpmt:syserror.obj
 0002:00002168       ??_C@_0BE@MKFDAFMP@no?5stream?5resources@ 0043f168     libcpmt:syserror.obj
 0002:0000217c       ??_C@_0BK@IMCPHCBI@no?5such?5device?5or?5address@ 0043f17c     libcpmt:syserror.obj
 0002:00002198       ??_C@_0P@FDINDDOK@no?5such?5device@ 0043f198     libcpmt:syserror.obj
 0002:000021a8       ??_C@_0BK@NDOCBPGE@no?5such?5file?5or?5directory@ 0043f1a8     libcpmt:syserror.obj
 0002:000021c4       ??_C@_0BA@ENLPPKBN@no?5such?5process@ 0043f1c4     libcpmt:syserror.obj
 0002:000021d4       ??_C@_0BA@DOCPFFJG@not?5a?5directory@ 0043f1d4     libcpmt:syserror.obj
 0002:000021e4       ??_C@_0N@POEIPGGF@not?5a?5socket@ 0043f1e4     libcpmt:syserror.obj
 0002:000021f4       ??_C@_0N@LGAPMMPI@not?5a?5stream@ 0043f1f4     libcpmt:syserror.obj
 0002:00002204       ??_C@_0O@GLMIBBEG@not?5connected@ 0043f204     libcpmt:syserror.obj
 0002:00002214       ??_C@_0BC@ENOOLCNF@not?5enough?5memory@ 0043f214     libcpmt:syserror.obj
 0002:00002228       ??_C@_0O@NHEDABJP@not?5supported@ 0043f228     libcpmt:syserror.obj
 0002:00002238       ??_C@_0BD@MOLBPMEA@operation?5canceled@ 0043f238     libcpmt:syserror.obj
 0002:0000224c       ??_C@_0BG@KDKHOPCO@operation?5in?5progress@ 0043f24c     libcpmt:syserror.obj
 0002:00002264       ??_C@_0BI@OHIEJAAB@operation?5not?5permitted@ 0043f264     libcpmt:syserror.obj
 0002:0000227c       ??_C@_0BI@LNEGIFLN@operation?5not?5supported@ 0043f27c     libcpmt:syserror.obj
 0002:00002294       ??_C@_0BG@OEMDKMEE@operation?5would?5block@ 0043f294     libcpmt:syserror.obj
 0002:000022ac       ??_C@_0L@BLPOFLNJ@owner?5dead@ 0043f2ac     libcpmt:syserror.obj
 0002:000022b8       ??_C@_0BC@CIJDGCDI@permission?5denied@ 0043f2b8     libcpmt:syserror.obj
 0002:000022cc       ??_C@_0P@FNPOCJBE@protocol?5error@ 0043f2cc     libcpmt:syserror.obj
 0002:000022dc       ??_C@_0BH@JPPPLHJB@protocol?5not?5supported@ 0043f2dc     libcpmt:syserror.obj
 0002:000022f4       ??_C@_0BG@EICBIHDP@read?5only?5file?5system@ 0043f2f4     libcpmt:syserror.obj
 0002:0000230c       ??_C@_0BO@BJBOMOEJ@resource?5deadlock?5would?5occur@ 0043f30c     libcpmt:syserror.obj
 0002:0000232c       ??_C@_0BP@LKNGHENJ@resource?5unavailable?5try?5again@ 0043f32c     libcpmt:syserror.obj
 0002:0000234c       ??_C@_0BE@GOIPJJHG@result?5out?5of?5range@ 0043f34c     libcpmt:syserror.obj
 0002:00002360       ??_C@_0BG@MPLKFPAE@state?5not?5recoverable@ 0043f360     libcpmt:syserror.obj
 0002:00002378       ??_C@_0P@DIIFGFCG@stream?5timeout@ 0043f378     libcpmt:syserror.obj
 0002:00002388       ??_C@_0P@IPFDMIFL@text?5file?5busy@ 0043f388     libcpmt:syserror.obj
 0002:00002398       ??_C@_09KJPPMAOI@timed?5out@ 0043f398     libcpmt:syserror.obj
 0002:000023a4       ??_C@_0BO@HACHBEKI@too?5many?5files?5open?5in?5system@ 0043f3a4     libcpmt:syserror.obj
 0002:000023c4       ??_C@_0BE@GHAFMPAH@too?5many?5files?5open@ 0043f3c4     libcpmt:syserror.obj
 0002:000023d8       ??_C@_0P@HCOMKFCC@too?5many?5links@ 0043f3d8     libcpmt:syserror.obj
 0002:000023e8       ??_C@_0BO@EFGOJEF@too?5many?5symbolic?5link?5levels@ 0043f3e8     libcpmt:syserror.obj
 0002:00002408       ??_C@_0BA@KGKGOOJA@value?5too?5large@ 0043f408     libcpmt:syserror.obj
 0002:00002418       ??_C@_0BE@MIEJDDNH@wrong?5protocol?5type@ 0043f418     libcpmt:syserror.obj
 0002:0000242c       ??_C@_0O@BFJCFAAK@unknown?5error@ 0043f42c     libcpmt:syserror.obj
 0002:00002440       ??_7_Locimp@locale@std@@6B@ 0043f440     libcpmt:locale0.obj
 0002:0000244c       ??_C@_01NBENCBCI@?$CK@     0043f44c     libcpmt:locale0.obj
 0002:00002450       ??_C@_01GFHCPBMG@C@        0043f450     libcpmt:locale0.obj
 0002:00002458       ?_BADOFF@std@@3_JB         0043f458     libcpmt:ios.obj
 0002:00002460       ??_C@_0BM@EEBBMCOD@invalid?5random_device?5value@ 0043f460     libcpmt:xrngdev.obj
 0002:00002480       ??_7?$basic_ostream@DU?$char_traits@D@std@@@std@@6B@ 0043f480     libcpmt:cout.obj
 0002:00002588       ??_C@_11LOCGONAA@@         0043f588     libcpmt:wlocale.obj
 0002:0000258c       ??_C@_13IMODFHAA@?$AA?9@   0043f58c     libcpmt:wlocale.obj
 0002:00002590       ??_C@_01JOAMLHOP@?9@       0043f590     libcpmt:wlocale.obj
 0002:00002638       ??_C@_1EC@JIJBPKFM@?$AAa?$AAp?$AAi?$AA?9?$AAm?$AAs?$AA?9?$AAw?$AAi?$AAn?$AA?9?$AAc?$AAo?$AAr?$AAe@ 0043f638     LIBCMT:thread_safe_statics.obj
 0002:0000267c       ??_C@_1BK@MGMFAEKH@?$AAk?$AAe?$AAr?$AAn?$AAe?$AAl?$AA3?$AA2?$AA?4?$AAd?$AAl?$AAl@ 0043f67c     LIBCMT:thread_safe_statics.obj
 0002:00002698       ??_C@_0BJ@JEBJOJFJ@SleepConditionVariableCS@ 0043f698     LIBCMT:thread_safe_statics.obj
 0002:000026b4       ??_C@_0BJ@PGPPEPCC@WakeAllConditionVariable@ 0043f6b4     LIBCMT:thread_safe_statics.obj
 0002:000026d4       ??_7type_info@@6B@         0043f6d4     LIBCMT:std_type_info_static.obj
 0002:000026e0       __pDestructExceptionObject 0043f6e0     libvcruntime:ehhelpers.obj
 0002:000026e8       ??_7bad_exception@std@@6B@ 0043f6e8     libvcruntime:frame.obj
 0002:000026f0       ??_C@_0O@DPKOEFFH@bad?5exception@ 0043f6f0     libvcruntime:frame.obj
 0002:00002a88       ??_C@_08EHJDFFNH@__based?$CI@ 0043fa88     libvcruntime:undname.obj
 0002:00002a94       ??_C@_07KOLFKCDI@__cdecl@  0043fa94     libvcruntime:undname.obj
 0002:00002a9c       ??_C@_08GHMPAG@__pascal@   0043fa9c     libvcruntime:undname.obj
 0002:00002aa8       ??_C@_09IFJBGAPI@__stdcall@ 0043faa8     libvcruntime:undname.obj
 0002:00002ab4       ??_C@_0L@NPHFGOKO@__thiscall@ 0043fab4     libvcruntime:undname.obj
 0002:00002ac0       ??_C@_0L@JMKHOMEK@__fastcall@ 0043fac0     libvcruntime:undname.obj
 0002:00002acc       ??_C@_0N@BCKKPABJ@__vectorcall@ 0043facc     libvcruntime:undname.obj
 0002:00002adc       ??_C@_09HIJEGCPM@__clrcall@ 0043fadc     libvcruntime:undname.obj
 0002:00002ae8       ??_C@_06GHPCKEAG@__eabi@   0043fae8     libvcruntime:undname.obj
 0002:00002af0       ??_C@_09IOPIDJLG@__swift_1@ 0043faf0     libvcruntime:undname.obj
 0002:00002afc       ??_C@_09KFNFGKHF@__swift_2@ 0043fafc     libvcruntime:undname.obj
 0002:00002b08       ??_C@_09LMMOFLDE@__swift_3@ 0043fb08     libvcruntime:undname.obj
 0002:00002b14       ??_C@_07JOMMBBKO@__ptr64@  0043fb14     libvcruntime:undname.obj
 0002:00002b1c       ??_C@_0L@PILCLIHE@__restrict@ 0043fb1c     libvcruntime:undname.obj
 0002:00002b28       ??_C@_0M@GFIIJFMG@__unaligned@ 0043fb28     libvcruntime:undname.obj
 0002:00002b34       ??_C@_09DHDLOLLB@restrict?$CI@ 0043fb34     libvcruntime:undname.obj
 0002:00002b40       ??_C@_04NIHEBCM@?5new@     0043fb40     libvcruntime:undname.obj
 0002:00002b48       ??_C@_07FPCDHGMM@?5delete@ 0043fb48     libvcruntime:undname.obj
 0002:00002b50       ??_C@_01NEMOKFLO@?$DN@     0043fb50     libvcruntime:undname.obj
 0002:00002b54       ??_C@_02GPIOPFAK@?$DO?$DO@ 0043fb54     libvcruntime:undname.obj
 0002:00002b58       ??_C@_02FODMEDOG@?$DM?$DM@ 0043fb58     libvcruntime:undname.obj
 0002:00002b5c       ??_C@_01DCLJPIOD@?$CB@     0043fb5c     libvcruntime:undname.obj
 0002:00002b60       ??_C@_02EGOFBIJA@?$DN?$DN@ 0043fb60     libvcruntime:undname.obj
 0002:00002b64       ??_C@_02FDNJECIE@?$CB?$DN@ 0043fb64     libvcruntime:undname.obj
 0002:00002b68       ??_C@_02GPECMEKF@?$FL?$FN@ 0043fb68     libvcruntime:undname.obj
 0002:00002b6c       ??_C@_08LHJFAFGD@operator@ 0043fb6c     libvcruntime:undname.obj
 0002:00002b78       ??_C@_02HBOOOICD@?9?$DO@   0043fb78     libvcruntime:undname.obj
 0002:00002b7c       ??_C@_02ECNGHCIF@?$CL?$CL@ 0043fb7c     libvcruntime:undname.obj
 0002:00002b80       ??_C@_01MIFGBAGJ@?$CL@     0043fb80     libvcruntime:undname.obj
 0002:00002b84       ??_C@_01HNPIGOCE@?$CG@     0043fb84     libvcruntime:undname.obj
 0002:00002b88       ??_C@_03MNHNFDLC@?9?$DO?$CK@ 0043fb88     libvcruntime:undname.obj
 0002:00002b8c       ??_C@_01KMDKNFGN@?1@       0043fb8c     libvcruntime:undname.obj
 0002:00002b90       ??_C@_01FGNFDNOH@?$CF@     0043fb90     libvcruntime:undname.obj
 0002:00002b94       ??_C@_01MNNFJEPP@?$DM@     0043fb94     libvcruntime:undname.obj
 0002:00002b98       ??_C@_02EHCHHCKH@?$DM?$DN@ 0043fb98     libvcruntime:undname.obj
 0002:00002b9c       ??_C@_01PPODPGHN@?$DO@     0043fb9c     libvcruntime:undname.obj
 0002:00002ba0       ??_C@_02EEKDKGMJ@?$DO?$DN@ 0043fba0     libvcruntime:undname.obj
 0002:00002ba4       ??_C@_01IHBHIGKO@?0@       0043fba4     libvcruntime:undname.obj
 0002:00002ba8       ??_C@_02HCKGKOFO@?$CI?$CJ@ 0043fba8     libvcruntime:undname.obj
 0002:00002bac       ??_C@_01PJKLJHI@?$HO@      0043fbac     libvcruntime:undname.obj
 0002:00002bb0       ??_C@_01JKBOJNNK@?$FO@     0043fbb0     libvcruntime:undname.obj
 0002:00002bb4       ??_C@_01DNKMNLPK@?$HM@     0043fbb4     libvcruntime:undname.obj
 0002:00002bb8       ??_C@_02PPKAJPJL@?$CG?$CG@ 0043fbb8     libvcruntime:undname.obj
 0002:00002bbc       ??_C@_02NONPIBCD@?$HM?$HM@ 0043fbbc     libvcruntime:undname.obj
 0002:00002bc0       ??_C@_02FPIMKNGF@?$CK?$DN@ 0043fbc0     libvcruntime:undname.obj
 0002:00002bc4       ??_C@_02FOEOMHFC@?$CL?$DN@ 0043fbc4     libvcruntime:undname.obj
 0002:00002bc8       ??_C@_02FKMDLLOA@?9?$DN@   0043fbc8     libvcruntime:undname.obj
 0002:00002bcc       ??_C@_02FJEHGPIO@?1?$DN@   0043fbcc     libvcruntime:undname.obj
 0002:00002bd0       ??_C@_02FENAOKFI@?$CF?$DN@ 0043fbd0     libvcruntime:undname.obj
 0002:00002bd4       ??_C@_03IKFCCPFF@?$DO?$DO?$DN@ 0043fbd4     libvcruntime:undname.obj
 0002:00002bd8       ??_C@_03CDNPDDLA@?$DM?$DM?$DN@ 0043fbd8     libvcruntime:undname.obj
 0002:00002bdc       ??_C@_02FGJGFEAB@?$CG?$DN@ 0043fbdc     libvcruntime:undname.obj
 0002:00002be0       ??_C@_02DHLNPPGH@?$HM?$DN@ 0043fbe0     libvcruntime:undname.obj
 0002:00002be4       ??_C@_02MHEGNOJ@?$FO?$DN@  0043fbe4     libvcruntime:undname.obj
 0002:00002be8       ??_C@_09IFPLHPGF@?$GAvftable?8@ 0043fbe8     libvcruntime:undname.obj
 0002:00002bf4       ??_C@_09BLBHBJP@?$GAvbtable?8@ 0043fbf4     libvcruntime:undname.obj
 0002:00002c00       ??_C@_07FEEIOKP@?$GAvcall?8@ 0043fc00     libvcruntime:undname.obj
 0002:00002c08       ??_C@_08LLFFHHDJ@?$GAtypeof?8@ 0043fc08     libvcruntime:undname.obj
 0002:00002c14       ??_C@_0BF@KDPPACIK@?$GAlocal?5static?5guard?8@ 0043fc14     libvcruntime:undname.obj
 0002:00002c2c       ??_C@_08OBABFOLI@?$GAstring?8@ 0043fc2c     libvcruntime:undname.obj
 0002:00002c38       ??_C@_0BD@JDLKDPAB@?$GAvbase?5destructor?8@ 0043fc38     libvcruntime:undname.obj
 0002:00002c4c       ??_C@_0BN@DEGPLNFK@?$GAvector?5deleting?5destructor?8@ 0043fc4c     libvcruntime:undname.obj
 0002:00002c6c       ??_C@_0BO@OBMKPJIG@?$GAdefault?5constructor?5closure?8@ 0043fc6c     libvcruntime:undname.obj
 0002:00002c8c       ??_C@_0BN@IMDCHIKM@?$GAscalar?5deleting?5destructor?8@ 0043fc8c     libvcruntime:undname.obj
 0002:00002cac       ??_C@_0BO@PFGOCPJJ@?$GAvector?5constructor?5iterator?8@ 0043fcac     libvcruntime:undname.obj
 0002:00002ccc       ??_C@_0BN@LFPFMEDL@?$GAvector?5destructor?5iterator?8@ 0043fccc     libvcruntime:undname.obj
 0002:00002cec       ??_C@_0CE@IKBNEHA@?$GAvector?5vbase?5constructor?5itera@ 0043fcec     libvcruntime:undname.obj
 0002:00002d10       ??_C@_0BL@NILFHHPC@?$GAvirtual?5displacement?5map?8@ 0043fd10     libvcruntime:undname.obj
 0002:00002d2c       ??_C@_0CB@JONCMFFK@?$GAeh?5vector?5constructor?5iterator@ 0043fd2c     libvcruntime:undname.obj
 0002:00002d50       ??_C@_0CA@GCEOPDGL@?$GAeh?5vector?5destructor?5iterator?8@ 0043fd50     libvcruntime:undname.obj
 0002:00002d70       ??_C@_0CH@OOJPLCPH@?$GAeh?5vector?5vbase?5constructor?5it@ 0043fd70     libvcruntime:undname.obj
 0002:00002d98       ??_C@_0BL@LLKPOHJI@?$GAcopy?5constructor?5closure?8@ 0043fd98     libvcruntime:undname.obj
 0002:00002db4       ??_C@_0BA@KBCDOMBN@?$GAudt?5returning?8@ 0043fdb4     libvcruntime:undname.obj
 0002:00002dc4       ??_C@_03KLGMFNMG@?$GAEH@   0043fdc4     libvcruntime:undname.obj
 0002:00002dc8       ??_C@_05KHLCHHI@?$GARTTI@  0043fdc8     libvcruntime:undname.obj
 0002:00002dd0       ??_C@_0BA@KKLDJDLB@?$GAlocal?5vftable?8@ 0043fdd0     libvcruntime:undname.obj
 0002:00002de0       ??_C@_0CE@IIHCMGGL@?$GAlocal?5vftable?5constructor?5clos@ 0043fde0     libvcruntime:undname.obj
 0002:00002e04       ??_C@_06FHBGPFGH@?5new?$FL?$FN@ 0043fe04     libvcruntime:undname.obj
 0002:00002e0c       ??_C@_09LBNFPBCA@?5delete?$FL?$FN@ 0043fe0c     libvcruntime:undname.obj
 0002:00002e18       ??_C@_0P@HJKNJFNN@?$GAomni?5callsig?8@ 0043fe18     libvcruntime:undname.obj
 0002:00002e28       ??_C@_0BL@CNOONJFP@?$GAplacement?5delete?5closure?8@ 0043fe28     libvcruntime:undname.obj
 0002:00002e44       ??_C@_0BN@CKNJLHMB@?$GAplacement?5delete?$FL?$FN?5closure?8@ 0043fe44     libvcruntime:undname.obj
 0002:00002e64       ??_C@_0CG@CFDHKGGD@?$GAmanaged?5vector?5constructor?5ite@ 0043fe64     libvcruntime:undname.obj
 0002:00002e8c       ??_C@_0CF@IMGKMJNO@?$GAmanaged?5vector?5destructor?5iter@ 0043fe8c     libvcruntime:undname.obj
 0002:00002eb4       ??_C@_0CG@HLDDJMAG@?$GAeh?5vector?5copy?5constructor?5ite@ 0043feb4     libvcruntime:undname.obj
 0002:00002edc       ??_C@_0CM@FCBBDIGB@?$GAeh?5vector?5vbase?5copy?5construct@ 0043fedc     libvcruntime:undname.obj
 0002:00002f08       ??_C@_0BL@CLIPGLGB@?$GAdynamic?5initializer?5for?5?8@ 0043ff08     libvcruntime:undname.obj
 0002:00002f24       ??_C@_0CB@PDBIFEP@?$GAdynamic?5atexit?5destructor?5for?5@ 0043ff24     libvcruntime:undname.obj
 0002:00002f48       ??_C@_0CD@CGAJBKEJ@?$GAvector?5copy?5constructor?5iterat@ 0043ff48     libvcruntime:undname.obj
 0002:00002f6c       ??_C@_0CJ@GJELGAMM@?$GAvector?5vbase?5copy?5constructor?5@ 0043ff6c     libvcruntime:undname.obj
 0002:00002f98       ??_C@_0CL@FGIJHLCE@?$GAmanaged?5vector?5copy?5constructo@ 0043ff98     libvcruntime:undname.obj
 0002:00002fc4       ??_C@_0BM@PMGGMLDN@?$GAlocal?5static?5thread?5guard?8@ 0043ffc4     libvcruntime:undname.obj
 0002:00002fe0       ??_C@_0N@BDNMDMOL@operator?5?$CC?$CC?5@ 0043ffe0     libvcruntime:undname.obj
 0002:00002ff0       ??_C@_0BC@GGEBGALA@operator?5co_await@ 0043fff0     libvcruntime:undname.obj
 0002:00003004       ??_C@_0M@GAAIMMOH@operator?$DM?$DN?$DO@ 00440004     libvcruntime:undname.obj
 0002:00003010       ??_C@_0BC@DAFEJGAK@?5Type?5Descriptor?8@ 00440010     libvcruntime:undname.obj
 0002:00003024       ??_C@_0BM@LDKODKLH@?5Base?5Class?5Descriptor?5at?5?$CI@ 00440024     libvcruntime:undname.obj
 0002:00003040       ??_C@_0BD@LGICGFMM@?5Base?5Class?5Array?8@ 00440040     libvcruntime:undname.obj
 0002:00003054       ??_C@_0BN@MECKDCOJ@?5Class?5Hierarchy?5Descriptor?8@ 00440054     libvcruntime:undname.obj
 0002:00003074       ??_C@_0BK@CFCOFLF@?5Complete?5Object?5Locator?8@ 00440074     libvcruntime:undname.obj
 0002:00003090       ??_C@_0BG@JNJLAMPM@?$GAanonymous?5namespace?8@ 00440090     libvcruntime:undname.obj
 0002:000030b4       ??_C@_1DM@KHCHBNEB@?$AAa?$AAp?$AAi?$AA?9?$AAm?$AAs?$AA?9?$AAw?$AAi?$AAn?$AA?9?$AAc?$AAo?$AAr?$AAe@ 004400b4     libvcruntime:winapi_downlevel.obj
 0002:000030f0       ??_C@_1DK@LPPGFMPP@?$AAa?$AAp?$AAi?$AA?9?$AAm?$AAs?$AA?9?$AAw?$AAi?$AAn?$AA?9?$AAc?$AAo?$AAr?$AAe@ 004400f0     libvcruntime:winapi_downlevel.obj
 0002:0000312c       ??_C@_1BC@GDMECMAK@?$AAk?$AAe?$AAr?$AAn?$AAe?$AAl?$AA3?$AA2@ 0044012c     libvcruntime:winapi_downlevel.obj
 0002:00003140       ??_C@_1BA@PFFKHIOG@?$AAa?$AAp?$AAi?$AA?9?$AAm?$AAs?$AA?9@ 00440140     libvcruntime:winapi_downlevel.obj
 0002:00003158       ??_C@_08KNHFBNJ@FlsAlloc@  00440158     libvcruntime:winapi_downlevel.obj
 0002:0000316c       ??_C@_07PEJMOBNF@FlsFree@  0044016c     libvcruntime:winapi_downlevel.obj
 0002:0000317c       ??_C@_0M@GDNOONDI@FlsGetValue@ 0044017c     libvcruntime:winapi_downlevel.obj
 0002:00003190       ??_C@_0M@JCPCPOEF@FlsSetValue@ 00440190     libvcruntime:winapi_downlevel.obj
 0002:000031a4       ??_C@_0BM@HCFOFFN@InitializeCriticalSectionEx@ 004401a4     libvcruntime:winapi_downlevel.obj
 0002:00003328       ?standard_lookup_table_spectre@__crt_stdio_output@@3V?$spectre_mitigated_lookup_table@Ustate_transition_pair@__crt_stdio_output@@$0IA@@1@B 00440328     libucrt:output.obj
 0002:00003728       ?format_validation_lookup_table_spectre@__crt_stdio_output@@3V?$spectre_mitigated_lookup_table@Ustate_transition_pair@__crt_stdio_output@@$0IA@@1@B 00440728     libucrt:output.obj
 0002:00003b28       ??_C@_1O@CEDCILHN@?$AA?$CI?$AAn?$AAu?$AAl?$AAl?$AA?$CJ@ 00440b28     libucrt:output.obj
 0002:00003b38       ??_C@_06OJHGLDPL@?$CInull?$CJ@ 00440b38     libucrt:output.obj
 0002:00003b40       __real@3ff0000000000000    00440b40     libucrt:frexp.obj
 0002:00003b48       ___newctype                00440b48     libucrt:ctype.obj
 0002:00003e48       ___newclmap                00440e48     libucrt:ctype.obj
 0002:00003fc8       ___newcumap                00440fc8     libucrt:ctype.obj
 0002:00004148       __wctype                   00441148     libucrt:ctype.obj
 0002:00004350       ?large_power_data@?1??multiply_by_power_of_ten@__crt_strtox@@YA_NAAUbig_integer@2@I@Z@4QBIB 00441350     libucrt:strtod.obj
 0002:00004c58       ?large_power_indices@?1??multiply_by_power_of_ten@__crt_strtox@@YA_NAAUbig_integer@2@I@Z@4QBUunpack_index@?1??12@YA_N0I@Z@B 00441c58     libucrt:strtod.obj
 0002:00004cf0       ?small_powers_of_ten@?1??multiply_by_power_of_ten@__crt_strtox@@YA_NAAUbig_integer@2@I@Z@4QBIB 00441cf0     libucrt:strtod.obj
 0002:00004d24       __half                     00441d24     libucrt:pow_impl.obj
 0002:00004d2c       ??_C@_1M@PBPMMENC@?$AAa?$AAm?$AA?1?$AAp?$AAm@ 00441d2c     libucrt:wcsftime.obj
 0002:00004d38       ??_C@_17BLFJJHMM@?$AAa?$AA?1?$AAp@ 00441d38     libucrt:wcsftime.obj
 0002:00004d40       ??_C@_13HOIJIPNN@?$AA?5@   00441d40     libucrt:wcsftime.obj
 0002:00004d44       ??_C@_13CGOKJPIL@?$AA?1@   00441d44     libucrt:wcsftime.obj
 0002:00004d48       ??_C@_13LBAGMAIH@?$AA?6@   00441d48     libucrt:wcsftime.obj
 0002:00004d4c       ??_C@_13EBCNDICG@?$AA?3@   00441d4c     libucrt:wcsftime.obj
 0002:00004d50       ??_C@_13KDLDGPGJ@?$AA?7@   00441d50     libucrt:wcsftime.obj
 0002:00004d54       ??_C@_13KJIIAINM@?$AA?$CL@ 00441d54     libucrt:wcsftime.obj
 0002:00004d58       ??_C@_13EJFHHPOP@?$AA?$CF@ 00441d58     libucrt:wcsftime.obj
 0002:00004d60       ___acrt_exception_action_table 00441d60     libucrt:exception_filter.obj
 0002:00004df0       ___acrt_signal_action_table_count 00441df0     libucrt:exception_filter.obj
 0002:00004df4       ___acrt_signal_action_first_fpe_index 00441df4     libucrt:exception_filter.obj
 0002:00004df8       ___acrt_signal_action_fpe_count 00441df8     libucrt:exception_filter.obj
 0002:00004dfc       ??_C@_1BI@BGOHAHKC@?$AAm?$AAs?$AAc?$AAo?$AAr?$AAe?$AAe?$AA?4?$AAd?$AAl?$AAl@ 00441dfc     libucrt:exit.obj
 0002:00004e14       ??_C@_0P@MIGLKIOC@CorExitProcess@ 00441e14     libucrt:exit.obj
 0002:00004f28       ___lc_category             00441f28     libucrt:wsetlocale.obj
 0002:00004f70       ??_C@_1O@GIFLHMA@?$AAL?$AAC?$AA_?$AAA?$AAL?$AAL@ 00441f70     libucrt:wsetlocale.obj
 0002:00004f80       ??_C@_1BG@PPOMIBNJ@?$AAL?$AAC?$AA_?$AAC?$AAO?$AAL?$AAL?$AAA?$AAT?$AAE@ 00441f80     libucrt:wsetlocale.obj
 0002:00004f98       ??_C@_1BC@FFJGAPJM@?$AAL?$AAC?$AA_?$AAC?$AAT?$AAY?$AAP?$AAE@ 00441f98     libucrt:wsetlocale.obj
 0002:00004fac       ??_C@_1BI@PCKFNJFB@?$AAL?$AAC?$AA_?$AAM?$AAO?$AAN?$AAE?$AAT?$AAA?$AAR?$AAY@ 00441fac     libucrt:wsetlocale.obj
 0002:00004fc4       ??_C@_1BG@ENIEDKID@?$AAL?$AAC?$AA_?$AAN?$AAU?$AAM?$AAE?$AAR?$AAI?$AAC@ 00441fc4     libucrt:wsetlocale.obj
 0002:00004fdc       ??_C@_1BA@HAAOMIIG@?$AAL?$AAC?$AA_?$AAT?$AAI?$AAM?$AAE@ 00441fdc     libucrt:wsetlocale.obj
 0002:00004fec       ??_C@_15NBPDDFIP@?$AA?$DN?$AA?$DL@ 00441fec     libucrt:wsetlocale.obj
 0002:00004ff4       ??_C@_13PJJBFPED@?$AA?$DL@ 00441ff4     libucrt:wsetlocale.obj
 0002:00004ff8       ??_C@_13NMPKAAJP@?$AA?$DN@ 00441ff8     libucrt:wsetlocale.obj
 0002:00004ffc       ??_C@_17EFJLDFDO@?$AA?9?$AA_?$AA?4@ 00441ffc     libucrt:wsetlocale.obj
 0002:00005004       ??_C@_13FHBKNHDA@?$AAC@    00442004     libucrt:wsetlocale.obj
 0002:00005008       ??_C@_17MBJJLFDM@?$AA_?$AA?4?$AA?0@ 00442008     libucrt:wsetlocale.obj
 0002:00005010       ??_C@_13ENNFDPBH@?$AA_@    00442010     libucrt:wsetlocale.obj
 0002:00005014       ??_C@_13JOFGPIOO@?$AA?4@   00442014     libucrt:wsetlocale.obj
 0002:00005018       ___lc_time_c               00442018     libucrt:nlsdata.obj
 0002:0000517c       ??_C@_03KOEHGMDN@Sun@      0044217c     libucrt:nlsdata.obj
 0002:00005180       ??_C@_03PDAGKDH@Mon@       00442180     libucrt:nlsdata.obj
 0002:00005184       ??_C@_03NAGEINEP@Tue@      00442184     libucrt:nlsdata.obj
 0002:00005188       ??_C@_03MHOMLAJA@Wed@      00442188     libucrt:nlsdata.obj
 0002:0000518c       ??_C@_03IOFIKPDN@Thu@      0044218c     libucrt:nlsdata.obj
 0002:00005190       ??_C@_03IDIOELNC@Fri@      00442190     libucrt:nlsdata.obj
 0002:00005194       ??_C@_03FEFJNEK@Sat@       00442194     libucrt:nlsdata.obj
 0002:00005198       ??_C@_06OOPIFAJ@Sunday@    00442198     libucrt:nlsdata.obj
 0002:000051a0       ??_C@_06JLEDEDGH@Monday@   004421a0     libucrt:nlsdata.obj
 0002:000051a8       ??_C@_07BAAGCFCM@Tuesday@  004421a8     libucrt:nlsdata.obj
 0002:000051b0       ??_C@_09DLIGFAKA@Wednesday@ 004421b0     libucrt:nlsdata.obj
 0002:000051bc       ??_C@_08HACCIKIA@Thursday@ 004421bc     libucrt:nlsdata.obj
 0002:000051c8       ??_C@_06JECMNKMI@Friday@   004421c8     libucrt:nlsdata.obj
 0002:000051d0       ??_C@_08INBOOONO@Saturday@ 004421d0     libucrt:nlsdata.obj
 0002:000051dc       ??_C@_03JIHJHPIE@Jan@      004421dc     libucrt:nlsdata.obj
 0002:000051e0       ??_C@_03HJBDCHOM@Feb@      004421e0     libucrt:nlsdata.obj
 0002:000051e4       ??_C@_03ODNJBKGA@Mar@      004421e4     libucrt:nlsdata.obj
 0002:000051e8       ??_C@_03LEOLGMJP@Apr@      004421e8     libucrt:nlsdata.obj
 0002:000051ec       ??_C@_03CNMDKL@May@        004421ec     libucrt:nlsdata.obj
 0002:000051f0       ??_C@_03IDFGHECI@Jun@      004421f0     libucrt:nlsdata.obj
 0002:000051f4       ??_C@_03LBGABGKK@Jul@      004421f4     libucrt:nlsdata.obj
 0002:000051f8       ??_C@_03IFJFEIGA@Aug@      004421f8     libucrt:nlsdata.obj
 0002:000051fc       ??_C@_03GGCAPAJC@Sep@      004421fc     libucrt:nlsdata.obj
 0002:00005200       ??_C@_03BMAOKBAD@Oct@      00442200     libucrt:nlsdata.obj
 0002:00005204       ??_C@_03JPJOFNIA@Nov@      00442204     libucrt:nlsdata.obj
 0002:00005208       ??_C@_03MKABNOCG@Dec@      00442208     libucrt:nlsdata.obj
 0002:0000520c       ??_C@_07CGJPFGJA@January@  0044220c     libucrt:nlsdata.obj
 0002:00005214       ??_C@_08GNJGEPFN@February@ 00442214     libucrt:nlsdata.obj
 0002:00005220       ??_C@_05HPCKOFNC@March@    00442220     libucrt:nlsdata.obj
 0002:00005228       ??_C@_05DMJDNLEJ@April@    00442228     libucrt:nlsdata.obj
 0002:00005230       ??_C@_04CNLMGBGM@June@     00442230     libucrt:nlsdata.obj
 0002:00005238       ??_C@_04MIEPOIFP@July@     00442238     libucrt:nlsdata.obj
 0002:00005240       ??_C@_06LBBHFDDG@August@   00442240     libucrt:nlsdata.obj
 0002:00005248       ??_C@_09BHHEALKD@September@ 00442248     libucrt:nlsdata.obj
 0002:00005254       ??_C@_07JJNFCEND@October@  00442254     libucrt:nlsdata.obj
 0002:0000525c       ??_C@_08HCHEGEOA@November@ 0044225c     libucrt:nlsdata.obj
 0002:00005268       ??_C@_08EDHMEBNP@December@ 00442268     libucrt:nlsdata.obj
 0002:00005274       ??_C@_02DEDBPAFC@AM@       00442274     libucrt:nlsdata.obj
 0002:00005278       ??_C@_02CJNFDJBF@PM@       00442278     libucrt:nlsdata.obj
 0002:0000527c       ??_C@_08BPBNCDIB@MM?1dd?1yy@ 0044227c     libucrt:nlsdata.obj
 0002:00005288       ??_C@_0BE@CKGJFCPC@dddd?0?5MMMM?5dd?0?5yyyy@ 00442288     libucrt:nlsdata.obj
 0002:0000529c       ??_C@_08JCCMCCIL@HH?3mm?3ss@ 0044229c     libucrt:nlsdata.obj
 0002:000052a8       ??_C@_17MBGCMIPB@?$AAS?$AAu?$AAn@ 004422a8     libucrt:nlsdata.obj
 0002:000052b0       ??_C@_17KBOMKBF@?$AAM?$AAo?$AAn@ 004422b0     libucrt:nlsdata.obj
 0002:000052b8       ??_C@_17BMKGEGOJ@?$AAT?$AAu?$AAe@ 004422b8     libucrt:nlsdata.obj
 0002:000052c0       ??_C@_17CJEDCEPE@?$AAW?$AAe?$AAd@ 004422c0     libucrt:nlsdata.obj
 0002:000052c8       ??_C@_17PDPHAADD@?$AAT?$AAh?$AAu@ 004422c8     libucrt:nlsdata.obj
 0002:000052d0       ??_C@_17HFOLPPLP@?$AAF?$AAr?$AAi@ 004422d0     libucrt:nlsdata.obj
 0002:000052d8       ??_C@_17GGIBDPIH@?$AAS?$AAa?$AAt@ 004422d8     libucrt:nlsdata.obj
 0002:000052e0       ??_C@_1O@IHNHDHPB@?$AAS?$AAu?$AAn?$AAd?$AAa?$AAy@ 004422e0     libucrt:nlsdata.obj
 0002:000052f0       ??_C@_1O@MMNBFLIA@?$AAM?$AAo?$AAn?$AAd?$AAa?$AAy@ 004422f0     libucrt:nlsdata.obj
 0002:00005300       ??_C@_1BA@ENFBFFEK@?$AAT?$AAu?$AAe?$AAs?$AAd?$AAa?$AAy@ 00442300     libucrt:nlsdata.obj
 0002:00005310       ??_C@_1BE@EBOGMDOH@?$AAW?$AAe?$AAd?$AAn?$AAe?$AAs?$AAd?$AAa?$AAy@ 00442310     libucrt:nlsdata.obj
 0002:00005324       ??_C@_1BC@HHMNLIHE@?$AAT?$AAh?$AAu?$AAr?$AAs?$AAd?$AAa?$AAy@ 00442324     libucrt:nlsdata.obj
 0002:00005338       ??_C@_1O@PDICJHAG@?$AAF?$AAr?$AAi?$AAd?$AAa?$AAy@ 00442338     libucrt:nlsdata.obj
 0002:00005348       ??_C@_1BC@ENMNNPAJ@?$AAS?$AAa?$AAt?$AAu?$AAr?$AAd?$AAa?$AAy@ 00442348     libucrt:nlsdata.obj
 0002:0000535c       ??_C@_17DKNBKCHM@?$AAJ?$AAa?$AAn@ 0044235c     libucrt:nlsdata.obj
 0002:00005364       ??_C@_17LMDJEKJN@?$AAF?$AAe?$AAb@ 00442364     libucrt:nlsdata.obj
 0002:0000536c       ??_C@_17CKNLEDEC@?$AAM?$AAa?$AAr@ 0044236c     libucrt:nlsdata.obj
 0002:00005374       ??_C@_17LFPOIHDD@?$AAA?$AAp?$AAr@ 00442374     libucrt:nlsdata.obj
 0002:0000537c       ??_C@_17PNNKMEED@?$AAM?$AAa?$AAy@ 0044237c     libucrt:nlsdata.obj
 0002:00005384       ??_C@_17KCJGOCPB@?$AAJ?$AAu?$AAn@ 00442384     libucrt:nlsdata.obj
 0002:0000538c       ??_C@_17IJPCKHK@?$AAJ?$AAu?$AAl@ 0044238c     libucrt:nlsdata.obj
 0002:00005394       ??_C@_17ICPELBCN@?$AAA?$AAu?$AAg@ 00442394     libucrt:nlsdata.obj
 0002:0000539c       ??_C@_17HCHCOKMG@?$AAS?$AAe?$AAp@ 0044239c     libucrt:nlsdata.obj
 0002:000053a4       ??_C@_17FNLKOI@?$AAO?$AAc?$AAt@ 004423a4     libucrt:nlsdata.obj
 0002:000053ac       ??_C@_17BBDMLCIG@?$AAN?$AAo?$AAv@ 004423ac     libucrt:nlsdata.obj
 0002:000053b4       ??_C@_17EGKACKIF@?$AAD?$AAe?$AAc@ 004423b4     libucrt:nlsdata.obj
 0002:000053bc       ??_C@_1BA@EFMEIEBA@?$AAJ?$AAa?$AAn?$AAu?$AAa?$AAr?$AAy@ 004423bc     libucrt:nlsdata.obj
 0002:000053cc       ??_C@_1BC@JGDDFFAM@?$AAF?$AAe?$AAb?$AAr?$AAu?$AAa?$AAr?$AAy@ 004423cc     libucrt:nlsdata.obj
 0002:000053e0       ??_C@_1M@IKEENEDF@?$AAM?$AAa?$AAr?$AAc?$AAh@ 004423e0     libucrt:nlsdata.obj
 0002:000053ec       ??_C@_1M@GJNLMHFD@?$AAA?$AAp?$AAr?$AAi?$AAl@ 004423ec     libucrt:nlsdata.obj
 0002:000053f8       ??_C@_19EPFLPGAP@?$AAJ?$AAu?$AAn?$AAe@ 004423f8     libucrt:nlsdata.obj
 0002:00005404       ??_C@_19BIFMLPCD@?$AAJ?$AAu?$AAl?$AAy@ 00442404     libucrt:nlsdata.obj
 0002:00005410       ??_C@_1O@PAHLKOAC@?$AAA?$AAu?$AAg?$AAu?$AAs?$AAt@ 00442410     libucrt:nlsdata.obj
 0002:00005420       ??_C@_1BE@DKAAMBJL@?$AAS?$AAe?$AAp?$AAt?$AAe?$AAm?$AAb?$AAe?$AAr@ 00442420     libucrt:nlsdata.obj
 0002:00005434       ??_C@_1BA@EPANDLNG@?$AAO?$AAc?$AAt?$AAo?$AAb?$AAe?$AAr@ 00442434     libucrt:nlsdata.obj
 0002:00005444       ??_C@_1BC@BGLIFPF@?$AAN?$AAo?$AAv?$AAe?$AAm?$AAb?$AAe?$AAr@ 00442444     libucrt:nlsdata.obj
 0002:00005458       ??_C@_1BC@FEMKIFH@?$AAD?$AAe?$AAc?$AAe?$AAm?$AAb?$AAe?$AAr@ 00442458     libucrt:nlsdata.obj
 0002:0000546c       ??_C@_15ODEHAHHF@?$AAA?$AAM@ 0044246c     libucrt:nlsdata.obj
 0002:00005474       ??_C@_15CLMNNGEL@?$AAP?$AAM@ 00442474     libucrt:nlsdata.obj
 0002:0000547c       ??_C@_1BC@IEBCMHCM@?$AAM?$AAM?$AA?1?$AAd?$AAd?$AA?1?$AAy?$AAy@ 0044247c     libucrt:nlsdata.obj
 0002:00005490       ??_C@_1CI@KNAKOEBC@?$AAd?$AAd?$AAd?$AAd?$AA?0?$AA?5?$AAM?$AAM?$AAM?$AAM?$AA?5?$AAd?$AAd?$AA?0?$AA?5@ 00442490     libucrt:nlsdata.obj
 0002:000054b8       ??_C@_1BC@GDGBMEMK@?$AAH?$AAH?$AA?3?$AAm?$AAm?$AA?3?$AAs?$AAs@ 004424b8     libucrt:nlsdata.obj
 0002:000054cc       ??_C@_1M@BMHNFIME@?$AAe?$AAn?$AA?9?$AAU?$AAS@ 004424cc     libucrt:nlsdata.obj
 0002:00005528       ??_C@_1EA@JGEFHKEI@?$AAa?$AAp?$AAi?$AA?9?$AAm?$AAs?$AA?9?$AAw?$AAi?$AAn?$AA?9?$AAc?$AAo?$AAr?$AAe@ 00442528     libucrt:winapi_thunks.obj
 0002:00005568       ??_C@_1DI@IJCEHOCB@?$AAa?$AAp?$AAi?$AA?9?$AAm?$AAs?$AA?9?$AAw?$AAi?$AAn?$AA?9?$AAc?$AAo?$AAr?$AAe@ 00442568     libucrt:winapi_thunks.obj
 0002:000055a0       ??_C@_1EI@MPIAOHOC@?$AAa?$AAp?$AAi?$AA?9?$AAm?$AAs?$AA?9?$AAw?$AAi?$AAn?$AA?9?$AAc?$AAo?$AAr?$AAe@ 004425a0     libucrt:winapi_thunks.obj
 0002:000055e8       ??_C@_1FK@FPHCKFIE@?$AAa?$AAp?$AAi?$AA?9?$AAm?$AAs?$AA?9?$AAw?$AAi?$AAn?$AA?9?$AAc?$AAo?$AAr?$AAe@ 004425e8     libucrt:winapi_thunks.obj
 0002:00005648       ??_C@_1EM@DILCGIIO@?$AAa?$AAp?$AAi?$AA?9?$AAm?$AAs?$AA?9?$AAw?$AAi?$AAn?$AA?9?$AAc?$AAo?$AAr?$AAe@ 00442648     libucrt:winapi_thunks.obj
 0002:00005694       ??_C@_1DM@LNCGDDPN@?$AAa?$AAp?$AAi?$AA?9?$AAm?$AAs?$AA?9?$AAw?$AAi?$AAn?$AA?9?$AAc?$AAo?$AAr?$AAe@ 00442694     libucrt:winapi_thunks.obj
 0002:000056d0       ??_C@_1DO@FPAPJEMD@?$AAa?$AAp?$AAi?$AA?9?$AAm?$AAs?$AA?9?$AAw?$AAi?$AAn?$AA?9?$AAc?$AAo?$AAr?$AAe@ 004426d0     libucrt:winapi_thunks.obj
 0002:00005710       ??_C@_1DK@NDHNAHIO@?$AAa?$AAp?$AAi?$AA?9?$AAm?$AAs?$AA?9?$AAw?$AAi?$AAn?$AA?9?$AAc?$AAo?$AAr?$AAe@ 00442710     libucrt:winapi_thunks.obj
 0002:0000574c       ??_C@_1DM@KGHDGBCM@?$AAa?$AAp?$AAi?$AA?9?$AAm?$AAs?$AA?9?$AAw?$AAi?$AAn?$AA?9?$AAc?$AAo?$AAr?$AAe@ 0044274c     libucrt:winapi_thunks.obj
 0002:00005788       ??_C@_1EO@IJIOEFOH@?$AAa?$AAp?$AAi?$AA?9?$AAm?$AAs?$AA?9?$AAw?$AAi?$AAn?$AA?9?$AAr?$AAt?$AAc?$AAo@ 00442788     libucrt:winapi_thunks.obj
 0002:000057d8       ??_C@_1FG@HHGEKANL@?$AAa?$AAp?$AAi?$AA?9?$AAm?$AAs?$AA?9?$AAw?$AAi?$AAn?$AA?9?$AAs?$AAe?$AAc?$AAu@ 004427d8     libucrt:winapi_thunks.obj
 0002:00005830       ??_C@_1EG@DBIOJECG@?$AAe?$AAx?$AAt?$AA?9?$AAm?$AAs?$AA?9?$AAw?$AAi?$AAn?$AA?9?$AAn?$AAt?$AAu?$AAs@ 00442830     libucrt:winapi_thunks.obj
 0002:00005878       ??_C@_1EO@FIHMJCLF@?$AAe?$AAx?$AAt?$AA?9?$AAm?$AAs?$AA?9?$AAw?$AAi?$AAn?$AA?9?$AAn?$AAt?$AAu?$AAs@ 00442878     libucrt:winapi_thunks.obj
 0002:000058c8       ??_C@_1BC@DNHGCMLG@?$AAa?$AAd?$AAv?$AAa?$AAp?$AAi?$AA3?$AA2@ 004428c8     libucrt:winapi_thunks.obj
 0002:000058dc       ??_C@_1M@OAIMIKLP@?$AAn?$AAt?$AAd?$AAl?$AAl@ 004428dc     libucrt:winapi_thunks.obj
 0002:000058e8       ??_C@_1EG@DPGNFKGC@?$AAa?$AAp?$AAi?$AA?9?$AAm?$AAs?$AA?9?$AAw?$AAi?$AAn?$AA?9?$AAa?$AAp?$AAp?$AAm@ 004428e8     libucrt:winapi_thunks.obj
 0002:00005930       ??_C@_1O@BCCLBEOE@?$AAu?$AAs?$AAe?$AAr?$AA3?$AA2@ 00442930     libucrt:winapi_thunks.obj
 0002:00005940       ??_C@_1BA@IAIFMGEF@?$AAe?$AAx?$AAt?$AA?9?$AAm?$AAs?$AA?9@ 00442940     libucrt:winapi_thunks.obj
 0002:00005954       ??_C@_0BA@FHFNEAED@AreFileApisANSI@ 00442954     libucrt:winapi_thunks.obj
 0002:0000596c       ??_C@_0BA@IHGNDAEB@CompareStringEx@ 0044296c     libucrt:winapi_thunks.obj
 0002:00005984       ??_C@_0BE@LJANKFHF@EnumSystemLocalesEx@ 00442984     libucrt:winapi_thunks.obj
 0002:000059c0       ??_C@_0BA@EPCJIIPD@GetDateFormatEx@ 004429c0     libucrt:winapi_thunks.obj
 0002:000059d8       ??_C@_0BA@ONOKGCMP@GetLocaleInfoEx@ 004429d8     libucrt:winapi_thunks.obj
 0002:000059f0       ??_C@_0BA@CIJJKCJJ@GetTimeFormatEx@ 004429f0     libucrt:winapi_thunks.obj
 0002:00005a08       ??_C@_0BJ@PBCCBIPI@GetUserDefaultLocaleName@ 00442a08     libucrt:winapi_thunks.obj
 0002:00005a34       ??_C@_0BC@CELBKLLA@IsValidLocaleName@ 00442a34     libucrt:winapi_thunks.obj
 0002:00005a50       ??_C@_0O@KKBNKAPF@LCMapStringEx@ 00442a50     libucrt:winapi_thunks.obj
 0002:00005a68       ??_C@_0BB@CDHDDLLP@LCIDToLocaleName@ 00442a68     libucrt:winapi_thunks.obj
 0002:00005a84       ??_C@_0BB@HBDEELFH@LocaleNameToLCID@ 00442a84     libucrt:winapi_thunks.obj
 0002:00005a9c       ??_C@_0CF@OJOFEIGO@AppPolicyGetProcessTerminationM@ 00442a9c     libucrt:winapi_thunks.obj
 0002:00005acc       ??_C@_0BC@JEAENNKH@SystemFunction036@ 00442acc     libucrt:winapi_thunks.obj
 0002:00005b20       ??_C@_03OEIAHPBN@INF@      00442b20     libucrt:cvt.obj
 0002:00005b24       ??_C@_03OJHLLCGB@inf@      00442b24     libucrt:cvt.obj
 0002:00005b28       ??_C@_03LKNCIKJB@NAN@      00442b28     libucrt:cvt.obj
 0002:00005b2c       ??_C@_03LHCJEHON@nan@      00442b2c     libucrt:cvt.obj
 0002:00005b30       ??_C@_09OFJJIMPC@NAN?$CISNAN?$CJ@ 00442b30     libucrt:cvt.obj
 0002:00005b3c       ??_C@_09IPFBKMDL@nan?$CIsnan?$CJ@ 00442b3c     libucrt:cvt.obj
 0002:00005b48       ??_C@_08IKHNHAJ@NAN?$CIIND?$CJ@ 00442b48     libucrt:cvt.obj
 0002:00005b54       ??_C@_08OFCDMILK@nan?$CIind?$CJ@ 00442b54     libucrt:cvt.obj
 0002:00005b60       ??_C@_05KLBDPFGC@e?$CL000@ 00442b60     libucrt:cvt.obj
 0002:00005b68       ??_C@_15HNJCPLHL@?$AAT?$AAZ@ 00442b68     libucrt:tzset.obj
 0002:00005b70       ?ccs@?1???$__acrt_stdio_parse_mode@D@@YA?AU__acrt_stdio_stream_mode@@QBD@Z@4QBDB 00442b70     libucrt:openfile.obj
 0002:00005b74       ?utf8_encoding@?1???$__acrt_stdio_parse_mode@D@@YA?AU__acrt_stdio_stream_mode@@QBD@Z@4QBDB 00442b74     libucrt:openfile.obj
 0002:00005b7c       ?utf16_encoding@?1???$__acrt_stdio_parse_mode@D@@YA?AU__acrt_stdio_stream_mode@@QBD@Z@4QBDB 00442b7c     libucrt:openfile.obj
 0002:00005b84       ?unicode_encoding@?1???$__acrt_stdio_parse_mode@D@@YA?AU__acrt_stdio_stream_mode@@QBD@Z@4QBDB 00442b84     libucrt:openfile.obj
 0002:00005c78       ??_C@_03KHJOGHMM@exp@      00442c78     libucrt:fpexcept.obj
 0002:00005c7c       ??_C@_03JGHBODFD@pow@      00442c7c     libucrt:fpexcept.obj
 0002:00005c80       ??_C@_03MGHMBJCF@log@      00442c80     libucrt:fpexcept.obj
 0002:00005c84       ??_C@_05HGHHAHAP@log10@    00442c84     libucrt:fpexcept.obj
 0002:00005c8c       ??_C@_04COOMCNPB@sinh@     00442c8c     libucrt:fpexcept.obj
 0002:00005c94       ??_C@_04HPJJNFIM@cosh@     00442c94     libucrt:fpexcept.obj
 0002:00005c9c       ??_C@_04FJHINJAO@tanh@     00442c9c     libucrt:fpexcept.obj
 0002:00005ca4       ??_C@_04FIHNOPOL@asin@     00442ca4     libucrt:fpexcept.obj
 0002:00005cac       ??_C@_04PDIFKINK@acos@     00442cac     libucrt:fpexcept.obj
 0002:00005cb4       ??_C@_04MLLJIGOK@atan@     00442cb4     libucrt:fpexcept.obj
 0002:00005cbc       ??_C@_05KNGEOGJB@atan2@    00442cbc     libucrt:fpexcept.obj
 0002:00005cc4       ??_C@_04EIAKFFMI@sqrt@     00442cc4     libucrt:fpexcept.obj
 0002:00005ccc       ??_C@_03BLEJJJBH@sin@      00442ccc     libucrt:fpexcept.obj
 0002:00005cd0       ??_C@_03LALBNOCG@cos@      00442cd0     libucrt:fpexcept.obj
 0002:00005cd4       ??_C@_03IIINPABG@tan@      00442cd4     libucrt:fpexcept.obj
 0002:00005cd8       ??_C@_04GFPJNGEK@ceil@     00442cd8     libucrt:fpexcept.obj
 0002:00005ce0       ??_C@_05PBJFFIGL@floor@    00442ce0     libucrt:fpexcept.obj
 0002:00005ce8       ??_C@_04ODHECPBC@fabs@     00442ce8     libucrt:fpexcept.obj
 0002:00005cf0       ??_C@_04EHEDPDJG@modf@     00442cf0     libucrt:fpexcept.obj
 0002:00005cf8       ??_C@_05CEJMAHNP@ldexp@    00442cf8     libucrt:fpexcept.obj
 0002:00005d00       ??_C@_05KBKMEMPO@_cabs@    00442d00     libucrt:fpexcept.obj
 0002:00005d08       ??_C@_06MEIMCGCF@_hypot@   00442d08     libucrt:fpexcept.obj
 0002:00005d10       ??_C@_04KEPJIHGP@fmod@     00442d10     libucrt:fpexcept.obj
 0002:00005d18       ??_C@_05GKKHEGJL@frexp@    00442d18     libucrt:fpexcept.obj
 0002:00005d20       ??_C@_03MJLDFKDL@_y0@      00442d20     libucrt:fpexcept.obj
 0002:00005d24       ??_C@_03NAKIGLHK@_y1@      00442d24     libucrt:fpexcept.obj
 0002:00005d28       ??_C@_03ONILCKOB@_yn@      00442d28     libucrt:fpexcept.obj
 0002:00005d2c       ??_C@_05JGDBENOH@_logb@    00442d2c     libucrt:fpexcept.obj
 0002:00005d34       ??_C@_0L@KDOEJCKC@_nextafter@ 00442d34     libucrt:fpexcept.obj
 0002:00005d40       __d_inf                    00442d40     libucrt:util.obj
 0002:00005d48       __d_max                    00442d48     libucrt:util.obj
 0002:00005d50       __d_mzero                  00442d50     libucrt:util.obj
 0002:00005e30       __infinity                 00442e30     libucrt:87tran.obj
 0002:00005e3a       __minfinity                00442e3a     libucrt:87tran.obj
 0002:00005e44       __logemax                  00442e44     libucrt:87tran.obj
 0002:00005e6a       __OP_EXPjmptab             00442e6a     libucrt:87tran.obj
 0002:00005e90       __indefinite               00442e90     libucrt:87disp.obj
 0002:00005e9a       __piby2                    00442e9a     libucrt:87disp.obj
 0002:00005ea4       __piby4                    00442ea4     libucrt:87disp.obj
 0002:00005ed8       __DEFAULT_CW_in_mem        00442ed8     libucrt:common.obj
 0002:00005eda       __pi_by_2_to_61            00442eda     libucrt:common.obj
 0002:00005f18       __real@3fe0000000000000    00442f18     libucrt:powhlp.obj
 0002:00005f30       ??_C@_1M@HPNHIDJI@?$AAj?$AAa?$AA?9?$AAJ?$AAP@ 00442f30     libucrt:mbctype.obj
 0002:00005f3c       ??_C@_1M@BIBDDEMK@?$AAz?$AAh?$AA?9?$AAC?$AAN@ 00442f3c     libucrt:mbctype.obj
 0002:00005f48       ??_C@_1M@JLOOOEGK@?$AAk?$AAo?$AA?9?$AAK?$AAR@ 00442f48     libucrt:mbctype.obj
 0002:00005f54       ??_C@_1M@CLNBBOPM@?$AAz?$AAh?$AA?9?$AAT?$AAW@ 00442f54     libucrt:mbctype.obj
 0002:00005f60       ___acrt_rg_language        00442f60     libucrt:get_qualified_locale.obj
 0002:0000626c       ___acrt_rg_language_count  0044326c     libucrt:get_qualified_locale.obj
 0002:00006270       ___acrt_rg_country         00443270     libucrt:get_qualified_locale.obj
 0002:00006384       ___acrt_rg_country_count   00443384     libucrt:get_qualified_locale.obj
 0002:00006388       ??_C@_1BC@LLOKLNP@?$AAa?$AAm?$AAe?$AAr?$AAi?$AAc?$AAa?$AAn@ 00443388     libucrt:get_qualified_locale.obj
 0002:0000639c       ??_C@_1CC@HEIGCDGG@?$AAa?$AAm?$AAe?$AAr?$AAi?$AAc?$AAa?$AAn?$AA?5?$AAe?$AAn?$AAg?$AAl?$AAi?$AAs@ 0044339c     libucrt:get_qualified_locale.obj
 0002:000063c0       ??_C@_1CC@IHCNOMIN@?$AAa?$AAm?$AAe?$AAr?$AAi?$AAc?$AAa?$AAn?$AA?9?$AAe?$AAn?$AAg?$AAl?$AAi?$AAs@ 004433c0     libucrt:get_qualified_locale.obj
 0002:000063e4       ??_C@_1BG@GKAGPCGG@?$AAa?$AAu?$AAs?$AAt?$AAr?$AAa?$AAl?$AAi?$AAa?$AAn@ 004433e4     libucrt:get_qualified_locale.obj
 0002:000063fc       ??_C@_1BA@GMENCENF@?$AAb?$AAe?$AAl?$AAg?$AAi?$AAa?$AAn@ 004433fc     libucrt:get_qualified_locale.obj
 0002:0000640c       ??_C@_1BC@PJMIIAAN@?$AAc?$AAa?$AAn?$AAa?$AAd?$AAi?$AAa?$AAn@ 0044340c     libucrt:get_qualified_locale.obj
 0002:00006420       ??_C@_17NOIMNFBF@?$AAc?$AAh?$AAh@ 00443420     libucrt:get_qualified_locale.obj
 0002:00006428       ??_C@_17GGDALCHA@?$AAc?$AAh?$AAi@ 00443428     libucrt:get_qualified_locale.obj
 0002:00006430       ??_C@_1BA@NPNJKIBL@?$AAc?$AAh?$AAi?$AAn?$AAe?$AAs?$AAe@ 00443430     libucrt:get_qualified_locale.obj
 0002:00006440       ??_C@_1CC@DINBAMMJ@?$AAc?$AAh?$AAi?$AAn?$AAe?$AAs?$AAe?$AA?9?$AAh?$AAo?$AAn?$AAg?$AAk?$AAo?$AAn@ 00443440     libucrt:get_qualified_locale.obj
 0002:00006464       ??_C@_1CG@IOBJPACO@?$AAc?$AAh?$AAi?$AAn?$AAe?$AAs?$AAe?$AA?9?$AAs?$AAi?$AAm?$AAp?$AAl?$AAi?$AAf@ 00443464     libucrt:get_qualified_locale.obj
 0002:0000648c       ??_C@_1CE@GAJNDCKG@?$AAc?$AAh?$AAi?$AAn?$AAe?$AAs?$AAe?$AA?9?$AAs?$AAi?$AAn?$AAg?$AAa?$AAp?$AAo@ 0044348c     libucrt:get_qualified_locale.obj
 0002:000064b0       ??_C@_1CI@PAJPIOOD@?$AAc?$AAh?$AAi?$AAn?$AAe?$AAs?$AAe?$AA?9?$AAt?$AAr?$AAa?$AAd?$AAi?$AAt?$AAi@ 004434b0     libucrt:get_qualified_locale.obj
 0002:000064d8       ??_C@_1BM@NILJBMMD@?$AAd?$AAu?$AAt?$AAc?$AAh?$AA?9?$AAb?$AAe?$AAl?$AAg?$AAi?$AAa?$AAn@ 004434d8     libucrt:get_qualified_locale.obj
 0002:000064f4       ??_C@_1CC@OOJPJNEJ@?$AAe?$AAn?$AAg?$AAl?$AAi?$AAs?$AAh?$AA?9?$AAa?$AAm?$AAe?$AAr?$AAi?$AAc?$AAa@ 004434f4     libucrt:get_qualified_locale.obj
 0002:00006518       ??_C@_1BI@IOLFEEM@?$AAe?$AAn?$AAg?$AAl?$AAi?$AAs?$AAh?$AA?9?$AAa?$AAu?$AAs@ 00443518     libucrt:get_qualified_locale.obj
 0002:00006530       ??_C@_1BO@HFFNLENJ@?$AAe?$AAn?$AAg?$AAl?$AAi?$AAs?$AAh?$AA?9?$AAb?$AAe?$AAl?$AAi?$AAz?$AAe@ 00443530     libucrt:get_qualified_locale.obj
 0002:00006550       ??_C@_1BI@HAPKJMPO@?$AAe?$AAn?$AAg?$AAl?$AAi?$AAs?$AAh?$AA?9?$AAc?$AAa?$AAn@ 00443550     libucrt:get_qualified_locale.obj
 0002:00006568       ??_C@_1CE@HLNDMIOJ@?$AAe?$AAn?$AAg?$AAl?$AAi?$AAs?$AAh?$AA?9?$AAc?$AAa?$AAr?$AAi?$AAb?$AAb?$AAe@ 00443568     libucrt:get_qualified_locale.obj
 0002:0000658c       ??_C@_1BI@LDHJHHAC@?$AAe?$AAn?$AAg?$AAl?$AAi?$AAs?$AAh?$AA?9?$AAi?$AAr?$AAe@ 0044358c     libucrt:get_qualified_locale.obj
 0002:000065a4       ??_C@_1CA@NJMMCFOC@?$AAe?$AAn?$AAg?$AAl?$AAi?$AAs?$AAh?$AA?9?$AAj?$AAa?$AAm?$AAa?$AAi?$AAc?$AAa@ 004435a4     libucrt:get_qualified_locale.obj
 0002:000065c4       ??_C@_1BG@BHJEBBGG@?$AAe?$AAn?$AAg?$AAl?$AAi?$AAs?$AAh?$AA?9?$AAn?$AAz@ 004435c4     libucrt:get_qualified_locale.obj
 0002:000065dc       ??_C@_1CK@FGOEJJCO@?$AAe?$AAn?$AAg?$AAl?$AAi?$AAs?$AAh?$AA?9?$AAs?$AAo?$AAu?$AAt?$AAh?$AA?5?$AAa@ 004435dc     libucrt:get_qualified_locale.obj
 0002:00006608       ??_C@_1DE@PDBJPCJ@?$AAe?$AAn?$AAg?$AAl?$AAi?$AAs?$AAh?$AA?9?$AAt?$AAr?$AAi?$AAn?$AAi?$AAd?$AAa@ 00443608     libucrt:get_qualified_locale.obj
 0002:0000663c       ??_C@_1BG@JGCANDME@?$AAe?$AAn?$AAg?$AAl?$AAi?$AAs?$AAh?$AA?9?$AAu?$AAk@ 0044363c     libucrt:get_qualified_locale.obj
 0002:00006654       ??_C@_1BG@DINKMLE@?$AAe?$AAn?$AAg?$AAl?$AAi?$AAs?$AAh?$AA?9?$AAu?$AAs@ 00443654     libucrt:get_qualified_locale.obj
 0002:0000666c       ??_C@_1BI@NMFDBHJE@?$AAe?$AAn?$AAg?$AAl?$AAi?$AAs?$AAh?$AA?9?$AAu?$AAs?$AAa@ 0044366c     libucrt:get_qualified_locale.obj
 0002:00006684       ??_C@_1BO@OIHKJKII@?$AAf?$AAr?$AAe?$AAn?$AAc?$AAh?$AA?9?$AAb?$AAe?$AAl?$AAg?$AAi?$AAa?$AAn@ 00443684     libucrt:get_qualified_locale.obj
 0002:000066a4       ??_C@_1CA@NKAELJKI@?$AAf?$AAr?$AAe?$AAn?$AAc?$AAh?$AA?9?$AAc?$AAa?$AAn?$AAa?$AAd?$AAi?$AAa?$AAn@ 004436a4     libucrt:get_qualified_locale.obj
 0002:000066c4       ??_C@_1CE@MGKCNLGN@?$AAf?$AAr?$AAe?$AAn?$AAc?$AAh?$AA?9?$AAl?$AAu?$AAx?$AAe?$AAm?$AAb?$AAo?$AAu@ 004436c4     libucrt:get_qualified_locale.obj
 0002:000066e8       ??_C@_1BK@CEGEAILM@?$AAf?$AAr?$AAe?$AAn?$AAc?$AAh?$AA?9?$AAs?$AAw?$AAi?$AAs?$AAs@ 004436e8     libucrt:get_qualified_locale.obj
 0002:00006704       ??_C@_1CA@PAFKEOCC@?$AAg?$AAe?$AAr?$AAm?$AAa?$AAn?$AA?9?$AAa?$AAu?$AAs?$AAt?$AAr?$AAi?$AAa?$AAn@ 00443704     libucrt:get_qualified_locale.obj
 0002:00006724       ??_C@_1CI@HCFHGOFD@?$AAg?$AAe?$AAr?$AAm?$AAa?$AAn?$AA?9?$AAl?$AAi?$AAc?$AAh?$AAt?$AAe?$AAn?$AAs@ 00443724     libucrt:get_qualified_locale.obj
 0002:0000674c       ??_C@_1CE@FEDDNPDG@?$AAg?$AAe?$AAr?$AAm?$AAa?$AAn?$AA?9?$AAl?$AAu?$AAx?$AAe?$AAm?$AAb?$AAo?$AAu@ 0044374c     libucrt:get_qualified_locale.obj
 0002:00006770       ??_C@_1BK@LIMINNMN@?$AAg?$AAe?$AAr?$AAm?$AAa?$AAn?$AA?9?$AAs?$AAw?$AAi?$AAs?$AAs@ 00443770     libucrt:get_qualified_locale.obj
 0002:0000678c       ??_C@_1BM@LGMDBEPD@?$AAi?$AAr?$AAi?$AAs?$AAh?$AA?9?$AAe?$AAn?$AAg?$AAl?$AAi?$AAs?$AAh@ 0044378c     libucrt:get_qualified_locale.obj
 0002:000067a8       ??_C@_1BM@NNCFBAEE@?$AAi?$AAt?$AAa?$AAl?$AAi?$AAa?$AAn?$AA?9?$AAs?$AAw?$AAi?$AAs?$AAs@ 004437a8     libucrt:get_qualified_locale.obj
 0002:000067c4       ??_C@_1BE@FEDJNPIB@?$AAn?$AAo?$AAr?$AAw?$AAe?$AAg?$AAi?$AAa?$AAn@ 004437c4     libucrt:get_qualified_locale.obj
 0002:000067d8       ??_C@_1CC@CILKDEIE@?$AAn?$AAo?$AAr?$AAw?$AAe?$AAg?$AAi?$AAa?$AAn?$AA?9?$AAb?$AAo?$AAk?$AAm?$AAa@ 004437d8     libucrt:get_qualified_locale.obj
 0002:000067fc       ??_C@_1CE@DHMMHEPL@?$AAn?$AAo?$AAr?$AAw?$AAe?$AAg?$AAi?$AAa?$AAn?$AA?9?$AAn?$AAy?$AAn?$AAo?$AAr@ 004437fc     libucrt:get_qualified_locale.obj
 0002:00006820       ??_C@_1CK@OPNMHECD@?$AAp?$AAo?$AAr?$AAt?$AAu?$AAg?$AAu?$AAe?$AAs?$AAe?$AA?9?$AAb?$AAr?$AAa?$AAz@ 00443820     libucrt:get_qualified_locale.obj
 0002:0000684c       ??_C@_1CE@KEEHCDB@?$AAs?$AAp?$AAa?$AAn?$AAi?$AAs?$AAh?$AA?9?$AAa?$AAr?$AAg?$AAe?$AAn?$AAt?$AAi@ 0044384c     libucrt:get_qualified_locale.obj
 0002:00006870       ??_C@_1CA@GIAOLHJD@?$AAs?$AAp?$AAa?$AAn?$AAi?$AAs?$AAh?$AA?9?$AAb?$AAo?$AAl?$AAi?$AAv?$AAi?$AAa@ 00443870     libucrt:get_qualified_locale.obj
 0002:00006890       ??_C@_1BM@OJNDFNPD@?$AAs?$AAp?$AAa?$AAn?$AAi?$AAs?$AAh?$AA?9?$AAc?$AAh?$AAi?$AAl?$AAe@ 00443890     libucrt:get_qualified_locale.obj
 0002:000068ac       ??_C@_1CC@OCOLPALL@?$AAs?$AAp?$AAa?$AAn?$AAi?$AAs?$AAh?$AA?9?$AAc?$AAo?$AAl?$AAo?$AAm?$AAb?$AAi@ 004438ac     libucrt:get_qualified_locale.obj
 0002:000068d0       ??_C@_1CG@BPOFMKBB@?$AAs?$AAp?$AAa?$AAn?$AAi?$AAs?$AAh?$AA?9?$AAc?$AAo?$AAs?$AAt?$AAa?$AA?5?$AAr@ 004438d0     libucrt:get_qualified_locale.obj
 0002:000068f8       ??_C@_1DG@IGOBAPBB@?$AAs?$AAp?$AAa?$AAn?$AAi?$AAs?$AAh?$AA?9?$AAd?$AAo?$AAm?$AAi?$AAn?$AAi?$AAc@ 004438f8     libucrt:get_qualified_locale.obj
 0002:00006930       ??_C@_1CA@JHAPGEGI@?$AAs?$AAp?$AAa?$AAn?$AAi?$AAs?$AAh?$AA?9?$AAe?$AAc?$AAu?$AAa?$AAd?$AAo?$AAr@ 00443930     libucrt:get_qualified_locale.obj
 0002:00006950       ??_C@_1CI@LAPALJPP@?$AAs?$AAp?$AAa?$AAn?$AAi?$AAs?$AAh?$AA?9?$AAe?$AAl?$AA?5?$AAs?$AAa?$AAl?$AAv@ 00443950     libucrt:get_qualified_locale.obj
 0002:00006978       ??_C@_1CE@PDGBOFOM@?$AAs?$AAp?$AAa?$AAn?$AAi?$AAs?$AAh?$AA?9?$AAg?$AAu?$AAa?$AAt?$AAe?$AAm?$AAa@ 00443978     libucrt:get_qualified_locale.obj
 0002:0000699c       ??_C@_1CC@NBEBAODI@?$AAs?$AAp?$AAa?$AAn?$AAi?$AAs?$AAh?$AA?9?$AAh?$AAo?$AAn?$AAd?$AAu?$AAr?$AAa@ 0044399c     libucrt:get_qualified_locale.obj
 0002:000069c0       ??_C@_1CA@LLKGHBMF@?$AAs?$AAp?$AAa?$AAn?$AAi?$AAs?$AAh?$AA?9?$AAm?$AAe?$AAx?$AAi?$AAc?$AAa?$AAn@ 004439c0     libucrt:get_qualified_locale.obj
 0002:000069e0       ??_C@_1BO@LKNDOIGD@?$AAs?$AAp?$AAa?$AAn?$AAi?$AAs?$AAh?$AA?9?$AAm?$AAo?$AAd?$AAe?$AAr?$AAn@ 004439e0     libucrt:get_qualified_locale.obj
 0002:00006a00       ??_C@_1CE@NMDMOEEB@?$AAs?$AAp?$AAa?$AAn?$AAi?$AAs?$AAh?$AA?9?$AAn?$AAi?$AAc?$AAa?$AAr?$AAa?$AAg@ 00443a00     libucrt:get_qualified_locale.obj
 0002:00006a24       ??_C@_1BO@LLCBEJGB@?$AAs?$AAp?$AAa?$AAn?$AAi?$AAs?$AAh?$AA?9?$AAp?$AAa?$AAn?$AAa?$AAm?$AAa@ 00443a24     libucrt:get_qualified_locale.obj
 0002:00006a44       ??_C@_1CC@FKPGGIHO@?$AAs?$AAp?$AAa?$AAn?$AAi?$AAs?$AAh?$AA?9?$AAp?$AAa?$AAr?$AAa?$AAg?$AAu?$AAa@ 00443a44     libucrt:get_qualified_locale.obj
 0002:00006a68       ??_C@_1BK@CDEIHOOP@?$AAs?$AAp?$AAa?$AAn?$AAi?$AAs?$AAh?$AA?9?$AAp?$AAe?$AAr?$AAu@ 00443a68     libucrt:get_qualified_locale.obj
 0002:00006a84       ??_C@_1CI@GAHAKKGP@?$AAs?$AAp?$AAa?$AAn?$AAi?$AAs?$AAh?$AA?9?$AAp?$AAu?$AAe?$AAr?$AAt?$AAo?$AA?5@ 00443a84     libucrt:get_qualified_locale.obj
 0002:00006aac       ??_C@_1CA@NKJBCAGP@?$AAs?$AAp?$AAa?$AAn?$AAi?$AAs?$AAh?$AA?9?$AAu?$AAr?$AAu?$AAg?$AAu?$AAa?$AAy@ 00443aac     libucrt:get_qualified_locale.obj
 0002:00006acc       ??_C@_1CE@ODILCONM@?$AAs?$AAp?$AAa?$AAn?$AAi?$AAs?$AAh?$AA?9?$AAv?$AAe?$AAn?$AAe?$AAz?$AAu?$AAe@ 00443acc     libucrt:get_qualified_locale.obj
 0002:00006af0       ??_C@_1CA@OBNMCGFO@?$AAs?$AAw?$AAe?$AAd?$AAi?$AAs?$AAh?$AA?9?$AAf?$AAi?$AAn?$AAl?$AAa?$AAn?$AAd@ 00443af0     libucrt:get_qualified_locale.obj
 0002:00006b10       ??_C@_1M@PIPDDPPI@?$AAs?$AAw?$AAi?$AAs?$AAs@ 00443b10     libucrt:get_qualified_locale.obj
 0002:00006b1c       ??_C@_15PJPFLCCM@?$AAu?$AAk@ 00443b1c     libucrt:get_qualified_locale.obj
 0002:00006b24       ??_C@_15GMFIMNFM@?$AAu?$AAs@ 00443b24     libucrt:get_qualified_locale.obj
 0002:00006b2c       ??_C@_17HAEBFAGL@?$AAu?$AAs?$AAa@ 00443b2c     libucrt:get_qualified_locale.obj
 0002:00006b34       ??_C@_1BA@DPFJEPHB@?$AAa?$AAm?$AAe?$AAr?$AAi?$AAc?$AAa@ 00443b34     libucrt:get_qualified_locale.obj
 0002:00006b44       ??_C@_1BA@ELOGGFK@?$AAb?$AAr?$AAi?$AAt?$AAa?$AAi?$AAn@ 00443b44     libucrt:get_qualified_locale.obj
 0002:00006b54       ??_C@_1M@GHBGIGDA@?$AAc?$AAh?$AAi?$AAn?$AAa@ 00443b54     libucrt:get_qualified_locale.obj
 0002:00006b60       ??_C@_1M@NCHEJOPO@?$AAc?$AAz?$AAe?$AAc?$AAh@ 00443b60     libucrt:get_qualified_locale.obj
 0002:00006b6c       ??_C@_1BA@BKPAPBLA@?$AAe?$AAn?$AAg?$AAl?$AAa?$AAn?$AAd@ 00443b6c     libucrt:get_qualified_locale.obj
 0002:00006b7c       ??_C@_1BM@HKBCKIPC@?$AAg?$AAr?$AAe?$AAa?$AAt?$AA?5?$AAb?$AAr?$AAi?$AAt?$AAa?$AAi?$AAn@ 00443b7c     libucrt:get_qualified_locale.obj
 0002:00006b98       ??_C@_1BA@PPCHPGJB@?$AAh?$AAo?$AAl?$AAl?$AAa?$AAn?$AAd@ 00443b98     libucrt:get_qualified_locale.obj
 0002:00006ba8       ??_C@_1BE@JBMPEGDG@?$AAh?$AAo?$AAn?$AAg?$AA?9?$AAk?$AAo?$AAn?$AAg@ 00443ba8     libucrt:get_qualified_locale.obj
 0002:00006bbc       ??_C@_1BI@KOELBBPJ@?$AAn?$AAe?$AAw?$AA?9?$AAz?$AAe?$AAa?$AAl?$AAa?$AAn?$AAd@ 00443bbc     libucrt:get_qualified_locale.obj
 0002:00006bd4       ??_C@_15HIEBHAIO@?$AAn?$AAz@ 00443bd4     libucrt:get_qualified_locale.obj
 0002:00006bdc       ??_C@_1BC@CHBCPFPI@?$AAp?$AAr?$AA?5?$AAc?$AAh?$AAi?$AAn?$AAa@ 00443bdc     libucrt:get_qualified_locale.obj
 0002:00006bf0       ??_C@_1BC@JAOIIFKD@?$AAp?$AAr?$AA?9?$AAc?$AAh?$AAi?$AAn?$AAa@ 00443bf0     libucrt:get_qualified_locale.obj
 0002:00006c04       ??_C@_1BI@BEHPPHKC@?$AAp?$AAu?$AAe?$AAr?$AAt?$AAo?$AA?9?$AAr?$AAi?$AAc?$AAo@ 00443c04     libucrt:get_qualified_locale.obj
 0002:00006c1c       ??_C@_1O@PAEOFKDI@?$AAs?$AAl?$AAo?$AAv?$AAa?$AAk@ 00443c1c     libucrt:get_qualified_locale.obj
 0002:00006c2c       ??_C@_1BK@FIHMCKAM@?$AAs?$AAo?$AAu?$AAt?$AAh?$AA?5?$AAa?$AAf?$AAr?$AAi?$AAc?$AAa@ 00443c2c     libucrt:get_qualified_locale.obj
 0002:00006c48       ??_C@_1BI@NAEOODKB@?$AAs?$AAo?$AAu?$AAt?$AAh?$AA?5?$AAk?$AAo?$AAr?$AAe?$AAa@ 00443c48     libucrt:get_qualified_locale.obj
 0002:00006c60       ??_C@_1BK@FBDGGIFF@?$AAs?$AAo?$AAu?$AAt?$AAh?$AA?9?$AAa?$AAf?$AAr?$AAi?$AAc?$AAa@ 00443c60     libucrt:get_qualified_locale.obj
 0002:00006c7c       ??_C@_1BI@GHLEJDPK@?$AAs?$AAo?$AAu?$AAt?$AAh?$AA?9?$AAk?$AAo?$AAr?$AAe?$AAa@ 00443c7c     libucrt:get_qualified_locale.obj
 0002:00006c94       ??_C@_1CE@PLHLOMJF@?$AAt?$AAr?$AAi?$AAn?$AAi?$AAd?$AAa?$AAd?$AA?5?$AA?$CG?$AA?5?$AAt?$AAo?$AAb?$AAa@ 00443c94     libucrt:get_qualified_locale.obj
 0002:00006cb8       ??_C@_1BO@MODIMHHI@?$AAu?$AAn?$AAi?$AAt?$AAe?$AAd?$AA?9?$AAk?$AAi?$AAn?$AAg?$AAd?$AAo?$AAm@ 00443cb8     libucrt:get_qualified_locale.obj
 0002:00006cd8       ??_C@_1BM@FFHJONBJ@?$AAu?$AAn?$AAi?$AAt?$AAe?$AAd?$AA?9?$AAs?$AAt?$AAa?$AAt?$AAe?$AAs@ 00443cd8     libucrt:get_qualified_locale.obj
 0002:00006cf4       ??_C@_19MPDNHKDG@?$AAu?$AAt?$AAf?$AA8@ 00443cf4     libucrt:get_qualified_locale.obj
 0002:00006d00       ??_C@_17DNCLJFIF@?$AAA?$AAC?$AAP@ 00443d00     libucrt:get_qualified_locale.obj
 0002:00006d08       ??_C@_1M@FPEIIFAM@?$AAu?$AAt?$AAf?$AA?9?$AA8@ 00443d08     libucrt:get_qualified_locale.obj
 0002:00006d14       ??_C@_17CIKBIHLH@?$AAO?$AAC?$AAP@ 00443d14     libucrt:get_qualified_locale.obj
 0002:00006d1c       ___rglangidNotDefault      00443d1c     libucrt:getqloc_downlevel.obj
 0002:00007450       ??_C@_15EMKDOKLE@?$AAa?$AAr@ 00444450     libucrt:lcidtoname_downlevel.obj
 0002:00007458       ??_C@_15KNPADPLH@?$AAb?$AAg@ 00444458     libucrt:lcidtoname_downlevel.obj
 0002:00007460       ??_C@_15EDMHLDMO@?$AAc?$AAa@ 00444460     libucrt:lcidtoname_downlevel.obj
 0002:00007468       ??_C@_1O@BPEAJADD@?$AAz?$AAh?$AA?9?$AAC?$AAH?$AAS@ 00444468     libucrt:lcidtoname_downlevel.obj
 0002:00007478       ??_C@_15LJNHCMNK@?$AAc?$AAs@ 00444478     libucrt:lcidtoname_downlevel.obj
 0002:00007480       ??_C@_15FOMCIDHG@?$AAd?$AAa@ 00444480     libucrt:lcidtoname_downlevel.obj
 0002:00007488       ??_C@_15NBKABECB@?$AAd?$AAe@ 00444488     libucrt:lcidtoname_downlevel.obj
 0002:00007490       ??_C@_15GHPEIIAO@?$AAe?$AAl@ 00444490     libucrt:lcidtoname_downlevel.obj
 0002:00007498       ??_C@_15MNPNEAIF@?$AAe?$AAn@ 00444498     libucrt:lcidtoname_downlevel.obj
 0002:000074a0       ??_C@_15GPIOMPMH@?$AAe?$AAs@ 004444a0     libucrt:lcidtoname_downlevel.obj
 0002:000074a8       ??_C@_15NGLOAKJC@?$AAf?$AAi@ 004444a8     libucrt:lcidtoname_downlevel.obj
 0002:000074b0       ??_C@_15FBKGNKAM@?$AAf?$AAr@ 004444b0     libucrt:lcidtoname_downlevel.obj
 0002:000074b8       ??_C@_15KGGCNEFK@?$AAh?$AAe@ 004444b8     libucrt:lcidtoname_downlevel.obj
 0002:000074c0       ??_C@_15PGHLIDMF@?$AAh?$AAu@ 004444c0     libucrt:lcidtoname_downlevel.obj
 0002:000074c8       ??_C@_15BIEMAPLM@?$AAi?$AAs@ 004444c8     libucrt:lcidtoname_downlevel.obj
 0002:000074d0       ??_C@_15IFJLDHAF@?$AAi?$AAt@ 004444d0     libucrt:lcidtoname_downlevel.obj
 0002:000074d8       ??_C@_15GEMIOCAG@?$AAj?$AAa@ 004444d8     libucrt:lcidtoname_downlevel.obj
 0002:000074e0       ??_C@_15EPELEGJA@?$AAk?$AAo@ 004444e0     libucrt:lcidtoname_downlevel.obj
 0002:000074e8       ??_C@_15NDDHIMN@?$AAn?$AAl@ 004444e8     libucrt:lcidtoname_downlevel.obj
 0002:000074f0       ??_C@_15BPIGNHCD@?$AAn?$AAo@ 004444f0     libucrt:lcidtoname_downlevel.obj
 0002:000074f8       ??_C@_15DEOPBLCG@?$AAp?$AAl@ 004444f8     libucrt:lcidtoname_downlevel.obj
 0002:00007500       ??_C@_15KBECGEFG@?$AAp?$AAt@ 00444500     libucrt:lcidtoname_downlevel.obj
 0002:00007508       ??_C@_15GLJCBFMD@?$AAr?$AAo@ 00444508     libucrt:lcidtoname_downlevel.obj
 0002:00007510       ??_C@_15FEDGKCDI@?$AAr?$AAu@ 00444510     libucrt:lcidtoname_downlevel.obj
 0002:00007518       ??_C@_15GLKMLLHM@?$AAh?$AAr@ 00444518     libucrt:lcidtoname_downlevel.obj
 0002:00007520       ??_C@_15CPKMFBDB@?$AAs?$AAk@ 00444520     libucrt:lcidtoname_downlevel.obj
 0002:00007528       ??_C@_15BAAIOGMK@?$AAs?$AAq@ 00444528     libucrt:lcidtoname_downlevel.obj
 0002:00007530       ??_C@_15INNPNOHD@?$AAs?$AAv@ 00444530     libucrt:lcidtoname_downlevel.obj
 0002:00007538       ??_C@_15CABMMOGH@?$AAt?$AAh@ 00444538     libucrt:lcidtoname_downlevel.obj
 0002:00007540       ??_C@_15BPLIHJJM@?$AAt?$AAr@ 00444540     libucrt:lcidtoname_downlevel.obj
 0002:00007548       ??_C@_15NEOEKKDJ@?$AAu?$AAr@ 00444548     libucrt:lcidtoname_downlevel.obj
 0002:00007550       ??_C@_15NFICGAJK@?$AAi?$AAd@ 00444550     libucrt:lcidtoname_downlevel.obj
 0002:00007558       ??_C@_15HPJPHDM@?$AAb?$AAe@ 00444558     libucrt:lcidtoname_downlevel.obj
 0002:00007560       ??_C@_15LCHLGJII@?$AAs?$AAl@ 00444560     libucrt:lcidtoname_downlevel.obj
 0002:00007568       ??_C@_15PCFJPHHO@?$AAe?$AAt@ 00444568     libucrt:lcidtoname_downlevel.obj
 0002:00007570       ??_C@_15HPFPGODN@?$AAl?$AAv@ 00444570     libucrt:lcidtoname_downlevel.obj
 0002:00007578       ??_C@_15NFFGKGLG@?$AAl?$AAt@ 00444578     libucrt:lcidtoname_downlevel.obj
 0002:00007580       ??_C@_15BDAKCCHN@?$AAf?$AAa@ 00444580     libucrt:lcidtoname_downlevel.obj
 0002:00007588       ??_C@_15NFGIAIAJ@?$AAv?$AAi@ 00444588     libucrt:lcidtoname_downlevel.obj
 0002:00007590       ??_C@_15LMKNDMHN@?$AAh?$AAy@ 00444590     libucrt:lcidtoname_downlevel.obj
 0002:00007598       ??_C@_15IJBHMCFL@?$AAa?$AAz@ 00444598     libucrt:lcidtoname_downlevel.obj
 0002:000075a0       ??_C@_15EKOFJABL@?$AAe?$AAu@ 004445a0     libucrt:lcidtoname_downlevel.obj
 0002:000075a8       ??_C@_15BGHADCNK@?$AAm?$AAk@ 004445a8     libucrt:lcidtoname_downlevel.obj
 0002:000075b0       ??_C@_15JDNICKHM@?$AAa?$AAf@ 004445b0     libucrt:lcidtoname_downlevel.obj
 0002:000075b8       ??_C@_15KPJEDBKD@?$AAk?$AAa@ 004445b8     libucrt:lcidtoname_downlevel.obj
 0002:000075c0       ??_C@_15PDNFFFEO@?$AAf?$AAo@ 004445c0     libucrt:lcidtoname_downlevel.obj
 0002:000075c8       ??_C@_15OMLEGLOC@?$AAh?$AAi@ 004445c8     libucrt:lcidtoname_downlevel.obj
 0002:000075d0       ??_C@_15IDNNENKK@?$AAm?$AAs@ 004445d0     libucrt:lcidtoname_downlevel.obj
 0002:000075d8       ??_C@_15MACJNBMH@?$AAk?$AAk@ 004445d8     libucrt:lcidtoname_downlevel.obj
 0002:000075e0       ??_C@_15DKDJEOND@?$AAk?$AAy@ 004445e0     libucrt:lcidtoname_downlevel.obj
 0002:000075e8       ??_C@_15DFGDLJBG@?$AAs?$AAw@ 004445e8     libucrt:lcidtoname_downlevel.obj
 0002:000075f0       ??_C@_15BBFAICNG@?$AAu?$AAz@ 004445f0     libucrt:lcidtoname_downlevel.obj
 0002:000075f8       ??_C@_15DKNDCGEA@?$AAt?$AAt@ 004445f8     libucrt:lcidtoname_downlevel.obj
 0002:00007600       ??_C@_15MGIFMDPL@?$AAp?$AAa@ 00444600     libucrt:lcidtoname_downlevel.obj
 0002:00007608       ??_C@_15HCNDBBA@?$AAg?$AAu@ 00444608     libucrt:lcidtoname_downlevel.obj
 0002:00007610       ??_C@_15FNBEIBON@?$AAt?$AAa@ 00444610     libucrt:lcidtoname_downlevel.obj
 0002:00007618       ??_C@_15NCHGBGLK@?$AAt?$AAe@ 00444618     libucrt:lcidtoname_downlevel.obj
 0002:00007620       ??_C@_15PHPHCBPF@?$AAk?$AAn@ 00444620     libucrt:lcidtoname_downlevel.obj
 0002:00007628       ??_C@_15DLGBCKMP@?$AAm?$AAr@ 00444628     libucrt:lcidtoname_downlevel.obj
 0002:00007630       ??_C@_15EABBLBFF@?$AAs?$AAa@ 00444630     libucrt:lcidtoname_downlevel.obj
 0002:00007638       ??_C@_15CBKOMCOI@?$AAm?$AAn@ 00444638     libucrt:lcidtoname_downlevel.obj
 0002:00007640       ??_C@_15CKDMCJAF@?$AAg?$AAl@ 00444640     libucrt:lcidtoname_downlevel.obj
 0002:00007648       ??_C@_17CNJFBPG@?$AAk?$AAo?$AAk@ 00444648     libucrt:lcidtoname_downlevel.obj
 0002:00007650       ??_C@_17FFBJICPL@?$AAs?$AAy?$AAr@ 00444650     libucrt:lcidtoname_downlevel.obj
 0002:00007658       ??_C@_17KPNDCPAF@?$AAd?$AAi?$AAv@ 00444658     libucrt:lcidtoname_downlevel.obj
 0002:00007660       ??_C@_1M@OKAHONE@?$AAa?$AAr?$AA?9?$AAS?$AAA@ 00444660     libucrt:lcidtoname_downlevel.obj
 0002:0000766c       ??_C@_1M@FFFIGIGK@?$AAb?$AAg?$AA?9?$AAB?$AAG@ 0044466c     libucrt:lcidtoname_downlevel.obj
 0002:00007678       ??_C@_1M@BJNKEDC@?$AAc?$AAa?$AA?9?$AAE?$AAS@ 00444678     libucrt:lcidtoname_downlevel.obj
 0002:00007684       ??_C@_1M@IJJHFJHA@?$AAc?$AAs?$AA?9?$AAC?$AAZ@ 00444684     libucrt:lcidtoname_downlevel.obj
 0002:00007690       ??_C@_1M@CLPEOBGI@?$AAd?$AAa?$AA?9?$AAD?$AAK@ 00444690     libucrt:lcidtoname_downlevel.obj
 0002:0000769c       ??_C@_1M@MCMADGCB@?$AAd?$AAe?$AA?9?$AAD?$AAE@ 0044469c     libucrt:lcidtoname_downlevel.obj
 0002:000076a8       ??_C@_1M@OOCKEMAM@?$AAe?$AAl?$AA?9?$AAG?$AAR@ 004446a8     libucrt:lcidtoname_downlevel.obj
 0002:000076b4       ??_C@_1M@DDNJFGID@?$AAf?$AAi?$AA?9?$AAF?$AAI@ 004446b4     libucrt:lcidtoname_downlevel.obj
 0002:000076c0       ??_C@_1M@GLIPPMAC@?$AAf?$AAr?$AA?9?$AAF?$AAR@ 004446c0     libucrt:lcidtoname_downlevel.obj
 0002:000076cc       ??_C@_1M@GFMCHPE@?$AAh?$AAe?$AA?9?$AAI?$AAL@ 004446cc     libucrt:lcidtoname_downlevel.obj
 0002:000076d8       ??_C@_1M@MHLPGNKM@?$AAh?$AAu?$AA?9?$AAH?$AAU@ 004446d8     libucrt:lcidtoname_downlevel.obj
 0002:000076e4       ??_C@_1M@LPDDNNPN@?$AAi?$AAs?$AA?9?$AAI?$AAS@ 004446e4     libucrt:lcidtoname_downlevel.obj
 0002:000076f0       ??_C@_1M@MADIPODN@?$AAi?$AAt?$AA?9?$AAI?$AAT@ 004446f0     libucrt:lcidtoname_downlevel.obj
 0002:000076fc       ??_C@_1M@IHBJJGG@?$AAn?$AAl?$AA?9?$AAN?$AAL@ 004446fc     libucrt:lcidtoname_downlevel.obj
 0002:00007708       ??_C@_1M@EANAGDL@?$AAn?$AAb?$AA?9?$AAN?$AAO@ 00444708     libucrt:lcidtoname_downlevel.obj
 0002:00007714       ??_C@_1M@NEIEMEGP@?$AAp?$AAl?$AA?9?$AAP?$AAL@ 00444714     libucrt:lcidtoname_downlevel.obj
 0002:00007720       ??_C@_1M@BOCFIGEP@?$AAp?$AAt?$AA?9?$AAB?$AAR@ 00444720     libucrt:lcidtoname_downlevel.obj
 0002:0000772c       ??_C@_1M@IMPFOPBG@?$AAr?$AAo?$AA?9?$AAR?$AAO@ 0044472c     libucrt:lcidtoname_downlevel.obj
 0002:00007738       ??_C@_1M@IDNNEJMM@?$AAr?$AAu?$AA?9?$AAR?$AAU@ 00444738     libucrt:lcidtoname_downlevel.obj
 0002:00007744       ??_C@_1M@LILEEOGM@?$AAh?$AAr?$AA?9?$AAH?$AAR@ 00444744     libucrt:lcidtoname_downlevel.obj
 0002:00007750       ??_C@_1M@FKIFEHPB@?$AAs?$AAk?$AA?9?$AAS?$AAK@ 00444750     libucrt:lcidtoname_downlevel.obj
 0002:0000775c       ??_C@_1M@LJMAMNPJ@?$AAs?$AAq?$AA?9?$AAA?$AAL@ 0044475c     libucrt:lcidtoname_downlevel.obj
 0002:00007768       ??_C@_1M@GIAKDKJK@?$AAs?$AAv?$AA?9?$AAS?$AAE@ 00444768     libucrt:lcidtoname_downlevel.obj
 0002:00007774       ??_C@_1M@MKJKIKCL@?$AAt?$AAh?$AA?9?$AAT?$AAH@ 00444774     libucrt:lcidtoname_downlevel.obj
 0002:00007780       ??_C@_1M@MFLCCMPB@?$AAt?$AAr?$AA?9?$AAT?$AAR@ 00444780     libucrt:lcidtoname_downlevel.obj
 0002:0000778c       ??_C@_1M@OIJHDKJN@?$AAu?$AAr?$AA?9?$AAP?$AAK@ 0044478c     libucrt:lcidtoname_downlevel.obj
 0002:00007798       ??_C@_1M@LHIPCIEK@?$AAi?$AAd?$AA?9?$AAI?$AAD@ 00444798     libucrt:lcidtoname_downlevel.obj
 0002:000077a4       ??_C@_1M@MFMOBGI@?$AAu?$AAk?$AA?9?$AAU?$AAA@ 004447a4     libucrt:lcidtoname_downlevel.obj
 0002:000077b0       ??_C@_1M@OBGLJIPL@?$AAb?$AAe?$AA?9?$AAB?$AAY@ 004447b0     libucrt:lcidtoname_downlevel.obj
 0002:000077bc       ??_C@_1M@BCFAJEAD@?$AAs?$AAl?$AA?9?$AAS?$AAI@ 004447bc     libucrt:lcidtoname_downlevel.obj
 0002:000077c8       ??_C@_1M@FKFFEDDN@?$AAe?$AAt?$AA?9?$AAE?$AAE@ 004447c8     libucrt:lcidtoname_downlevel.obj
 0002:000077d4       ??_C@_1M@KGKKAACI@?$AAl?$AAv?$AA?9?$AAL?$AAV@ 004447d4     libucrt:lcidtoname_downlevel.obj
 0002:000077e0       ??_C@_1M@IFGBIJO@?$AAl?$AAt?$AA?9?$AAL?$AAT@ 004447e0     libucrt:lcidtoname_downlevel.obj
 0002:000077ec       ??_C@_1M@FGEAHEDM@?$AAf?$AAa?$AA?9?$AAI?$AAR@ 004447ec     libucrt:lcidtoname_downlevel.obj
 0002:000077f8       ??_C@_1M@KBMAIBFN@?$AAv?$AAi?$AA?9?$AAV?$AAN@ 004447f8     libucrt:lcidtoname_downlevel.obj
 0002:00007804       ??_C@_1M@GPCBKDJK@?$AAh?$AAy?$AA?9?$AAA?$AAM@ 00444804     libucrt:lcidtoname_downlevel.obj
 0002:00007810       ??_C@_1BG@BECMDDJB@?$AAa?$AAz?$AA?9?$AAA?$AAZ?$AA?9?$AAL?$AAa?$AAt?$AAn@ 00444810     libucrt:lcidtoname_downlevel.obj
 0002:00007828       ??_C@_1M@MAOFCAEA@?$AAe?$AAu?$AA?9?$AAE?$AAS@ 00444828     libucrt:lcidtoname_downlevel.obj
 0002:00007834       ??_C@_1M@IGHABKPI@?$AAm?$AAk?$AA?9?$AAM?$AAK@ 00444834     libucrt:lcidtoname_downlevel.obj
 0002:00007840       ??_C@_1M@IAIGNEJG@?$AAt?$AAn?$AA?9?$AAZ?$AAA@ 00444840     libucrt:lcidtoname_downlevel.obj
 0002:0000784c       ??_C@_1M@IIJCOJFA@?$AAx?$AAh?$AA?9?$AAZ?$AAA@ 0044484c     libucrt:lcidtoname_downlevel.obj
 0002:00007858       ??_C@_1M@LGPJHNJH@?$AAz?$AAu?$AA?9?$AAZ?$AAA@ 00444858     libucrt:lcidtoname_downlevel.obj
 0002:00007864       ??_C@_1M@HOKAOIO@?$AAa?$AAf?$AA?9?$AAZ?$AAA@ 00444864     libucrt:lcidtoname_downlevel.obj
 0002:00007870       ??_C@_1M@DPCLHLIE@?$AAk?$AAa?$AA?9?$AAG?$AAE@ 00444870     libucrt:lcidtoname_downlevel.obj
 0002:0000787c       ??_C@_1M@BLKMHJBI@?$AAf?$AAo?$AA?9?$AAF?$AAO@ 0044487c     libucrt:lcidtoname_downlevel.obj
 0002:00007888       ??_C@_1M@LGGJAPPB@?$AAh?$AAi?$AA?9?$AAI?$AAN@ 00444888     libucrt:lcidtoname_downlevel.obj
 0002:00007894       ??_C@_1M@FIKPIHFE@?$AAm?$AAt?$AA?9?$AAM?$AAT@ 00444894     libucrt:lcidtoname_downlevel.obj
 0002:000078a0       ??_C@_1M@HEGGPBFA@?$AAs?$AAe?$AA?9?$AAN?$AAO@ 004448a0     libucrt:lcidtoname_downlevel.obj
 0002:000078ac       ??_C@_1M@EIBJEEPA@?$AAm?$AAs?$AA?9?$AAM?$AAY@ 004448ac     libucrt:lcidtoname_downlevel.obj
 0002:000078b8       ??_C@_1M@FHLBGMPP@?$AAk?$AAk?$AA?9?$AAK?$AAZ@ 004448b8     libucrt:lcidtoname_downlevel.obj
 0002:000078c4       ??_C@_1M@NGJJLCGI@?$AAk?$AAy?$AA?9?$AAK?$AAG@ 004448c4     libucrt:lcidtoname_downlevel.obj
 0002:000078d0       ??_C@_1M@GIENNBFC@?$AAs?$AAw?$AA?9?$AAK?$AAE@ 004448d0     libucrt:lcidtoname_downlevel.obj
 0002:000078dc       ??_C@_1BG@NDGMJIMJ@?$AAu?$AAz?$AA?9?$AAU?$AAZ?$AA?9?$AAL?$AAa?$AAt?$AAn@ 004448dc     libucrt:lcidtoname_downlevel.obj
 0002:000078f4       ??_C@_1M@IDCCIHBC@?$AAt?$AAt?$AA?9?$AAR?$AAU@ 004448f4     libucrt:lcidtoname_downlevel.obj
 0002:00007900       ??_C@_1M@LOICPMOJ@?$AAb?$AAn?$AA?9?$AAI?$AAN@ 00444900     libucrt:lcidtoname_downlevel.obj
 0002:0000790c       ??_C@_1M@KPKKNEAH@?$AAp?$AAa?$AA?9?$AAI?$AAN@ 0044490c     libucrt:lcidtoname_downlevel.obj
 0002:00007918       ??_C@_1M@PJGPPBOG@?$AAg?$AAu?$AA?9?$AAI?$AAN@ 00444918     libucrt:lcidtoname_downlevel.obj
 0002:00007924       ??_C@_1M@KMKMOPHI@?$AAt?$AAa?$AA?9?$AAI?$AAN@ 00444924     libucrt:lcidtoname_downlevel.obj
 0002:00007930       ??_C@_1M@KFEHEPAC@?$AAt?$AAe?$AA?9?$AAI?$AAN@ 00444930     libucrt:lcidtoname_downlevel.obj
 0002:0000793c       ??_C@_1M@CDCLMGHI@?$AAk?$AAn?$AA?9?$AAI?$AAN@ 0044493c     libucrt:lcidtoname_downlevel.obj
 0002:00007948       ??_C@_1M@MIODLDKF@?$AAm?$AAl?$AA?9?$AAI?$AAN@ 00444948     libucrt:lcidtoname_downlevel.obj
 0002:00007954       ??_C@_1M@PBIEACPO@?$AAm?$AAr?$AA?9?$AAI?$AAN@ 00444954     libucrt:lcidtoname_downlevel.obj
 0002:00007960       ??_C@_1M@NIDEAGPH@?$AAs?$AAa?$AA?9?$AAI?$AAN@ 00444960     libucrt:lcidtoname_downlevel.obj
 0002:0000796c       ??_C@_1M@FHIHCBIO@?$AAm?$AAn?$AA?9?$AAM?$AAN@ 0044496c     libucrt:lcidtoname_downlevel.obj
 0002:00007978       ??_C@_1M@JAIJPENP@?$AAc?$AAy?$AA?9?$AAG?$AAB@ 00444978     libucrt:lcidtoname_downlevel.obj
 0002:00007984       ??_C@_1M@PHGFBEPN@?$AAg?$AAl?$AA?9?$AAE?$AAS@ 00444984     libucrt:lcidtoname_downlevel.obj
 0002:00007990       ??_C@_1O@KPIPDNCP@?$AAk?$AAo?$AAk?$AA?9?$AAI?$AAN@ 00444990     libucrt:lcidtoname_downlevel.obj
 0002:000079a0       ??_C@_1O@KNHJLDJA@?$AAs?$AAy?$AAr?$AA?9?$AAS?$AAY@ 004449a0     libucrt:lcidtoname_downlevel.obj
 0002:000079b0       ??_C@_1O@MKEKBLAH@?$AAd?$AAi?$AAv?$AA?9?$AAM?$AAV@ 004449b0     libucrt:lcidtoname_downlevel.obj
 0002:000079c0       ??_C@_1O@OHDCKDDF@?$AAq?$AAu?$AAz?$AA?9?$AAB?$AAO@ 004449c0     libucrt:lcidtoname_downlevel.obj
 0002:000079d0       ??_C@_1M@LEPJNLFD@?$AAn?$AAs?$AA?9?$AAZ?$AAA@ 004449d0     libucrt:lcidtoname_downlevel.obj
 0002:000079dc       ??_C@_1M@OMLEIIJB@?$AAm?$AAi?$AA?9?$AAN?$AAZ@ 004449dc     libucrt:lcidtoname_downlevel.obj
 0002:000079e8       ??_C@_1M@PMPEAILG@?$AAa?$AAr?$AA?9?$AAI?$AAQ@ 004449e8     libucrt:lcidtoname_downlevel.obj
 0002:000079f4       ??_C@_1M@CNKPNOEE@?$AAd?$AAe?$AA?9?$AAC?$AAH@ 004449f4     libucrt:lcidtoname_downlevel.obj
 0002:00007a00       ??_C@_1M@LKMGMLKO@?$AAe?$AAn?$AA?9?$AAG?$AAB@ 00444a00     libucrt:lcidtoname_downlevel.obj
 0002:00007a0c       ??_C@_1M@PGKJFFGL@?$AAe?$AAs?$AA?9?$AAM?$AAX@ 00444a0c     libucrt:lcidtoname_downlevel.obj
 0002:00007a18       ??_C@_1M@DNNANBDC@?$AAf?$AAr?$AA?9?$AAB?$AAE@ 00444a18     libucrt:lcidtoname_downlevel.obj
 0002:00007a24       ??_C@_1M@HLGMDFHM@?$AAi?$AAt?$AA?9?$AAC?$AAH@ 00444a24     libucrt:lcidtoname_downlevel.obj
 0002:00007a30       ??_C@_1M@CLLBGJH@?$AAn?$AAl?$AA?9?$AAB?$AAE@ 00444a30     libucrt:lcidtoname_downlevel.obj
 0002:00007a3c       ??_C@_1M@BODBOGLF@?$AAn?$AAn?$AA?9?$AAN?$AAO@ 00444a3c     libucrt:lcidtoname_downlevel.obj
 0002:00007a48       ??_C@_1M@HFFAHKAD@?$AAp?$AAt?$AA?9?$AAP?$AAT@ 00444a48     libucrt:lcidtoname_downlevel.obj
 0002:00007a54       ??_C@_1BG@LNOAKHIE@?$AAs?$AAr?$AA?9?$AAS?$AAP?$AA?9?$AAL?$AAa?$AAt?$AAn@ 00444a54     libucrt:lcidtoname_downlevel.obj
 0002:00007a6c       ??_C@_1M@HBMHBGAK@?$AAs?$AAv?$AA?9?$AAF?$AAI@ 00444a6c     libucrt:lcidtoname_downlevel.obj
 0002:00007a78       ??_C@_1BG@DGCJGJBE@?$AAa?$AAz?$AA?9?$AAA?$AAZ?$AA?9?$AAC?$AAy?$AAr?$AAl@ 00444a78     libucrt:lcidtoname_downlevel.obj
 0002:00007a90       ??_C@_1M@KEJDAAHB@?$AAs?$AAe?$AA?9?$AAS?$AAE@ 00444a90     libucrt:lcidtoname_downlevel.obj
 0002:00007a9c       ??_C@_1M@HEIBJJAD@?$AAm?$AAs?$AA?9?$AAB?$AAN@ 00444a9c     libucrt:lcidtoname_downlevel.obj
 0002:00007aa8       ??_C@_1BG@PBGJMCEM@?$AAu?$AAz?$AA?9?$AAU?$AAZ?$AA?9?$AAC?$AAy?$AAr?$AAl@ 00444aa8     libucrt:lcidtoname_downlevel.obj
 0002:00007ac0       ??_C@_1O@LAOBCMDF@?$AAq?$AAu?$AAz?$AA?9?$AAE?$AAC@ 00444ac0     libucrt:lcidtoname_downlevel.obj
 0002:00007ad0       ??_C@_1M@POEEMAIO@?$AAa?$AAr?$AA?9?$AAE?$AAG@ 00444ad0     libucrt:lcidtoname_downlevel.obj
 0002:00007adc       ??_C@_1M@EFAKDEDL@?$AAz?$AAh?$AA?9?$AAH?$AAK@ 00444adc     libucrt:lcidtoname_downlevel.obj
 0002:00007ae8       ??_C@_1M@HKKIJHGI@?$AAd?$AAe?$AA?9?$AAA?$AAT@ 00444ae8     libucrt:lcidtoname_downlevel.obj
 0002:00007af4       ??_C@_1M@KBFBEHJF@?$AAe?$AAn?$AA?9?$AAA?$AAU@ 00444af4     libucrt:lcidtoname_downlevel.obj
 0002:00007b00       ??_C@_1M@MNPLFAAH@?$AAe?$AAs?$AA?9?$AAE?$AAS@ 00444b00     libucrt:lcidtoname_downlevel.obj
 0002:00007b0c       ??_C@_1M@HJOOJFMA@?$AAf?$AAr?$AA?9?$AAC?$AAA@ 00444b0c     libucrt:lcidtoname_downlevel.obj
 0002:00007b18       ??_C@_1BG@JPOFPNAB@?$AAs?$AAr?$AA?9?$AAS?$AAP?$AA?9?$AAC?$AAy?$AAr?$AAl@ 00444b18     libucrt:lcidtoname_downlevel.obj
 0002:00007b30       ??_C@_1M@LNFOCMOB@?$AAs?$AAe?$AA?9?$AAF?$AAI@ 00444b30     libucrt:lcidtoname_downlevel.obj
 0002:00007b3c       ??_C@_1O@MGJBOAMB@?$AAq?$AAu?$AAz?$AA?9?$AAP?$AAE@ 00444b3c     libucrt:lcidtoname_downlevel.obj
 0002:00007b4c       ??_C@_1M@GJINLBOK@?$AAa?$AAr?$AA?9?$AAL?$AAY@ 00444b4c     libucrt:lcidtoname_downlevel.obj
 0002:00007b58       ??_C@_1M@GGMNHJNL@?$AAz?$AAh?$AA?9?$AAS?$AAG@ 00444b58     libucrt:lcidtoname_downlevel.obj
 0002:00007b64       ??_C@_1M@HOIKODND@?$AAd?$AAe?$AA?9?$AAL?$AAU@ 00444b64     libucrt:lcidtoname_downlevel.obj
 0002:00007b70       ??_C@_1M@DDOCCGFG@?$AAe?$AAn?$AA?9?$AAC?$AAA@ 00444b70     libucrt:lcidtoname_downlevel.obj
 0002:00007b7c       ??_C@_1M@BNOEMJLF@?$AAe?$AAs?$AA?9?$AAG?$AAT@ 00444b7c     libucrt:lcidtoname_downlevel.obj
 0002:00007b88       ??_C@_1M@EOGNKEK@?$AAf?$AAr?$AA?9?$AAC?$AAH@ 00444b88     libucrt:lcidtoname_downlevel.obj
 0002:00007b94       ??_C@_1M@FLIDJFHL@?$AAh?$AAr?$AA?9?$AAB?$AAA@ 00444b94     libucrt:lcidtoname_downlevel.obj
 0002:00007ba0       ??_C@_1O@FMCELNAJ@?$AAs?$AAm?$AAj?$AA?9?$AAN?$AAO@ 00444ba0     libucrt:lcidtoname_downlevel.obj
 0002:00007bb0       ??_C@_1M@JHGLJMGJ@?$AAa?$AAr?$AA?9?$AAD?$AAZ@ 00444bb0     libucrt:lcidtoname_downlevel.obj
 0002:00007bbc       ??_C@_1M@JKKFDCNP@?$AAz?$AAh?$AA?9?$AAM?$AAO@ 00444bbc     libucrt:lcidtoname_downlevel.obj
 0002:00007bc8       ??_C@_1M@GEEFALPE@?$AAd?$AAe?$AA?9?$AAL?$AAI@ 00444bc8     libucrt:lcidtoname_downlevel.obj
 0002:00007bd4       ??_C@_1M@IGEOFBG@?$AAe?$AAn?$AA?9?$AAN?$AAZ@ 00444bd4     libucrt:lcidtoname_downlevel.obj
 0002:00007be0       ??_C@_1M@KDBONEHP@?$AAe?$AAs?$AA?9?$AAC?$AAR@ 00444be0     libucrt:lcidtoname_downlevel.obj
 0002:00007bec       ??_C@_1M@FHMDOHNN@?$AAf?$AAr?$AA?9?$AAL?$AAU@ 00444bec     libucrt:lcidtoname_downlevel.obj
 0002:00007bf8       ??_C@_1BG@NFKKMAFG@?$AAb?$AAs?$AA?9?$AAB?$AAA?$AA?9?$AAL?$AAa?$AAt?$AAn@ 00444bf8     libucrt:lcidtoname_downlevel.obj
 0002:00007c10       ??_C@_1O@IMNBEMCI@?$AAs?$AAm?$AAj?$AA?9?$AAS?$AAE@ 00444c10     libucrt:lcidtoname_downlevel.obj
 0002:00007c20       ??_C@_1M@DHHMBNDP@?$AAa?$AAr?$AA?9?$AAM?$AAA@ 00444c20     libucrt:lcidtoname_downlevel.obj
 0002:00007c2c       ??_C@_1M@BNBLJCGH@?$AAe?$AAn?$AA?9?$AAI?$AAE@ 00444c2c     libucrt:lcidtoname_downlevel.obj
 0002:00007c38       ??_C@_1M@GEPAFMDL@?$AAe?$AAs?$AA?9?$AAP?$AAA@ 00444c38     libucrt:lcidtoname_downlevel.obj
 0002:00007c44       ??_C@_1M@OJONDMDL@?$AAf?$AAr?$AA?9?$AAM?$AAC@ 00444c44     libucrt:lcidtoname_downlevel.obj
 0002:00007c50       ??_C@_1BG@OBCNFJB@?$AAs?$AAr?$AA?9?$AAB?$AAA?$AA?9?$AAL?$AAa?$AAt?$AAn@ 00444c50     libucrt:lcidtoname_downlevel.obj
 0002:00007c68       ??_C@_1O@KEMEEGPO@?$AAs?$AAm?$AAa?$AA?9?$AAN?$AAO@ 00444c68     libucrt:lcidtoname_downlevel.obj
 0002:00007c78       ??_C@_1M@ELMGFODK@?$AAa?$AAr?$AA?9?$AAT?$AAN@ 00444c78     libucrt:lcidtoname_downlevel.obj
 0002:00007c84       ??_C@_1M@BHDLHFAF@?$AAe?$AAn?$AA?9?$AAZ?$AAA@ 00444c84     libucrt:lcidtoname_downlevel.obj
 0002:00007c90       ??_C@_1M@BMGIGLIF@?$AAe?$AAs?$AA?9?$AAD?$AAO@ 00444c90     libucrt:lcidtoname_downlevel.obj
 0002:00007c9c       ??_C@_1BG@CMBHIPBE@?$AAs?$AAr?$AA?9?$AAB?$AAA?$AA?9?$AAC?$AAy?$AAr?$AAl@ 00444c9c     libucrt:lcidtoname_downlevel.obj
 0002:00007cb4       ??_C@_1O@HEDBLHNP@?$AAs?$AAm?$AAa?$AA?9?$AAS?$AAE@ 00444cb4     libucrt:lcidtoname_downlevel.obj
 0002:00007cc4       ??_C@_1M@DAGCADIM@?$AAa?$AAr?$AA?9?$AAO?$AAM@ 00444cc4     libucrt:lcidtoname_downlevel.obj
 0002:00007cd0       ??_C@_1M@FODLMICG@?$AAe?$AAn?$AA?9?$AAJ?$AAM@ 00444cd0     libucrt:lcidtoname_downlevel.obj
 0002:00007cdc       ??_C@_1M@DNMLCIHB@?$AAe?$AAs?$AA?9?$AAV?$AAE@ 00444cdc     libucrt:lcidtoname_downlevel.obj
 0002:00007ce8       ??_C@_1O@EOKHMKJK@?$AAs?$AAm?$AAs?$AA?9?$AAF?$AAI@ 00444ce8     libucrt:lcidtoname_downlevel.obj
 0002:00007cf8       ??_C@_1M@CAFJMKOF@?$AAa?$AAr?$AA?9?$AAY?$AAE@ 00444cf8     libucrt:lcidtoname_downlevel.obj
 0002:00007d04       ??_C@_1M@CBFHIJLI@?$AAe?$AAn?$AA?9?$AAC?$AAB@ 00444d04     libucrt:lcidtoname_downlevel.obj
 0002:00007d10       ??_C@_1M@BGNFLDN@?$AAe?$AAs?$AA?9?$AAC?$AAO@ 00444d10     libucrt:lcidtoname_downlevel.obj
 0002:00007d1c       ??_C@_1O@JMPHMAMC@?$AAs?$AAm?$AAn?$AA?9?$AAF?$AAI@ 00444d1c     libucrt:lcidtoname_downlevel.obj
 0002:00007d2c       ??_C@_1M@JLANABKE@?$AAa?$AAr?$AA?9?$AAS?$AAY@ 00444d2c     libucrt:lcidtoname_downlevel.obj
 0002:00007d38       ??_C@_1M@HPKGCFGN@?$AAe?$AAn?$AA?9?$AAB?$AAZ@ 00444d38     libucrt:lcidtoname_downlevel.obj
 0002:00007d44       ??_C@_1M@OLJCMLGM@?$AAe?$AAs?$AA?9?$AAP?$AAE@ 00444d44     libucrt:lcidtoname_downlevel.obj
 0002:00007d50       ??_C@_1M@MKKGFKLE@?$AAa?$AAr?$AA?9?$AAJ?$AAO@ 00444d50     libucrt:lcidtoname_downlevel.obj
 0002:00007d5c       ??_C@_1M@EKPGLDNI@?$AAe?$AAn?$AA?9?$AAT?$AAT@ 00444d5c     libucrt:lcidtoname_downlevel.obj
 0002:00007d68       ??_C@_1M@OONGHFHE@?$AAe?$AAs?$AA?9?$AAA?$AAR@ 00444d68     libucrt:lcidtoname_downlevel.obj
 0002:00007d74       ??_C@_1M@OOJFGBHE@?$AAa?$AAr?$AA?9?$AAL?$AAB@ 00444d74     libucrt:lcidtoname_downlevel.obj
 0002:00007d80       ??_C@_1M@GCEJHNEG@?$AAe?$AAn?$AA?9?$AAZ?$AAW@ 00444d80     libucrt:lcidtoname_downlevel.obj
 0002:00007d8c       ??_C@_1M@JNOCAHJI@?$AAe?$AAs?$AA?9?$AAE?$AAC@ 00444d8c     libucrt:lcidtoname_downlevel.obj
 0002:00007d98       ??_C@_1M@JEFHPGGB@?$AAa?$AAr?$AA?9?$AAK?$AAW@ 00444d98     libucrt:lcidtoname_downlevel.obj
 0002:00007da4       ??_C@_1M@MLKIBJOJ@?$AAe?$AAn?$AA?9?$AAP?$AAH@ 00444da4     libucrt:lcidtoname_downlevel.obj
 0002:00007db0       ??_C@_1M@BDNIPEND@?$AAe?$AAs?$AA?9?$AAC?$AAL@ 00444db0     libucrt:lcidtoname_downlevel.obj
 0002:00007dbc       ??_C@_1M@MPNMEKBD@?$AAa?$AAr?$AA?9?$AAA?$AAE@ 00444dbc     libucrt:lcidtoname_downlevel.obj
 0002:00007dc8       ??_C@_1M@KBJALCPI@?$AAe?$AAs?$AA?9?$AAU?$AAY@ 00444dc8     libucrt:lcidtoname_downlevel.obj
 0002:00007dd4       ??_C@_1M@LLCCOAGA@?$AAa?$AAr?$AA?9?$AAB?$AAH@ 00444dd4     libucrt:lcidtoname_downlevel.obj
 0002:00007de0       ??_C@_1M@PBFNCDEL@?$AAe?$AAs?$AA?9?$AAP?$AAY@ 00444de0     libucrt:lcidtoname_downlevel.obj
 0002:00007dec       ??_C@_1M@EDGINPNP@?$AAa?$AAr?$AA?9?$AAQ?$AAA@ 00444dec     libucrt:lcidtoname_downlevel.obj
 0002:00007df8       ??_C@_1M@MKDBIIJI@?$AAe?$AAs?$AA?9?$AAB?$AAO@ 00444df8     libucrt:lcidtoname_downlevel.obj
 0002:00007e04       ??_C@_1M@CPKKEBLD@?$AAe?$AAs?$AA?9?$AAS?$AAV@ 00444e04     libucrt:lcidtoname_downlevel.obj
 0002:00007e10       ??_C@_1M@NDBGMMJL@?$AAe?$AAs?$AA?9?$AAH?$AAN@ 00444e10     libucrt:lcidtoname_downlevel.obj
 0002:00007e1c       ??_C@_1M@JIJIBHDP@?$AAe?$AAs?$AA?9?$AAN?$AAI@ 00444e1c     libucrt:lcidtoname_downlevel.obj
 0002:00007e28       ??_C@_1M@CGFMKEEK@?$AAe?$AAs?$AA?9?$AAP?$AAR@ 00444e28     libucrt:lcidtoname_downlevel.obj
 0002:00007e34       ??_C@_1O@ICJHKIIK@?$AAz?$AAh?$AA?9?$AAC?$AAH?$AAT@ 00444e34     libucrt:lcidtoname_downlevel.obj
 0002:00007e44       ??_C@_15CLNEJCE@?$AAs?$AAr@ 00444e44     libucrt:lcidtoname_downlevel.obj
 0002:00008570       ??_C@_1M@KAHEKEIG@?$AAa?$AAf?$AA?9?$AAz?$AAa@ 00445570     libucrt:lcidtoname_downlevel.obj
 0002:0000857c       ??_C@_1M@GIECOABL@?$AAa?$AAr?$AA?9?$AAa?$AAe@ 0044557c     libucrt:lcidtoname_downlevel.obj
 0002:00008588       ??_C@_1M@BMLMEKGI@?$AAa?$AAr?$AA?9?$AAb?$AAh@ 00445588     libucrt:lcidtoname_downlevel.obj
 0002:00008594       ??_C@_1M@DAPFDGGB@?$AAa?$AAr?$AA?9?$AAd?$AAz@ 00445594     libucrt:lcidtoname_downlevel.obj
 0002:000085a0       ??_C@_1M@FJNKGKIG@?$AAa?$AAr?$AA?9?$AAe?$AAg@ 004455a0     libucrt:lcidtoname_downlevel.obj
 0002:000085ac       ??_C@_1M@FLGKKCLO@?$AAa?$AAr?$AA?9?$AAi?$AAq@ 004455ac     libucrt:lcidtoname_downlevel.obj
 0002:000085b8       ??_C@_1M@GNDIPALM@?$AAa?$AAr?$AA?9?$AAj?$AAo@ 004455b8     libucrt:lcidtoname_downlevel.obj
 0002:000085c4       ??_C@_1M@DDMJFMGJ@?$AAa?$AAr?$AA?9?$AAk?$AAw@ 004455c4     libucrt:lcidtoname_downlevel.obj
 0002:000085d0       ??_C@_1M@EJALMLHM@?$AAa?$AAr?$AA?9?$AAl?$AAb@ 004455d0     libucrt:lcidtoname_downlevel.obj
 0002:000085dc       ??_C@_1M@MOBDBLOC@?$AAa?$AAr?$AA?9?$AAl?$AAy@ 004455dc     libucrt:lcidtoname_downlevel.obj
 0002:000085e8       ??_C@_1M@JAOCLHDH@?$AAa?$AAr?$AA?9?$AAm?$AAa@ 004455e8     libucrt:lcidtoname_downlevel.obj
 0002:000085f4       ??_C@_1M@JHPMKJIE@?$AAa?$AAr?$AA?9?$AAo?$AAm@ 004455f4     libucrt:lcidtoname_downlevel.obj
 0002:00008600       ??_C@_1M@OEPGHFNH@?$AAa?$AAr?$AA?9?$AAq?$AAa@ 00445600     libucrt:lcidtoname_downlevel.obj
 0002:0000860c       ??_C@_1M@KJDONENM@?$AAa?$AAr?$AA?9?$AAs?$AAa@ 0044560c     libucrt:lcidtoname_downlevel.obj
 0002:00008618       ??_C@_1M@DMJDKLKM@?$AAa?$AAr?$AA?9?$AAs?$AAy@ 00445618     libucrt:lcidtoname_downlevel.obj
 0002:00008624       ??_C@_1M@OMFIPEDC@?$AAa?$AAr?$AA?9?$AAt?$AAn@ 00445624     libucrt:lcidtoname_downlevel.obj
 0002:00008630       ??_C@_1M@IHMHGAON@?$AAa?$AAr?$AA?9?$AAy?$AAe@ 00445630     libucrt:lcidtoname_downlevel.obj
 0002:0000863c       ??_C@_1BG@KDCPGJGB@?$AAa?$AAz?$AA?9?$AAa?$AAz?$AA?9?$AAc?$AAy?$AAr?$AAl@ 0044563c     libucrt:lcidtoname_downlevel.obj
 0002:00008654       ??_C@_1BG@IBCKDDOE@?$AAa?$AAz?$AA?9?$AAa?$AAz?$AA?9?$AAl?$AAa?$AAt?$AAn@ 00445654     libucrt:lcidtoname_downlevel.obj
 0002:0000866c       ??_C@_1M@EGPFDCPD@?$AAb?$AAe?$AA?9?$AAb?$AAy@ 0044566c     libucrt:lcidtoname_downlevel.obj
 0002:00008678       ??_C@_1M@PCMGMCGC@?$AAb?$AAg?$AA?9?$AAb?$AAg@ 00445678     libucrt:lcidtoname_downlevel.obj
 0002:00008684       ??_C@_1M@BJBMFGOB@?$AAb?$AAn?$AA?9?$AAi?$AAn@ 00445684     libucrt:lcidtoname_downlevel.obj
 0002:00008690       ??_C@_1BG@EAKMMACD@?$AAb?$AAs?$AA?9?$AAb?$AAa?$AA?9?$AAl?$AAa?$AAt?$AAn@ 00445690     libucrt:lcidtoname_downlevel.obj
 0002:000086a8       ??_C@_1M@KGADAODK@?$AAc?$AAa?$AA?9?$AAe?$AAs@ 004456a8     libucrt:lcidtoname_downlevel.obj
 0002:000086b4       ??_C@_1M@COAJPDHI@?$AAc?$AAs?$AA?9?$AAc?$AAz@ 004456b4     libucrt:lcidtoname_downlevel.obj
 0002:000086c0       ??_C@_1M@DHBHFONH@?$AAc?$AAy?$AA?9?$AAg?$AAb@ 004456c0     libucrt:lcidtoname_downlevel.obj
 0002:000086cc       ??_C@_1M@IMGKELGA@?$AAd?$AAa?$AA?9?$AAd?$AAk@ 004456cc     libucrt:lcidtoname_downlevel.obj
 0002:000086d8       ??_C@_1M@NNDGDNGA@?$AAd?$AAe?$AA?9?$AAa?$AAt@ 004456d8     libucrt:lcidtoname_downlevel.obj
 0002:000086e4       ??_C@_1M@IKDBHEEM@?$AAd?$AAe?$AA?9?$AAc?$AAh@ 004456e4     libucrt:lcidtoname_downlevel.obj
 0002:000086f0       ??_C@_1M@GFFOJMCJ@?$AAd?$AAe?$AA?9?$AAd?$AAe@ 004456f0     libucrt:lcidtoname_downlevel.obj
 0002:000086fc       ??_C@_1M@MDNLKBPM@?$AAd?$AAe?$AA?9?$AAl?$AAi@ 004456fc     libucrt:lcidtoname_downlevel.obj
 0002:00008708       ??_C@_1M@NJBEEJNL@?$AAd?$AAe?$AA?9?$AAl?$AAu@ 00445708     libucrt:lcidtoname_downlevel.obj
 0002:00008714       ??_C@_1O@GNNELBAP@?$AAd?$AAi?$AAv?$AA?9?$AAm?$AAv@ 00445714     libucrt:lcidtoname_downlevel.obj
 0002:00008724       ??_C@_1M@EJLEOGAE@?$AAe?$AAl?$AA?9?$AAg?$AAr@ 00445724     libucrt:lcidtoname_downlevel.obj
 0002:00008730       ??_C@_1M@GMPONJN@?$AAe?$AAn?$AA?9?$AAa?$AAu@ 00445730     libucrt:lcidtoname_downlevel.obj
 0002:0000873c       ??_C@_1M@NIDIIPGF@?$AAe?$AAn?$AA?9?$AAb?$AAz@ 0044573c     libucrt:lcidtoname_downlevel.obj
 0002:00008748       ??_C@_1M@JEHMIMFO@?$AAe?$AAn?$AA?9?$AAc?$AAa@ 00445748     libucrt:lcidtoname_downlevel.obj
 0002:00008754       ??_C@_1M@IGMJCDLA@?$AAe?$AAn?$AA?9?$AAc?$AAb@ 00445754     libucrt:lcidtoname_downlevel.obj
 0002:00008760       ??_C@_1M@BNFIGBKG@?$AAe?$AAn?$AA?9?$AAg?$AAb@ 00445760     libucrt:lcidtoname_downlevel.obj
 0002:0000876c       ??_C@_1M@LKIFDIGP@?$AAe?$AAn?$AA?9?$AAi?$AAe@ 0044576c     libucrt:lcidtoname_downlevel.obj
 0002:00008778       ??_C@_1M@PJKFGCCO@?$AAe?$AAn?$AA?9?$AAj?$AAm@ 00445778     libucrt:lcidtoname_downlevel.obj
 0002:00008784       ??_C@_1M@KPPKEPBO@?$AAe?$AAn?$AA?9?$AAn?$AAz@ 00445784     libucrt:lcidtoname_downlevel.obj
 0002:00008790       ??_C@_1M@GMDGLDOB@?$AAe?$AAn?$AA?9?$AAp?$AAh@ 00445790     libucrt:lcidtoname_downlevel.obj
 0002:0000879c       ??_C@_1M@ONGIBJNA@?$AAe?$AAn?$AA?9?$AAt?$AAt@ 0044579c     libucrt:lcidtoname_downlevel.obj
 0002:000087a8       ??_C@_1M@LLODPCMM@?$AAe?$AAn?$AA?9?$AAu?$AAs@ 004457a8     libucrt:lcidtoname_downlevel.obj
 0002:000087b4       ??_C@_1M@LAKFNPAN@?$AAe?$AAn?$AA?9?$AAz?$AAa@ 004457b4     libucrt:lcidtoname_downlevel.obj
 0002:000087c0       ??_C@_1M@MFNHNHEO@?$AAe?$AAn?$AA?9?$AAz?$AAw@ 004457c0     libucrt:lcidtoname_downlevel.obj
 0002:000087cc       ??_C@_1M@EJEINPHM@?$AAe?$AAs?$AA?9?$AAa?$AAr@ 004457cc     libucrt:lcidtoname_downlevel.obj
 0002:000087d8       ??_C@_1M@GNKPCCJA@?$AAe?$AAs?$AA?9?$AAb?$AAo@ 004457d8     libucrt:lcidtoname_downlevel.obj
 0002:000087e4       ??_C@_1M@LEEGFONL@?$AAe?$AAs?$AA?9?$AAc?$AAl@ 004457e4     libucrt:lcidtoname_downlevel.obj
 0002:000087f0       ??_C@_1M@KGPDPBDF@?$AAe?$AAs?$AA?9?$AAc?$AAo@ 004457f0     libucrt:lcidtoname_downlevel.obj
 0002:000087fc       ??_C@_1M@EIAHOHH@?$AAe?$AAs?$AA?9?$AAc?$AAr@ 004457fc     libucrt:lcidtoname_downlevel.obj
 0002:00008808       ??_C@_1M@LLPGMBIN@?$AAe?$AAs?$AA?9?$AAd?$AAo@ 00445808     libucrt:lcidtoname_downlevel.obj
 0002:00008814       ??_C@_1M@DKHMKNJA@?$AAe?$AAs?$AA?9?$AAe?$AAc@ 00445814     libucrt:lcidtoname_downlevel.obj
 0002:00008820       ??_C@_1M@GKGFPKAP@?$AAe?$AAs?$AA?9?$AAe?$AAs@ 00445820     libucrt:lcidtoname_downlevel.obj
 0002:0000882c       ??_C@_1M@LKHKGDLN@?$AAe?$AAs?$AA?9?$AAg?$AAt@ 0044582c     libucrt:lcidtoname_downlevel.obj
 0002:00008838       ??_C@_1M@HEIIGGJD@?$AAe?$AAs?$AA?9?$AAh?$AAn@ 00445838     libucrt:lcidtoname_downlevel.obj
 0002:00008844       ??_C@_1M@FBDHPPGD@?$AAe?$AAs?$AA?9?$AAm?$AAx@ 00445844     libucrt:lcidtoname_downlevel.obj
 0002:00008850       ??_C@_1M@DPAGLNDH@?$AAe?$AAs?$AA?9?$AAn?$AAi@ 00445850     libucrt:lcidtoname_downlevel.obj
 0002:0000885c       ??_C@_1M@MDGOPGDD@?$AAe?$AAs?$AA?9?$AAp?$AAa@ 0044585c     libucrt:lcidtoname_downlevel.obj
 0002:00008868       ??_C@_1M@EMAMGBGE@?$AAe?$AAs?$AA?9?$AAp?$AAe@ 00445868     libucrt:lcidtoname_downlevel.obj
 0002:00008874       ??_C@_1M@IBMCAOEC@?$AAe?$AAs?$AA?9?$AAp?$AAr@ 00445874     libucrt:lcidtoname_downlevel.obj
 0002:00008880       ??_C@_1M@FGMDIJED@?$AAe?$AAs?$AA?9?$AAp?$AAy@ 00445880     libucrt:lcidtoname_downlevel.obj
 0002:0000888c       ??_C@_1M@IIDEOLLL@?$AAe?$AAs?$AA?9?$AAs?$AAv@ 0044588c     libucrt:lcidtoname_downlevel.obj
 0002:00008898       ??_C@_1M@GAOBIPA@?$AAe?$AAs?$AA?9?$AAu?$AAy@ 00445898     libucrt:lcidtoname_downlevel.obj
 0002:000088a4       ??_C@_1M@JKFFICHJ@?$AAe?$AAs?$AA?9?$AAv?$AAe@ 004458a4     libucrt:lcidtoname_downlevel.obj
 0002:000088b0       ??_C@_1M@PNMLOJDF@?$AAe?$AAt?$AA?9?$AAe?$AAe@ 004458b0     libucrt:lcidtoname_downlevel.obj
 0002:000088bc       ??_C@_1M@GHHLIKEI@?$AAe?$AAu?$AA?9?$AAe?$AAs@ 004458bc     libucrt:lcidtoname_downlevel.obj
 0002:000088c8       ??_C@_1M@PBNONODE@?$AAf?$AAa?$AA?9?$AAi?$AAr@ 004458c8     libucrt:lcidtoname_downlevel.obj
 0002:000088d4       ??_C@_1M@JEEHPMIL@?$AAf?$AAi?$AA?9?$AAf?$AAi@ 004458d4     libucrt:lcidtoname_downlevel.obj
 0002:000088e0       ??_C@_1M@LMDCNDBA@?$AAf?$AAo?$AA?9?$AAf?$AAo@ 004458e0     libucrt:lcidtoname_downlevel.obj
 0002:000088ec       ??_C@_1M@JKEOHLDK@?$AAf?$AAr?$AA?9?$AAb?$AAe@ 004458ec     libucrt:lcidtoname_downlevel.obj
 0002:000088f8       ??_C@_1M@NOHADPMI@?$AAf?$AAr?$AA?9?$AAc?$AAa@ 004458f8     libucrt:lcidtoname_downlevel.obj
 0002:00008904       ??_C@_1M@KDHIHAEC@?$AAf?$AAr?$AA?9?$AAc?$AAh@ 00445904     libucrt:lcidtoname_downlevel.obj
 0002:00008910       ??_C@_1M@MMBBFGAK@?$AAf?$AAr?$AA?9?$AAf?$AAr@ 00445910     libucrt:lcidtoname_downlevel.obj
 0002:0000891c       ??_C@_1M@PAFNENNF@?$AAf?$AAr?$AA?9?$AAl?$AAu@ 0044591c     libucrt:lcidtoname_downlevel.obj
 0002:00008928       ??_C@_1M@EOHDJGDD@?$AAf?$AAr?$AA?9?$AAm?$AAc@ 00445928     libucrt:lcidtoname_downlevel.obj
 0002:00008934       ??_C@_1M@FAPLLOPF@?$AAg?$AAl?$AA?9?$AAe?$AAs@ 00445934     libucrt:lcidtoname_downlevel.obj
 0002:00008940       ??_C@_1M@FOPBFLOO@?$AAg?$AAu?$AA?9?$AAi?$AAn@ 00445940     libucrt:lcidtoname_downlevel.obj
 0002:0000894c       ??_C@_1M@KBMCINPM@?$AAh?$AAe?$AA?9?$AAi?$AAl@ 0044594c     libucrt:lcidtoname_downlevel.obj
 0002:00008958       ??_C@_1M@BBPHKFPJ@?$AAh?$AAi?$AA?9?$AAi?$AAn@ 00445958     libucrt:lcidtoname_downlevel.obj
 0002:00008964       ??_C@_1M@PMBNDPHD@?$AAh?$AAr?$AA?9?$AAb?$AAa@ 00445964     libucrt:lcidtoname_downlevel.obj
 0002:00008970       ??_C@_1M@BPCKOEGE@?$AAh?$AAr?$AA?9?$AAh?$AAr@ 00445970     libucrt:lcidtoname_downlevel.obj
 0002:0000897c       ??_C@_1M@GACBMHKE@?$AAh?$AAu?$AA?9?$AAh?$AAu@ 0044597c     libucrt:lcidtoname_downlevel.obj
 0002:00008988       ??_C@_1M@MILPAJJC@?$AAh?$AAy?$AA?9?$AAa?$AAm@ 00445988     libucrt:lcidtoname_downlevel.obj
 0002:00008994       ??_C@_1M@BABBICEC@?$AAi?$AAd?$AA?9?$AAi?$AAd@ 00445994     libucrt:lcidtoname_downlevel.obj
 0002:000089a0       ??_C@_1M@BIKNHHPF@?$AAi?$AAs?$AA?9?$AAi?$AAs@ 004459a0     libucrt:lcidtoname_downlevel.obj
 0002:000089ac       ??_C@_1M@NMPCJPHE@?$AAi?$AAt?$AA?9?$AAc?$AAh@ 004459ac     libucrt:lcidtoname_downlevel.obj
 0002:000089b8       ??_C@_1M@GHKGFEDF@?$AAi?$AAt?$AA?9?$AAi?$AAt@ 004459b8     libucrt:lcidtoname_downlevel.obj
 0002:000089c4       ??_C@_1M@NIEJCJJA@?$AAj?$AAa?$AA?9?$AAj?$AAp@ 004459c4     libucrt:lcidtoname_downlevel.obj
 0002:000089d0       ??_C@_1M@JILFNBIM@?$AAk?$AAa?$AA?9?$AAg?$AAe@ 004459d0     libucrt:lcidtoname_downlevel.obj
 0002:000089dc       ??_C@_1M@PACPMGPH@?$AAk?$AAk?$AA?9?$AAk?$AAz@ 004459dc     libucrt:lcidtoname_downlevel.obj
 0002:000089e8       ??_C@_1M@IELFGMHA@?$AAk?$AAn?$AA?9?$AAi?$AAn@ 004459e8     libucrt:lcidtoname_downlevel.obj
 0002:000089f4       ??_C@_1O@IBBJHCH@?$AAk?$AAo?$AAk?$AA?9?$AAi?$AAn@ 004459f4     libucrt:lcidtoname_downlevel.obj
 0002:00008a04       ??_C@_1M@DMHAEOGC@?$AAk?$AAo?$AA?9?$AAk?$AAr@ 00445a04     libucrt:lcidtoname_downlevel.obj
 0002:00008a10       ??_C@_1M@HBAHBIGA@?$AAk?$AAy?$AA?9?$AAk?$AAg@ 00445a10     libucrt:lcidtoname_downlevel.obj
 0002:00008a1c       ??_C@_1M@KPMILCJG@?$AAl?$AAt?$AA?9?$AAl?$AAt@ 00445a1c     libucrt:lcidtoname_downlevel.obj
 0002:00008a28       ??_C@_1M@BDEKKCA@?$AAl?$AAv?$AA?9?$AAl?$AAv@ 00445a28     libucrt:lcidtoname_downlevel.obj
 0002:00008a34       ??_C@_1M@ELCKCCJJ@?$AAm?$AAi?$AA?9?$AAn?$AAz@ 00445a34     libucrt:lcidtoname_downlevel.obj
 0002:00008a40       ??_C@_1M@CBOOLAPA@?$AAm?$AAk?$AA?9?$AAm?$AAk@ 00445a40     libucrt:lcidtoname_downlevel.obj
 0002:00008a4c       ??_C@_1M@GPHNBJKN@?$AAm?$AAl?$AA?9?$AAi?$AAn@ 00445a4c     libucrt:lcidtoname_downlevel.obj
 0002:00008a58       ??_C@_1M@PABJILIG@?$AAm?$AAn?$AA?9?$AAm?$AAn@ 00445a58     libucrt:lcidtoname_downlevel.obj
 0002:00008a64       ??_C@_1M@FGBKKIPG@?$AAm?$AAr?$AA?9?$AAi?$AAn@ 00445a64     libucrt:lcidtoname_downlevel.obj
 0002:00008a70       ??_C@_1M@NDBPDDAL@?$AAm?$AAs?$AA?9?$AAb?$AAn@ 00445a70     libucrt:lcidtoname_downlevel.obj
 0002:00008a7c       ??_C@_1M@OPIHOOPI@?$AAm?$AAs?$AA?9?$AAm?$AAy@ 00445a7c     libucrt:lcidtoname_downlevel.obj
 0002:00008a88       ??_C@_1M@PPDBCNFM@?$AAm?$AAt?$AA?9?$AAm?$AAt@ 00445a88     libucrt:lcidtoname_downlevel.obj
 0002:00008a94       ??_C@_1M@KDJDKMDD@?$AAn?$AAb?$AA?9?$AAn?$AAo@ 00445a94     libucrt:lcidtoname_downlevel.obj
 0002:00008aa0       ??_C@_1M@KFCFLMJP@?$AAn?$AAl?$AA?9?$AAb?$AAe@ 00445aa0     libucrt:lcidtoname_downlevel.obj
 0002:00008aac       ??_C@_1M@KPOPDDGO@?$AAn?$AAl?$AA?9?$AAn?$AAl@ 00445aac     libucrt:lcidtoname_downlevel.obj
 0002:00008ab8       ??_C@_1M@LJKPEMLN@?$AAn?$AAn?$AA?9?$AAn?$AAo@ 00445ab8     libucrt:lcidtoname_downlevel.obj
 0002:00008ac4       ??_C@_1M@BDGHHBFL@?$AAn?$AAs?$AA?9?$AAz?$AAa@ 00445ac4     libucrt:lcidtoname_downlevel.obj
 0002:00008ad0       ??_C@_1M@IDEHOAP@?$AAp?$AAa?$AA?9?$AAi?$AAn@ 00445ad0     libucrt:lcidtoname_downlevel.obj
 0002:00008adc       ??_C@_1M@HDBKGOGH@?$AAp?$AAl?$AA?9?$AAp?$AAl@ 00445adc     libucrt:lcidtoname_downlevel.obj
 0002:00008ae8       ??_C@_1M@LJLLCMEH@?$AAp?$AAt?$AA?9?$AAb?$AAr@ 00445ae8     libucrt:lcidtoname_downlevel.obj
 0002:00008af4       ??_C@_1M@NCMONAAL@?$AAp?$AAt?$AA?9?$AAp?$AAt@ 00445af4     libucrt:lcidtoname_downlevel.obj
 0002:00008b00       ??_C@_1O@EAKMAJDN@?$AAq?$AAu?$AAz?$AA?9?$AAb?$AAo@ 00445b00     libucrt:lcidtoname_downlevel.obj
 0002:00008b10       ??_C@_1O@BHHPIGDN@?$AAq?$AAu?$AAz?$AA?9?$AAe?$AAc@ 00445b10     libucrt:lcidtoname_downlevel.obj
 0002:00008b20       ??_C@_1O@GBAPEKMJ@?$AAq?$AAu?$AAz?$AA?9?$AAp?$AAe@ 00445b20     libucrt:lcidtoname_downlevel.obj
 0002:00008b30       ??_C@_1M@CLGLEFBO@?$AAr?$AAo?$AA?9?$AAr?$AAo@ 00445b30     libucrt:lcidtoname_downlevel.obj
 0002:00008b3c       ??_C@_1M@CEEDODME@?$AAr?$AAu?$AA?9?$AAr?$AAu@ 00445b3c     libucrt:lcidtoname_downlevel.obj
 0002:00008b48       ??_C@_1M@HPKKKMPP@?$AAs?$AAa?$AA?9?$AAi?$AAn@ 00445b48     libucrt:lcidtoname_downlevel.obj
 0002:00008b54       ??_C@_1M@BKMAIGOJ@?$AAs?$AAe?$AA?9?$AAf?$AAi@ 00445b54     libucrt:lcidtoname_downlevel.obj
 0002:00008b60       ??_C@_1M@NDPIFLFI@?$AAs?$AAe?$AA?9?$AAn?$AAo@ 00445b60     libucrt:lcidtoname_downlevel.obj
 0002:00008b6c       ??_C@_1M@DANKKHJ@?$AAs?$AAe?$AA?9?$AAs?$AAe@ 00445b6c     libucrt:lcidtoname_downlevel.obj
 0002:00008b78       ??_C@_1M@PNBLONPJ@?$AAs?$AAk?$AA?9?$AAs?$AAk@ 00445b78     libucrt:lcidtoname_downlevel.obj
 0002:00008b84       ??_C@_1M@LFMODOAL@?$AAs?$AAl?$AA?9?$AAs?$AAi@ 00445b84     libucrt:lcidtoname_downlevel.obj
 0002:00008b90       ??_C@_1O@DFKOMPG@?$AAs?$AAm?$AAa?$AA?9?$AAn?$AAo@ 00445b90     libucrt:lcidtoname_downlevel.obj
 0002:00008ba0       ??_C@_1O@NDKPBNNH@?$AAs?$AAm?$AAa?$AA?9?$AAs?$AAe@ 00445ba0     libucrt:lcidtoname_downlevel.obj
 0002:00008bb0       ??_C@_1O@PLLKBHAB@?$AAs?$AAm?$AAj?$AA?9?$AAn?$AAo@ 00445bb0     libucrt:lcidtoname_downlevel.obj
 0002:00008bc0       ??_C@_1O@CLEPOGCA@?$AAs?$AAm?$AAj?$AA?9?$AAs?$AAe@ 00445bc0     libucrt:lcidtoname_downlevel.obj
 0002:00008bd0       ??_C@_1O@DLGJGKMK@?$AAs?$AAm?$AAn?$AA?9?$AAf?$AAi@ 00445bd0     libucrt:lcidtoname_downlevel.obj
 0002:00008be0       ??_C@_1O@OJDJGAJC@?$AAs?$AAm?$AAs?$AA?9?$AAf?$AAi@ 00445be0     libucrt:lcidtoname_downlevel.obj
 0002:00008bf0       ??_C@_1M@BOFOGHPB@?$AAs?$AAq?$AA?9?$AAa?$AAl@ 00445bf0     libucrt:lcidtoname_downlevel.obj
 0002:00008bfc       ??_C@_1BG@LJBBIPGB@?$AAs?$AAr?$AA?9?$AAb?$AAa?$AA?9?$AAc?$AAy?$AAr?$AAl@ 00445bfc     libucrt:lcidtoname_downlevel.obj
 0002:00008c14       ??_C@_1BG@JLBENFOE@?$AAs?$AAr?$AA?9?$AAb?$AAa?$AA?9?$AAl?$AAa?$AAt?$AAn@ 00445c14     libucrt:lcidtoname_downlevel.obj
 0002:00008c2c       ??_C@_1BG@KODPNHE@?$AAs?$AAr?$AA?9?$AAs?$AAp?$AA?9?$AAc?$AAy?$AAr?$AAl@ 00445c2c     libucrt:lcidtoname_downlevel.obj
 0002:00008c44       ??_C@_1BG@CIOGKHPB@?$AAs?$AAr?$AA?9?$AAs?$AAp?$AA?9?$AAl?$AAa?$AAt?$AAn@ 00445c44     libucrt:lcidtoname_downlevel.obj
 0002:00008c5c       ??_C@_1M@NGFJLMAC@?$AAs?$AAv?$AA?9?$AAf?$AAi@ 00445c5c     libucrt:lcidtoname_downlevel.obj
 0002:00008c68       ??_C@_1M@MPJEJAJC@?$AAs?$AAv?$AA?9?$AAs?$AAe@ 00445c68     libucrt:lcidtoname_downlevel.obj
 0002:00008c74       ??_C@_1M@MPNDHLFK@?$AAs?$AAw?$AA?9?$AAk?$AAe@ 00445c74     libucrt:lcidtoname_downlevel.obj
 0002:00008c80       ??_C@_1O@KOHBJJI@?$AAs?$AAy?$AAr?$AA?9?$AAs?$AAy@ 00445c80     libucrt:lcidtoname_downlevel.obj
 0002:00008c90       ??_C@_1M@LDCEFHA@?$AAt?$AAa?$AA?9?$AAi?$AAn@ 00445c90     libucrt:lcidtoname_downlevel.obj
 0002:00008c9c       ??_C@_1M@CNJOFAK@?$AAt?$AAe?$AA?9?$AAi?$AAn@ 00445c9c     libucrt:lcidtoname_downlevel.obj
 0002:00008ca8       ??_C@_1M@GNAECACD@?$AAt?$AAh?$AA?9?$AAt?$AAh@ 00445ca8     libucrt:lcidtoname_downlevel.obj
 0002:00008cb4       ??_C@_1M@CHBIHOJO@?$AAt?$AAn?$AA?9?$AAz?$AAa@ 00445cb4     libucrt:lcidtoname_downlevel.obj
 0002:00008cc0       ??_C@_1M@GCCMIGPJ@?$AAt?$AAr?$AA?9?$AAt?$AAr@ 00445cc0     libucrt:lcidtoname_downlevel.obj
 0002:00008ccc       ??_C@_1M@CELMCNBK@?$AAt?$AAt?$AA?9?$AAr?$AAu@ 00445ccc     libucrt:lcidtoname_downlevel.obj
 0002:00008cd8       ??_C@_1M@KLMCELGA@?$AAu?$AAk?$AA?9?$AAu?$AAa@ 00445cd8     libucrt:lcidtoname_downlevel.obj
 0002:00008ce4       ??_C@_1M@EPAJJAJF@?$AAu?$AAr?$AA?9?$AAp?$AAk@ 00445ce4     libucrt:lcidtoname_downlevel.obj
 0002:00008cf0       ??_C@_1BG@GEGPMCDJ@?$AAu?$AAz?$AA?9?$AAu?$AAz?$AA?9?$AAc?$AAy?$AAr?$AAl@ 00445cf0     libucrt:lcidtoname_downlevel.obj
 0002:00008d08       ??_C@_1BG@EGGKJILM@?$AAu?$AAz?$AA?9?$AAu?$AAz?$AA?9?$AAl?$AAa?$AAt?$AAn@ 00445d08     libucrt:lcidtoname_downlevel.obj
 0002:00008d20       ??_C@_1M@GFOCLFF@?$AAv?$AAi?$AA?9?$AAv?$AAn@ 00445d20     libucrt:lcidtoname_downlevel.obj
 0002:00008d2c       ??_C@_1M@CPAMEDFI@?$AAx?$AAh?$AA?9?$AAz?$AAa@ 00445d2c     libucrt:lcidtoname_downlevel.obj
 0002:00008d38       ??_C@_1O@EBKIFIGN@?$AAz?$AAh?$AA?9?$AAc?$AAh?$AAs@ 00445d38     libucrt:lcidtoname_downlevel.obj
 0002:00008d48       ??_C@_1O@NMHPGANE@?$AAz?$AAh?$AA?9?$AAc?$AAh?$AAt@ 00445d48     libucrt:lcidtoname_downlevel.obj
 0002:00008d58       ??_C@_1M@LPINJOMC@?$AAz?$AAh?$AA?9?$AAc?$AAn@ 00445d58     libucrt:lcidtoname_downlevel.obj
 0002:00008d64       ??_C@_1M@OCJEJODD@?$AAz?$AAh?$AA?9?$AAh?$AAk@ 00445d64     libucrt:lcidtoname_downlevel.obj
 0002:00008d70       ??_C@_1M@DNDLJINH@?$AAz?$AAh?$AA?9?$AAm?$AAo@ 00445d70     libucrt:lcidtoname_downlevel.obj
 0002:00008d7c       ??_C@_1M@MBFDNDND@?$AAz?$AAh?$AA?9?$AAs?$AAg@ 00445d7c     libucrt:lcidtoname_downlevel.obj
 0002:00008d88       ??_C@_1M@IMEPLEPE@?$AAz?$AAh?$AA?9?$AAt?$AAw@ 00445d88     libucrt:lcidtoname_downlevel.obj
 0002:00008d94       ??_C@_1M@BBGHNHJP@?$AAz?$AAu?$AA?9?$AAz?$AAa@ 00445d94     libucrt:lcidtoname_downlevel.obj
 0002:00008da0       ??_C@_01GBGANLPD@0@        00445da0     libucrt:cfout.obj
 0002:00008da4       ??_C@_05DNEBIAHO@1?$CDINF@ 00445da4     libucrt:cfout.obj
 0002:00008dac       ??_C@_06IMKFLFPG@1?$CDQNAN@ 00445dac     libucrt:cfout.obj
 0002:00008db4       ??_C@_06PGGFOGJG@1?$CDSNAN@ 00445db4     libucrt:cfout.obj
 0002:00008dbc       ??_C@_05PHHOCPM@1?$CDIND@  00445dbc     libucrt:cfout.obj
 0002:00008dc4       __days                     00445dc4     libucrt:days.obj
 0002:00008df8       __lpdays                   00445df8     libucrt:days.obj
 0002:00008e30       ___acrt_pow_rcp_t1         00445e30     libucrt:pow_tables.obj
 0002:00009240       ___acrt_pow_log2_t1        00446240     libucrt:pow_tables.obj
 0002:00009a50       ___acrt_pow_rcp_t2         00446a50     libucrt:pow_tables.obj
 0002:00009e60       ___acrt_pow_log2_t2        00446e60     libucrt:pow_tables.obj
 0002:0000a670       ___acrt_pow_rcp_t3         00447670     libucrt:pow_tables.obj
 0002:0000ae80       ___acrt_pow_log2_t3        00447e80     libucrt:pow_tables.obj
 0002:0000be90       ___acrt_pow_clv            00448e90     libucrt:pow_tables.obj
 0002:0000beb0       ___acrt_pow_exp2_tbl       00448eb0     libucrt:pow_tables.obj
 0002:0000c708       ??_C@_1BA@BALFACEM@?$AAC?$AAO?$AAN?$AAO?$AAU?$AAT?$AA$@ 00449708     libucrt:initcon.obj
 0002:0000c820       ___acrt_log10_table_t      00449820     libucrt:log10_tables.obj
 0002:0000cc30       ___acrt_log10_table_cb     00449c30     libucrt:log10_tables.obj
 0002:0000d050       __xmm@00000000000000000000000000000000 0044a050     libvcruntime:wcschr.obj
 0002:0000d060       __Asan_string_should_annotate 0044a060     libcpmt:asan_noop.obj
 0002:0000d060       __Asan_string_should_annotate_default 0044a060     libcpmt:asan_noop.obj
 0002:0000d061       __Asan_vector_should_annotate_default 0044a061     libcpmt:asan_noop.obj
 0002:0000d064       ??_C@_0BC@EOODALEL@Unknown?5exception@ 0044a064     TServerSystem:TServerSystem.obj
 0002:0000d078       ??_C@_0BF@KINCDENJ@bad?5array?5new?5length@ 0044a078     TServerSystem:TServerSystem.obj
 0002:0000d090       ??_C@_0BA@JFNIOLAK@string?5too?5long@ 0044a090     TServerSystem:TServerSystem.obj
 0002:0000d0a0       ??_C@_02LMMGGCAJ@?3?5@     0044a0a0     TServerSystem:TServerSystem.obj
 0002:0000d0a3       ??_C@_00CNPNBAHC@@         0044a0a3     TServerSystem:TServerSystem.obj
 0002:0000d0a3       ?empty@?1??LoadData@?$CSimpleIniTempl@DU?$SI_NoCase@D@@V?$SI_ConvertA@D@@@@QAE?AW4SI_Error@@PBDI@Z@4DB 0044a0a3     TServerSystem:TServerSystem.obj
 0002:0000d0a4       ??_C@_08LLGCOLLL@iostream@ 0044a0a4     TServerSystem:TServerSystem.obj
 0002:0000d0b0       ??_C@_0BA@ELKIONDK@bad?5locale?5name@ 0044a0b0     TServerSystem:TServerSystem.obj
 0002:0000d0c0       ??_C@_0BF@PHHKMMFD@ios_base?3?3badbit?5set@ 0044a0c0     TServerSystem:TServerSystem.obj
 0002:0000d0d8       ??_C@_0BG@FMKFHCIL@ios_base?3?3failbit?5set@ 0044a0d8     TServerSystem:TServerSystem.obj
 0002:0000d0f0       ??_C@_0BF@OOHOMBOF@ios_base?3?3eofbit?5set@ 0044a0f0     TServerSystem:TServerSystem.obj
 0002:0000d108       ??_C@_0BG@HGEDEDEC@invalid?5stoi?5argument@ 0044a108     TServerSystem:TServerSystem.obj
 0002:0000d120       ??_C@_0BL@MFFNMGGC@stoi?5argument?5out?5of?5range@ 0044a120     TServerSystem:TServerSystem.obj
 0002:0000d13c       ??_C@_0BB@GCADKGJO@map?1set?5too?5long@ 0044a13c     TServerSystem:TServerSystem.obj
 0002:0000d150       ??_C@_07LHPMHBFD@?5Server@ 0044a150     TServerSystem:TServerSystem.obj
 0002:0000d158       ??_C@_07EGIPICEA@Svr?4ini@ 0044a158     TServerSystem:TServerSystem.obj
 0002:0000d160       ??_C@_0BC@FCEOMLFA@?4?2Configurations?2@ 0044a160     TServerSystem:TServerSystem.obj
 0002:0000d174       ??_C@_01OHGJGJJP@?$FL@     0044a174     TServerSystem:TServerSystem.obj
 0002:0000d178       ??_C@_09MADNPIJ@VERSION?3?5@ 0044a178     TServerSystem:TServerSystem.obj
 0002:0000d184       ??_C@_08BAKGBNOL@SERVER?3?5@ 0044a184     TServerSystem:TServerSystem.obj
 0002:0000d190       ??_C@_08OAHPJFNN@?$CFH?3?$CFM?3?$CFS@ 0044a190     TServerSystem:TServerSystem.obj
 0002:0000d19c       ??_C@_04OCBNEAJO@?$FN?5?$DO?5@ 0044a19c     TServerSystem:TServerSystem.obj
 0002:0000d1a4       ??_C@_08FDDDBAGL@Svr?4ini?3@ 0044a1a4     TServerSystem:TServerSystem.obj
 0002:0000d1b0       ??_C@_0BL@JBFNMFAL@Loaded?5configuration?5from?5@ 0044a1b0     TServerSystem:TServerSystem.obj
 0002:0000d1cc       ??_C@_0CL@PCGIJOML@?$CD?$CD?$CD?$CD?$CD?$CD?$CD?$CD?$CD?$CD?$CD?$CD?$CD?$CD?$CD?$CD?$CD?$CD?$CD?$CD?$CD?$CD?$CD?$CD?$CD?$CD?$CD?$CD?$CD?$CD?$CD@ 0044a1cc     TServerSystem:TServerSystem.obj
 0002:0000d1f8       ??_C@_04LOBCHPKL@?$CD?5?$CL?5@ 0044a1f8     TServerSystem:TServerSystem.obj
 0002:0000d200       ??_C@_01CLKCMJKC@?5@       0044a200     TServerSystem:TServerSystem.obj
 0002:0000d204       ??_C@_06LLCHJONG@Config@   0044a204     TServerSystem:TServerSystem.obj
 0002:0000d20c       ??_C@_0BF@BFFFAOPI@Exiting?5application?$CB@ 0044a20c     TServerSystem:TServerSystem.obj
 0002:0000d224       ??_C@_0P@GGCAFAAI@Starting?5up?4?4?4@ 0044a224     TServerSystem:TServerSystem.obj
 0002:0000d234       ??_C@_0P@GHOIKEEP@Starup?5error?3?5@ 0044a234     TServerSystem:TServerSystem.obj
 0002:0000d244       ??_C@_0CA@JCHKBODK@Can?8t?5connect?5to?5the?5database?5?$CB@ 0044a244     TServerSystem:TServerSystem.obj
 0002:0000d264       ??_C@_0CP@MMBNFKDI@1?$CJ?5Check?5ODBC?5x32?5or?5x64?0?5if?5al@ 0044a264     TServerSystem:TServerSystem.obj
 0002:0000d294       ??_C@_0DD@GDPGFAGD@2?$CJ?5Bad?5credentials?5in?5your?5?4ini@ 0044a294     TServerSystem:TServerSystem.obj
 0002:0000d2c8       ??_C@_0CI@CPLGHOJF@3?$CJ?5Check?5if?5you?5SQL?5Server?5is?5r@ 0044a2c8     TServerSystem:TServerSystem.obj
 0002:0000d2f0       ??_C@_0CB@FHJKNCEB@Can?8t?5connect?5to?5TWorld?5server?5@ 0044a2f0     TServerSystem:TServerSystem.obj
 0002:0000d314       ??_C@_0CB@NMFLLJEC@1?$CJ?5Check?5if?5TWorldSvr?5is?5runnin@ 0044a314     TServerSystem:TServerSystem.obj
 0002:0000d338       ??_C@_0CG@LIDEEFFF@2?$CJ?5Check?5your?5?4ini?5configuratio@ 0044a338     TServerSystem:TServerSystem.obj
 0002:0000d360       ??_C@_0BA@DCGJIEJC@Unknown?5error?5?$CB@ 0044a360     TServerSystem:TServerSystem.obj
 0002:0000d370       ??_C@_0BK@LFHKNJDH@Can?8t?5start?5the?5server?4?4?4@ 0044a370     TServerSystem:TServerSystem.obj
 0002:0000d38c       ??_C@_0BJ@DHFDPMIM@invalid?5vector?5subscript@ 0044a38c     TServerSystem:TServerSystem.obj
 0002:0000d3a8       ??_C@_02JDPG@rb@           0044a3a8     TServerSystem:TServerSystem.obj
 0002:0000d3ac       ??_C@_0BA@FOIKENOD@vector?5too?5long@ 0044a3ac     TServerSystem:TServerSystem.obj
 0002:0000d3bc       ??_C@_0O@NKNMEGII@list?5too?5long@ 0044a3bc     TServerSystem:TServerSystem.obj
 0002:0000d3cc       ?_Iostream_error@?4??message@_Iostream_error_category2@std@@UBE?AV?$basic_string@DU?$char_traits@D@std@@V?$allocator@D@2@@3@H@Z@4QBDB 0044a3cc     TServerSystem:TServerSystem.obj
 0002:0000d3e8       ??_7TServerSystem@@6B@     0044a3e8     TServerSystem:TServerSystem.obj
 0002:0000d3f0       ??_8?$basic_ostream@DU?$char_traits@D@std@@@std@@7B@ 0044a3f0     TServerSystem:TServerSystem.obj
 0002:0000d400       __load_config_used         0044a400     LIBCMT:loadcfg.obj
 0002:0000d540       __tls_used                 0044a540     LIBCMT:tlssup.obj
 0002:0000d558       ??_R4CWin32Heap@ATL@@6B@   0044a558     CSHandler.obj
 0002:0000d56c       ??_R3CWin32Heap@ATL@@8     0044a56c     CSHandler.obj
 0002:0000d57c       ??_R2CWin32Heap@ATL@@8     0044a57c     CSHandler.obj
 0002:0000d588       ??_R1A@?0A@EA@CWin32Heap@ATL@@8 0044a588     CSHandler.obj
 0002:0000d5a4       ??_R1A@?0A@EA@IAtlMemMgr@ATL@@8 0044a5a4     CSHandler.obj
 0002:0000d5c0       ??_R3IAtlMemMgr@ATL@@8     0044a5c0     CSHandler.obj
 0002:0000d5d0       ??_R2IAtlMemMgr@ATL@@8     0044a5d0     CSHandler.obj
 0002:0000d5d8       ??_R1A@?0A@EA@IAtlStringMgr@ATL@@8 0044a5d8     CSHandler.obj
 0002:0000d5f4       ??_R3IAtlStringMgr@ATL@@8  0044a5f4     CSHandler.obj
 0002:0000d604       ??_R2IAtlStringMgr@ATL@@8  0044a604     CSHandler.obj
 0002:0000d60c       ??_R4CAtlStringMgr@ATL@@6B@ 0044a60c     CSHandler.obj
 0002:0000d620       ??_R3CAtlStringMgr@ATL@@8  0044a620     CSHandler.obj
 0002:0000d630       ??_R2CAtlStringMgr@ATL@@8  0044a630     CSHandler.obj
 0002:0000d63c       ??_R1A@?0A@EA@CAtlStringMgr@ATL@@8 0044a63c     CSHandler.obj
 0002:0000d658       ??_R4CCSLock@@6B@          0044a658     CSHandler.obj
 0002:0000d66c       ??_R3CCSLock@@8            0044a66c     CSHandler.obj
 0002:0000d67c       ??_R2CCSLock@@8            0044a67c     CSHandler.obj
 0002:0000d684       ??_R1A@?0A@EA@CCSLock@@8   0044a684     CSHandler.obj
 0002:0000d6a0       ??_R4CSPLogin@@6B@         0044a6a0     DBAccess.obj
 0002:0000d6b4       ??_R3CSPLogin@@8           0044a6b4     DBAccess.obj
 0002:0000d6c4       ??_R2CSPLogin@@8           0044a6c4     DBAccess.obj
 0002:0000d6d4       ??_R1A@?0A@EA@CSPLogin@@8  0044a6d4     DBAccess.obj
 0002:0000d6f0       ??_R1A@?0A@EA@CSqlQuery@@8 0044a6f0     DBAccess.obj
 0002:0000d70c       ??_R3CSqlQuery@@8          0044a70c     DBAccess.obj
 0002:0000d71c       ??_R2CSqlQuery@@8          0044a71c     DBAccess.obj
 0002:0000d728       ??_R1A@?0A@EA@CSqlBase@@8  0044a728     DBAccess.obj
 0002:0000d744       ??_R3CSqlBase@@8           0044a744     DBAccess.obj
 0002:0000d754       ??_R2CSqlBase@@8           0044a754     DBAccess.obj
 0002:0000d75c       ??_R4CSPLoginJP@@6B@       0044a75c     DBAccess.obj
 0002:0000d770       ??_R3CSPLoginJP@@8         0044a770     DBAccess.obj
 0002:0000d780       ??_R2CSPLoginJP@@8         0044a780     DBAccess.obj
 0002:0000d790       ??_R1A@?0A@EA@CSPLoginJP@@8 0044a790     DBAccess.obj
 0002:0000d7ac       ??_R4CSPCheckForbiddenHWID@@6B@ 0044a7ac     DBAccess.obj
 0002:0000d7c0       ??_R3CSPCheckForbiddenHWID@@8 0044a7c0     DBAccess.obj
 0002:0000d7d0       ??_R2CSPCheckForbiddenHWID@@8 0044a7d0     DBAccess.obj
 0002:0000d7e0       ??_R1A@?0A@EA@CSPCheckForbiddenHWID@@8 0044a7e0     DBAccess.obj
 0002:0000d7fc       ??_R4CSPCheckIP@@6B@       0044a7fc     DBAccess.obj
 0002:0000d810       ??_R3CSPCheckIP@@8         0044a810     DBAccess.obj
 0002:0000d820       ??_R2CSPCheckIP@@8         0044a820     DBAccess.obj
 0002:0000d830       ??_R1A@?0A@EA@CSPCheckIP@@8 0044a830     DBAccess.obj
 0002:0000d84c       ??_R4CSPLogout@@6B@        0044a84c     DBAccess.obj
 0002:0000d860       ??_R3CSPLogout@@8          0044a860     DBAccess.obj
 0002:0000d870       ??_R2CSPLogout@@8          0044a870     DBAccess.obj
 0002:0000d880       ??_R1A@?0A@EA@CSPLogout@@8 0044a880     DBAccess.obj
 0002:0000d89c       ??_R4CSPCheckPasswd@@6B@   0044a89c     DBAccess.obj
 0002:0000d8b0       ??_R3CSPCheckPasswd@@8     0044a8b0     DBAccess.obj
 0002:0000d8c0       ??_R2CSPCheckPasswd@@8     0044a8c0     DBAccess.obj
 0002:0000d8d0       ??_R1A@?0A@EA@CSPCheckPasswd@@8 0044a8d0     DBAccess.obj
 0002:0000d8ec       ??_R4CSPRoute@@6B@         0044a8ec     DBAccess.obj
 0002:0000d900       ??_R3CSPRoute@@8           0044a900     DBAccess.obj
 0002:0000d910       ??_R2CSPRoute@@8           0044a910     DBAccess.obj
 0002:0000d920       ??_R1A@?0A@EA@CSPRoute@@8  0044a920     DBAccess.obj
 0002:0000d93c       ??_R4CSPVeteran@@6B@       0044a93c     DBAccess.obj
 0002:0000d950       ??_R3CSPVeteran@@8         0044a950     DBAccess.obj
 0002:0000d960       ??_R2CSPVeteran@@8         0044a960     DBAccess.obj
 0002:0000d970       ??_R1A@?0A@EA@CSPVeteran@@8 0044a970     DBAccess.obj
 0002:0000d98c       ??_R4CTBLGroup@@6B@        0044a98c     DBAccess.obj
 0002:0000d9a0       ??_R3CTBLGroup@@8          0044a9a0     DBAccess.obj
 0002:0000d9b0       ??_R2CTBLGroup@@8          0044a9b0     DBAccess.obj
 0002:0000d9c0       ??_R1A@?0A@EA@CTBLGroup@@8 0044a9c0     DBAccess.obj
 0002:0000d9dc       ??_R4CTBLVeteranChart@@6B@ 0044a9dc     DBAccess.obj
 0002:0000d9f0       ??_R3CTBLVeteranChart@@8   0044a9f0     DBAccess.obj
 0002:0000da00       ??_R2CTBLVeteranChart@@8   0044aa00     DBAccess.obj
 0002:0000da10       ??_R1A@?0A@EA@CTBLVeteranChart@@8 0044aa10     DBAccess.obj
 0002:0000da2c       ??_R4CTBLChannel@@6B@      0044aa2c     DBAccess.obj
 0002:0000da40       ??_R3CTBLChannel@@8        0044aa40     DBAccess.obj
 0002:0000da50       ??_R2CTBLChannel@@8        0044aa50     DBAccess.obj
 0002:0000da60       ??_R1A@?0A@EA@CTBLChannel@@8 0044aa60     DBAccess.obj
 0002:0000da7c       ??_R4CTBLGroupList@@6B@    0044aa7c     DBAccess.obj
 0002:0000da90       ??_R3CTBLGroupList@@8      0044aa90     DBAccess.obj
 0002:0000daa0       ??_R2CTBLGroupList@@8      0044aaa0     DBAccess.obj
 0002:0000dab0       ??_R1A@?0A@EA@CTBLGroupList@@8 0044aab0     DBAccess.obj
 0002:0000dacc       ??_R4CTBLUserCount@@6B@    0044aacc     DBAccess.obj
 0002:0000dae0       ??_R3CTBLUserCount@@8      0044aae0     DBAccess.obj
 0002:0000daf0       ??_R2CTBLUserCount@@8      0044aaf0     DBAccess.obj
 0002:0000db00       ??_R1A@?0A@EA@CTBLUserCount@@8 0044ab00     DBAccess.obj
 0002:0000db1c       ??_R4CSPTestLogin@@6B@     0044ab1c     DBAccess.obj
 0002:0000db30       ??_R3CSPTestLogin@@8       0044ab30     DBAccess.obj
 0002:0000db40       ??_R2CSPTestLogin@@8       0044ab40     DBAccess.obj
 0002:0000db50       ??_R1A@?0A@EA@CSPTestLogin@@8 0044ab50     DBAccess.obj
 0002:0000db6c       ??_R4CSPCreateChar@@6B@    0044ab6c     DBAccess.obj
 0002:0000db80       ??_R3CSPCreateChar@@8      0044ab80     DBAccess.obj
 0002:0000db90       ??_R2CSPCreateChar@@8      0044ab90     DBAccess.obj
 0002:0000dba0       ??_R1A@?0A@EA@CSPCreateChar@@8 0044aba0     DBAccess.obj
 0002:0000dbbc       ??_R4CSPDeleteChar@@6B@    0044abbc     DBAccess.obj
 0002:0000dbd0       ??_R3CSPDeleteChar@@8      0044abd0     DBAccess.obj
 0002:0000dbe0       ??_R2CSPDeleteChar@@8      0044abe0     DBAccess.obj
 0002:0000dbf0       ??_R1A@?0A@EA@CSPDeleteChar@@8 0044abf0     DBAccess.obj
 0002:0000dc0c       ??_R4CSPFindServerID@@6B@  0044ac0c     DBAccess.obj
 0002:0000dc20       ??_R3CSPFindServerID@@8    0044ac20     DBAccess.obj
 0002:0000dc30       ??_R2CSPFindServerID@@8    0044ac30     DBAccess.obj
 0002:0000dc40       ??_R1A@?0A@EA@CSPFindServerID@@8 0044ac40     DBAccess.obj
 0002:0000dc5c       ??_R4CSPAddNewMACAddress@@6B@ 0044ac5c     DBAccess.obj
 0002:0000dc70       ??_R3CSPAddNewMACAddress@@8 0044ac70     DBAccess.obj
 0002:0000dc80       ??_R2CSPAddNewMACAddress@@8 0044ac80     DBAccess.obj
 0002:0000dc90       ??_R1A@?0A@EA@CSPAddNewMACAddress@@8 0044ac90     DBAccess.obj
 0002:0000dcac       ??_R4CSPGetClientSha@@6B@  0044acac     DBAccess.obj
 0002:0000dcc0       ??_R3CSPGetClientSha@@8    0044acc0     DBAccess.obj
 0002:0000dcd0       ??_R2CSPGetClientSha@@8    0044acd0     DBAccess.obj
 0002:0000dce0       ??_R1A@?0A@EA@CSPGetClientSha@@8 0044ace0     DBAccess.obj
 0002:0000dcfc       ??_R4CTBLChar@@6B@         0044acfc     DBAccess.obj
 0002:0000dd10       ??_R3CTBLChar@@8           0044ad10     DBAccess.obj
 0002:0000dd20       ??_R2CTBLChar@@8           0044ad20     DBAccess.obj
 0002:0000dd30       ??_R1A@?0A@EA@CTBLChar@@8  0044ad30     DBAccess.obj
 0002:0000dd4c       ??_R4CTBLItem@@6B@         0044ad4c     DBAccess.obj
 0002:0000dd60       ??_R3CTBLItem@@8           0044ad60     DBAccess.obj
 0002:0000dd70       ??_R2CTBLItem@@8           0044ad70     DBAccess.obj
 0002:0000dd80       ??_R1A@?0A@EA@CTBLItem@@8  0044ad80     DBAccess.obj
 0002:0000dd9c       ??_R4CSPLoadService@@6B@   0044ad9c     DBAccess.obj
 0002:0000ddb0       ??_R3CSPLoadService@@8     0044adb0     DBAccess.obj
 0002:0000ddc0       ??_R2CSPLoadService@@8     0044adc0     DBAccess.obj
 0002:0000ddd0       ??_R1A@?0A@EA@CSPLoadService@@8 0044add0     DBAccess.obj
 0002:0000ddec       ??_R4CSPAgreement@@6B@     0044adec     DBAccess.obj
 0002:0000de00       ??_R3CSPAgreement@@8       0044ae00     DBAccess.obj
 0002:0000de10       ??_R2CSPAgreement@@8       0044ae10     DBAccess.obj
 0002:0000de20       ??_R1A@?0A@EA@CSPAgreement@@8 0044ae20     DBAccess.obj
 0002:0000de3c       ??_R4CSPFindBOWPlayer@@6B@ 0044ae3c     DBAccess.obj
 0002:0000de50       ??_R3CSPFindBOWPlayer@@8   0044ae50     DBAccess.obj
 0002:0000de60       ??_R2CSPFindBOWPlayer@@8   0044ae60     DBAccess.obj
 0002:0000de70       ??_R1A@?0A@EA@CSPFindBOWPlayer@@8 0044ae70     DBAccess.obj
 0002:0000de8c       ??_R4CSPFindBRPlayer@@6B@  0044ae8c     DBAccess.obj
 0002:0000dea0       ??_R3CSPFindBRPlayer@@8    0044aea0     DBAccess.obj
 0002:0000deb0       ??_R2CSPFindBRPlayer@@8    0044aeb0     DBAccess.obj
 0002:0000dec0       ??_R1A@?0A@EA@CSPFindBRPlayer@@8 0044aec0     DBAccess.obj
 0002:0000dedc       ??_R4CSPClearLoginUser@@6B@ 0044aedc     DBAccess.obj
 0002:0000def0       ??_R3CSPClearLoginUser@@8  0044aef0     DBAccess.obj
 0002:0000df00       ??_R2CSPClearLoginUser@@8  0044af00     DBAccess.obj
 0002:0000df10       ??_R1A@?0A@EA@CSPClearLoginUser@@8 0044af10     DBAccess.obj
 0002:0000df2c       ??_R4CSPGetNation@@6B@     0044af2c     DBAccess.obj
 0002:0000df40       ??_R3CSPGetNation@@8       0044af40     DBAccess.obj
 0002:0000df50       ??_R2CSPGetNation@@8       0044af50     DBAccess.obj
 0002:0000df60       ??_R1A@?0A@EA@CSPGetNation@@8 0044af60     DBAccess.obj
 0002:0000df7c       ??_R4CSPGetGuildInfo@@6B@  0044af7c     DBAccess.obj
 0002:0000df90       ??_R3CSPGetGuildInfo@@8    0044af90     DBAccess.obj
 0002:0000dfa0       ??_R2CSPGetGuildInfo@@8    0044afa0     DBAccess.obj
 0002:0000dfb0       ??_R1A@?0A@EA@CSPGetGuildInfo@@8 0044afb0     DBAccess.obj
 0002:0000dfcc       ??_R4CSPGetBanReason@@6B@  0044afcc     DBAccess.obj
 0002:0000dfe0       ??_R3CSPGetBanReason@@8    0044afe0     DBAccess.obj
 0002:0000dff0       ??_R2CSPGetBanReason@@8    0044aff0     DBAccess.obj
 0002:0000e000       ??_R1A@?0A@EA@CSPGetBanReason@@8 0044b000     DBAccess.obj
 0002:0000e01c       ??_R4?$basic_istream@DU?$char_traits@D@std@@@std@@6B@ 0044b01c     mailer.obj
 0002:0000e030       ??_R3?$basic_istream@DU?$char_traits@D@std@@@std@@8 0044b030     mailer.obj
 0002:0000e040       ??_R2?$basic_istream@DU?$char_traits@D@std@@@std@@8 0044b040     mailer.obj
 0002:0000e054       ??_R1A@?0A@EA@?$basic_istream@DU?$char_traits@D@std@@@std@@8 0044b054     mailer.obj
 0002:0000e070       ??_R4CTLoginSession@@6B@   0044b070     TLoginSession.obj
 0002:0000e084       ??_R3CTLoginSession@@8     0044b084     TLoginSession.obj
 0002:0000e094       ??_R2CTLoginSession@@8     0044b094     TLoginSession.obj
 0002:0000e0a0       ??_R1A@?0A@EA@CTLoginSession@@8 0044b0a0     TLoginSession.obj
 0002:0000e0bc       ??_R1A@?0A@EA@CSession@@8  0044b0bc     TLoginSession.obj
 0002:0000e0d8       ??_R3CSession@@8           0044b0d8     TLoginSession.obj
 0002:0000e0e8       ??_R2CSession@@8           0044b0e8     TLoginSession.obj
 0002:0000e0f0       ??_R3CAtlModule@ATL@@8     0044b0f0     TLoginSvr.obj
 0002:0000e100       ??_R2CAtlModule@ATL@@8     0044b100     TLoginSvr.obj
 0002:0000e10c       ??_R1A@?0A@EA@CAtlModule@ATL@@8 0044b10c     TLoginSvr.obj
 0002:0000e128       ??_R13?0A@EA@_ATL_MODULE70@ATL@@8 0044b128     TLoginSvr.obj
 0002:0000e144       ??_R3_ATL_MODULE70@ATL@@8  0044b144     TLoginSvr.obj
 0002:0000e154       ??_R2_ATL_MODULE70@ATL@@8  0044b154     TLoginSvr.obj
 0002:0000e15c       ??_R1A@?0A@EA@_ATL_MODULE70@ATL@@8 0044b15c     TLoginSvr.obj
 0002:0000e178       ??_R4CTLoginSvrModule@@6B?$CAtlServiceModuleT@VCTLoginSvrModule@@$0GE@@ATL@@@ 0044b178     TLoginSvr.obj
 0002:0000e18c       ??_R3CTLoginSvrModule@@8   0044b18c     TLoginSvr.obj
 0002:0000e19c       ??_R2CTLoginSvrModule@@8   0044b19c     TLoginSvr.obj
 0002:0000e1c0       ??_R1A@?0A@EA@CTLoginSvrModule@@8 0044b1c0     TLoginSvr.obj
 0002:0000e1dc       ??_R1A@?0A@EA@?$CAtlServiceModuleT@VCTLoginSvrModule@@$0GE@@ATL@@8 0044b1dc     TLoginSvr.obj
 0002:0000e1f8       ??_R3?$CAtlServiceModuleT@VCTLoginSvrModule@@$0GE@@ATL@@8 0044b1f8     TLoginSvr.obj
 0002:0000e208       ??_R2?$CAtlServiceModuleT@VCTLoginSvrModule@@$0GE@@ATL@@8 0044b208     TLoginSvr.obj
 0002:0000e224       ??_R1A@?0A@EA@?$CAtlExeModuleT@VCTLoginSvrModule@@@ATL@@8 0044b224     TLoginSvr.obj
 0002:0000e240       ??_R3?$CAtlExeModuleT@VCTLoginSvrModule@@@ATL@@8 0044b240     TLoginSvr.obj
 0002:0000e250       ??_R2?$CAtlExeModuleT@VCTLoginSvrModule@@@ATL@@8 0044b250     TLoginSvr.obj
 0002:0000e268       ??_R1A@?0A@EA@?$CAtlModuleT@VCTLoginSvrModule@@@ATL@@8 0044b268     TLoginSvr.obj
 0002:0000e284       ??_R3?$CAtlModuleT@VCTLoginSvrModule@@@ATL@@8 0044b284     TLoginSvr.obj
 0002:0000e294       ??_R2?$CAtlModuleT@VCTLoginSvrModule@@@ATL@@8 0044b294     TLoginSvr.obj
 0002:0000e2a4       ??_R1CM@?0A@EN@?$CAtlValidateModuleConfiguration@$0A@VCTLoginSvrModule@@@ATL@@8 0044b2a4     TLoginSvr.obj
 0002:0000e2c0       ??_R3?$CAtlValidateModuleConfiguration@$0A@VCTLoginSvrModule@@@ATL@@8 0044b2c0     TLoginSvr.obj
 0002:0000e2d0       ??_R2?$CAtlValidateModuleConfiguration@$0A@VCTLoginSvrModule@@@ATL@@8 0044b2d0     TLoginSvr.obj
 0002:0000e2d8       ??_R1A@?0A@EA@?$CAtlValidateModuleConfiguration@$0A@VCTLoginSvrModule@@@ATL@@8 0044b2d8     TLoginSvr.obj
 0002:0000e2f4       ??_R1BFE@?0A@EA@TServerSystem@@8 0044b2f4     TLoginSvr.obj
 0002:0000e310       ??_R4CTLoginSvrModule@@6BTServerSystem@@@ 0044b310     TLoginSvr.obj
 0002:0000e324       ??_R4CTUser@@6B@           0044b324     TUser.obj
 0002:0000e338       ??_R3CTUser@@8             0044b338     TUser.obj
 0002:0000e348       ??_R2CTUser@@8             0044b348     TUser.obj
 0002:0000e358       ??_R1A@?0A@EA@CTUser@@8    0044b358     TUser.obj
 0002:0000e374       ??_R4CSqlDatabase@@6B@     0044b374     TNetLib:SqlDatabase.obj
 0002:0000e388       ??_R3CSqlDatabase@@8       0044b388     TNetLib:SqlDatabase.obj
 0002:0000e398       ??_R2CSqlDatabase@@8       0044b398     TNetLib:SqlDatabase.obj
 0002:0000e3a0       ??_R1A@?0A@EA@CSqlDatabase@@8 0044b3a0     TNetLib:SqlDatabase.obj
 0002:0000e3bc       ??_R4CSqlBase@@6B@         0044b3bc     TNetLib:SqlBase.obj
 0002:0000e3d0       ??_R4COverlappedEx@@6B@    0044b3d0     TNetLib:Packet.obj
 0002:0000e3e4       ??_R3COverlappedEx@@8      0044b3e4     TNetLib:Packet.obj
 0002:0000e3f4       ??_R2COverlappedEx@@8      0044b3f4     TNetLib:Packet.obj
 0002:0000e3fc       ??_R1A@?0A@EA@COverlappedEx@@8 0044b3fc     TNetLib:Packet.obj
 0002:0000e418       ??_R4CPacket@@6B@          0044b418     TNetLib:Packet.obj
 0002:0000e42c       ??_R3CPacket@@8            0044b42c     TNetLib:Packet.obj
 0002:0000e43c       ??_R2CPacket@@8            0044b43c     TNetLib:Packet.obj
 0002:0000e444       ??_R1A@?0A@EA@CPacket@@8   0044b444     TNetLib:Packet.obj
 0002:0000e460       ??_R4CSqlQuery@@6B@        0044b460     TNetLib:SqlQuery.obj
 0002:0000e474       ??_R4CSession@@6B@         0044b474     TNetLib:Session.obj
 0002:0000e488       ??_R4logic_error@std@@6B@  0044b488     libcpmt:xthrow.obj
 0002:0000e49c       ??_R3logic_error@std@@8    0044b49c     libcpmt:xthrow.obj
 0002:0000e4ac       ??_R2logic_error@std@@8    0044b4ac     libcpmt:xthrow.obj
 0002:0000e4b8       ??_R1A@?0A@EA@logic_error@std@@8 0044b4b8     libcpmt:xthrow.obj
 0002:0000e4d4       ??_R4invalid_argument@std@@6B@ 0044b4d4     libcpmt:xthrow.obj
 0002:0000e4e8       ??_R3invalid_argument@std@@8 0044b4e8     libcpmt:xthrow.obj
 0002:0000e4f8       ??_R2invalid_argument@std@@8 0044b4f8     libcpmt:xthrow.obj
 0002:0000e508       ??_R1A@?0A@EA@invalid_argument@std@@8 0044b508     libcpmt:xthrow.obj
 0002:0000e524       ??_R4length_error@std@@6B@ 0044b524     libcpmt:xthrow.obj
 0002:0000e538       ??_R3length_error@std@@8   0044b538     libcpmt:xthrow.obj
 0002:0000e548       ??_R2length_error@std@@8   0044b548     libcpmt:xthrow.obj
 0002:0000e558       ??_R1A@?0A@EA@length_error@std@@8 0044b558     libcpmt:xthrow.obj
 0002:0000e574       ??_R4out_of_range@std@@6B@ 0044b574     libcpmt:xthrow.obj
 0002:0000e588       ??_R3out_of_range@std@@8   0044b588     libcpmt:xthrow.obj
 0002:0000e598       ??_R2out_of_range@std@@8   0044b598     libcpmt:xthrow.obj
 0002:0000e5a8       ??_R1A@?0A@EA@out_of_range@std@@8 0044b5a8     libcpmt:xthrow.obj
 0002:0000e5c4       ??_R4_Locimp@locale@std@@6B@ 0044b5c4     libcpmt:locale0.obj
 0002:0000e5d8       ??_R3_Locimp@locale@std@@8 0044b5d8     libcpmt:locale0.obj
 0002:0000e5e8       ??_R2_Locimp@locale@std@@8 0044b5e8     libcpmt:locale0.obj
 0002:0000e5fc       ??_R1A@?0A@EA@_Locimp@locale@std@@8 0044b5fc     libcpmt:locale0.obj
 0002:0000e618       ??_R4type_info@@6B@        0044b618     LIBCMT:std_type_info_static.obj
 0002:0000e62c       ??_R3type_info@@8          0044b62c     LIBCMT:std_type_info_static.obj
 0002:0000e63c       ??_R2type_info@@8          0044b63c     LIBCMT:std_type_info_static.obj
 0002:0000e644       ??_R1A@?0A@EA@type_info@@8 0044b644     LIBCMT:std_type_info_static.obj
 0002:0000e660       ??_R4bad_exception@std@@6B@ 0044b660     libvcruntime:frame.obj
 0002:0000e674       ??_R3bad_exception@std@@8  0044b674     libvcruntime:frame.obj
 0002:0000e684       ??_R2bad_exception@std@@8  0044b684     libvcruntime:frame.obj
 0002:0000e690       ??_R1A@?0A@EA@bad_exception@std@@8 0044b690     libvcruntime:frame.obj
 0002:0000e6ac       ??_R4exception@std@@6B@    0044b6ac     TServerSystem:TServerSystem.obj
 0002:0000e6c0       ??_R2bad_array_new_length@std@@8 0044b6c0     TServerSystem:TServerSystem.obj
 0002:0000e6d0       ??_R2system_error@std@@8   0044b6d0     TServerSystem:TServerSystem.obj
 0002:0000e6e4       ??_R1A@?0A@EA@system_error@std@@8 0044b6e4     TServerSystem:TServerSystem.obj
 0002:0000e700       ??_R4?$basic_ostream@DU?$char_traits@D@std@@@std@@6B@ 0044b700     TServerSystem:TServerSystem.obj
 0002:0000e714       ??_R3?$ctype@D@std@@8      0044b714     TServerSystem:TServerSystem.obj
 0002:0000e724       ??_R3TServerSystem@@8      0044b724     TServerSystem:TServerSystem.obj
 0002:0000e734       ??_R4runtime_error@std@@6B@ 0044b734     TServerSystem:TServerSystem.obj
 0002:0000e748       ??_R4_System_error@std@@6B@ 0044b748     TServerSystem:TServerSystem.obj
 0002:0000e75c       ??_R3_Facet_base@std@@8    0044b75c     TServerSystem:TServerSystem.obj
 0002:0000e76c       ??_R2bad_alloc@std@@8      0044b76c     TServerSystem:TServerSystem.obj
 0002:0000e778       ??_R3_Crt_new_delete@std@@8 0044b778     TServerSystem:TServerSystem.obj
 0002:0000e788       ??_R1A@?0A@EA@runtime_error@std@@8 0044b788     TServerSystem:TServerSystem.obj
 0002:0000e7a4       ??_R2_System_error@std@@8  0044b7a4     TServerSystem:TServerSystem.obj
 0002:0000e7b4       ??_R2?$codecvt@DDU_Mbstatet@@@std@@8 0044b7b4     TServerSystem:TServerSystem.obj
 0002:0000e7cc       ??_R13?0A@EA@_Crt_new_delete@std@@8 0044b7cc     TServerSystem:TServerSystem.obj
 0002:0000e7e8       ??_R2TServerSystem@@8      0044b7e8     TServerSystem:TServerSystem.obj
 0002:0000e7f0       ??_R17A@3EA@?$_Iosb@H@std@@8 0044b7f0     TServerSystem:TServerSystem.obj
 0002:0000e80c       ??_R1A@?0A@EA@exception@std@@8 0044b80c     TServerSystem:TServerSystem.obj
 0002:0000e828       ??_R4ios_base@std@@6B@     0044b828     TServerSystem:TServerSystem.obj
 0002:0000e83c       ??_R4system_error@std@@6B@ 0044b83c     TServerSystem:TServerSystem.obj
 0002:0000e850       ??_R1A@?0A@EA@?$basic_streambuf@DU?$char_traits@D@std@@@std@@8 0044b850     TServerSystem:TServerSystem.obj
 0002:0000e86c       ??_R1A@?0A@EA@_Facet_base@std@@8 0044b86c     TServerSystem:TServerSystem.obj
 0002:0000e888       ??_R1A@?0A@EA@bad_alloc@std@@8 0044b888     TServerSystem:TServerSystem.obj
 0002:0000e8a4       ??_R3_System_error@std@@8  0044b8a4     TServerSystem:TServerSystem.obj
 0002:0000e8b4       ??_R4?$basic_ios@DU?$char_traits@D@std@@@std@@6B@ 0044b8b4     TServerSystem:TServerSystem.obj
 0002:0000e8c8       ??_R2exception@std@@8      0044b8c8     TServerSystem:TServerSystem.obj
 0002:0000e8d0       ??_R4failure@ios_base@std@@6B@ 0044b8d0     TServerSystem:TServerSystem.obj
 0002:0000e8e4       ??_R2?$basic_ostream@DU?$char_traits@D@std@@@std@@8 0044b8e4     TServerSystem:TServerSystem.obj
 0002:0000e8f8       ??_R3?$basic_ios@DU?$char_traits@D@std@@@std@@8 0044b8f8     TServerSystem:TServerSystem.obj
 0002:0000e908       ??_R4_Iostream_error_category2@std@@6B@ 0044b908     TServerSystem:TServerSystem.obj
 0002:0000e91c       ??_R2error_category@std@@8 0044b91c     TServerSystem:TServerSystem.obj
 0002:0000e924       ??_R1A@?0A@EA@_Iostream_error_category2@std@@8 0044b924     TServerSystem:TServerSystem.obj
 0002:0000e940       ??_R1A@?0A@EA@facet@locale@std@@8 0044b940     TServerSystem:TServerSystem.obj
 0002:0000e95c       ??_R2failure@ios_base@std@@8 0044b95c     TServerSystem:TServerSystem.obj
 0002:0000e974       ??_R3failure@ios_base@std@@8 0044b974     TServerSystem:TServerSystem.obj
 0002:0000e984       ??_R4TServerSystem@@6B@    0044b984     TServerSystem:TServerSystem.obj
 0002:0000e998       ??_R2codecvt_base@std@@8   0044b998     TServerSystem:TServerSystem.obj
 0002:0000e9ac       ??_R2?$ctype@D@std@@8      0044b9ac     TServerSystem:TServerSystem.obj
 0002:0000e9c4       ??_R1A@?0A@EA@codecvt_base@std@@8 0044b9c4     TServerSystem:TServerSystem.obj
 0002:0000e9e0       ??_R1A@?0A@EA@ios_base@std@@8 0044b9e0     TServerSystem:TServerSystem.obj
 0002:0000e9fc       ??_R3exception@std@@8      0044b9fc     TServerSystem:TServerSystem.obj
 0002:0000ea0c       ??_R1A@?0A@EA@?$basic_ostream@DU?$char_traits@D@std@@@std@@8 0044ba0c     TServerSystem:TServerSystem.obj
 0002:0000ea28       ??_R3codecvt_base@std@@8   0044ba28     TServerSystem:TServerSystem.obj
 0002:0000ea38       ??_R4?$basic_filebuf@DU?$char_traits@D@std@@@std@@6B@ 0044ba38     TServerSystem:TServerSystem.obj
 0002:0000ea4c       ??_R1A@?0A@EA@TServerSystem@@8 0044ba4c     TServerSystem:TServerSystem.obj
 0002:0000ea68       ??_R1A@?0A@EA@failure@ios_base@std@@8 0044ba68     TServerSystem:TServerSystem.obj
 0002:0000ea84       ??_R2?$basic_streambuf@DU?$char_traits@D@std@@@std@@8 0044ba84     TServerSystem:TServerSystem.obj
 0002:0000ea8c       ??_R1A@?0A@EA@?$_Iosb@H@std@@8 0044ba8c     TServerSystem:TServerSystem.obj
 0002:0000eaa8       ??_R3facet@locale@std@@8   0044baa8     TServerSystem:TServerSystem.obj
 0002:0000eab8       ??_R3ctype_base@std@@8     0044bab8     TServerSystem:TServerSystem.obj
 0002:0000eac8       ??_R1A@?0A@EA@_System_error@std@@8 0044bac8     TServerSystem:TServerSystem.obj
 0002:0000eae4       ??_R3error_category@std@@8 0044bae4     TServerSystem:TServerSystem.obj
 0002:0000eaf4       ??_R4bad_alloc@std@@6B@    0044baf4     TServerSystem:TServerSystem.obj
 0002:0000eb08       ??_R1A@?0A@EA@_Crt_new_delete@std@@8 0044bb08     TServerSystem:TServerSystem.obj
 0002:0000eb24       ??_R3bad_array_new_length@std@@8 0044bb24     TServerSystem:TServerSystem.obj
 0002:0000eb34       ??_R3?$codecvt@DDU_Mbstatet@@@std@@8 0044bb34     TServerSystem:TServerSystem.obj
 0002:0000eb44       ??_R3bad_alloc@std@@8      0044bb44     TServerSystem:TServerSystem.obj
 0002:0000eb54       ??_R4_Facet_base@std@@6B@  0044bb54     TServerSystem:TServerSystem.obj
 0002:0000eb68       ??_R1A@?0A@EA@?$basic_filebuf@DU?$char_traits@D@std@@@std@@8 0044bb68     TServerSystem:TServerSystem.obj
 0002:0000eb84       ??_R3_Iostream_error_category2@std@@8 0044bb84     TServerSystem:TServerSystem.obj
 0002:0000eb94       ??_R2runtime_error@std@@8  0044bb94     TServerSystem:TServerSystem.obj
 0002:0000eba0       ??_R1A@A@3FA@?$basic_ios@DU?$char_traits@D@std@@@std@@8 0044bba0     TServerSystem:TServerSystem.obj
 0002:0000ebbc       ??_R4bad_array_new_length@std@@6B@ 0044bbbc     TServerSystem:TServerSystem.obj
 0002:0000ebd0       ??_R3?$basic_filebuf@DU?$char_traits@D@std@@@std@@8 0044bbd0     TServerSystem:TServerSystem.obj
 0002:0000ebe0       ??_R4?$basic_streambuf@DU?$char_traits@D@std@@@std@@6B@ 0044bbe0     TServerSystem:TServerSystem.obj
 0002:0000ebf4       ??_R2ios_base@std@@8       0044bbf4     TServerSystem:TServerSystem.obj
 0002:0000ec00       ??_R4?$codecvt@DDU_Mbstatet@@@std@@6B@ 0044bc00     TServerSystem:TServerSystem.obj
 0002:0000ec14       ??_R3?$basic_ostream@DU?$char_traits@D@std@@@std@@8 0044bc14     TServerSystem:TServerSystem.obj
 0002:0000ec24       ??_R1A@?0A@EA@ctype_base@std@@8 0044bc24     TServerSystem:TServerSystem.obj
 0002:0000ec40       ??_R2_Iostream_error_category2@std@@8 0044bc40     TServerSystem:TServerSystem.obj
 0002:0000ec4c       ??_R2_Crt_new_delete@std@@8 0044bc4c     TServerSystem:TServerSystem.obj
 0002:0000ec54       ??_R1A@?0A@EA@?$ctype@D@std@@8 0044bc54     TServerSystem:TServerSystem.obj
 0002:0000ec70       ??_R3ios_base@std@@8       0044bc70     TServerSystem:TServerSystem.obj
 0002:0000ec80       ??_R2?$basic_filebuf@DU?$char_traits@D@std@@@std@@8 0044bc80     TServerSystem:TServerSystem.obj
 0002:0000ec8c       ??_R3?$basic_streambuf@DU?$char_traits@D@std@@@std@@8 0044bc8c     TServerSystem:TServerSystem.obj
 0002:0000ec9c       ??_R1A@?0A@EA@bad_array_new_length@std@@8 0044bc9c     TServerSystem:TServerSystem.obj
 0002:0000ecb8       ??_R2?$_Iosb@H@std@@8      0044bcb8     TServerSystem:TServerSystem.obj
 0002:0000ecc0       ??_R3system_error@std@@8   0044bcc0     TServerSystem:TServerSystem.obj
 0002:0000ecd0       ??_R1A@A@3EA@ios_base@std@@8 0044bcd0     TServerSystem:TServerSystem.obj
 0002:0000ecec       ??_R1A@?0A@EA@?$basic_ios@DU?$char_traits@D@std@@@std@@8 0044bcec     TServerSystem:TServerSystem.obj
 0002:0000ed08       ??_R3?$_Iosb@H@std@@8      0044bd08     TServerSystem:TServerSystem.obj
 0002:0000ed18       ??_R2_Facet_base@std@@8    0044bd18     TServerSystem:TServerSystem.obj
 0002:0000ed20       ??_R2facet@locale@std@@8   0044bd20     TServerSystem:TServerSystem.obj
 0002:0000ed30       ??_R17?0A@EA@?$_Iosb@H@std@@8 0044bd30     TServerSystem:TServerSystem.obj
 0002:0000ed4c       ??_R4?$ctype@D@std@@6B@    0044bd4c     TServerSystem:TServerSystem.obj
 0002:0000ed60       ??_R3runtime_error@std@@8  0044bd60     TServerSystem:TServerSystem.obj
 0002:0000ed70       ??_R2?$basic_ios@DU?$char_traits@D@std@@@std@@8 0044bd70     TServerSystem:TServerSystem.obj
 0002:0000ed80       ??_R2ctype_base@std@@8     0044bd80     TServerSystem:TServerSystem.obj
 0002:0000ed94       ??_R1A@?0A@EA@?$codecvt@DDU_Mbstatet@@@std@@8 0044bd94     TServerSystem:TServerSystem.obj
 0002:0000edb0       ??_R1A@?0A@EA@error_category@std@@8 0044bdb0     TServerSystem:TServerSystem.obj
 0002:0000edcc       ___safe_se_handler_table   0044bdcc     <linker-defined>
 0002:0000ef3c       ___volatile_metadata       0044bf3c     <linker-defined>
 0002:0000f46c       ___rtc_iaa                 0044c46c     LIBCMT:initsect.obj
 0002:0000f470       ___rtc_izz                 0044c470     LIBCMT:initsect.obj
 0002:0000f474       ___rtc_taa                 0044c474     LIBCMT:initsect.obj
 0002:0000f478       ___rtc_tzz                 0044c478     LIBCMT:initsect.obj
 0002:0000f47c       __tls_start                0044c47c     LIBCMT:tlssup.obj
 0002:0000f480       __Init_thread_epoch        0044c480     LIBCMT:thread_safe_statics.obj
 0002:0000f484       __tls_end                  0044c484     LIBCMT:tlssup.obj
 0002:000100c8       __TI1?AVCAtlException@ATL@@ 0044d0c8     CSHandler.obj
 0002:000100d8       __CTA1?AVCAtlException@ATL@@ 0044d0d8     CSHandler.obj
 0002:000100e0       __CT??_R0?AVCAtlException@ATL@@@84 0044d0e0     CSHandler.obj
 0002:00010a8c       __TI2?AVbad_alloc@std@@    0044da8c     libcpmt:xthrow.obj
 0002:00010a9c       __CTA2?AVbad_alloc@std@@   0044da9c     libcpmt:xthrow.obj
 0002:00010aa8       __TI3?AVinvalid_argument@std@@ 0044daa8     libcpmt:xthrow.obj
 0002:00010ab8       __CTA3?AVinvalid_argument@std@@ 0044dab8     libcpmt:xthrow.obj
 0002:00010ac8       __CT??_R0?AVinvalid_argument@std@@@8??0invalid_argument@std@@QAE@ABV01@@Z12 0044dac8     libcpmt:xthrow.obj
 0002:00010ae4       __CT??_R0?AVlogic_error@std@@@8??0logic_error@std@@QAE@ABV01@@Z12 0044dae4     libcpmt:xthrow.obj
 0002:00010b00       __TI3?AVlength_error@std@@ 0044db00     libcpmt:xthrow.obj
 0002:00010b10       __CTA3?AVlength_error@std@@ 0044db10     libcpmt:xthrow.obj
 0002:00010b20       __CT??_R0?AVlength_error@std@@@8??0length_error@std@@QAE@ABV01@@Z12 0044db20     libcpmt:xthrow.obj
 0002:00010b3c       __TI3?AVout_of_range@std@@ 0044db3c     libcpmt:xthrow.obj
 0002:00010b4c       __CTA3?AVout_of_range@std@@ 0044db4c     libcpmt:xthrow.obj
 0002:00010b5c       __CT??_R0?AVout_of_range@std@@@8??0out_of_range@std@@QAE@ABV01@@Z12 0044db5c     libcpmt:xthrow.obj
 0002:00010b78       __TI2?AVruntime_error@std@@ 0044db78     libcpmt:xthrow.obj
 0002:00010b88       __CTA2?AVruntime_error@std@@ 0044db88     libcpmt:xthrow.obj
 0002:00010d04       __TI2?AVbad_exception@std@@ 0044dd04     libvcruntime:frame.obj
 0002:00010d14       __CTA2?AVbad_exception@std@@ 0044dd14     libvcruntime:frame.obj
 0002:00010d20       __CT??_R0?AVbad_exception@std@@@8??0bad_exception@std@@QAE@ABV01@@Z12 0044dd20     libvcruntime:frame.obj
 0002:000113c4       __CTA3?AVbad_array_new_length@std@@ 0044e3c4     TServerSystem:TServerSystem.obj
 0002:000113d4       __CT??_R0?AVbad_alloc@std@@@8??0bad_alloc@std@@QAE@ABV01@@Z12 0044e3d4     TServerSystem:TServerSystem.obj
 0002:000113f0       __CT??_R0?AVsystem_error@std@@@8??0system_error@std@@QAE@ABV01@@Z20 0044e3f0     TServerSystem:TServerSystem.obj
 0002:0001140c       __CT??_R0?AVruntime_error@std@@@8??0runtime_error@std@@QAE@ABV01@@Z12 0044e40c     TServerSystem:TServerSystem.obj
 0002:00011428       __TI5?AVfailure@ios_base@std@@ 0044e428     TServerSystem:TServerSystem.obj
 0002:00011438       __CT??_R0?AVexception@std@@@8??0exception@std@@QAE@ABV01@@Z12 0044e438     TServerSystem:TServerSystem.obj
 0002:00011454       __CTA5?AVfailure@ios_base@std@@ 0044e454     TServerSystem:TServerSystem.obj
 0002:0001146c       __TI3?AVbad_array_new_length@std@@ 0044e46c     TServerSystem:TServerSystem.obj
 0002:0001147c       __CT??_R0?AVbad_array_new_length@std@@@8??0bad_array_new_length@std@@QAE@ABV01@@Z12 0044e47c     TServerSystem:TServerSystem.obj
 0002:00011498       __CT??_R0?AV_System_error@std@@@8??0_System_error@std@@QAE@ABV01@@Z20 0044e498     TServerSystem:TServerSystem.obj
 0002:000114b4       __CT??_R0?AVfailure@ios_base@std@@@8??0failure@ios_base@std@@QAE@ABV012@@Z20 0044e4b4     TServerSystem:TServerSystem.obj
 0002:000114d0       __IMPORT_DESCRIPTOR_WS2_32 0044e4d0     ws2_32:WS2_32.dll
 0002:000114e4       __IMPORT_DESCRIPTOR_MSWSOCK 0044e4e4     mswsock:MSWSOCK.dll
 0002:000114f8       __IMPORT_DESCRIPTOR_KERNEL32 0044e4f8     kernel32:KERNEL32.dll
 0002:0001150c       __IMPORT_DESCRIPTOR_USER32 0044e50c     user32:USER32.dll
 0002:00011520       __IMPORT_DESCRIPTOR_ADVAPI32 0044e520     advapi32:ADVAPI32.dll
 0002:00011534       __IMPORT_DESCRIPTOR_ole32  0044e534     ole32:ole32.dll
 0002:00011548       __IMPORT_DESCRIPTOR_ODBC32 0044e548     odbc32:ODBC32.dll
 0002:0001155c       __NULL_IMPORT_DESCRIPTOR   0044e55c     ws2_32:WS2_32.dll
 0003:00000000       ?g_4skey@@3PA_JA           00450000     TNetLib:Session.obj
 0003:0000003c       ?_Sync@ios_base@std@@0_NA  0045003c     libcpmt:ios.obj
 0003:00000044       ___scrt_native_dllmain_reason 00450044     LIBCMT:utility.obj
 0003:00000048       __Init_global_epoch        00450048     LIBCMT:thread_safe_statics.obj
 0003:00000050       ___security_cookie_complement 00450050     LIBCMT:gs_cookie.obj
 0003:00000054       ___security_cookie         00450054     LIBCMT:gs_cookie.obj
 0003:00000060       __fltused                  00450060     LIBCMT:fltused.obj
 0003:00000070       ___isa_enabled             00450070     LIBCMT:cpu_disp.obj
 0003:00000080       ___scrt_default_matherr    00450080     LIBCMT:matherr.obj
 0003:000000a0       __NLG_Destination          004500a0     libvcruntime:exsup.obj
 0003:000000b8       __iob                      004500b8     libucrt:_file.obj
 0003:00000160       ___acrt_lconv_c            00450160     libucrt:localeconv.obj
 0003:000001b0       ___acrt_lconv              004501b0     libucrt:localeconv.obj
 0003:000001b4       ___acrt_lconv_static_decimal 004501b4     libucrt:localeconv.obj
 0003:000001b8       ___acrt_lconv_static_W_decimal 004501b8     libucrt:localeconv.obj
 0003:000001bc       __pctype                   004501bc     libucrt:ctype.obj
 0003:000001c0       __pwctype                  004501c0     libucrt:ctype.obj
 0003:000001d0       ___abort_behavior          004501d0     libucrt:abort.obj
 0003:000001e8       ___acrt_initial_locale_data 004501e8     libucrt:nlsdata.obj
 0003:000002a0       ___acrt_initial_locale_pointers 004502a0     libucrt:nlsdata.obj
 0003:000002a8       ___acrt_wide_c_locale_string 004502a8     libucrt:nlsdata.obj
 0003:000002ac       ___mb_cur_max              004502ac     libucrt:nlsdata.obj
 0003:000002b0       ___badioinfo               004502b0     libucrt:ioinit.obj
 0003:000002e8       __lookuptrailbytes         004502e8     libucrt:read.obj
 0003:00000594       ___globallocalestatus      00450594     libucrt:glstatus.obj
 0003:000005a0       ___acrt_initial_multibyte_data 004505a0     libucrt:mbctype.obj
 0003:00000ad0       ?_Static@?1???$_Immortalize_memcpy_image@V_Iostream_error_category2@std@@@std@@YAABV_Iostream_error_category2@1@XZ@4U?$_Constexpr_immortalize_impl@V_Iostream_error_category2@std@@@1@A 00450ad0     TServerSystem:TServerSystem.obj
 0003:00000adc       ??_R0?AVCAtlException@ATL@@@8 00450adc     CSHandler.obj
 0003:00000afc       ??_R0?AVinvalid_argument@std@@@8 00450afc     libcpmt:xthrow.obj
 0003:00000b20       ??_R0?AVlogic_error@std@@@8 00450b20     libcpmt:xthrow.obj
 0003:00000b40       ??_R0?AVlength_error@std@@@8 00450b40     libcpmt:xthrow.obj
 0003:00000b60       ??_R0?AVout_of_range@std@@@8 00450b60     libcpmt:xthrow.obj
 0003:00000b80       ??_R0?AVbad_exception@std@@@8 00450b80     libvcruntime:frame.obj
 0003:00000ba0       ??_R0?AVfailure@ios_base@std@@@8 00450ba0     TServerSystem:TServerSystem.obj
 0003:00000bc4       ??_R0?AVruntime_error@std@@@8 00450bc4     TServerSystem:TServerSystem.obj
 0003:00000be4       ??_R0?AVbad_alloc@std@@@8  00450be4     TServerSystem:TServerSystem.obj
 0003:00000c00       ??_R0?AVsystem_error@std@@@8 00450c00     TServerSystem:TServerSystem.obj
 0003:00000c20       ??_R0?AV_System_error@std@@@8 00450c20     TServerSystem:TServerSystem.obj
 0003:00000c40       ??_R0?AVexception@std@@@8  00450c40     TServerSystem:TServerSystem.obj
 0003:00000c5c       ??_R0?AVbad_array_new_length@std@@@8 00450c5c     TServerSystem:TServerSystem.obj
 0003:00000c88       ??_R0?AVCWin32Heap@ATL@@@8 00450c88     CSHandler.obj
 0003:00000ca8       ??_R0?AUIAtlMemMgr@ATL@@@8 00450ca8     CSHandler.obj
 0003:00000cc8       ??_R0?AUIAtlStringMgr@ATL@@@8 00450cc8     CSHandler.obj
 0003:00000ce8       ??_R0?AVCAtlStringMgr@ATL@@@8 00450ce8     CSHandler.obj
 0003:00000d08       ??_R0?AVCCSLock@@@8        00450d08     CSHandler.obj
 0003:00000d20       ??_R0?AVCSPLogin@@@8       00450d20     DBAccess.obj
 0003:00000d38       ??_R0?AVCSqlQuery@@@8      00450d38     DBAccess.obj
 0003:00000d50       ??_R0?AVCSqlBase@@@8       00450d50     DBAccess.obj
 0003:00000d68       ??_R0?AVCSPLoginJP@@@8     00450d68     DBAccess.obj
 0003:00000d84       ??_R0?AVCSPCheckForbiddenHWID@@@8 00450d84     DBAccess.obj
 0003:00000da8       ??_R0?AVCSPCheckIP@@@8     00450da8     DBAccess.obj
 0003:00000dc4       ??_R0?AVCSPLogout@@@8      00450dc4     DBAccess.obj
 0003:00000ddc       ??_R0?AVCSPCheckPasswd@@@8 00450ddc     DBAccess.obj
 0003:00000dfc       ??_R0?AVCSPRoute@@@8       00450dfc     DBAccess.obj
 0003:00000e14       ??_R0?AVCSPVeteran@@@8     00450e14     DBAccess.obj
 0003:00000e30       ??_R0?AVCTBLGroup@@@8      00450e30     DBAccess.obj
 0003:00000e48       ??_R0?AVCTBLVeteranChart@@@8 00450e48     DBAccess.obj
 0003:00000e68       ??_R0?AVCTBLChannel@@@8    00450e68     DBAccess.obj
 0003:00000e84       ??_R0?AVCTBLGroupList@@@8  00450e84     DBAccess.obj
 0003:00000ea0       ??_R0?AVCTBLUserCount@@@8  00450ea0     DBAccess.obj
 0003:00000ebc       ??_R0?AVCSPTestLogin@@@8   00450ebc     DBAccess.obj
 0003:00000ed8       ??_R0?AVCSPCreateChar@@@8  00450ed8     DBAccess.obj
 0003:00000ef4       ??_R0?AVCSPDeleteChar@@@8  00450ef4     DBAccess.obj
 0003:00000f10       ??_R0?AVCSPFindServerID@@@8 00450f10     DBAccess.obj
 0003:00000f30       ??_R0?AVCSPAddNewMACAddress@@@8 00450f30     DBAccess.obj
 0003:00000f54       ??_R0?AVCSPGetClientSha@@@8 00450f54     DBAccess.obj
 0003:00000f74       ??_R0?AVCTBLChar@@@8       00450f74     DBAccess.obj
 0003:00000f8c       ??_R0?AVCTBLItem@@@8       00450f8c     DBAccess.obj
 0003:00000fa4       ??_R0?AVCSPLoadService@@@8 00450fa4     DBAccess.obj
 0003:00000fc4       ??_R0?AVCSPAgreement@@@8   00450fc4     DBAccess.obj
 0003:00000fe0       ??_R0?AVCSPFindBOWPlayer@@@8 00450fe0     DBAccess.obj
 0003:00001000       ??_R0?AVCSPFindBRPlayer@@@8 00451000     DBAccess.obj
 0003:00001020       ??_R0?AVCSPClearLoginUser@@@8 00451020     DBAccess.obj
 0003:00001040       ??_R0?AVCSPGetNation@@@8   00451040     DBAccess.obj
 0003:0000105c       ??_R0?AVCSPGetGuildInfo@@@8 0045105c     DBAccess.obj
 0003:0000107c       ??_R0?AVCSPGetBanReason@@@8 0045107c     DBAccess.obj
 0003:0000109c       ??_R0?AV?$basic_istream@DU?$char_traits@D@std@@@std@@@8 0045109c     mailer.obj
 0003:000010d8       ??_R0?AVCTLoginSession@@@8 004510d8     TLoginSession.obj
 0003:000010f8       ??_R0?AVCSession@@@8       004510f8     TLoginSession.obj
 0003:00001110       ??_R0?AVCAtlModule@ATL@@@8 00451110     TLoginSvr.obj
 0003:00001130       ??_R0?AU_ATL_MODULE70@ATL@@@8 00451130     TLoginSvr.obj
 0003:00001150       ??_R0?AVCTLoginSvrModule@@@8 00451150     TLoginSvr.obj
 0003:00001170       ??_R0?AV?$CAtlServiceModuleT@VCTLoginSvrModule@@$0GE@@ATL@@@8 00451170     TLoginSvr.obj
 0003:000011b0       ??_R0?AV?$CAtlExeModuleT@VCTLoginSvrModule@@@ATL@@@8 004511b0     TLoginSvr.obj
 0003:000011e8       ??_R0?AV?$CAtlModuleT@VCTLoginSvrModule@@@ATL@@@8 004511e8     TLoginSvr.obj
 0003:00001220       ??_R0?AU?$CAtlValidateModuleConfiguration@$0A@VCTLoginSvrModule@@@ATL@@@8 00451220     TLoginSvr.obj
 0003:0000126c       ??_R0?AVCTUser@@@8         0045126c     TUser.obj
 0003:00001284       ??_R0?AVCSqlDatabase@@@8   00451284     TNetLib:SqlDatabase.obj
 0003:000012a0       ??_R0?AVCOverlappedEx@@@8  004512a0     TNetLib:Packet.obj
 0003:000012bc       ??_R0?AVCPacket@@@8        004512bc     TNetLib:Packet.obj
 0003:000012d4       ??_R0?AV_Locimp@locale@std@@@8 004512d4     libcpmt:locale0.obj
 0003:000012f8       ??_R0?AVtype_info@@@8      004512f8     LIBCMT:std_type_info_static.obj
 0003:00001310       ??_R0?AV?$basic_filebuf@DU?$char_traits@D@std@@@std@@@8 00451310     TServerSystem:TServerSystem.obj
 0003:0000134c       ??_R0?AV?$codecvt@DDU_Mbstatet@@@std@@@8 0045134c     TServerSystem:TServerSystem.obj
 0003:00001378       ??_R0?AVios_base@std@@@8   00451378     TServerSystem:TServerSystem.obj
 0003:00001394       ??_R0?AVerror_category@std@@@8 00451394     TServerSystem:TServerSystem.obj
 0003:000013b8       ??_R0?AV?$ctype@D@std@@@8  004513b8     TServerSystem:TServerSystem.obj
 0003:000013d4       ??_R0?AVcodecvt_base@std@@@8 004513d4     TServerSystem:TServerSystem.obj
 0003:000013f4       ??_R0?AV_Facet_base@std@@@8 004513f4     TServerSystem:TServerSystem.obj
 0003:00001414       ??_R0?AU_Crt_new_delete@std@@@8 00451414     TServerSystem:TServerSystem.obj
 0003:00001438       ??_R0?AV?$_Iosb@H@std@@@8  00451438     TServerSystem:TServerSystem.obj
 0003:00001454       ??_R0?AV_Iostream_error_category2@std@@@8 00451454     TServerSystem:TServerSystem.obj
 0003:00001480       ??_R0?AV?$basic_streambuf@DU?$char_traits@D@std@@@std@@@8 00451480     TServerSystem:TServerSystem.obj
 0003:000014bc       ??_R0?AUctype_base@std@@@8 004514bc     TServerSystem:TServerSystem.obj
 0003:000014dc       ??_R0?AVTServerSystem@@@8  004514dc     TServerSystem:TServerSystem.obj
 0003:000014f8       ??_R0?AV?$basic_ios@DU?$char_traits@D@std@@@std@@@8 004514f8     TServerSystem:TServerSystem.obj
 0003:00001530       ??_R0?AVfacet@locale@std@@@8 00451530     TServerSystem:TServerSystem.obj
 0003:00001550       ??_R0?AV?$basic_ostream@DU?$char_traits@D@std@@@std@@@8 00451550     TServerSystem:TServerSystem.obj
 0003:00001590       ?m_bInitFailed@CAtlBaseModule@ATL@@2_NA 00451590     CSHandler.obj
 0003:00001594       ?_pAtlModule@ATL@@3PAVCAtlModule@1@A 00451594     CSHandler.obj
 0003:00001598       ?isInitialized@CAtlStringMgr@ATL@@0_NA 00451598     CSHandler.obj
 0003:0000159c       ?strHeap@?1??GetInstance@CAtlStringMgr@ATL@@SAPAUIAtlStringMgr@3@XZ@4VCWin32Heap@3@A 0045159c     CSHandler.obj
 0003:000015a8       ?$TSS0@?1??GetInstance@CAtlStringMgr@ATL@@SAPAUIAtlStringMgr@3@XZ@4HA 004515a8     CSHandler.obj
 0003:000015ac       ?strMgr@?1??GetInstance@CAtlStringMgr@ATL@@SAPAUIAtlStringMgr@3@XZ@4V23@A 004515ac     CSHandler.obj
 0003:000015c8       ?$TSS1@?1??GetInstance@CAtlStringMgr@ATL@@SAPAUIAtlStringMgr@3@XZ@4HA 004515c8     CSHandler.obj
 0003:000015cc       ?InitializeCAtlStringMgr@ATLImplementationDetails@ATL@@3UCAtlStringMgrStaticInitializer@12@A 004515cc     CSHandler.obj
 0003:000015d8       ?m_libid@CAtlModule@ATL@@2U_GUID@@A 004515d8     TLoginSvr.obj
 0003:000015e8       ?_AtlModule@@3VCTLoginSvrModule@@A 004515e8     TLoginSvr.obj
 0003:00011e34       ?g_strSecretKey@@3V?$CStringT@DV?$StrTraitATL@DV?$ChTraitsCRT@D@ATL@@@ATL@@@ATL@@A 00461e34     TNetLib:Session.obj
 0003:00011e38       ___@@_PchSym_@00@UfhvihUnbkxUwlxfnvmghUyzxpfkRDBABCACDUEhUEhglibPFOAPhlfixvLRLplkrvUoryUldmUgmvgoryUgmvgoryUivovzhvUhgwzucOlyq@4B2008FD98C1DD4 00461e38     TNetLib:stdafx.obj
 0003:00011e3c       ?_AtlBaseModule@ATL@@3VCAtlBaseModule@1@A 00461e3c     atls:atlbase.obj
 0003:00011e74       ___@@_PchSym_@00@UzUPdlipUBUhUrmgvinvwrzgvUexHoryhUhsrkUzgonuxUhixUzgoUzgohUzgohOmzgrevkilqUlyqiPiUcIGUhgwzucOlyq@4B2008FD98C1DD4 00461e74     atls:stdafx.obj
 0003:00011f40       ?_Id_cnt@id@locale@std@@0HA 00461f40     libcpmt:locale0.obj
 0003:00011f44       ?_Clocptr@_Locimp@locale@std@@0PAV123@A 00461f44     libcpmt:locale0.obj
 0003:00011f48       ?id@?$ctype@G@std@@2V0locale@2@A 00461f48     libcpmt:locale0.obj
 0003:00011f4c       ?id@?$codecvt@_WDU_Mbstatet@@@std@@2V0locale@2@A 00461f4c     libcpmt:locale0.obj
 0003:00011f50       ?id@?$codecvt@GDU_Mbstatet@@@std@@2V0locale@2@A 00461f50     libcpmt:locale0.obj
 0003:00011f54       ?id@?$ctype@_W@std@@2V0locale@2@A 00461f54     libcpmt:locale0.obj
 0003:00011f58       ?id@?$ctype@D@std@@2V0locale@2@A 00461f58     libcpmt:locale0.obj
 0003:00011f74       ?_Index@ios_base@std@@0HA  00461f74     libcpmt:ios.obj
 0003:00012010       ?cin@std@@3V?$basic_istream@DU?$char_traits@D@std@@@1@A 00462010     libcpmt:cin.obj
 0003:00012078       ?cout@std@@3V?$basic_ostream@DU?$char_traits@D@std@@@1@A 00462078     libcpmt:cout.obj
 0003:00012120       ?id@?$num_get@DV?$istreambuf_iterator@DU?$char_traits@D@std@@@std@@@std@@2V0locale@2@A 00462120     libcpmt:locale.obj
 0003:00012124       ?_Ptr_cin@std@@3PAV?$basic_istream@DU?$char_traits@D@std@@@1@A 00462124     libcpmt:iosptrs.obj
 0003:00012128       ?_Ptr_cout@std@@3PAV?$basic_ostream@DU?$char_traits@D@std@@@1@A 00462128     libcpmt:iosptrs.obj
 0003:0001212c       ?_Ptr_cerr@std@@3PAV?$basic_ostream@DU?$char_traits@D@std@@@1@A 0046212c     libcpmt:iosptrs.obj
 0003:00012130       ?_Ptr_clog@std@@3PAV?$basic_ostream@DU?$char_traits@D@std@@@1@A 00462130     libcpmt:iosptrs.obj
 0003:00012134       ?_Ptr_wcin@std@@3PAV?$basic_istream@_WU?$char_traits@_W@std@@@1@A 00462134     libcpmt:iosptrs.obj
 0003:00012138       ?_Ptr_wcout@std@@3PAV?$basic_ostream@_WU?$char_traits@_W@std@@@1@A 00462138     libcpmt:iosptrs.obj
 0003:0001213c       ?_Ptr_wcerr@std@@3PAV?$basic_ostream@_WU?$char_traits@_W@std@@@1@A 0046213c     libcpmt:iosptrs.obj
 0003:00012140       ?_Ptr_wclog@std@@3PAV?$basic_ostream@_WU?$char_traits@_W@std@@@1@A 00462140     libcpmt:iosptrs.obj
 0003:00012170       ?id@?$time_put@_WV?$ostreambuf_iterator@_WU?$char_traits@_W@std@@@std@@@std@@2V0locale@2@A 00462170     libcpmt:wlocale.obj
 0003:00012174       ?id@?$num_get@_WV?$istreambuf_iterator@_WU?$char_traits@_W@std@@@std@@@std@@2V0locale@2@A 00462174     libcpmt:wlocale.obj
 0003:00012178       ?id@?$num_put@_WV?$ostreambuf_iterator@_WU?$char_traits@_W@std@@@std@@@std@@2V0locale@2@A 00462178     libcpmt:wlocale.obj
 0003:0001217c       ?id@?$numpunct@_W@std@@2V0locale@2@A 0046217c     libcpmt:wlocale.obj
 0003:00012180       ?id@?$collate@_W@std@@2V0locale@2@A 00462180     libcpmt:wlocale.obj
 0003:00012184       ?id@?$messages@_W@std@@2V0locale@2@A 00462184     libcpmt:wlocale.obj
 0003:00012188       ?id@?$money_get@_WV?$istreambuf_iterator@_WU?$char_traits@_W@std@@@std@@@std@@2V0locale@2@A 00462188     libcpmt:wlocale.obj
 0003:0001218c       ?id@?$money_put@_WV?$ostreambuf_iterator@_WU?$char_traits@_W@std@@@std@@@std@@2V0locale@2@A 0046218c     libcpmt:wlocale.obj
 0003:00012190       ?id@?$moneypunct@_W$0A@@std@@2V0locale@2@A 00462190     libcpmt:wlocale.obj
 0003:00012194       ?id@?$moneypunct@_W$00@std@@2V0locale@2@A 00462194     libcpmt:wlocale.obj
 0003:00012198       ?id@?$time_get@_WV?$istreambuf_iterator@_WU?$char_traits@_W@std@@@std@@@std@@2V0locale@2@A 00462198     libcpmt:wlocale.obj
 0003:0001219c       ?id@?$num_get@GV?$istreambuf_iterator@GU?$char_traits@G@std@@@std@@@std@@2V0locale@2@A 0046219c     libcpmt:wlocale.obj
 0003:000121a0       ?id@?$num_put@GV?$ostreambuf_iterator@GU?$char_traits@G@std@@@std@@@std@@2V0locale@2@A 004621a0     libcpmt:wlocale.obj
 0003:000121a4       ?id@?$numpunct@G@std@@2V0locale@2@A 004621a4     libcpmt:wlocale.obj
 0003:000121a8       ?id@?$collate@G@std@@2V0locale@2@A 004621a8     libcpmt:wlocale.obj
 0003:000121ac       ?id@?$messages@G@std@@2V0locale@2@A 004621ac     libcpmt:wlocale.obj
 0003:000121b0       ?id@?$money_get@GV?$istreambuf_iterator@GU?$char_traits@G@std@@@std@@@std@@2V0locale@2@A 004621b0     libcpmt:wlocale.obj
 0003:000121b4       ?id@?$money_put@GV?$ostreambuf_iterator@GU?$char_traits@G@std@@@std@@@std@@2V0locale@2@A 004621b4     libcpmt:wlocale.obj
 0003:000121b8       ?id@?$moneypunct@G$0A@@std@@2V0locale@2@A 004621b8     libcpmt:wlocale.obj
 0003:000121bc       ?id@?$moneypunct@G$00@std@@2V0locale@2@A 004621bc     libcpmt:wlocale.obj
 0003:000121c0       ?id@?$time_get@GV?$istreambuf_iterator@GU?$char_traits@G@std@@@std@@@std@@2V0locale@2@A 004621c0     libcpmt:wlocale.obj
 0003:000121c4       ?id@?$time_put@GV?$ostreambuf_iterator@GU?$char_traits@G@std@@@std@@@std@@2V0locale@2@A 004621c4     libcpmt:wlocale.obj
 0003:000121c8       ?id@?$collate@D@std@@2V0locale@2@A 004621c8     libcpmt:xlocale.obj
 0003:000121cc       ?id@?$messages@D@std@@2V0locale@2@A 004621cc     libcpmt:xlocale.obj
 0003:000121d0       ?id@?$money_get@DV?$istreambuf_iterator@DU?$char_traits@D@std@@@std@@@std@@2V0locale@2@A 004621d0     libcpmt:xlocale.obj
 0003:000121d4       ?id@?$money_put@DV?$ostreambuf_iterator@DU?$char_traits@D@std@@@std@@@std@@2V0locale@2@A 004621d4     libcpmt:xlocale.obj
 0003:000121d8       ?id@?$moneypunct@D$0A@@std@@2V0locale@2@A 004621d8     libcpmt:xlocale.obj
 0003:000121dc       ?id@?$moneypunct@D$00@std@@2V0locale@2@A 004621dc     libcpmt:xlocale.obj
 0003:000121e0       ?id@?$time_get@DV?$istreambuf_iterator@DU?$char_traits@D@std@@@std@@@std@@2V0locale@2@A 004621e0     libcpmt:xlocale.obj
 0003:000121e4       ?id@?$time_put@DV?$ostreambuf_iterator@DU?$char_traits@D@std@@@std@@@std@@2V0locale@2@A 004621e4     libcpmt:xlocale.obj
 0003:000121e8       ___scrt_current_native_startup_state 004621e8     LIBCMT:utility.obj
 0003:000121ec       ___scrt_native_startup_lock 004621ec     LIBCMT:utility.obj
 0003:00012234       __tls_index                00462234     LIBCMT:tlssup.obj
 0003:00012554       ___isa_available           00462554     LIBCMT:cpu_disp.obj
 0003:00012558       ___favor                   00462558     LIBCMT:cpu_disp.obj
 0003:0001255c       ___scrt_debugger_hook_flag 0046255c     LIBCMT:utility_desktop.obj
 0003:00012560       ?__type_info_root_node@@3U__type_info_node@@A 00462560     LIBCMT:tncleanup.obj
 0003:00012568       ?_OptionsStorage@?1??__local_stdio_scanf_options@@9@4_KA 00462568     LIBCMT:default_local_stdio_options.obj
 0003:00012570       ?__WinRTOutOfMemoryExceptionCallback@@3P6GPAXXZA 00462570     libvcruntime:ehhelpers.obj
 0003:0001259c       ___pPurecall               0046259c     libvcruntime:purevirt_data.obj
 0003:000125bc       ?pArgList@UnDecorator@@0PAVReplicator@@A 004625bc     libvcruntime:undname.obj
 0003:000125c0       ?pZNameList@UnDecorator@@0PAVReplicator@@A 004625c0     libvcruntime:undname.obj
 0003:000125c4       ?pTemplateArgList@UnDecorator@@0PAVReplicator@@A 004625c4     libvcruntime:undname.obj
 0003:000125c8       ?gName@UnDecorator@@0PBDB  004625c8     libvcruntime:undname.obj
 0003:000125cc       ?name@UnDecorator@@0PBDB   004625cc     libvcruntime:undname.obj
 0003:000125d0       ?disableFlags@UnDecorator@@0KA 004625d0     libvcruntime:undname.obj
 0003:000125d4       ?fExplicitTemplateParams@UnDecorator@@0_NA 004625d4     libvcruntime:undname.obj
 0003:000125d5       ?fGetTemplateArgumentList@UnDecorator@@0_NA 004625d5     libvcruntime:undname.obj
 0003:000125d8       ?m_pGetParameter@UnDecorator@@0P6APADJ@ZA 004625d8     libvcruntime:undname.obj
 0003:000125dc       ?m_CHPENameOffset@UnDecorator@@0KA 004625dc     libvcruntime:undname.obj
 0003:000125e0       ?m_recursionLevel@UnDecorator@@0KA 004625e0     libvcruntime:undname.obj
 0003:0001261c       __nstream                  0046261c     libucrt:_file.obj
 0003:00012620       ___piob                    00462620     libucrt:_file.obj
 0003:00012624       __cflush                   00462624     libucrt:_file.obj
 0003:00012628       ___acrt_lconv_static_null  00462628     libucrt:localeconv.obj
 0003:0001262c       ___acrt_lconv_static_W_null 0046262c     libucrt:localeconv.obj
 0003:00012790       ?c_exit_complete@?1???R<lambda_6e4b09c48022b2350581041d5f6b0c4c>@@QBE@XZ@4_NA 00462790     libucrt:exit.obj
 0003:000128a0       __environ_table            004628a0     libucrt:environment_initialization.obj
 0003:000128a4       __wenviron_table           004628a4     libucrt:environment_initialization.obj
 0003:000128a8       ___dcrt_initial_wide_environment 004628a8     libucrt:environment_initialization.obj
 0003:000128ac       ___dcrt_initial_narrow_environment 004628ac     libucrt:environment_initialization.obj
 0003:000128b0       ___acrt_atexit_table       004628b0     libucrt:onexit.obj
 0003:000128bc       ___acrt_at_quick_exit_table 004628bc     libucrt:onexit.obj
 0003:000128d0       __pgmptr                   004628d0     libucrt:argv_data.obj
 0003:000128d4       ___argc                    004628d4     libucrt:argv_data.obj
 0003:000128d8       ___argv                    004628d8     libucrt:argv_data.obj
 0003:000128dc       ___wargv                   004628dc     libucrt:argv_data.obj
 0003:000128e0       __acmdln                   004628e0     libucrt:argv_data.obj
 0003:000128e4       __wcmdln                   004628e4     libucrt:argv_data.obj
 0003:000128e8       ___acrt_locale_changed_data 004628e8     libucrt:wsetlocale.obj
 0003:000128f0       __commode                  004628f0     libucrt:ncommode.obj
 0003:000128f4       ___acrt_current_locale_data 004628f4     libucrt:nlsdata.obj
 0003:000129e0       ___acrt_stdout_buffer      004629e0     libucrt:_sftbuf.obj
 0003:000129e4       ___acrt_stderr_buffer      004629e4     libucrt:_sftbuf.obj
 0003:000129e8       ___pioinfo                 004629e8     libucrt:ioinit.obj
 0003:00012be8       __nhandle                  00462be8     libucrt:ioinit.obj
 0003:00012bec       ?_timezone@@3V?$dual_state_global@J@__crt_state_management@@A 00462bec     libucrt:timeset.obj
 0003:00012bf0       ?_daylight@@3V?$dual_state_global@H@__crt_state_management@@A 00462bf0     libucrt:timeset.obj
 0003:00012bf4       ?_dstbias@@3V?$dual_state_global@J@__crt_state_management@@A 00462bf4     libucrt:timeset.obj
 0003:00012cbc       ___fastflag                00462cbc     libucrt:fp_flags.obj
 0003:00012cd0       __mbctype                  00462cd0     libucrt:mbctype.obj
 0003:00012cd4       __mbcasemap                00462cd4     libucrt:mbctype.obj
 0003:00012cd8       ___acrt_current_multibyte_data 00462cd8     libucrt:mbctype.obj
 0003:00012ce4       ___acrt_heap               00462ce4     libucrt:heap_handle.obj
 0003:00012ce8       __fmode                    00462ce8     libucrt:txtmode.obj
 0003:00012cf8       __umaskval                 00462cf8     libucrt:umask.obj
 0003:00012d04       ?_Psave@?$_Facetptr@V?$ctype@D@std@@@std@@2PBVfacet@locale@2@B 00462d04     TServerSystem:TServerSystem.obj
 0003:00012d08       ?_Psave@?$_Facetptr@V?$codecvt@DDU_Mbstatet@@@std@@@std@@2PBVfacet@locale@2@B 00462d08     TServerSystem:TServerSystem.obj
 0003:00012d0c       ?_Stinit@?1??_Init@?$basic_filebuf@DU?$char_traits@D@std@@@std@@IAEXPAU_iobuf@@W4_Initfl@23@@Z@4U_Mbstatet@@A 00462d0c     TServerSystem:TServerSystem.obj
 0003:00012d14       ?id@?$num_put@DV?$ostreambuf_iterator@DU?$char_traits@D@std@@@std@@@std@@2V0locale@2@A 00462d14     TServerSystem:TServerSystem.obj
 0003:00012d18       ?id@?$codecvt@DDU_Mbstatet@@@std@@2V0locale@2@A 00462d18     TServerSystem:TServerSystem.obj
 0003:00012d20       ?_OptionsStorage@?1??__local_stdio_printf_options@@9@4_KA 00462d20     TServerSystem:TServerSystem.obj
 0003:00012d28       ?id@?$numpunct@D@std@@2V0locale@2@A 00462d28     TServerSystem:TServerSystem.obj
 0003:00012d2c       ___dyn_tls_dtor_callback   00462d2c     <common>
 0003:00012d30       ___dyn_tls_init_callback   00462d30     <common>
 0003:00012d34       ___scrt_ucrt_dll_is_in_use 00462d34     <common>
 0003:00012d38       __pmatherr                 00462d38     <common>
 0003:00012d3c       ___use_sse2_mathfcns       00462d3c     <common>

 entry point at        0001:00019cc0

 Static symbols

 0000:fff98000       .debug$S                   00400000     advapi32:ADVAPI32.dll
 0000:fff98000       .debug$S                   00400000     advapi32:ADVAPI32.dll
 0000:fff98000       .debug$S                   00400000     advapi32:ADVAPI32.dll
 0000:fff98000       .debug$S                   00400000     advapi32:ADVAPI32.dll
 0000:fff98000       .debug$S                   00400000     advapi32:ADVAPI32.dll
 0000:fff98000       .debug$S                   00400000     advapi32:ADVAPI32.dll
 0000:fff98000       .debug$S                   00400000     advapi32:ADVAPI32.dll
 0000:fff98000       .debug$S                   00400000     advapi32:ADVAPI32.dll
 0000:fff98000       .debug$S                   00400000     advapi32:ADVAPI32.dll
 0000:fff98000       .debug$S                   00400000     advapi32:ADVAPI32.dll
 0000:fff98000       .debug$S                   00400000     advapi32:ADVAPI32.dll
 0000:fff98000       .debug$S                   00400000     advapi32:ADVAPI32.dll
 0000:fff98000       .debug$S                   00400000     advapi32:ADVAPI32.dll
 0000:fff98000       .debug$S                   00400000     kernel32:KERNEL32.dll
 0000:fff98000       .debug$S                   00400000     kernel32:KERNEL32.dll
 0000:fff98000       .debug$S                   00400000     kernel32:KERNEL32.dll
 0000:fff98000       .debug$S                   00400000     kernel32:KERNEL32.dll
 0000:fff98000       .debug$S                   00400000     kernel32:KERNEL32.dll
 0000:fff98000       .debug$S                   00400000     kernel32:KERNEL32.dll
 0000:fff98000       .debug$S                   00400000     kernel32:KERNEL32.dll
 0000:fff98000       .debug$S                   00400000     kernel32:KERNEL32.dll
 0000:fff98000       .debug$S                   00400000     kernel32:KERNEL32.dll
 0000:fff98000       .debug$S                   00400000     kernel32:KERNEL32.dll
 0000:fff98000       .debug$S                   00400000     kernel32:KERNEL32.dll
 0000:fff98000       .debug$S                   00400000     kernel32:KERNEL32.dll
 0000:fff98000       .debug$S                   00400000     kernel32:KERNEL32.dll
 0000:fff98000       .debug$S                   00400000     kernel32:KERNEL32.dll
 0000:fff98000       .debug$S                   00400000     kernel32:KERNEL32.dll
 0000:fff98000       .debug$S                   00400000     kernel32:KERNEL32.dll
 0000:fff98000       .debug$S                   00400000     kernel32:KERNEL32.dll
 0000:fff98000       .debug$S                   00400000     kernel32:KERNEL32.dll
 0000:fff98000       .debug$S                   00400000     kernel32:KERNEL32.dll
 0000:fff98000       .debug$S                   00400000     kernel32:KERNEL32.dll
 0000:fff98000       .debug$S                   00400000     kernel32:KERNEL32.dll
 0000:fff98000       .debug$S                   00400000     kernel32:KERNEL32.dll
 0000:fff98000       .debug$S                   00400000     kernel32:KERNEL32.dll
 0000:fff98000       .debug$S                   00400000     kernel32:KERNEL32.dll
 0000:fff98000       .debug$S                   00400000     kernel32:KERNEL32.dll
 0000:fff98000       .debug$S                   00400000     kernel32:KERNEL32.dll
 0000:fff98000       .debug$S                   00400000     kernel32:KERNEL32.dll
 0000:fff98000       .debug$S                   00400000     kernel32:KERNEL32.dll
 0000:fff98000       .debug$S                   00400000     kernel32:KERNEL32.dll
 0000:fff98000       .debug$S                   00400000     kernel32:KERNEL32.dll
 0000:fff98000       .debug$S                   00400000     kernel32:KERNEL32.dll
 0000:fff98000       .debug$S                   00400000     kernel32:KERNEL32.dll
 0000:fff98000       .debug$S                   00400000     kernel32:KERNEL32.dll
 0000:fff98000       .debug$S                   00400000     kernel32:KERNEL32.dll
 0000:fff98000       .debug$S                   00400000     kernel32:KERNEL32.dll
 0000:fff98000       .debug$S                   00400000     kernel32:KERNEL32.dll
 0000:fff98000       .debug$S                   00400000     kernel32:KERNEL32.dll
 0000:fff98000       .debug$S                   00400000     kernel32:KERNEL32.dll
 0000:fff98000       .debug$S                   00400000     kernel32:KERNEL32.dll
 0000:fff98000       .debug$S                   00400000     kernel32:KERNEL32.dll
 0000:fff98000       .debug$S                   00400000     kernel32:KERNEL32.dll
 0000:fff98000       .debug$S                   00400000     kernel32:KERNEL32.dll
 0000:fff98000       .debug$S                   00400000     kernel32:KERNEL32.dll
 0000:fff98000       .debug$S                   00400000     kernel32:KERNEL32.dll
 0000:fff98000       .debug$S                   00400000     kernel32:KERNEL32.dll
 0000:fff98000       .debug$S                   00400000     kernel32:KERNEL32.dll
 0000:fff98000       .debug$S                   00400000     kernel32:KERNEL32.dll
 0000:fff98000       .debug$S                   00400000     kernel32:KERNEL32.dll
 0000:fff98000       .debug$S                   00400000     kernel32:KERNEL32.dll
 0000:fff98000       .debug$S                   00400000     kernel32:KERNEL32.dll
 0000:fff98000       .debug$S                   00400000     kernel32:KERNEL32.dll
 0000:fff98000       .debug$S                   00400000     kernel32:KERNEL32.dll
 0000:fff98000       .debug$S                   00400000     kernel32:KERNEL32.dll
 0000:fff98000       .debug$S                   00400000     kernel32:KERNEL32.dll
 0000:fff98000       .debug$S                   00400000     kernel32:KERNEL32.dll
 0000:fff98000       .debug$S                   00400000     kernel32:KERNEL32.dll
 0000:fff98000       .debug$S                   00400000     kernel32:KERNEL32.dll
 0000:fff98000       .debug$S                   00400000     kernel32:KERNEL32.dll
 0000:fff98000       .debug$S                   00400000     kernel32:KERNEL32.dll
 0000:fff98000       .debug$S                   00400000     kernel32:KERNEL32.dll
 0000:fff98000       .debug$S                   00400000     kernel32:KERNEL32.dll
 0000:fff98000       .debug$S                   00400000     kernel32:KERNEL32.dll
 0000:fff98000       .debug$S                   00400000     kernel32:KERNEL32.dll
 0000:fff98000       .debug$S                   00400000     kernel32:KERNEL32.dll
 0000:fff98000       .debug$S                   00400000     kernel32:KERNEL32.dll
 0000:fff98000       .debug$S                   00400000     kernel32:KERNEL32.dll
 0000:fff98000       .debug$S                   00400000     kernel32:KERNEL32.dll
 0000:fff98000       .debug$S                   00400000     kernel32:KERNEL32.dll
 0000:fff98000       .debug$S                   00400000     kernel32:KERNEL32.dll
 0000:fff98000       .debug$S                   00400000     kernel32:KERNEL32.dll
 0000:fff98000       .debug$S                   00400000     kernel32:KERNEL32.dll
 0000:fff98000       .debug$S                   00400000     kernel32:KERNEL32.dll
 0000:fff98000       .debug$S                   00400000     kernel32:KERNEL32.dll
 0000:fff98000       .debug$S                   00400000     kernel32:KERNEL32.dll
 0000:fff98000       .debug$S                   00400000     kernel32:KERNEL32.dll
 0000:fff98000       .debug$S                   00400000     kernel32:KERNEL32.dll
 0000:fff98000       .debug$S                   00400000     kernel32:KERNEL32.dll
 0000:fff98000       .debug$S                   00400000     kernel32:KERNEL32.dll
 0000:fff98000       .debug$S                   00400000     kernel32:KERNEL32.dll
 0000:fff98000       .debug$S                   00400000     kernel32:KERNEL32.dll
 0000:fff98000       .debug$S                   00400000     kernel32:KERNEL32.dll
 0000:fff98000       .debug$S                   00400000     kernel32:KERNEL32.dll
 0000:fff98000       .debug$S                   00400000     kernel32:KERNEL32.dll
 0000:fff98000       .debug$S                   00400000     kernel32:KERNEL32.dll
 0000:fff98000       .debug$S                   00400000     kernel32:KERNEL32.dll
 0000:fff98000       .debug$S                   00400000     kernel32:KERNEL32.dll
 0000:fff98000       .debug$S                   00400000     kernel32:KERNEL32.dll
 0000:fff98000       .debug$S                   00400000     kernel32:KERNEL32.dll
 0000:fff98000       .debug$S                   00400000     kernel32:KERNEL32.dll
 0000:fff98000       .debug$S                   00400000     kernel32:KERNEL32.dll
 0000:fff98000       .debug$S                   00400000     kernel32:KERNEL32.dll
 0000:fff98000       .debug$S                   00400000     kernel32:KERNEL32.dll
 0000:fff98000       .debug$S                   00400000     kernel32:KERNEL32.dll
 0000:fff98000       .debug$S                   00400000     kernel32:KERNEL32.dll
 0000:fff98000       .debug$S                   00400000     kernel32:KERNEL32.dll
 0000:fff98000       .debug$S                   00400000     kernel32:KERNEL32.dll
 0000:fff98000       .debug$S                   00400000     kernel32:KERNEL32.dll
 0000:fff98000       .debug$S                   00400000     kernel32:KERNEL32.dll
 0000:fff98000       .debug$S                   00400000     kernel32:KERNEL32.dll
 0000:fff98000       .debug$S                   00400000     kernel32:KERNEL32.dll
 0000:fff98000       .debug$S                   00400000     kernel32:KERNEL32.dll
 0000:fff98000       .debug$S                   00400000     kernel32:KERNEL32.dll
 0000:fff98000       .debug$S                   00400000     kernel32:KERNEL32.dll
 0000:fff98000       .debug$S                   00400000     kernel32:KERNEL32.dll
 0000:fff98000       .debug$S                   00400000     kernel32:KERNEL32.dll
 0000:fff98000       .debug$S                   00400000     kernel32:KERNEL32.dll
 0000:fff98000       .debug$S                   00400000     kernel32:KERNEL32.dll
 0000:fff98000       .debug$S                   00400000     kernel32:KERNEL32.dll
 0000:fff98000       .debug$S                   00400000     kernel32:KERNEL32.dll
 0000:fff98000       .debug$S                   00400000     kernel32:KERNEL32.dll
 0000:fff98000       .debug$S                   00400000     kernel32:KERNEL32.dll
 0000:fff98000       .debug$S                   00400000     kernel32:KERNEL32.dll
 0000:fff98000       .debug$S                   00400000     kernel32:KERNEL32.dll
 0000:fff98000       .debug$S                   00400000     kernel32:KERNEL32.dll
 0000:fff98000       .debug$S                   00400000     kernel32:KERNEL32.dll
 0000:fff98000       .debug$S                   00400000     kernel32:KERNEL32.dll
 0000:fff98000       .debug$S                   00400000     kernel32:KERNEL32.dll
 0000:fff98000       .debug$S                   00400000     kernel32:KERNEL32.dll
 0000:fff98000       .debug$S                   00400000     kernel32:KERNEL32.dll
 0000:fff98000       .debug$S                   00400000     mswsock:MSWSOCK.dll
 0000:fff98000       .debug$S                   00400000     odbc32:ODBC32.dll
 0000:fff98000       .debug$S                   00400000     odbc32:ODBC32.dll
 0000:fff98000       .debug$S                   00400000     odbc32:ODBC32.dll
 0000:fff98000       .debug$S                   00400000     odbc32:ODBC32.dll
 0000:fff98000       .debug$S                   00400000     odbc32:ODBC32.dll
 0000:fff98000       .debug$S                   00400000     odbc32:ODBC32.dll
 0000:fff98000       .debug$S                   00400000     odbc32:ODBC32.dll
 0000:fff98000       .debug$S                   00400000     odbc32:ODBC32.dll
 0000:fff98000       .debug$S                   00400000     odbc32:ODBC32.dll
 0000:fff98000       .debug$S                   00400000     odbc32:ODBC32.dll
 0000:fff98000       .debug$S                   00400000     odbc32:ODBC32.dll
 0000:fff98000       .debug$S                   00400000     odbc32:ODBC32.dll
 0000:fff98000       .debug$S                   00400000     odbc32:ODBC32.dll
 0000:fff98000       .debug$S                   00400000     ole32:ole32.dll
 0000:fff98000       .debug$S                   00400000     ole32:ole32.dll
 0000:fff98000       .debug$S                   00400000     ole32:ole32.dll
 0000:fff98000       .debug$S                   00400000     user32:USER32.dll
 0000:fff98000       .debug$S                   00400000     user32:USER32.dll
 0000:fff98000       .debug$S                   00400000     user32:USER32.dll
 0000:fff98000       .debug$S                   00400000     ws2_32:WS2_32.dll
 0000:fff98000       .debug$S                   00400000     ws2_32:WS2_32.dll
 0000:fff98000       .debug$S                   00400000     ws2_32:WS2_32.dll
 0000:fff98000       .debug$S                   00400000     ws2_32:WS2_32.dll
 0000:fff98000       .debug$S                   00400000     ws2_32:WS2_32.dll
 0000:fff98000       .debug$S                   00400000     ws2_32:WS2_32.dll
 0000:fff98000       .debug$S                   00400000     ws2_32:WS2_32.dll
 0000:fff98000       .debug$S                   00400000     ws2_32:WS2_32.dll
 0000:fff98000       .debug$S                   00400000     ws2_32:WS2_32.dll
 0000:fff98000       .debug$S                   00400000     ws2_32:WS2_32.dll
 0000:fff98000       .debug$S                   00400000     ws2_32:WS2_32.dll
 0000:fff98000       .debug$S                   00400000     ws2_32:WS2_32.dll
 0000:fff98000       .debug$S                   00400000     ws2_32:WS2_32.dll
 0000:fff98000       .debug$S                   00400000     ws2_32:WS2_32.dll
 0000:fff98000       .debug$S                   00400000     ws2_32:WS2_32.dll
 0000:fff98000       .debug$S                   00400000     ws2_32:WS2_32.dll
 0000:fff98000       .debug$S                   00400000     ws2_32:WS2_32.dll
 0000:fff98000       .debug$S                   00400000     ws2_32:WS2_32.dll
 0000:fff98000       .debug$S                   00400000     ws2_32:WS2_32.dll
 0000:fff98000       .debug$S                   00400000     ws2_32:WS2_32.dll
 0000:fff98000       .debug$S                   00400000     ws2_32:WS2_32.dll
 0000:fff98000       .debug$S                   00400000     ws2_32:WS2_32.dll
 0000:fff98000       .debug$S                   00400000     ws2_32:WS2_32.dll
 0001:00000000       ??__E?isInitialized@CAtlStringMgr@ATL@@0_NA@@YAXXZ 00401000 f   CSHandler.obj
 0001:00000020       ??__EInitializeCAtlStringMgr@ATLImplementationDetails@ATL@@YAXXZ 00401020 f   CSHandler.obj
 0001:00000030       ??__E_AtlModule@@YAXXZ     00401030 f   TLoginSvr.obj
 0001:00000050       ??__Eg_strSecretKey@@YAXXZ 00401050 f   TNetLib:Session.obj
 0001:000000e0       ??__E_AtlBaseModule@ATL@@YAXXZ 004010e0 f   atls:atlbase.obj
 0001:000000f6       ??__Einitlocks@std@@YAXXZ  004010f6 f   libcpmt:xlock.obj
 0001:0000010c       ??__Eclassic_locale@std@@YAXXZ 0040110c f   libcpmt:locale0.obj
 0001:00000118       ??__F_Fac_tidy_reg@std@@YAXXZ 00401118 f   libcpmt:locale0.obj
 0001:00000124       ??__Ecin@std@@YAXXZ        00401124 f   libcpmt:cin.obj
 0001:00000143       ??__Efin@std@@YAXXZ        00401143 f   libcpmt:cin.obj
 0001:0000017d       ??__Einit_cin@std@@YAXXZ   0040117d f   libcpmt:cin.obj
 0001:0000019b       ??__Einitlocks@@YAXXZ      0040119b f   libcpmt:cin.obj
 0001:000001b1       ??__Ecout@std@@YAXXZ       004011b1 f   libcpmt:cout.obj
 0001:000001d0       ??__Efout@std@@YAXXZ       004011d0 f   libcpmt:cout.obj
 0001:0000020a       ??__Einit_cout@std@@YAXXZ  0040120a f   libcpmt:cout.obj
 0001:00000214       ??__Einitlocks@@YAXXZ      00401214 f   libcpmt:cout.obj
 0001:0000022a       ??__Einitlocks@std@@YAXXZ  0040122a f   libcpmt:iosptrs.obj
 0001:00000240       ??__Finit_atexit@@YAXXZ    00401240 f   libcpmt:iosptrs.obj
 0001:000033f0       _no_op_initialize          004043f0 f i libucrt:wsetlocale.obj
 0001:00003cb0       _initialize_environment    00404cb0 f i libucrt:initialization.obj
 0001:00003cb0       _initialize_global_state_isolation 00404cb0 f i libucrt:initialization.obj
 0001:00003cb0       _report_memory_leaks       00404cb0 f i libucrt:initialization.obj
 0001:00003cb0       _uninitialize_c            00404cb0 f i libucrt:initialization.obj
 0001:00003cb0       _uninitialize_global_state_isolation 00404cb0 f i libucrt:initialization.obj
 0001:000043d7       __catch$?flush@?$basic_ostream@DU?$char_traits@D@std@@@std@@QAEAAV12@XZ$0 004053d7 f i TServerSystem:TServerSystem.obj
 0001:000044eb       __catch$?_Osfx@?$basic_ostream@DU?$char_traits@D@std@@@std@@QAEXXZ$0 004054eb f i TServerSystem:TServerSystem.obj
 0001:00004bbb       __catch$??$?6U?$char_traits@D@std@@@std@@YAAAV?$basic_ostream@DU?$char_traits@D@std@@@0@AAV10@PBD@Z$0 00405bbb f i TServerSystem:TServerSystem.obj
 0001:0000537b       __catch$?put@?$basic_ostream@DU?$char_traits@D@std@@@std@@QAEAAV12@D@Z$0 0040637b f i TServerSystem:TServerSystem.obj
 0001:00005908       __catch$??$_Insert_string@DU?$char_traits@D@std@@I@std@@YAAAV?$basic_ostream@DU?$char_traits@D@std@@@0@AAV10@QBDI@Z$0 00406908 f i TServerSystem:TServerSystem.obj
 0001:00005bda       __catch$??$_Emplace_reallocate@ABV?$basic_string@DU?$char_traits@D@std@@V?$allocator@D@2@@std@@@?$vector@V?$basic_string@DU?$char_traits@D@std@@V?$allocator@D@2@@std@@V?$allocator@V?$basic_string@DU?$char_traits@D@std@@V?$allocator@D@2@@std@@@2@@std@@AAEPAV?$basic_string@DU?$char_traits@D@std@@V?$allocator@D@2@@1@QAV21@ABV21@@Z$0 00406bda f i TServerSystem:TServerSystem.obj
 0001:00005deb       __catch$??$_Emplace_reallocate@ABV?$vector@V?$basic_string@DU?$char_traits@D@std@@V?$allocator@D@2@@std@@V?$allocator@V?$basic_string@DU?$char_traits@D@std@@V?$allocator@D@2@@std@@@2@@std@@@?$vector@V?$vector@V?$basic_string@DU?$char_traits@D@std@@V?$allocator@D@2@@std@@V?$allocator@V?$basic_string@DU?$char_traits@D@std@@V?$allocator@D@2@@std@@@2@@std@@V?$allocator@V?$vector@V?$basic_string@DU?$char_traits@D@std@@V?$allocator@D@2@@std@@V?$allocator@V?$basic_string@DU?$char_traits@D@std@@V?$allocator@D@2@@std@@@2@@std@@@2@@std@@AAEPAV?$vector@V?$basic_string@DU?$char_traits@D@std@@V?$allocator@D@2@@std@@V?$allocator@V?$basic_string@DU?$char_traits@D@std@@V?$allocator@D@2@@std@@@2@@1@QAV21@ABV21@@Z$0 00406deb f i TServerSystem:TServerSystem.obj
 0001:000075c6       __catch$??$_Copy_nodes@$0A@@?$_Tree@V?$_Tmap_traits@UEntry@?$CSimpleIniTempl@DU?$SI_NoCase@D@@V?$SI_ConvertA@D@@@@PBDUKeyOrder@12@V?$allocator@U?$pair@$$CBUEntry@?$CSimpleIniTempl@DU?$SI_NoCase@D@@V?$SI_ConvertA@D@@@@PBD@std@@@std@@$00@std@@@std@@IAEPAU?$_Tree_node@U?$pair@$$CBUEntry@?$CSimpleIniTempl@DU?$SI_NoCase@D@@V?$SI_ConvertA@D@@@@PBD@std@@PAX@1@PAU21@0@Z$0 004085c6 f i TServerSystem:TServerSystem.obj
 0001:0000880c       $LN12                      0040980c     CSHandler.obj
 0001:0000881c       $LN11                      0040981c     CSHandler.obj
 0001:00010e5d       __catch$?_Ipfx@?$basic_istream@DU?$char_traits@D@std@@@std@@QAE_N_N@Z$0 00411e5d f i mailer.obj
 0001:00011290       __catch$??$?5DU?$char_traits@D@std@@V?$allocator@D@1@@std@@YAAAV?$basic_istream@DU?$char_traits@D@std@@@0@AAV10@AAV?$basic_string@DU?$char_traits@D@std@@V?$allocator@D@2@@0@@Z$0 00412290 f i TLoginSvr.obj
 0001:00012214       $LN125                     00413214     TLoginSvr.obj
 0001:00013f54       $LN28                      00414f54     TLoginSvr.obj
 0001:00013f8c       $LN27                      00414f8c     TLoginSvr.obj
 0001:00013fa8       $LN30                      00414fa8     TLoginSvr.obj
 0001:00013fc0       $LN29                      00414fc0     TLoginSvr.obj
 0001:00018b3d       _tidy_global               00419b3d f   libcpmt:locale0.obj
 0001:00019304       ?find_pe_section@@YAPAU_IMAGE_SECTION_HEADER@@QAEI@Z 0041a304 f   LIBCMT:utility.obj
 0001:00019555       ?__scrt_initialize_thread_safe_statics@@YAHXZ 0041a555 f   LIBCMT:thread_safe_statics.obj
 0001:0001957c       ?__scrt_initialize_thread_safe_statics_platform_specific@@YAXXZ 0041a57c f   LIBCMT:thread_safe_statics.obj
 0001:000195fe       ?__scrt_uninitialize_thread_safe_statics@@YAXXZ 0041a5fe f   LIBCMT:thread_safe_statics.obj
 0001:00019770       $$000000                   0041a770     LIBCMT:lldvrm.obj
 0001:00019794       L1                         0041a794     LIBCMT:lldvrm.obj
 0001:000197b0       L2                         0041a7b0     LIBCMT:lldvrm.obj
 0001:000197dc       L3                         0041a7dc     LIBCMT:lldvrm.obj
 0001:000197ea       L5                         0041a7ea     LIBCMT:lldvrm.obj
 0001:00019818       L6                         0041a818     LIBCMT:lldvrm.obj
 0001:00019821       L7                         0041a821     LIBCMT:lldvrm.obj
 0001:00019823       L4                         0041a823     LIBCMT:lldvrm.obj
 0001:00019835       L9                         0041a835     LIBCMT:lldvrm.obj
 0001:00019849       L8                         0041a849     LIBCMT:lldvrm.obj
 0001:00019a79       ?pre_c_initialization@@YAHXZ 0041aa79 f   LIBCMT:exe_main.obj
 0001:00019b24       ?post_pgo_initialization@@YAHXZ 0041ab24 f   LIBCMT:exe_main.obj
 0001:00019b2c       ?pre_cpp_initialization@@YAXXZ 0041ab2c f   LIBCMT:exe_main.obj
 0001:00019b3e       ?__scrt_common_main_seh@@YAHXZ 0041ab3e f   LIBCMT:exe_main.obj
 0001:00019ce0       $$000000                   0041ace0     LIBCMT:chkstk.obj
 0001:00019cf4       cs10                       0041acf4     LIBCMT:chkstk.obj
 0001:00019d02       cs20                       0041ad02     LIBCMT:chkstk.obj
 0001:00019dd0       $$000000                   0041add0     LIBCMT:alloca16.obj
 0001:00019de6       alloca_8                   0041ade6     LIBCMT:alloca16.obj
 0001:00019fd0       $$000000                   0041afd0     LIBCMT:llmul.obj
 0001:00019fe9       hard                       0041afe9     LIBCMT:llmul.obj
 0001:0001a210       $$000000                   0041b210     LIBCMT:sehprolg4.obj
 0001:0001a255       ___get_entropy             0041b255 f   LIBCMT:gs_support.obj
 0001:0001a461       ?_FilterSetCurrentException@@YAKPAU_EXCEPTION_POINTERS@@E@Z 0041b461 f   libvcruntime:ehhelpers.obj
 0001:0001aa20       $$000000                   0041ba20     libvcruntime:memcpy.obj
 0001:0001aa20       $$000000                   0041ba20     libvcruntime:memmove.obj
 0001:0001aa40       CopyUp                     0041ba40     libvcruntime:memcpy.obj
 0001:0001aa40       CopyUp                     0041ba40     libvcruntime:memmove.obj
 0001:0001aa64       CopyUpLargeMov             0041ba64     libvcruntime:memcpy.obj
 0001:0001aa64       CopyUpLargeMov             0041ba64     libvcruntime:memmove.obj
 0001:0001aa77       CopyUpSSE2Check            0041ba77     libvcruntime:memcpy.obj
 0001:0001aa77       CopyUpSSE2Check            0041ba77     libvcruntime:memmove.obj
 0001:0001aa90       AtomChk                    0041ba90     libvcruntime:memcpy.obj
 0001:0001aa90       AtomChk                    0041ba90     libvcruntime:memmove.obj
 0001:0001aab6       PalignHead4                0041bab6     libvcruntime:memcpy.obj
 0001:0001aab6       PalignHead4                0041bab6     libvcruntime:memmove.obj
 0001:0001aac9       PalignHead8                0041bac9     libvcruntime:memcpy.obj
 0001:0001aac9       PalignHead8                0041bac9     libvcruntime:memmove.obj
 0001:0001aae0       PalignLoop                 0041bae0     libvcruntime:memcpy.obj
 0001:0001aae0       PalignLoop                 0041bae0     libvcruntime:memmove.obj
 0001:0001aaf2       MovPalign12                0041baf2     libvcruntime:memcpy.obj
 0001:0001aaf2       MovPalign12                0041baf2     libvcruntime:memmove.obj
 0001:0001aafc       PalignLoop12               0041bafc     libvcruntime:memcpy.obj
 0001:0001aafc       PalignLoop12               0041bafc     libvcruntime:memmove.obj
 0001:0001ab4d       MovPalign8                 0041bb4d     libvcruntime:memcpy.obj
 0001:0001ab4d       MovPalign8                 0041bb4d     libvcruntime:memmove.obj
 0001:0001ab58       PalignLoop8                0041bb58     libvcruntime:memcpy.obj
 0001:0001ab58       PalignLoop8                0041bb58     libvcruntime:memmove.obj
 0001:0001aba6       MovPalign4                 0041bba6     libvcruntime:memcpy.obj
 0001:0001aba6       MovPalign4                 0041bba6     libvcruntime:memmove.obj
 0001:0001abb0       PalignLoop4                0041bbb0     libvcruntime:memcpy.obj
 0001:0001abb0       PalignLoop4                0041bbb0     libvcruntime:memmove.obj
 0001:0001abfc       PalignTail                 0041bbfc     libvcruntime:memcpy.obj
 0001:0001abfc       PalignTail                 0041bbfc     libvcruntime:memmove.obj
 0001:0001ac14       PalignTail4                0041bc14     libvcruntime:memcpy.obj
 0001:0001ac14       PalignTail4                0041bc14     libvcruntime:memmove.obj
 0001:0001ac27       PalignTail8                0041bc27     libvcruntime:memcpy.obj
 0001:0001ac27       PalignTail8                0041bc27     libvcruntime:memmove.obj
 0001:0001ac3e       PalignTailLE3              0041bc3e     libvcruntime:memcpy.obj
 0001:0001ac3e       PalignTailLE3              0041bc3e     libvcruntime:memmove.obj
 0001:0001ac47       Dword_align                0041bc47     libvcruntime:memcpy.obj
 0001:0001ac47       Dword_align                0041bc47     libvcruntime:memmove.obj
 0001:0001ac4f       Dword_up_align_loop        0041bc4f     libvcruntime:memcpy.obj
 0001:0001ac4f       Dword_up_align_loop        0041bc4f     libvcruntime:memmove.obj
 0001:0001ac62       Dword_align_Ok             0041bc62     libvcruntime:memcpy.obj
 0001:0001ac62       Dword_align_Ok             0041bc62     libvcruntime:memmove.obj
 0001:0001ac7c       ByteCopyUp                 0041bc7c     libvcruntime:memcpy.obj
 0001:0001ac7c       ByteCopyUp                 0041bc7c     libvcruntime:memmove.obj
 0001:0001ac84       TrailingUpVec              0041bc84     libvcruntime:memcpy.obj
 0001:0001ac84       TrailingUpVec              0041bc84     libvcruntime:memmove.obj
 0001:0001ac94       TrailingUp0                0041bc94     libvcruntime:memcpy.obj
 0001:0001ac94       TrailingUp0                0041bc94     libvcruntime:memmove.obj
 0001:0001ac9c       TrailingUp1                0041bc9c     libvcruntime:memcpy.obj
 0001:0001ac9c       TrailingUp1                0041bc9c     libvcruntime:memmove.obj
 0001:0001aca8       TrailingUp2                0041bca8     libvcruntime:memcpy.obj
 0001:0001aca8       TrailingUp2                0041bca8     libvcruntime:memmove.obj
 0001:0001acbc       TrailingUp3                0041bcbc     libvcruntime:memcpy.obj
 0001:0001acbc       TrailingUp3                0041bcbc     libvcruntime:memmove.obj
 0001:0001acd4       CopyDown                   0041bcd4     libvcruntime:memcpy.obj
 0001:0001acd4       CopyDown                   0041bcd4     libvcruntime:memmove.obj
 0001:0001acf9       CopyDownNotAligned         0041bcf9     libvcruntime:memcpy.obj
 0001:0001acf9       CopyDownNotAligned         0041bcf9     libvcruntime:memmove.obj
 0001:0001ad00       CopyDownAlignLoop          0041bd00     libvcruntime:memcpy.obj
 0001:0001ad00       CopyDownAlignLoop          0041bd00     libvcruntime:memmove.obj
 0001:0001ad0d       CopyDownAligned            0041bd0d     libvcruntime:memcpy.obj
 0001:0001ad0d       CopyDownAligned            0041bd0d     libvcruntime:memmove.obj
 0001:0001ad30       TrailingDownVec            0041bd30     libvcruntime:memcpy.obj
 0001:0001ad30       TrailingDownVec            0041bd30     libvcruntime:memmove.obj
 0001:0001ad40       TrailingDown0              0041bd40     libvcruntime:memcpy.obj
 0001:0001ad40       TrailingDown0              0041bd40     libvcruntime:memmove.obj
 0001:0001ad48       TrailingDown1              0041bd48     libvcruntime:memcpy.obj
 0001:0001ad48       TrailingDown1              0041bd48     libvcruntime:memmove.obj
 0001:0001ad58       TrailingDown2              0041bd58     libvcruntime:memcpy.obj
 0001:0001ad58       TrailingDown2              0041bd58     libvcruntime:memmove.obj
 0001:0001ad6c       TrailingDown3              0041bd6c     libvcruntime:memcpy.obj
 0001:0001ad6c       TrailingDown3              0041bd6c     libvcruntime:memmove.obj
 0001:0001ad85       XmmMovLargeAlignTest       0041bd85     libvcruntime:memcpy.obj
 0001:0001ad85       XmmMovLargeAlignTest       0041bd85     libvcruntime:memmove.obj
 0001:0001ad8d       XmmMovAlignLoop            0041bd8d     libvcruntime:memcpy.obj
 0001:0001ad8d       XmmMovAlignLoop            0041bd8d     libvcruntime:memmove.obj
 0001:0001ad9c       XmmMovLargeLoop            0041bd9c     libvcruntime:memcpy.obj
 0001:0001ad9c       XmmMovLargeLoop            0041bd9c     libvcruntime:memmove.obj
 0001:0001ae0c       XmmMovSmallTest            0041be0c     libvcruntime:memcpy.obj
 0001:0001ae0c       XmmMovSmallTest            0041be0c     libvcruntime:memmove.obj
 0001:0001ae11       XmmMovSmallLoop            0041be11     libvcruntime:memcpy.obj
 0001:0001ae11       XmmMovSmallLoop            0041be11     libvcruntime:memmove.obj
 0001:0001ae34       CopyDownSmall              0041be34     libvcruntime:memcpy.obj
 0001:0001ae34       CopyDownSmall              0041be34     libvcruntime:memmove.obj
 0001:0001ae3c       CopyDownDwordLoop          0041be3c     libvcruntime:memcpy.obj
 0001:0001ae3c       CopyDownDwordLoop          0041be3c     libvcruntime:memmove.obj
 0001:0001ae51       CopyDownByteTest           0041be51     libvcruntime:memcpy.obj
 0001:0001ae51       CopyDownByteTest           0041be51     libvcruntime:memmove.obj
 0001:0001ae55       CopyDownByteLoop           0041be55     libvcruntime:memcpy.obj
 0001:0001ae55       CopyDownByteLoop           0041be55     libvcruntime:memmove.obj
 0001:0001ae64       CopyDownReturn             0041be64     libvcruntime:memcpy.obj
 0001:0001ae64       CopyDownReturn             0041be64     libvcruntime:memmove.obj
 0001:0001ae70       XmmCopy                    0041be70     libvcruntime:memcpy.obj
 0001:0001ae70       XmmCopy                    0041be70     libvcruntime:memmove.obj
 0001:0001ae7d       XmmCopyAligned             0041be7d     libvcruntime:memcpy.obj
 0001:0001ae7d       XmmCopyAligned             0041be7d     libvcruntime:memmove.obj
 0001:0001ae90       XmmCopyLargeLoop           0041be90     libvcruntime:memcpy.obj
 0001:0001ae90       XmmCopyLargeLoop           0041be90     libvcruntime:memmove.obj
 0001:0001aeed       XmmCopySmallTest           0041beed     libvcruntime:memcpy.obj
 0001:0001aeed       XmmCopySmallTest           0041beed     libvcruntime:memmove.obj
 0001:0001af00       XmmCopySmallLoop           0041bf00     libvcruntime:memcpy.obj
 0001:0001af00       XmmCopySmallLoop           0041bf00     libvcruntime:memmove.obj
 0001:0001af1b       CopyUpDwordMov             0041bf1b     libvcruntime:memcpy.obj
 0001:0001af1b       CopyUpDwordMov             0041bf1b     libvcruntime:memmove.obj
 0001:0001af20       CopyUpDwordTest            0041bf20     libvcruntime:memcpy.obj
 0001:0001af20       CopyUpDwordTest            0041bf20     libvcruntime:memmove.obj
 0001:0001af27       CopyUpDwordLoop            0041bf27     libvcruntime:memcpy.obj
 0001:0001af27       CopyUpDwordLoop            0041bf27     libvcruntime:memmove.obj
 0001:0001af36       CopyUpByteTest             0041bf36     libvcruntime:memcpy.obj
 0001:0001af36       CopyUpByteTest             0041bf36     libvcruntime:memmove.obj
 0001:0001af3d       CopyUpByteLoop             0041bf3d     libvcruntime:memcpy.obj
 0001:0001af3d       CopyUpByteLoop             0041bf3d     libvcruntime:memmove.obj
 0001:0001af50       CopyUpReturn               0041bf50     libvcruntime:memcpy.obj
 0001:0001af50       CopyUpReturn               0041bf50     libvcruntime:memmove.obj
 0001:0001af60       XmmCopyUnaligned           0041bf60     libvcruntime:memcpy.obj
 0001:0001af60       XmmCopyUnaligned           0041bf60     libvcruntime:memmove.obj
 0001:0001af73       XmmAlignByte               0041bf73     libvcruntime:memcpy.obj
 0001:0001af73       XmmAlignByte               0041bf73     libvcruntime:memmove.obj
 0001:0001af7c       XmmAlignDwordTest          0041bf7c     libvcruntime:memcpy.obj
 0001:0001af7c       XmmAlignDwordTest          0041bf7c     libvcruntime:memmove.obj
 0001:0001af81       XmmAlignDwordLoop          0041bf81     libvcruntime:memcpy.obj
 0001:0001af81       XmmAlignDwordLoop          0041bf81     libvcruntime:memmove.obj
 0001:0001af8e       XmmAlignAdjustCnt          0041bf8e     libvcruntime:memcpy.obj
 0001:0001af8e       XmmAlignAdjustCnt          0041bf8e     libvcruntime:memmove.obj
 0001:0001afa0       $$000000                   0041bfa0     libvcruntime:memset.obj
 0001:0001afe5       XMMMov                     0041bfe5     libvcruntime:memset.obj
 0001:0001b020       LargeRangeBytes            0041c020     libvcruntime:memset.obj
 0001:0001b05d       XmmMovSmall                0041c05d     libvcruntime:memset.obj
 0001:0001b070       XmmSmallLoop               0041c070     libvcruntime:memset.obj
 0001:0001b075       MidRangeBytes              0041c075     libvcruntime:memset.obj
 0001:0001b091       XMMTrailingBytes           0041c091     libvcruntime:memset.obj
 0001:0001b0a5       SmallMov                   0041c0a5     libvcruntime:memset.obj
 0001:0001b0ad       ByteLoop                   0041c0ad     libvcruntime:memset.obj
 0001:0001b0bb       DwordTest                  0041c0bb     libvcruntime:memset.obj
 0001:0001b0cb       QwordTest                  0041c0cb     libvcruntime:memset.obj
 0001:0001b0e0       QwordLoop                  0041c0e0     libvcruntime:memset.obj
 0001:0001b0f3       toend                      0041c0f3     libvcruntime:memset.obj
 0001:0001b120       $$000000                   0041c120     libvcruntime:strrchr.obj
 0001:0001b15d       strrchr_sse_loop           0041c15d     libvcruntime:strrchr.obj
 0001:0001b18d       strrchr_sse_break          0041c18d     libvcruntime:strrchr.obj
 0001:0001b1ad       strrchr_sttni              0041c1ad     libvcruntime:strrchr.obj
 0001:0001b1bf       strrchr_sttni_chars        0041c1bf     libvcruntime:strrchr.obj
 0001:0001b1d4       strrchr_sttni_aligned      0041c1d4     libvcruntime:strrchr.obj
 0001:0001b1d8       strrchr_sttni_xmm          0041c1d8     libvcruntime:strrchr.obj
 0001:0001b1eb       exit                       0041c1eb     libvcruntime:strrchr.obj
 0001:0001b1ee       strrchr_zero               0041c1ee     libvcruntime:strrchr.obj
 0001:0001b213       strchr_zero_loop           0041c213     libvcruntime:strrchr.obj
 0001:0001b227       strchr_zero_result         0041c227     libvcruntime:strrchr.obj
 0001:0001b22e       strrchr_no_sse             0041c22e     libvcruntime:strrchr.obj
 0001:0001b251       returndi                   0041c251     libvcruntime:strrchr.obj
 0001:0001b253       toend                      0041c253     libvcruntime:strrchr.obj
 0001:0001c867       $LN1250                    0041d867     libvcruntime:memcmp.obj
 0001:0001c920       _ValidateLocalCookies      0041d920 f   libvcruntime:chandler4.obj
 0001:0001cc3b       ??$BuildCatchObjectHelperInternal@V__FrameHandler3@@@@YAHPAUEHExceptionRecord@@PAXPBU_s_HandlerType@@PBU_s_CatchableType@@@Z 0041dc3b f   libvcruntime:frame.obj
 0001:0001cd79       ??$BuildCatchObjectInternal@V__FrameHandler3@@@@YAXPAUEHExceptionRecord@@PAXPBU_s_HandlerType@@PBU_s_CatchableType@@@Z 0041dd79 f   libvcruntime:frame.obj
 0001:0001ce12       ??$CatchIt@V__FrameHandler3@@@@YAXPAUEHExceptionRecord@@PAUEHRegistrationNode@@PAU_CONTEXT@@PAXPBU_s_FuncInfo@@PBU_s_HandlerType@@PBU_s_CatchableType@@PBU_s_TryBlockMapEntry@@H1EE@Z 0041de12 f   libvcruntime:frame.obj
 0001:0001ce92       ??$FindHandler@V__FrameHandler3@@@@YAXPAUEHExceptionRecord@@PAUEHRegistrationNode@@PAU_CONTEXT@@PAXPBU_s_FuncInfo@@EH1@Z 0041de92 f   libvcruntime:frame.obj
 0001:0001d237       ??$FindHandlerForForeignException@V__FrameHandler3@@@@YAXPAUEHExceptionRecord@@PAUEHRegistrationNode@@PAU_CONTEXT@@PAXPBU_s_FuncInfo@@HH1@Z 0041e237 f   libvcruntime:frame.obj
 0001:0001d558       ?CallCatchBlock@@YAPAXPAUEHExceptionRecord@@PAUEHRegistrationNode@@PAU_CONTEXT@@PBU_s_FuncInfo@@PAXHK@Z 0041e558 f   libvcruntime:frame.obj
 0001:0001d727       ?CallUnexpected@@YAXPBU_s_ESTypeList@@@Z 0041e727 f   libvcruntime:frame.obj
 0001:0001d747       __catch$?CallUnexpected@@YAXPBU_s_ESTypeList@@@Z$0 0041e747 f   libvcruntime:frame.obj
 0001:0001d766       ?ExFilterRethrow@@YAHPAU_EXCEPTION_POINTERS@@@Z 0041e766 f   libvcruntime:frame.obj
 0001:0001d8b0       ?IsInExceptionSpec@@YAEPAUEHExceptionRecord@@PBU_s_ESTypeList@@@Z 0041e8b0 f   libvcruntime:frame.obj
 0001:0001d980       $$000000                   0041e980     libvcruntime:lowhelpr.obj
 0001:0001d9bf       _NLG_Continue              0041e9bf     libvcruntime:lowhelpr.obj
 0001:0001da70       $$000000                   0041ea70     libvcruntime:exsup4.obj
 0001:0001daa2       _lu_top                    0041eaa2     libvcruntime:exsup4.obj
 0001:0001db01       _lu_done                   0041eb01     libvcruntime:exsup4.obj
 0001:0001db10       $$000000                   0041eb10     libvcruntime:exsup4.obj
 0001:0001db10       __unwind_handler4          0041eb10 f   libvcruntime:exsup4.obj
 0001:0001db60       $$000000                   0041eb60     libvcruntime:exsup4.obj
 0001:0001db80       $$000000                   0041eb80     libvcruntime:exsup4.obj
 0001:0001dba0       $$000000                   0041eba0     libvcruntime:exsup4.obj
 0001:0001dbb5       ReturnPoint                0041ebb5     libvcruntime:exsup4.obj
 0001:0001dbc0       $$000000                   0041ebc0     libvcruntime:exsup4.obj
 0001:0001dbd7       ?try_get_function@@YAPAXW4function_id@?A0x14174aea@@QBDQBW4module_id@2@2@Z 0041ebd7 f   libvcruntime:winapi_downlevel.obj
 0001:0001dc77       ?try_load_library_from_system_directory@@YAPAUHINSTANCE__@@QB_W@Z 0041ec77 f   libvcruntime:winapi_downlevel.obj
 0001:0001de40       $$000000                   0041ee40     libvcruntime:exsup.obj
 0001:0001de50       $$000000                   0041ee50     libvcruntime:exsup.obj
 0001:0001de5b       __NLG_Go                   0041ee5b     libvcruntime:exsup.obj
 0001:0001de70       $$000000                   0041ee70     libvcruntime:exsup.obj
 0001:0001e45f       ??$common_vsnprintf_s@D@@YAH_KQADIIQBDQAU__crt_locale_pointers@@1@Z 0041f45f f   libucrt:output.obj
 0001:0001e55e       ??$common_vsprintf@Vformat_validation_base@__crt_stdio_output@@D@@YAH_KQADIQBDQAU__crt_locale_pointers@@1@Z 0041f55e f   libucrt:output.obj
 0001:0001e6dc       ??$common_vsprintf@Vstandard_base@__crt_stdio_output@@D@@YAH_KQADIQBDQAU__crt_locale_pointers@@1@Z 0041f6dc f   libucrt:output.obj
 0001:0001e85a       ??$common_vsprintf_s@D@@YAH_KQADIQBDQAU__crt_locale_pointers@@1@Z 0041f85a f   libucrt:output.obj
 0001:0001ee7d       $LN48                      0041fe7d     libucrt:output.obj
 0001:0001ef91       $LN50                      0041ff91     libucrt:output.obj
 0001:0001f4ac       $LN18                      004204ac     libucrt:output.obj
 0001:0001f4c0       $LN17                      004204c0     libucrt:output.obj
 0001:000200f2       ??$?RV<lambda_2866be3712abc81a800a822484c830d8>@@AAV<lambda_39ca0ed439415581b5b15c265174cece>@@V<lambda_2b24c74d71094a6cd0cb82e44167d71b>@@@?$__crt_seh_guarded_call@X@@QAEX$$QAV<lambda_2866be3712abc81a800a822484c830d8>@@AAV<lambda_39ca0ed439415581b5b15c265174cece>@@$$QAV<lambda_2b24c74d71094a6cd0cb82e44167d71b>@@@Z 004210f2 f   libucrt:fflush.obj
 0001:0002017e       ??$?RV<lambda_2cc53f568c5a2bb6f192f930a45d44ea>@@AAV<lambda_ab61a845afdef5b7c387490eaf3616ee>@@V<lambda_c2ffc0b7726aa6be21d5f0026187e748>@@@?$__crt_seh_guarded_call@X@@QAEX$$QAV<lambda_2cc53f568c5a2bb6f192f930a45d44ea>@@AAV<lambda_ab61a845afdef5b7c387490eaf3616ee>@@$$QAV<lambda_c2ffc0b7726aa6be21d5f0026187e748>@@@Z 0042117e f   libucrt:fflush.obj
 0001:0002022a       ??$?RV<lambda_6d20deecaf4856105ebacbad442d1079>@@AAV<lambda_9a32fed5bf61b6b509b2d3f6003082a1>@@V<lambda_63ea2239ed67c638ddbae41947fdf875>@@@?$__crt_seh_guarded_call@H@@QAEH$$QAV<lambda_6d20deecaf4856105ebacbad442d1079>@@AAV<lambda_9a32fed5bf61b6b509b2d3f6003082a1>@@$$QAV<lambda_63ea2239ed67c638ddbae41947fdf875>@@@Z 0042122a f   libucrt:fflush.obj
 0001:0002028a       ?common_flush_all@@YAH_N@Z 0042128a f   libucrt:fflush.obj
 0001:000202d7       ?common_flush_all_should_try_to_flush_stream@@YA_NV__crt_stdio_stream@@QAH@Z 004212d7 f   libucrt:fflush.obj
 0001:0002030a       ?is_stream_flushable_or_commitable@@YA_NJ@Z 0042130a f   libucrt:fflush.obj
 0001:000209ac       _memcpy_s                  004219ac f   libucrt:cfout.obj
 0001:000209ac       _memcpy_s                  004219ac f   libucrt:strtod.obj
 0001:000209ac       _memcpy_s                  004219ac f   libucrt:mbctype.obj
 0001:000209ac       _memcpy_s                  004219ac f   libucrt:fread.obj
 0001:00020ae2       ?common_fseek@@YAHV__crt_stdio_stream@@_JH@Z 00421ae2 f   libucrt:fseek.obj
 0001:00020b6d       ?common_fseek_binary_mode_read_only_fast_track_nolock@@YA_NV__crt_stdio_stream@@_JH@Z 00421b6d f   libucrt:fseek.obj
 0001:00020c46       ?common_fseek_nolock@@YAHV__crt_stdio_stream@@_JH@Z 00421c46 f   libucrt:fseek.obj
 0001:00020d5a       ??$?RV<lambda_4ac01c32aa5b53846f05d0620572872e>@@AAV<lambda_5856287d7ecd2be6c9197bb4007c3f6e>@@V<lambda_e7a9868ed898c75c0f0637692d94351a>@@@?$__crt_seh_guarded_call@I@@QAEI$$QAV<lambda_4ac01c32aa5b53846f05d0620572872e>@@AAV<lambda_5856287d7ecd2be6c9197bb4007c3f6e>@@$$QAV<lambda_e7a9868ed898c75c0f0637692d94351a>@@@Z 00421d5a f   libucrt:fwrite.obj
 0001:00020db5       ??R<lambda_5856287d7ecd2be6c9197bb4007c3f6e>@@QBEIXZ 00421db5 f   libucrt:fwrite.obj
 0001:00020fdc       ??$?RV<lambda_b4242a90177f71b82d5a351515ac407a>@@AAV<lambda_b4f66040be5f354a654fb75160c27bfc>@@V<lambda_414c89348e1c610e2dbd648c5fde2086>@@@?$__crt_seh_guarded_call@H@@QAEH$$QAV<lambda_b4242a90177f71b82d5a351515ac407a>@@AAV<lambda_b4f66040be5f354a654fb75160c27bfc>@@$$QAV<lambda_414c89348e1c610e2dbd648c5fde2086>@@@Z 00421fdc f   libucrt:setvbuf.obj
 0001:00021037       ??R<lambda_b4f66040be5f354a654fb75160c27bfc>@@QBEHXZ 00422037 f   libucrt:setvbuf.obj
 0001:000210d4       ?set_buffer@@YAHV__crt_stdio_stream@@QADIH@Z 004220d4 f   libucrt:setvbuf.obj
 0001:000212f6       ??$common_localtime_s@_J@@YAHQAUtm@@QB_J@Z 004222f6 f   libucrt:localtime.obj
 0001:000215b7       ??$__acrt_convert_wcs_mbs_cp@D_WV<lambda_62f6974d9771e494a5ea317cc32e971c>@@U__crt_win32_buffer_internal_dynamic_resizing@@@@YAHQBDAAV?$__crt_win32_buffer@_WU__crt_win32_buffer_internal_dynamic_resizing@@@@ABV<lambda_62f6974d9771e494a5ea317cc32e971c>@@I@Z 004225b7 f   libucrt:strftime.obj
 0001:00021669       ??$__acrt_convert_wcs_mbs_cp@_WDV<lambda_0fec1a7b3f42a53036604e18c2d5e07e>@@U__crt_win32_buffer_no_resizing@@@@YAHQB_WAAV?$__crt_win32_buffer@DU__crt_win32_buffer_no_resizing@@@@ABV<lambda_0fec1a7b3f42a53036604e18c2d5e07e>@@I@Z 00422669 f   libucrt:getmodulefilenamea.obj
 0001:00021669       ??$__acrt_convert_wcs_mbs_cp@_WDV<lambda_0fec1a7b3f42a53036604e18c2d5e07e>@@U__crt_win32_buffer_no_resizing@@@@YAHQB_WAAV?$__crt_win32_buffer@DU__crt_win32_buffer_no_resizing@@@@ABV<lambda_0fec1a7b3f42a53036604e18c2d5e07e>@@I@Z 00422669 f   libucrt:strftime.obj
 0001:00021a6e       ??$?RV<lambda_9a462f4e0ebb28b87551e12ccffee677>@@AAV<lambda_aa3754a7aa5b4d51093b5036e29efe7b>@@V<lambda_0e3764851bdc48140fe2cf5acfa0db04>@@@?$__crt_seh_guarded_call@H@@QAEH$$QAV<lambda_9a462f4e0ebb28b87551e12ccffee677>@@AAV<lambda_aa3754a7aa5b4d51093b5036e29efe7b>@@$$QAV<lambda_0e3764851bdc48140fe2cf5acfa0db04>@@@Z 00422a6e f   libucrt:puts.obj
 0001:00021ac9       ??R<lambda_aa3754a7aa5b4d51093b5036e29efe7b>@@QBEHXZ 00422ac9 f   libucrt:puts.obj
 0001:00021c16       ??$common_fsopen@D@@YAPAU_iobuf@@QBD0H@Z 00422c16 f   libucrt:fopen.obj
 0001:00021d2b       ??$common_ftell@J@@YAJV__crt_stdio_stream@@@Z 00422d2b f   libucrt:ftell.obj
 0001:00021d9c       ??$common_ftell@_J@@YA_JV__crt_stdio_stream@@@Z 00422d9c f   libucrt:ftell.obj
 0001:00021e1c       ??$common_ftell_nolock@J@@YAJV__crt_stdio_stream@@@Z 00422e1c f   libucrt:ftell.obj
 0001:00021e47       ??$common_ftell_nolock@_J@@YA_JV__crt_stdio_stream@@@Z 00422e47 f   libucrt:ftell.obj
 0001:00021fcd       ?common_ftell_read_mode_nolock@@YA_JV__crt_stdio_stream@@_J1@Z 00422fcd f   libucrt:ftell.obj
 0001:00022186       ?common_ftell_translated_utf8_nolock@@YA_JV__crt_stdio_stream@@_J@Z 00423186 f   libucrt:ftell.obj
 0001:0002231c       ?count_newline_bytes@@YA_JQBD0W4__crt_lowio_text_mode@@@Z 0042331c f   libucrt:ftell.obj
 0001:00022550       $$000000                   00423550     libucrt:strcspn.obj
 0001:000231f4       ??$?RV<lambda_f5952838e36297a1e2e9d6c748429792>@@AAV<lambda_2116bde18c9e5f34230805ea4a4660ed>@@V<lambda_3c7107de1cc98bf330a3031f42c322a3>@@@?$__crt_seh_guarded_call@PAD@@QAEPAD$$QAV<lambda_f5952838e36297a1e2e9d6c748429792>@@AAV<lambda_2116bde18c9e5f34230805ea4a4660ed>@@$$QAV<lambda_3c7107de1cc98bf330a3031f42c322a3>@@@Z 004241f4 f   libucrt:setlocale.obj
 0001:0002324f       ??R<lambda_2116bde18c9e5f34230805ea4a4660ed>@@QBEPADXZ 0042424f f   libucrt:setlocale.obj
 0001:000233ae       _call_wsetlocale           004243ae f   libucrt:setlocale.obj
 0001:00023fc0       $$000000                   00424fc0     libucrt:pow_impl.obj
 0001:000242ab       ?compute_iso_week@@YAHHHH@Z 004252ab f   libucrt:wcsftime.obj
 0001:000242f4       ?compute_iso_week_internal@@YAHHHH@Z 004252f4 f   libucrt:wcsftime.obj
 0001:00024389       ?compute_iso_year@@YAHHHH@Z 00425389 f   libucrt:wcsftime.obj
 0001:000243b4       ?expand_time@@YA_NPAU__crt_locale_pointers@@_WPBUtm@@PAPA_WPAIPBU__crt_lc_time_data@@_N@Z 004253b4 f   libucrt:wcsftime.obj
 0001:00024d58       $LN165                     00425d58     libucrt:wcsftime.obj
 0001:00024d78       ?store_number@@YAXHHQAPA_WQAI_W@Z 00425d78 f   libucrt:wcsftime.obj
 0001:00024e0c       ?store_number_without_lead_zeroes@@YAXHQAPA_WQAI@Z 00425e0c f   libucrt:wcsftime.obj
 0001:00024e78       ?store_string@@YAXPB_WQAPA_WQAI@Z 00425e78 f   libucrt:wcsftime.obj
 0001:00024ea9       ?store_winword@@YA_NQAU__crt_locale_pointers@@HQBUtm@@QAPA_WQAIQBU__crt_lc_time_data@@@Z 00425ea9 f   libucrt:wcsftime.obj
 0001:00025650       ??$?RV<lambda_03b1d95aef87969028cfba75ccab2455>@@AAV<lambda_6e4b09c48022b2350581041d5f6b0c4c>@@V<lambda_22bdf7517842c4b3e53723af5aa32b9e>@@@?$__crt_seh_guarded_call@X@@QAEX$$QAV<lambda_03b1d95aef87969028cfba75ccab2455>@@AAV<lambda_6e4b09c48022b2350581041d5f6b0c4c>@@$$QAV<lambda_22bdf7517842c4b3e53723af5aa32b9e>@@@Z 00426650 f   libucrt:exit.obj
 0001:000256bc       ??R<lambda_6e4b09c48022b2350581041d5f6b0c4c>@@QBE@XZ 004266bc f   libucrt:exit.obj
 0001:00025796       ?atexit_exception_filter@@YAHK@Z 00426796 f   libucrt:exit.obj
 0001:000257a9       ?common_exit@@YAXHW4_crt_exit_cleanup_mode@@W4_crt_exit_return_mode@@@Z 004267a9 f   libucrt:exit.obj
 0001:0002580d       ?exit_or_terminate_process@@YAXI@Z 0042680d f   libucrt:exit.obj
 0001:0002584f       ?is_managed_app@@YA_NXZ    0042684f f   libucrt:exit.obj
 0001:00025892       ?try_cor_exit_process@@YAXI@Z 00426892 f   libucrt:exit.obj
 0001:00025964       ??$common_configure_argv@D@@YAHW4_crt_argv_mode@@@Z 00426964 f   libucrt:argv_parsing.obj
 0001:00025a9a       ??$parse_command_line@D@@YAXPADPAPAD0PAI2@Z 00426a9a f   libucrt:argv_parsing.obj
 0001:00025c68       ??$common_get_or_create_environment_nolock@D@@YAPAPADXZ 00426c68 f   libucrt:environment_initialization.obj
 0001:00025c94       ??$common_get_or_create_environment_nolock@_W@@YAPAPA_WXZ 00426c94 f   libucrt:environment_initialization.obj
 0001:00025cc0       ??$common_initialize_environment_nolock@D@@YAHXZ 00426cc0 f   libucrt:environment_initialization.obj
 0001:00025d13       ??$common_initialize_environment_nolock@_W@@YAHXZ 00426d13 f   libucrt:environment_initialization.obj
 0001:00025d61       ??$create_environment@D@@YAQAPADQAD@Z 00426d61 f   libucrt:environment_initialization.obj
 0001:00025e31       ??$create_environment@_W@@YAQAPA_WQA_W@Z 00426e31 f   libucrt:environment_initialization.obj
 0001:00025f3e       ??$free_environment@D@@YAXQAPAD@Z 00426f3e f   libucrt:environment_initialization.obj
 0001:00025f3e       ??$free_environment@_W@@YAXQAPA_W@Z 00426f3e f   libucrt:environment_initialization.obj
 0001:00025f6d       ??$initialize_environment_by_cloning_nolock@D@@YAHXZ 00426f6d f   libucrt:environment_initialization.obj
 0001:00025ff0       ??$initialize_environment_by_cloning_nolock@_W@@YAHXZ 00426ff0 f   libucrt:environment_initialization.obj
 0001:00026096       ??$uninitialize_environment_internal@D@@YAXAAPAPAD@Z 00427096 f   libucrt:environment_initialization.obj
 0001:000260b1       ??$uninitialize_environment_internal@_W@@YAXAAPAPA_W@Z 004270b1 f   libucrt:environment_initialization.obj
 0001:00026126       ??$?RV<lambda_69a2805e680e0e292e8ba93315fe43a8>@@AAV<lambda_f03950bc5685219e0bcd2087efbe011e>@@V<lambda_03fcd07e894ec930e3f35da366ca99d6>@@@?$__crt_seh_guarded_call@H@@QAEH$$QAV<lambda_69a2805e680e0e292e8ba93315fe43a8>@@AAV<lambda_f03950bc5685219e0bcd2087efbe011e>@@$$QAV<lambda_03fcd07e894ec930e3f35da366ca99d6>@@@Z 00427126 f   libucrt:onexit.obj
 0001:00026181       ??$?RV<lambda_8e746cf0007f6ed984d6f78af1fec997>@@AAV<lambda_22ebabd17bc4fa466a2aca6d8deb888d>@@V<lambda_18ed0c0b38a6dc0daf1e7ac6d6adf05e>@@@?$__crt_seh_guarded_call@H@@QAEH$$QAV<lambda_8e746cf0007f6ed984d6f78af1fec997>@@AAV<lambda_22ebabd17bc4fa466a2aca6d8deb888d>@@$$QAV<lambda_18ed0c0b38a6dc0daf1e7ac6d6adf05e>@@@Z 00427181 f   libucrt:onexit.obj
 0001:000261dc       ??R<lambda_22ebabd17bc4fa466a2aca6d8deb888d>@@QBEHXZ 004271dc f   libucrt:onexit.obj
 0001:00026305       ??R<lambda_f03950bc5685219e0bcd2087efbe011e>@@QBEHXZ 00427305 f   libucrt:onexit.obj
 0001:0002647e       _initialize_global_variables 0042747e f   libucrt:initialization.obj
 0001:0002648b       _initialize_c              0042748b f   libucrt:initialization.obj
 0001:000264a5       _uninitialize_environment  004274a5 f   libucrt:initialization.obj
 0001:000264ad       _initialize_pointers       004274ad f   libucrt:initialization.obj
 0001:000264db       _uninitialize_vcruntime    004274db f   libucrt:initialization.obj
 0001:000264e4       _uninitialize_allocated_memory 004274e4 f   libucrt:initialization.obj
 0001:000264fb       _uninitialize_allocated_io_buffers 004274fb f   libucrt:initialization.obj
 0001:0002654b       ??R<lambda_af42a3ee9806e9a7305d451646e05244>@@QBEXAAPAU__crt_multibyte_data@@@Z 0042754b f   libucrt:initialization.obj
 0001:0002680f       ??$?RV<lambda_4fdada1b837b2abbf20876fac97688ad>@@AAV<lambda_b57350f2640456a0859d250846f69caf>@@V<lambda_eed5e4f92b5b7d55fa22c48c484aaa54>@@@?$__crt_seh_guarded_call@X@@QAEX$$QAV<lambda_4fdada1b837b2abbf20876fac97688ad>@@AAV<lambda_b57350f2640456a0859d250846f69caf>@@$$QAV<lambda_eed5e4f92b5b7d55fa22c48c484aaa54>@@@Z 0042780f f   libucrt:wsetlocale.obj
 0001:0002685c       ??$?RV<lambda_ac03c5d59bd18b09cb88b28331f6bfed>@@AAV<lambda_2a444430fde8c29194d880d93eed5e8f>@@AAV<lambda_02db5278e8aef8b5e4976579d73f5304>@@@?$__crt_seh_guarded_call@X@@QAEX$$QAV<lambda_ac03c5d59bd18b09cb88b28331f6bfed>@@AAV<lambda_2a444430fde8c29194d880d93eed5e8f>@@AAV<lambda_02db5278e8aef8b5e4976579d73f5304>@@@Z 0042785c f   libucrt:wsetlocale.obj
 0001:000268a1       ??$?RV<lambda_e5124f882df8998aaf41531e079ba474>@@AAV<lambda_3e16ef9562a7dcce91392c22ab16ea36>@@V<lambda_e25ca0880e6ef98be67edffd8c599615>@@@?$__crt_seh_guarded_call@X@@QAEX$$QAV<lambda_e5124f882df8998aaf41531e079ba474>@@AAV<lambda_3e16ef9562a7dcce91392c22ab16ea36>@@$$QAV<lambda_e25ca0880e6ef98be67edffd8c599615>@@@Z 004278a1 f   libucrt:wsetlocale.obj
 0001:00026989       ??R<lambda_2a444430fde8c29194d880d93eed5e8f>@@QBE@XZ 00427989 f   libucrt:wsetlocale.obj
 0001:000269f3       ??R<lambda_b57350f2640456a0859d250846f69caf>@@QBEXXZ 004279f3 f   libucrt:wsetlocale.obj
 0001:00026e1e       __copytlocinfo_nolock      00427e1e f   libucrt:wsetlocale.obj
 0001:00026e4d       __expandlocale             00427e4d f   libucrt:wsetlocale.obj
 0001:000272d7       __wsetlocale_get_all       004282d7 f   libucrt:wsetlocale.obj
 0001:00027472       __wsetlocale_nolock        00428472 f   libucrt:wsetlocale.obj
 0001:00027762       __wsetlocale_set_cat       00428762 f   libucrt:wsetlocale.obj
 0001:00027b07       _get_default_code_page     00428b07 f   libucrt:wsetlocale.obj
 0001:00027b36       _parse_bcp47               00428b36 f   libucrt:wsetlocale.obj
 0001:00027d20       _parse_bcp47_code_page     00428d20 f   libucrt:wsetlocale.obj
 0001:00027d5f       _parse_bcp47_language      00428d5f f   libucrt:wsetlocale.obj
 0001:00027dd1       _parse_bcp47_region        00428dd1 f   libucrt:wsetlocale.obj
 0001:00027e8a       _parse_bcp47_script        00428e8a f   libucrt:wsetlocale.obj
 0001:00027efa       _string_is_alpha           00428efa f   libucrt:wsetlocale.obj
 0001:00028090       $$000000                   00429090     libucrt:strncmp.obj
 0001:00028142       ??$?RV<lambda_15ade71b0218206bbe3333a0c9b79046>@@AAV<lambda_da44e0f8b0f19ba52fefafb335991732>@@V<lambda_207f2d024fc103971653565357d6cd41>@@@?$__crt_seh_guarded_call@X@@QAEX$$QAV<lambda_15ade71b0218206bbe3333a0c9b79046>@@AAV<lambda_da44e0f8b0f19ba52fefafb335991732>@@$$QAV<lambda_207f2d024fc103971653565357d6cd41>@@@Z 00429142 f   libucrt:per_thread_data.obj
 0001:00028194       ??$?RV<lambda_38edbb1296d33220d7e4dd0ed76b244a>@@AAV<lambda_5ce1d447e08cb34b2473517608e21441>@@V<lambda_fb385d3da700c9147fc39e65dd577a8c>@@@?$__crt_seh_guarded_call@X@@QAEX$$QAV<lambda_38edbb1296d33220d7e4dd0ed76b244a>@@AAV<lambda_5ce1d447e08cb34b2473517608e21441>@@$$QAV<lambda_fb385d3da700c9147fc39e65dd577a8c>@@@Z 00429194 f   libucrt:per_thread_data.obj
 0001:000281ff       ??$?RV<lambda_6affb1475c98b40b75cdec977db92e3c>@@AAV<lambda_b8d4b9c228a6ecc3f80208dbb4b4a104>@@V<lambda_608742c3c92a14382c1684fc64f96c88>@@@?$__crt_seh_guarded_call@X@@QAEX$$QAV<lambda_6affb1475c98b40b75cdec977db92e3c>@@AAV<lambda_b8d4b9c228a6ecc3f80208dbb4b4a104>@@$$QAV<lambda_608742c3c92a14382c1684fc64f96c88>@@@Z 004291ff f   libucrt:per_thread_data.obj
 0001:00028254       ??$?RV<lambda_a7e850c220f1c8d1e6efeecdedd162c6>@@AAV<lambda_46720907175c18b6c9d2717bc0d2d362>@@V<lambda_9048902d66e8d99359bc9897bbb930a8>@@@?$__crt_seh_guarded_call@X@@QAEX$$QAV<lambda_a7e850c220f1c8d1e6efeecdedd162c6>@@AAV<lambda_46720907175c18b6c9d2717bc0d2d362>@@$$QAV<lambda_9048902d66e8d99359bc9897bbb930a8>@@@Z 00429254 f   libucrt:per_thread_data.obj
 0001:000282ae       ?construct_ptd@@YAXQAU__acrt_ptd@@QAPAU__crt_locale_data@@@Z 004292ae f   libucrt:per_thread_data.obj
 0001:00028347       ?destroy_fls@@YGXPAX@Z     00429347 f   libucrt:per_thread_data.obj
 0001:00028368       ?destroy_ptd@@YAXQAU__acrt_ptd@@@Z 00429368 f   libucrt:per_thread_data.obj
 0001:00028435       ?replace_current_thread_locale_nolock@@YAXQAU__acrt_ptd@@QAU__crt_locale_data@@@Z 00429435 f   libucrt:per_thread_data.obj
 0001:00028766       ?__acrt_LCMapStringA_stat@@YAHPAU__crt_locale_pointers@@PB_WKPBDHPADHHH@Z 00429766 f   libucrt:lcmapstringa.obj
 0001:00028999       ?<lambda_invoker_stdcall>@<lambda_29d3c280b90b41c2ae070ffca879996a>@@CGHPA_W@Z 00429999 f   libucrt:winapi_thunks.obj
 0001:000289a6       ??$?RV<lambda_6b4b7855443974f2b4b77000ea21c99c>@@AAV<lambda_8f7d3b162ab39427f4fa9995c67a7986>@@V<lambda_cc9a5ba8a5d8428b9634eab82665e5dc>@@@?$__crt_seh_guarded_call@H@@QAEH$$QAV<lambda_6b4b7855443974f2b4b77000ea21c99c>@@AAV<lambda_8f7d3b162ab39427f4fa9995c67a7986>@@$$QAV<lambda_cc9a5ba8a5d8428b9634eab82665e5dc>@@@Z 004299a6 f   libucrt:winapi_thunks.obj
 0001:00028a22       ??R<lambda_29d3c280b90b41c2ae070ffca879996a>@@QBEHPA_W@Z 00429a22 f   libucrt:winapi_thunks.obj
 0001:00028a51       ?try_get_AreFileApisANSI@@YAP6GHXZXZ 00429a51 f   libucrt:winapi_thunks.obj
 0001:00028a6b       ?try_get_CompareStringEx@@YAP6GHPB_WK0H0HPAU_nlsversioninfo@@PAXJ@ZXZ 00429a6b f   libucrt:winapi_thunks.obj
 0001:00028a85       ?try_get_EnumSystemLocalesEx@@YAP6GHP6GHPA_WKJ@ZKJPAX@ZXZ 00429a85 f   libucrt:winapi_thunks.obj
 0001:00028a9f       ?try_get_GetDateFormatEx@@YAP6GHPB_WKPBU_SYSTEMTIME@@0PA_WH0@ZXZ 00429a9f f   libucrt:winapi_thunks.obj
 0001:00028ab9       ?try_get_GetLocaleInfoEx@@YAP6GHPB_WKPA_WH@ZXZ 00429ab9 f   libucrt:winapi_thunks.obj
 0001:00028ad3       ?try_get_GetTimeFormatEx@@YAP6GHPB_WKPBU_SYSTEMTIME@@0PA_WH@ZXZ 00429ad3 f   libucrt:winapi_thunks.obj
 0001:00028aed       ?try_get_GetUserDefaultLocaleName@@YAP6GHPA_WH@ZXZ 00429aed f   libucrt:winapi_thunks.obj
 0001:00028b07       ?try_get_IsValidLocaleName@@YAP6GHPB_W@ZXZ 00429b07 f   libucrt:winapi_thunks.obj
 0001:00028b21       ?try_get_LCIDToLocaleName@@YAP6GHKPA_WHK@ZXZ 00429b21 f   libucrt:winapi_thunks.obj
 0001:00028b3b       ?try_get_LCMapStringEx@@YAP6GHPB_WK0HPA_WHPAU_nlsversioninfo@@PAXJ@ZXZ 00429b3b f   libucrt:winapi_thunks.obj
 0001:00028b55       ?try_get_LocaleNameToLCID@@YAP6GKPB_WK@ZXZ 00429b55 f   libucrt:winapi_thunks.obj
 0001:00028b6f       ?try_get_first_available_module@@YAPAUHINSTANCE__@@QBW4module_id@?A0x391cf84c@@0@Z 00429b6f f   libucrt:winapi_thunks.obj
 0001:00028c36       ?try_get_function@@YAPAXW4function_id@?A0x391cf84c@@QBDQBW4module_id@2@2@Z 00429c36 f   libucrt:winapi_thunks.obj
 0001:00029579       ?fe_to_nearest@@YA_NQBN_KF@Z 0042a579 f   libucrt:cvt.obj
 0001:0002961c       ?fp_format_a@@YAHQBNPADIQADIH_NIQAU__crt_locale_pointers@@W4__acrt_rounding_mode@@@Z 0042a61c f   libucrt:cvt.obj
 0001:0002992b       ?fp_format_e@@YAHQBNQADI1IH_NIQAU__crt_locale_pointers@@W4__acrt_rounding_mode@@@Z 0042a92b f   libucrt:cvt.obj
 0001:000299d3       ?fp_format_e_internal@@YAHQADIH_NIQAU_strflt@@1QAU__crt_locale_pointers@@@Z 0042a9d3 f   libucrt:cvt.obj
 0001:00029b1b       ?fp_format_f@@YAHQBNQADI1IHQAU__crt_locale_pointers@@W4__acrt_rounding_mode@@@Z 0042ab1b f   libucrt:cvt.obj
 0001:00029bac       ?fp_format_f_internal@@YAHQADIHQAU_strflt@@_NQAU__crt_locale_pointers@@@Z 0042abac f   libucrt:cvt.obj
 0001:00029ca4       ?fp_format_g@@YAHQBNQADI1IH_NIW4__acrt_rounding_mode@@QAU__crt_locale_pointers@@@Z 0042aca4 f   libucrt:cvt.obj
 0001:00029d6e       ?fp_format_nan_or_infinity@@YAHW4__acrt_fp_class@@_NPADI1@Z 0042ad6e f   libucrt:cvt.obj
 0001:00029e03       ?shift_bytes@@YAXQADI0H@Z  0042ae03 f   libucrt:cvt.obj
 0001:00029e37       ?should_round_up@@YA_NQBN_KFW4__acrt_rounding_mode@@@Z 0042ae37 f   libucrt:cvt.obj
 0001:0002a183       ?initialize_inherited_file_handles_nolock@@YAXXZ 0042b183 f   libucrt:ioinit.obj
 0001:0002a239       ?initialize_stdio_handles_nolock@@YAXXZ 0042b239 f   libucrt:ioinit.obj
 0001:0002a4c1       ??$?RV<lambda_218ce3db14220d0be481dae8ef3383b6>@@AAV<lambda_628dfdc04ba53c8bfc02c9951375f3f5>@@V<lambda_57dc472bd5c9d5f3b2cbca59b8a843ae>@@@?$__crt_seh_guarded_call@H@@QAEH$$QAV<lambda_218ce3db14220d0be481dae8ef3383b6>@@AAV<lambda_628dfdc04ba53c8bfc02c9951375f3f5>@@$$QAV<lambda_57dc472bd5c9d5f3b2cbca59b8a843ae>@@@Z 0042b4c1 f   libucrt:close.obj
 0001:0002a71a       ?find_or_allocate_unused_stream_nolock@@YA?AV__crt_stdio_stream@@XZ 0042b71a f   libucrt:stream.obj
 0001:0002a7dc       ??$?RV<lambda_9e9de3de5fa147e2223d7db92bc10aa6>@@AAV<lambda_38ce7e780aa69e748d6df282ebc68efe>@@V<lambda_8ca6da459f0f6780f1cff60fdc3d00e5>@@@?$__crt_seh_guarded_call@H@@QAEH$$QAV<lambda_9e9de3de5fa147e2223d7db92bc10aa6>@@AAV<lambda_38ce7e780aa69e748d6df282ebc68efe>@@$$QAV<lambda_8ca6da459f0f6780f1cff60fdc3d00e5>@@@Z 0042b7dc f   libucrt:commit.obj
 0001:0002a8fb       ?write_double_translated_ansi_nolock@@YA?AUwrite_result@?A0x17268360@@HQBDI@Z 0042b8fb f   libucrt:write.obj
 0001:0002aca7       ?write_double_translated_unicode_nolock@@YA?AUwrite_result@?A0x17268360@@QBDI@Z 0042bca7 f   libucrt:write.obj
 0001:0002ad0f       ?write_requires_double_translation_nolock@@YA_NH@Z 0042bd0f f   libucrt:write.obj
 0001:0002ad80       ?write_text_ansi_nolock@@YA?AUwrite_result@?A0x17268360@@HQBDI@Z 0042bd80 f   libucrt:write.obj
 0001:0002ae5b       ?write_text_utf16le_nolock@@YA?AUwrite_result@?A0x17268360@@HQBDI@Z 0042be5b f   libucrt:write.obj
 0001:0002af44       ?write_text_utf8_nolock@@YA?AUwrite_result@?A0x17268360@@HQBDI@Z 0042bf44 f   libucrt:write.obj
 0001:0002b342       ??$common_refill_and_read_nolock@D@@YAHV__crt_stdio_stream@@@Z 0042c342 f   libucrt:_filbuf.obj
 0001:0002b4d7       ??$common_flush_and_write_nolock@D@@YAHHV__crt_stdio_stream@@@Z 0042c4d7 f   libucrt:_flsbuf.obj
 0001:0002b5c7       ??$write_buffer_nolock@D@@YA_NDV__crt_stdio_stream@@@Z 0042c5c7 f   libucrt:_flsbuf.obj
 0001:0002b693       ?stream_is_at_end_of_file_nolock@@YA_NV__crt_stdio_stream@@@Z 0042c693 f   libucrt:_flsbuf.obj
 0001:0002b723       ??$translate_text_mode_nolock@D@@YAHHQADI@Z 0042c723 f   libucrt:read.obj
 0001:0002b877       ??$translate_text_mode_nolock@_W@@YAHHQA_WI@Z 0042c877 f   libucrt:read.obj
 0001:0002ba26       ?translate_ansi_or_utf8_nolock@@YAHHQADIQA_WI@Z 0042ca26 f   libucrt:read.obj
 0001:0002bb7d       ?translate_utf16_from_console_nolock@@YAHHQA_WI@Z 0042cb7d f   libucrt:read.obj
 0001:0002c0bc       ??$common_lseek@_J@@YA_JH_JH@Z 0042d0bc f   libucrt:lseek.obj
 0001:0002c1c8       ??$common_lseek_nolock@_J@@YA_JH_JH@Z 0042d1c8 f   libucrt:lseek.obj
 0001:0002c3e7       ??$common_gmtime_s@_J@@YAHQAUtm@@QB_J@Z 0042d3e7 f   libucrt:gmtime.obj
 0001:0002c531       ?compute_year@@YAHAA_JAA_N@Z 0042d531 f   libucrt:gmtime.obj
 0001:0002c672       ?_isindst_nolock@@YAHQAUtm@@@Z 0042d672 f   libucrt:tzset.obj
 0001:0002c88c       ?cvtdate@@YAXW4transition_type@?A0x7639d0b4@@W4date_type@2@HHHHHHHHH@Z 0042d88c f   libucrt:tzset.obj
 0001:0002c9cc       ?tzset_env_copy_to_tzname@@YAXQB_WQA_WQADI@Z 0042d9cc f   libucrt:tzset.obj
 0001:0002ca13       ?tzset_from_environment_nolock@@YAXPA_W@Z 0042da13 f   libucrt:tzset.obj
 0001:0002ccb4       ?tzset_from_system_nolock@@YAXXZ 0042dcb4 f   libucrt:tzset.obj
 0001:0002ce0e       ?tzset_nolock@@YAXXZ       0042de0e f   libucrt:tzset.obj
 0001:0002cef3       ?tzset_os_copy_to_tzname@@YAXQB_WQA_WQADI@Z 0042def3 f   libucrt:tzset.obj
 0001:0002d37d       ??$common_openfile@D@@YAPAU_iobuf@@QBD0HV__crt_stdio_stream@@@Z 0042e37d f   libucrt:openfile.obj
 0001:0002e175       ?_mbstowcs_l_helper@@YAIPA_WPBDIPAU__crt_locale_pointers@@@Z 0042f175 f   libucrt:mbstowcs.obj
 0001:0002e418       ?_wcstombs_l_helper@@YAIPADPB_WIPAU__crt_locale_pointers@@@Z 0042f418 f   libucrt:wcstombs.obj
 0001:0002e77e       ?InternalGetLocaleInfoA@@YAHQAU__crt_locale_pointers@@QB_WKQADH@Z 0042f77e f   libucrt:getlocaleinfoa.obj
 0001:0002ec40       $$000000                   0042fc40     libucrt:pow_pentium4.obj
 0001:0002f760       $$000000                   00430760     libucrt:87tran.obj
 0001:0002f970       $$000000                   00430970     libucrt:87disp.obj
 0001:0002fbd0       $$000000                   00430bd0     libucrt:genexcep.obj
 0001:0002fc30       $$000000                   00430c30     libucrt:common.obj
 0001:0002ff4f       ??$?RV<lambda_cbab9ec6f41b0180b23cc171c22676b0>@@AAV<lambda_44731a7d0e6d81c3e6aa82d741081786>@@V<lambda_4b292cb8dd18144e164572427af410ab>@@@?$__crt_seh_guarded_call@P6AXH@Z@@QAEP6AXH@Z$$QAV<lambda_cbab9ec6f41b0180b23cc171c22676b0>@@AAV<lambda_44731a7d0e6d81c3e6aa82d741081786>@@$$QAV<lambda_4b292cb8dd18144e164572427af410ab>@@@Z 00430f4f f   libucrt:signal.obj
 0001:0002ffb3       ?get_global_action_nolock@@YAPAP6AXH@ZH@Z 00430fb3 f   libucrt:signal.obj
 0001:0002fff5       ?siglookup@@YAPAU__crt_signal_action_t@@HQAU1@@Z 00430ff5 f   libucrt:signal.obj
 0001:00030286       ?<lambda_invoker_cdecl>@<lambda_838c7f62c73c983481e27c09e84b0b5d>@@CAHPBX0@Z 00431286 f   libucrt:argv_wildcards.obj
 0001:0003029e       ??$__acrt_convert_wcs_mbs_cp@_WDV<lambda_28bda7af82a03b66c1cb3803a755f95d>@@U__crt_win32_buffer_internal_dynamic_resizing@@@@YAHQB_WAAV?$__crt_win32_buffer@DU__crt_win32_buffer_internal_dynamic_resizing@@@@ABV<lambda_28bda7af82a03b66c1cb3803a755f95d>@@I@Z 0043129e f   libucrt:argv_wildcards.obj
 0001:0003036d       ??$common_expand_argv_wildcards@D@@YAHQAPADQAPAPAD@Z 0043136d f   libucrt:argv_wildcards.obj
 0001:0003055c       ??$copy_and_add_argument_to_buffer@D@@YAHQBD0IAAV?$argument_list@D@?A0x5f5c8891@@@Z 0043155c f   libucrt:argv_wildcards.obj
 0001:0003060d       ??$expand_argument_wildcards@D@@YAHQAD0AAV?$argument_list@D@?A0x5f5c8891@@@Z 0043160d f   libucrt:argv_wildcards.obj
 0001:000308a0       ?expand_if_necessary@?$argument_list@D@?A0x5f5c8891@@AAEHXZ 004318a0 f   libucrt:argv_wildcards.obj
 0001:000309d3       ??$?RV<lambda_ceb1ee4838e85a9d631eb091e2fbe199>@@AAV<lambda_ae742caa10f662c28703da3d2ea5e57e>@@V<lambda_cd08b5d6af4937fe54fc07d0c9bf6b37>@@@?$__crt_seh_guarded_call@X@@QAEX$$QAV<lambda_ceb1ee4838e85a9d631eb091e2fbe199>@@AAV<lambda_ae742caa10f662c28703da3d2ea5e57e>@@$$QAV<lambda_cd08b5d6af4937fe54fc07d0c9bf6b37>@@@Z 004319d3 f   libucrt:mbctype.obj
 0001:00030a20       ??R<lambda_ae742caa10f662c28703da3d2ea5e57e>@@QBEXXZ 00431a20 f   libucrt:mbctype.obj
 0001:00030aa3       ?CPtoLocaleName@@YAPB_WH@Z 00431aa3 f   libucrt:mbctype.obj
 0001:00030ae1       ?getSystemCP@@YAHH@Z       00431ae1 f   libucrt:mbctype.obj
 0001:00030b52       ?setSBCS@@YAXPAU__crt_multibyte_data@@@Z 00431b52 f   libucrt:mbctype.obj
 0001:00030bb7       ?setSBUpLow@@YAXPAU__crt_multibyte_data@@@Z 00431bb7 f   libucrt:mbctype.obj
 0001:00030d37       ?setmbcp_internal@@YAHH_NQAU__acrt_ptd@@QAPAU__crt_multibyte_data@@@Z 00431d37 f   libucrt:mbctype.obj
 0001:00030e4b       ?update_thread_multibyte_data_internal@@YAPAU__crt_multibyte_data@@QAU__acrt_ptd@@QAPAU1@@Z 00431e4b f   libucrt:mbctype.obj
 0001:00031139       ?x_ismbbtype_l@@YAHPAU__crt_locale_pointers@@IHH@Z 00432139 f   libucrt:ismbbyte.obj
 0001:000311a8       ?find_end_of_double_null_terminated_sequence@@YAPB_WQB_W@Z 004321a8 f   libucrt:get_environment_from_os.obj
 0001:000312b3       ??$common_set_variable_in_environment_nolock@D@@YAHQADH@Z 004322b3 f   libucrt:setenv.obj
 0001:000314f1       ??$common_set_variable_in_environment_nolock@_W@@YAHQA_WH@Z 004324f1 f   libucrt:setenv.obj
 0001:00031744       ??$copy_environment@D@@YAPAPADQAPAD@Z 00432744 f   libucrt:setenv.obj
 0001:000317f4       ??$copy_environment@_W@@YAPAPA_WQAPA_W@Z 004327f4 f   libucrt:setenv.obj
 0001:000318b2       ??$ensure_current_environment_is_not_initial_environment_nolock@D@@YAXXZ 004328b2 f   libucrt:setenv.obj
 0001:000318cc       ??$ensure_current_environment_is_not_initial_environment_nolock@_W@@YAXXZ 004328cc f   libucrt:setenv.obj
 0001:000318e6       ??$find_in_environment_nolock@D@@YAHQBDI@Z 004328e6 f   libucrt:setenv.obj
 0001:0003193b       ??$find_in_environment_nolock@_W@@YAHQB_WI@Z 0043293b f   libucrt:setenv.obj
 0001:00031ad2       ??$common_tcsncpy_s@_W@@YAHQA_WIQB_WI@Z 00432ad2 f   libucrt:wcsncpy_s.obj
 0001:0003271d       ?free_crt_array_internal@@YAXQAPBXI@Z 0043371d f   libucrt:inittime.obj
 0001:00032755       ?initialize_lc_time@@YA_NQAU__crt_lc_time_data@@QAU__crt_locale_data@@@Z 00433755 f   libucrt:inittime.obj
 0001:00032b30       ??$common_tcsncat_s@_W@@YAHQA_WIQB_WI@Z 00433b30 f   libucrt:wcsncat_s.obj
 0001:00033063       _GetLocaleNameFromDefault  00434063 f   libucrt:get_qualified_locale.obj
 0001:000330ea       _GetLocaleNameFromLangCountry 004340ea f   libucrt:get_qualified_locale.obj
 0001:00033183       _GetLocaleNameFromLanguage 00434183 f   libucrt:get_qualified_locale.obj
 0001:000331dc       _GetPrimaryLen             004341dc f   libucrt:get_qualified_locale.obj
 0001:00033210       _LangCountryEnumProcEx@12  00434210 f   libucrt:get_qualified_locale.obj
 0001:000334f0       _LanguageEnumProcEx@12     004344f0 f   libucrt:get_qualified_locale.obj
 0001:000335af       _ProcessCodePage           004345af f   libucrt:get_qualified_locale.obj
 0001:000336a5       _TestDefaultCountry        004346a5 f   libucrt:get_qualified_locale.obj
 0001:000336f2       _TranslateName             004346f2 f   libucrt:get_qualified_locale.obj
 0001:0003395a       _CountryEnumProc@4         0043495a f   libucrt:getqloc_downlevel.obj
 0001:00033a01       _GetLcidFromCountry        00434a01 f   libucrt:getqloc_downlevel.obj
 0001:00033a4c       _GetLcidFromLangCountry    00434a4c f   libucrt:getqloc_downlevel.obj
 0001:00033ae7       _GetLcidFromLanguage       00434ae7 f   libucrt:getqloc_downlevel.obj
 0001:00033b46       _GetPrimaryLen             00434b46 f   libucrt:getqloc_downlevel.obj
 0001:00033b72       _LangCountryEnumProc@4     00434b72 f   libucrt:getqloc_downlevel.obj
 0001:00033dc5       _LanguageEnumProc@4        00434dc5 f   libucrt:getqloc_downlevel.obj
 0001:00033e9a       _LcidFromHexString         00434e9a f   libucrt:getqloc_downlevel.obj
 0001:00033eeb       _ProcessCodePage           00434eeb f   libucrt:getqloc_downlevel.obj
 0001:00033fcc       _TestDefaultCountry        00434fcc f   libucrt:getqloc_downlevel.obj
 0001:00033ff1       _TestDefaultLanguage       00434ff1 f   libucrt:getqloc_downlevel.obj
 0001:0003405f       _TranslateName             0043505f f   libucrt:getqloc_downlevel.obj
 0001:000342b5       ___hw_cw_sse2              004352b5 f   libucrt:ieee87.obj
 0001:0003473b       __hw_cw                    0043573b f   libucrt:ieee87.obj
 0001:000347d9       ?GetTableIndexFromLocaleName@@YAHPB_W@Z 004357d9 f   libucrt:lcidtoname_downlevel.obj
 0001:000348ff       ??R<lambda_3d301b9e52f5099be73030e1f0bf487e>@@QBEIPBD@Z 004358ff f   libucrt:mbrtowc.obj
 0001:00034b3b       ?should_round_up@@YA_NQBDHW4__acrt_has_trailing_digits@@W4__acrt_rounding_mode@@@Z 00435b3b f   libucrt:_fptostr.obj
 0001:00036220       ??$common_getenv_nolock@_W@@YAPA_WQB_W@Z 00437220 f   libucrt:getenv.obj
 0001:000362a4       ??$common_getenv_s@_W@@YAHQAIQA_WIQB_W@Z 004372a4 f   libucrt:getenv.obj
 0001:00036303       ??$common_getenv_s_nolock@_W@@YAHQAIQA_WIQB_W@Z 00437303 f   libucrt:getenv.obj
 0001:00036669       ??$common_sopen_dispatch@D@@YAHQBDHHHQAHH@Z 00437669 f   libucrt:open.obj
 0001:0003672a       ?configure_text_mode@@YAHHUfile_options@?A0xa9d50aae@@HAAW4__crt_lowio_text_mode@@@Z 0043772a f   libucrt:open.obj
 0001:0003697d       ?create_file@@YAPAXQB_WQAU_SECURITY_ATTRIBUTES@@Ufile_options@?A0xa9d50aae@@@Z 0043797d f   libucrt:open.obj
 0001:000369a2       ?decode_open_create_flags@@YAKH@Z 004379a2 f   libucrt:open.obj
 0001:00036a12       ?decode_options@@YA?AUfile_options@?A0xa9d50aae@@HHH@Z 00437a12 f   libucrt:open.obj
 0001:00036b8c       ?truncate_ctrl_z_if_present@@YAHH@Z 00437b8c f   libucrt:open.obj
 0001:00037143       ??$common_tcsncpy_s@D@@YAHQADIQBDI@Z 00438143 f   libucrt:strncpy_s.obj
 0001:00037201       ?to_abstract_control@@YA?AW4__acrt_fenv_abstract_control@@W4__acrt_fenv_machine_sse_control@@@Z 00438201 f   libucrt:_fenvutils.obj
 0001:000372bd       ?to_abstract_control@@YA?AW4__acrt_fenv_abstract_control@@W4__acrt_fenv_machine_x87_control@@@Z 004382bd f   libucrt:_fenvutils.obj
 0001:00037376       ?to_machine_sse_control@@YA?AW4__acrt_fenv_machine_sse_control@@W4__acrt_fenv_abstract_control@@@Z 00438376 f   libucrt:_fenvutils.obj
 0001:00037443       ?to_machine_x87_control@@YA?AW4__acrt_fenv_machine_x87_control@@W4__acrt_fenv_abstract_control@@@Z 00438443 f   libucrt:_fenvutils.obj
 0001:00037fe0       $$000000                   00438fe0     libucrt:strpbrk.obj
 0001:000380c4       ?initialize_multibyte@@YAHXZ 004390c4 f   libucrt:multibyte_initializer.obj
 0001:00038386       ??$common_xtox@K_W@@YAHKQA_WII_N@Z 00439386 f   libucrt:xtoa.obj
 0001:00038439       ??$common_xtox_s@K_W@@YAHKQA_WII_N@Z 00439439 f   libucrt:xtoa.obj
 0001:00038740       $$000000                   00439740     libucrt:log10_impl.obj
 0001:00038850       $$000000                   00439850     libucrt:ceil_pentium4.obj
 0001:0003896d       ?__dcrt_lowio_initialize_console_output@@YAXXZ 0043996d f   libucrt:initcon.obj
 0001:00038a20       $$000000                   00439a20     libucrt:_strnicm.obj
 0001:00038d3d       ?InternalCompareStringA@@YAHPAU__crt_locale_pointers@@PB_WKPBDH2HH@Z 00439d3d f   libucrt:comparestringa.obj
 0001:00039010       $$000000                   0043a010     libucrt:log10_pentium4.obj
 0001:00039500       $$000000                   0043a500     LIBCMT:ulldvrm.obj
 0001:00039531       L1                         0043a531     LIBCMT:ulldvrm.obj
 0001:0003953f       L3                         0043a53f     LIBCMT:ulldvrm.obj
 0001:0003956d       L4                         0043a56d     LIBCMT:ulldvrm.obj
 0001:00039576       L5                         0043a576     LIBCMT:ulldvrm.obj
 0001:00039578       L2                         0043a578     LIBCMT:ulldvrm.obj
 0001:000395a0       $$000000                   0043a5a0     LIBCMT:lldiv.obj
 0001:000395c1       L1                         0043a5c1     LIBCMT:lldiv.obj
 0001:000395dd       L2                         0043a5dd     LIBCMT:lldiv.obj
 0001:000395f9       L3                         0043a5f9     LIBCMT:lldiv.obj
 0001:00039607       L5                         0043a607     LIBCMT:lldiv.obj
 0001:00039635       L6                         0043a635     LIBCMT:lldiv.obj
 0001:00039636       L7                         0043a636     LIBCMT:lldiv.obj
 0001:0003963a       L4                         0043a63a     LIBCMT:lldiv.obj
 0001:00039644       L8                         0043a644     LIBCMT:lldiv.obj
 0001:00039650       $$000000                   0043a650     LIBCMT:llrem.obj
 0001:00039670       L1                         0043a670     LIBCMT:llrem.obj
 0001:0003968b       L2                         0043a68b     LIBCMT:llrem.obj
 0001:000396aa       L3                         0043a6aa     LIBCMT:llrem.obj
 0001:000396b8       L5                         0043a6b8     LIBCMT:llrem.obj
 0001:000396e3       L6                         0043a6e3     LIBCMT:llrem.obj
 0001:000396eb       L7                         0043a6eb     LIBCMT:llrem.obj
 0001:000396f6       L4                         0043a6f6     LIBCMT:llrem.obj
 0001:000396fd       L8                         0043a6fd     LIBCMT:llrem.obj
 0001:00039710       $$000000                   0043a710     LIBCMT:llshl.obj
 0001:00039720       MORE32                     0043a720     LIBCMT:llshl.obj
 0001:0003972a       RETZERO                    0043a72a     LIBCMT:llshl.obj
 0001:00039730       $$000000                   0043a730     LIBCMT:ullshr.obj
 0001:00039740       MORE32                     0043a740     LIBCMT:ullshr.obj
 0001:0003974a       RETZERO                    0043a74a     LIBCMT:ullshr.obj
 0001:00039750       $$000000                   0043a750     LIBCMT:ftol2.obj
 0001:00039760       $$000000                   0043a760     LIBCMT:ftol2.obj
 0001:00039771       L3B                        0043a771     LIBCMT:ftol2.obj
 0001:000397b4       L3F                        0043a7b4     LIBCMT:ftol2.obj
 0001:000397bc       L40                        0043a7bc     LIBCMT:ftol2.obj
 0001:000397cf       L41                        0043a7cf     LIBCMT:ftol2.obj
 0001:000397e0       $$000000                   0043a7e0     libvcruntime:strchr.obj
 0001:00039813       strchr_sse_loop            0043a813     libvcruntime:strchr.obj
 0001:00039837       strchr_sse_break           0043a837     libvcruntime:strchr.obj
 0001:00039848       strchr_no_sse2             0043a848     libvcruntime:strchr.obj
 0001:00039860       str_misaligned             0043a860     libvcruntime:strchr.obj
 0001:00039875       main_loop_start            0043a875     libvcruntime:strchr.obj
 0001:00039880       main_loop                  0043a880     libvcruntime:strchr.obj
 0001:000398bc       retnull                    0043a8bc     libvcruntime:strchr.obj
 0001:000398be       retnull_bx                 0043a8be     libvcruntime:strchr.obj
 0001:000398c2       found_bx                   0043a8c2     libvcruntime:strchr.obj
 0001:000398c7       chr_is_found               0043a8c7     libvcruntime:strchr.obj
 0001:000398ef       byte_3                     0043a8ef     libvcruntime:strchr.obj
 0001:000398f6       byte_2                     0043a8f6     libvcruntime:strchr.obj
 0001:000398fd       byte_1                     0043a8fd     libvcruntime:strchr.obj
 0001:00039904       byte_0                     0043a904     libvcruntime:strchr.obj
 0001:00039a40       __unwindfunclet$??0_System_error@std@@IAE@Verror_code@1@ABV?$basic_string@DU?$char_traits@D@std@@V?$allocator@D@2@@1@@Z$3 0043aa40 f   TServerSystem:TServerSystem.obj
 0001:00039a48       __unwindfunclet$??0_System_error@std@@IAE@Verror_code@1@ABV?$basic_string@DU?$char_traits@D@std@@V?$allocator@D@2@@1@@Z$4 0043aa48 f   TServerSystem:TServerSystem.obj
 0001:00039a55       __ehhandler$??0_System_error@std@@IAE@Verror_code@1@ABV?$basic_string@DU?$char_traits@D@std@@V?$allocator@D@2@@1@@Z 0043aa55 f   TServerSystem:TServerSystem.obj
 0001:00039a80       __unwindfunclet$??0_Locinfo@std@@QAE@PBD@Z$0 0043aa80 f   TServerSystem:TServerSystem.obj
 0001:00039a88       __unwindfunclet$??0_Locinfo@std@@QAE@PBD@Z$1 0043aa88 f   TServerSystem:TServerSystem.obj
 0001:00039a93       __unwindfunclet$??0_Locinfo@std@@QAE@PBD@Z$2 0043aa93 f   TServerSystem:TServerSystem.obj
 0001:00039a9e       __unwindfunclet$??0_Locinfo@std@@QAE@PBD@Z$3 0043aa9e f   TServerSystem:TServerSystem.obj
 0001:00039aa9       __unwindfunclet$??0_Locinfo@std@@QAE@PBD@Z$4 0043aaa9 f   TServerSystem:TServerSystem.obj
 0001:00039ab4       __unwindfunclet$??0_Locinfo@std@@QAE@PBD@Z$5 0043aab4 f   TServerSystem:TServerSystem.obj
 0001:00039abf       __unwindfunclet$??0_Locinfo@std@@QAE@PBD@Z$6 0043aabf f   TServerSystem:TServerSystem.obj
 0001:00039acf       __ehhandler$??0_Locinfo@std@@QAE@PBD@Z 0043aacf f   TServerSystem:TServerSystem.obj
 0001:00039af0       __ehhandler$??1_Init_atexit@@QAE@XZ 0043aaf0 f   libcpmt:iosptrs.obj
 0001:00039af0       __ehhandler$??1CSqlDatabase@@UAE@XZ 0043aaf0 f   TNetLib:SqlDatabase.obj
 0001:00039af0       __ehhandler$??1_Locinfo@std@@QAE@XZ 0043aaf0 f   TServerSystem:TServerSystem.obj
 0001:00039b10       __unwindfunclet$??0failure@ios_base@std@@QAE@PBDABVerror_code@2@@Z$1 0043ab10 f   TServerSystem:TServerSystem.obj
 0001:00039b1d       __ehhandler$??0failure@ios_base@std@@QAE@PBDABVerror_code@2@@Z 0043ab1d f   TServerSystem:TServerSystem.obj
 0001:00039b40       __ehhandler$??_G?$basic_ios@DU?$char_traits@D@std@@@std@@UAEPAXI@Z 0043ab40 f   TServerSystem:TServerSystem.obj
 0001:00039b40       __ehhandler$??_G?$basic_ostream@DU?$char_traits@D@std@@@std@@UAEPAXI@Z 0043ab40 f   TServerSystem:TServerSystem.obj
 0001:00039b40       __ehhandler$??_Gios_base@std@@UAEPAXI@Z 0043ab40 f   TServerSystem:TServerSystem.obj
 0001:00039b60       __unwindfunclet$??0TServerSystem@@QAE@V?$basic_string@DU?$char_traits@D@std@@V?$allocator@D@2@@std@@0@Z$0 0043ab60 f   TServerSystem:TServerSystem.obj
 0001:00039b68       __unwindfunclet$??0TServerSystem@@QAE@V?$basic_string@DU?$char_traits@D@std@@V?$allocator@D@2@@std@@0@Z$1 0043ab68 f   TServerSystem:TServerSystem.obj
 0001:00039b70       __unwindfunclet$??0TServerSystem@@QAE@V?$basic_string@DU?$char_traits@D@std@@V?$allocator@D@2@@std@@0@Z$2 0043ab70 f   TServerSystem:TServerSystem.obj
 0001:00039b7b       __unwindfunclet$??0TServerSystem@@QAE@V?$basic_string@DU?$char_traits@D@std@@V?$allocator@D@2@@std@@0@Z$3 0043ab7b f   TServerSystem:TServerSystem.obj
 0001:00039b86       __unwindfunclet$??0TServerSystem@@QAE@V?$basic_string@DU?$char_traits@D@std@@V?$allocator@D@2@@std@@0@Z$4 0043ab86 f   TServerSystem:TServerSystem.obj
 0001:00039b91       __unwindfunclet$??0TServerSystem@@QAE@V?$basic_string@DU?$char_traits@D@std@@V?$allocator@D@2@@std@@0@Z$5 0043ab91 f   TServerSystem:TServerSystem.obj
 0001:00039b9c       __unwindfunclet$??0TServerSystem@@QAE@V?$basic_string@DU?$char_traits@D@std@@V?$allocator@D@2@@std@@0@Z$6 0043ab9c f   TServerSystem:TServerSystem.obj
 0001:00039ba7       __unwindfunclet$??0TServerSystem@@QAE@V?$basic_string@DU?$char_traits@D@std@@V?$allocator@D@2@@std@@0@Z$14 0043aba7 f   TServerSystem:TServerSystem.obj
 0001:00039bb2       __unwindfunclet$??0TServerSystem@@QAE@V?$basic_string@DU?$char_traits@D@std@@V?$allocator@D@2@@std@@0@Z$7 0043abb2 f   TServerSystem:TServerSystem.obj
 0001:00039bbd       __unwindfunclet$??0TServerSystem@@QAE@V?$basic_string@DU?$char_traits@D@std@@V?$allocator@D@2@@std@@0@Z$9 0043abbd f   TServerSystem:TServerSystem.obj
 0001:00039bc5       __unwindfunclet$??0TServerSystem@@QAE@V?$basic_string@DU?$char_traits@D@std@@V?$allocator@D@2@@std@@0@Z$10 0043abc5 f   TServerSystem:TServerSystem.obj
 0001:00039bd2       __ehhandler$??0TServerSystem@@QAE@V?$basic_string@DU?$char_traits@D@std@@V?$allocator@D@2@@std@@0@Z 0043abd2 f   TServerSystem:TServerSystem.obj
 0001:00039c00       __unwindfunclet$?SSLogError@TServerSystem@@IAEXV?$basic_string@DU?$char_traits@D@std@@V?$allocator@D@2@@std@@H@Z$0 0043ac00 f   TServerSystem:TServerSystem.obj
 0001:00039c00       __unwindfunclet$?SSLogInfo@TServerSystem@@IAEXV?$basic_string@DU?$char_traits@D@std@@V?$allocator@D@2@@std@@H@Z$0 0043ac00 f   TServerSystem:TServerSystem.obj
 0001:00039c0d       __ehhandler$?SSLogError@TServerSystem@@IAEXV?$basic_string@DU?$char_traits@D@std@@V?$allocator@D@2@@std@@H@Z 0043ac0d f   TServerSystem:TServerSystem.obj
 0001:00039c0d       __ehhandler$?SSLogInfo@TServerSystem@@IAEXV?$basic_string@DU?$char_traits@D@std@@V?$allocator@D@2@@std@@H@Z 0043ac0d f   TServerSystem:TServerSystem.obj
 0001:00039c40       __unwindfunclet$?DisplayIni@TServerSystem@@IAEXXZ$0 0043ac40 f   TServerSystem:TServerSystem.obj
 0001:00039c48       __unwindfunclet$?DisplayIni@TServerSystem@@IAEXXZ$3 0043ac48 f   TServerSystem:TServerSystem.obj
 0001:00039c50       __unwindfunclet$?DisplayIni@TServerSystem@@IAEXXZ$4 0043ac50 f   TServerSystem:TServerSystem.obj
 0001:00039c58       __unwindfunclet$?DisplayIni@TServerSystem@@IAEXXZ$2 0043ac58 f   TServerSystem:TServerSystem.obj
 0001:00039c65       __ehhandler$?DisplayIni@TServerSystem@@IAEXXZ 0043ac65 f   TServerSystem:TServerSystem.obj
 0001:00039c90       __unwindfunclet$?LoadIntFromIni@TServerSystem@@IAEXV?$basic_string@DU?$char_traits@D@std@@V?$allocator@D@2@@std@@HAAH@Z$0 0043ac90 f   TServerSystem:TServerSystem.obj
 0001:00039c98       __unwindfunclet$?LoadIntFromIni@TServerSystem@@IAEXV?$basic_string@DU?$char_traits@D@std@@V?$allocator@D@2@@std@@HAAH@Z$1 0043ac98 f   TServerSystem:TServerSystem.obj
 0001:00039ca0       __unwindfunclet$?LoadIntFromIni@TServerSystem@@IAEXV?$basic_string@DU?$char_traits@D@std@@V?$allocator@D@2@@std@@HAAH@Z$2 0043aca0 f   TServerSystem:TServerSystem.obj
 0001:00039cab       __unwindfunclet$?LoadIntFromIni@TServerSystem@@IAEXV?$basic_string@DU?$char_traits@D@std@@V?$allocator@D@2@@std@@HAAH@Z$3 0043acab f   TServerSystem:TServerSystem.obj
 0001:00039cb3       __unwindfunclet$?LoadIntFromIni@TServerSystem@@IAEXV?$basic_string@DU?$char_traits@D@std@@V?$allocator@D@2@@std@@HAAH@Z$4 0043acb3 f   TServerSystem:TServerSystem.obj
 0001:00039cbb       __unwindfunclet$?LoadIntFromIni@TServerSystem@@IAEXV?$basic_string@DU?$char_traits@D@std@@V?$allocator@D@2@@std@@HAAH@Z$5 0043acbb f   TServerSystem:TServerSystem.obj
 0001:00039cc8       __ehhandler$?LoadIntFromIni@TServerSystem@@IAEXV?$basic_string@DU?$char_traits@D@std@@V?$allocator@D@2@@std@@HAAH@Z 0043acc8 f   TServerSystem:TServerSystem.obj
 0001:00039d00       __unwindfunclet$?LoadStringFromIni@TServerSystem@@IAEXV?$basic_string@DU?$char_traits@D@std@@V?$allocator@D@2@@std@@0AAV23@@Z$0 0043ad00 f   TServerSystem:TServerSystem.obj
 0001:00039d08       __unwindfunclet$?LoadStringFromIni@TServerSystem@@IAEXV?$basic_string@DU?$char_traits@D@std@@V?$allocator@D@2@@std@@0AAV23@@Z$1 0043ad08 f   TServerSystem:TServerSystem.obj
 0001:00039d10       __unwindfunclet$?LoadStringFromIni@TServerSystem@@IAEXV?$basic_string@DU?$char_traits@D@std@@V?$allocator@D@2@@std@@0AAV23@@Z$2 0043ad10 f   TServerSystem:TServerSystem.obj
 0001:00039d18       __unwindfunclet$?LoadStringFromIni@TServerSystem@@IAEXV?$basic_string@DU?$char_traits@D@std@@V?$allocator@D@2@@std@@0AAV23@@Z$3 0043ad18 f   TServerSystem:TServerSystem.obj
 0001:00039d25       __ehhandler$?LoadStringFromIni@TServerSystem@@IAEXV?$basic_string@DU?$char_traits@D@std@@V?$allocator@D@2@@std@@0AAV23@@Z 0043ad25 f   TServerSystem:TServerSystem.obj
 0001:00039d50       __unwindfunclet$??0?$vector@V?$basic_string@DU?$char_traits@D@std@@V?$allocator@D@2@@std@@V?$allocator@V?$basic_string@DU?$char_traits@D@std@@V?$allocator@D@2@@std@@@2@@std@@QAE@ABV01@@Z$0 0043ad50 f   TServerSystem:TServerSystem.obj
 0001:00039d58       __unwindfunclet$??0?$vector@V?$basic_string@DU?$char_traits@D@std@@V?$allocator@D@2@@std@@V?$allocator@V?$basic_string@DU?$char_traits@D@std@@V?$allocator@D@2@@std@@@2@@std@@QAE@ABV01@@Z$1 0043ad58 f   TServerSystem:TServerSystem.obj
 0001:00039d65       __ehhandler$??0?$vector@V?$basic_string@DU?$char_traits@D@std@@V?$allocator@D@2@@std@@V?$allocator@V?$basic_string@DU?$char_traits@D@std@@V?$allocator@D@2@@std@@@2@@std@@QAE@ABV01@@Z 0043ad65 f   TServerSystem:TServerSystem.obj
 0001:00039d90       __unwindfunclet$?uflow@?$basic_filebuf@DU?$char_traits@D@std@@@std@@MAEHXZ$0 0043ad90 f   TServerSystem:TServerSystem.obj
 0001:00039d9d       __ehhandler$?uflow@?$basic_filebuf@DU?$char_traits@D@std@@@std@@MAEHXZ 0043ad9d f   TServerSystem:TServerSystem.obj
 0001:00039dd0       __ehhandler$??1tagEVENTINFO@@QAE@XZ 0043add0 f   CSHandler.obj
 0001:00039dd0       __ehhandler$??1CTUser@@UAE@XZ 0043add0 f   TUser.obj
 0001:00039dd0       __ehhandler$?_Tidy@ios_base@std@@AAEXXZ 0043add0 f   libcpmt:ios.obj
 0001:00039dd0       __ehhandler$??1CSession@@UAE@XZ 0043add0 f   TNetLib:Session.obj
 0001:00039dd0       __ehhandler$??1?$basic_filebuf@DU?$char_traits@D@std@@@std@@UAE@XZ 0043add0 f   TServerSystem:TServerSystem.obj
 0001:00039df0       __ehhandler$??1?$basic_ios@DU?$char_traits@D@std@@@std@@UAE@XZ 0043adf0 f   TServerSystem:TServerSystem.obj
 0001:00039df0       __ehhandler$??_D?$basic_ostream@DU?$char_traits@D@std@@@std@@QAEXXZ 0043adf0 f   TServerSystem:TServerSystem.obj
 0001:00039e10       __ehhandler$??1sentry@?$basic_ostream@DU?$char_traits@D@std@@@std@@QAE@XZ 0043ae10 f   TServerSystem:TServerSystem.obj
 0001:00039e30       __unwindfunclet$??0sentry@?$basic_ostream@DU?$char_traits@D@std@@@std@@QAE@AAV12@@Z$0 0043ae30 f   TServerSystem:TServerSystem.obj
 0001:00039e3d       __ehhandler$??0sentry@?$basic_ostream@DU?$char_traits@D@std@@@std@@QAE@AAV12@@Z 0043ae3d f   TServerSystem:TServerSystem.obj
 0001:00039e60       __unwindfunclet$??0?$basic_ostream@DU?$char_traits@D@std@@@std@@QAE@PAV?$basic_streambuf@DU?$char_traits@D@std@@@1@_N@Z$0 0043ae60 f   TServerSystem:TServerSystem.obj
 0001:00039e7c       __unwindfunclet$??0?$basic_ostream@DU?$char_traits@D@std@@@std@@QAE@PAV?$basic_streambuf@DU?$char_traits@D@std@@@1@_N@Z$2 0043ae7c f   TServerSystem:TServerSystem.obj
 0001:00039e89       __ehhandler$??0?$basic_ostream@DU?$char_traits@D@std@@@std@@QAE@PAV?$basic_streambuf@DU?$char_traits@D@std@@@1@_N@Z 0043ae89 f   TServerSystem:TServerSystem.obj
 0001:00039eb0       __ehhandler$??1_Sentry_base@?$basic_istream@DU?$char_traits@D@std@@@std@@QAE@XZ 0043aeb0 f   mailer.obj
 0001:00039eb0       __ehhandler$??1_Sentry_base@?$basic_ostream@DU?$char_traits@D@std@@@std@@QAE@XZ 0043aeb0 f   TServerSystem:TServerSystem.obj
 0001:00039ed0       __ehhandler$??0?$basic_streambuf@DU?$char_traits@D@std@@@std@@IAE@XZ 0043aed0 f   TServerSystem:TServerSystem.obj
 0001:00039ef0       __unwindfunclet$?flush@?$basic_ostream@DU?$char_traits@D@std@@@std@@QAEAAV12@XZ$2 0043aef0 f   TServerSystem:TServerSystem.obj
 0001:00039efd       __ehhandler$?flush@?$basic_ostream@DU?$char_traits@D@std@@@std@@QAEAAV12@XZ 0043aefd f   TServerSystem:TServerSystem.obj
 0001:00039f30       __ehhandler$?_Osfx@?$basic_ostream@DU?$char_traits@D@std@@@std@@QAEXXZ 0043af30 f   TServerSystem:TServerSystem.obj
 0001:00039f50       __unwindfunclet$??$use_facet@V?$ctype@D@std@@@std@@YAABV?$ctype@D@0@ABVlocale@0@@Z$0 0043af50 f   TServerSystem:TServerSystem.obj
 0001:00039f58       __unwindfunclet$??$use_facet@V?$ctype@D@std@@@std@@YAABV?$ctype@D@0@ABVlocale@0@@Z$2 0043af58 f   TServerSystem:TServerSystem.obj
 0001:00039f67       __unwindfunclet$??$use_facet@V?$ctype@D@std@@@std@@YAABV?$ctype@D@0@ABVlocale@0@@Z$1 0043af67 f   TServerSystem:TServerSystem.obj
 0001:00039f74       __ehhandler$??$use_facet@V?$ctype@D@std@@@std@@YAABV?$ctype@D@0@ABVlocale@0@@Z 0043af74 f   TServerSystem:TServerSystem.obj
 0001:00039fa0       __unwindfunclet$??$?6U?$char_traits@D@std@@@std@@YAAAV?$basic_ostream@DU?$char_traits@D@std@@@0@AAV10@PBD@Z$5 0043afa0 f   TServerSystem:TServerSystem.obj
 0001:00039fa8       __unwindfunclet$??$?6U?$char_traits@D@std@@@std@@YAAAV?$basic_ostream@DU?$char_traits@D@std@@@0@AAV10@PBD@Z$2 0043afa8 f   TServerSystem:TServerSystem.obj
 0001:00039fb5       __ehhandler$??$?6U?$char_traits@D@std@@@std@@YAAAV?$basic_ostream@DU?$char_traits@D@std@@@0@AAV10@PBD@Z 0043afb5 f   TServerSystem:TServerSystem.obj
 0001:00039fe0       __unwindfunclet$??$endl@DU?$char_traits@D@std@@@std@@YAAAV?$basic_ostream@DU?$char_traits@D@std@@@0@AAV10@@Z$0 0043afe0 f   TServerSystem:TServerSystem.obj
 0001:00039fed       __ehhandler$??$endl@DU?$char_traits@D@std@@@std@@YAAAV?$basic_ostream@DU?$char_traits@D@std@@@0@AAV10@@Z 0043afed f   TServerSystem:TServerSystem.obj
 0001:0003a010       __unwindfunclet$??$use_facet@V?$codecvt@DDU_Mbstatet@@@std@@@std@@YAABV?$codecvt@DDU_Mbstatet@@@0@ABVlocale@0@@Z$0 0043b010 f   TServerSystem:TServerSystem.obj
 0001:0003a018       __unwindfunclet$??$use_facet@V?$codecvt@DDU_Mbstatet@@@std@@@std@@YAABV?$codecvt@DDU_Mbstatet@@@0@ABVlocale@0@@Z$2 0043b018 f   TServerSystem:TServerSystem.obj
 0001:0003a027       __unwindfunclet$??$use_facet@V?$codecvt@DDU_Mbstatet@@@std@@@std@@YAABV?$codecvt@DDU_Mbstatet@@@0@ABVlocale@0@@Z$1 0043b027 f   TServerSystem:TServerSystem.obj
 0001:0003a034       __ehhandler$??$use_facet@V?$codecvt@DDU_Mbstatet@@@std@@@std@@YAABV?$codecvt@DDU_Mbstatet@@@0@ABVlocale@0@@Z 0043b034 f   TServerSystem:TServerSystem.obj
 0001:0003a060       __unwindfunclet$?put@?$basic_ostream@DU?$char_traits@D@std@@@std@@QAEAAV12@D@Z$3 0043b060 f   TServerSystem:TServerSystem.obj
 0001:0003a068       __unwindfunclet$?put@?$basic_ostream@DU?$char_traits@D@std@@@std@@QAEAAV12@D@Z$2 0043b068 f   TServerSystem:TServerSystem.obj
 0001:0003a075       __ehhandler$?put@?$basic_ostream@DU?$char_traits@D@std@@@std@@QAEAAV12@D@Z 0043b075 f   TServerSystem:TServerSystem.obj
 0001:0003a0a0       __unwindfunclet$??$_Insert_string@DU?$char_traits@D@std@@I@std@@YAAAV?$basic_ostream@DU?$char_traits@D@std@@@0@AAV10@QBDI@Z$5 0043b0a0 f   TServerSystem:TServerSystem.obj
 0001:0003a0a8       __unwindfunclet$??$_Insert_string@DU?$char_traits@D@std@@I@std@@YAAAV?$basic_ostream@DU?$char_traits@D@std@@@0@AAV10@QBDI@Z$2 0043b0a8 f   TServerSystem:TServerSystem.obj
 0001:0003a0b5       __ehhandler$??$_Insert_string@DU?$char_traits@D@std@@I@std@@YAAAV?$basic_ostream@DU?$char_traits@D@std@@@0@AAV10@QBDI@Z 0043b0b5 f   TServerSystem:TServerSystem.obj
 0001:0003a0e0       __ehhandler$??$_Emplace_reallocate@ABV?$basic_string@DU?$char_traits@D@std@@V?$allocator@D@2@@std@@@?$vector@V?$basic_string@DU?$char_traits@D@std@@V?$allocator@D@2@@std@@V?$allocator@V?$basic_string@DU?$char_traits@D@std@@V?$allocator@D@2@@std@@@2@@std@@AAEPAV?$basic_string@DU?$char_traits@D@std@@V?$allocator@D@2@@1@QAV21@ABV21@@Z 0043b0e0 f   TServerSystem:TServerSystem.obj
 0001:0003a100       __ehhandler$??$_Emplace_reallocate@ABV?$vector@V?$basic_string@DU?$char_traits@D@std@@V?$allocator@D@2@@std@@V?$allocator@V?$basic_string@DU?$char_traits@D@std@@V?$allocator@D@2@@std@@@2@@std@@@?$vector@V?$vector@V?$basic_string@DU?$char_traits@D@std@@V?$allocator@D@2@@std@@V?$allocator@V?$basic_string@DU?$char_traits@D@std@@V?$allocator@D@2@@std@@@2@@std@@V?$allocator@V?$vector@V?$basic_string@DU?$char_traits@D@std@@V?$allocator@D@2@@std@@V?$allocator@V?$basic_string@DU?$char_traits@D@std@@V?$allocator@D@2@@std@@@2@@std@@@2@@std@@AAEPAV?$vector@V?$basic_string@DU?$char_traits@D@std@@V?$allocator@D@2@@std@@V?$allocator@V?$basic_string@DU?$char_traits@D@std@@V?$allocator@D@2@@std@@@2@@1@QAV21@ABV21@@Z 0043b100 f   TServerSystem:TServerSystem.obj
 0001:0003a120       __unwindfunclet$?AddEntry@?$CSimpleIniTempl@DU?$SI_NoCase@D@@V?$SI_ConvertA@D@@@@AAE?AW4SI_Error@@PBD000_N1@Z$0 0043b120 f   TServerSystem:TServerSystem.obj
 0001:0003a128       __unwindfunclet$?AddEntry@?$CSimpleIniTempl@DU?$SI_NoCase@D@@V?$SI_ConvertA@D@@@@AAE?AW4SI_Error@@PBD000_N1@Z$1 0043b128 f   TServerSystem:TServerSystem.obj
 0001:0003a130       __unwindfunclet$?AddEntry@?$CSimpleIniTempl@DU?$SI_NoCase@D@@V?$SI_ConvertA@D@@@@AAE?AW4SI_Error@@PBD000_N1@Z$7 0043b130 f   TServerSystem:TServerSystem.obj
 0001:0003a138       __unwindfunclet$?AddEntry@?$CSimpleIniTempl@DU?$SI_NoCase@D@@V?$SI_ConvertA@D@@@@AAE?AW4SI_Error@@PBD000_N1@Z$5 0043b138 f   TServerSystem:TServerSystem.obj
 0001:0003a145       __ehhandler$?AddEntry@?$CSimpleIniTempl@DU?$SI_NoCase@D@@V?$SI_ConvertA@D@@@@AAE?AW4SI_Error@@PBD000_N1@Z 0043b145 f   TServerSystem:TServerSystem.obj
 0001:0003a170       __unwindfunclet$?CopyString@?$CSimpleIniTempl@DU?$SI_NoCase@D@@V?$SI_ConvertA@D@@@@AAE?AW4SI_Error@@AAPBD@Z$1 0043b170 f   TServerSystem:TServerSystem.obj
 0001:0003a17d       __ehhandler$?CopyString@?$CSimpleIniTempl@DU?$SI_NoCase@D@@V?$SI_ConvertA@D@@@@AAE?AW4SI_Error@@AAPBD@Z 0043b17d f   TServerSystem:TServerSystem.obj
 0001:0003a1a0       __unwindfunclet$??$_Emplace@AAU?$pair@$$CBUEntry@?$CSimpleIniTempl@DU?$SI_NoCase@D@@V?$SI_ConvertA@D@@@@V?$multimap@UEntry@?$CSimpleIniTempl@DU?$SI_NoCase@D@@V?$SI_ConvertA@D@@@@PBDUKeyOrder@12@V?$allocator@U?$pair@$$CBUEntry@?$CSimpleIniTempl@DU?$SI_NoCase@D@@V?$SI_ConvertA@D@@@@PBD@std@@@std@@@std@@@std@@@?$_Tree@V?$_Tmap_traits@UEntry@?$CSimpleIniTempl@DU?$SI_NoCase@D@@V?$SI_ConvertA@D@@@@V?$multimap@UEntry@?$CSimpleIniTempl@DU?$SI_NoCase@D@@V?$SI_ConvertA@D@@@@PBDUKeyOrder@12@V?$allocator@U?$pair@$$CBUEntry@?$CSimpleIniTempl@DU?$SI_NoCase@D@@V?$SI_ConvertA@D@@@@PBD@std@@@std@@@std@@UKeyOrder@12@V?$allocator@U?$pair@$$CBUEntry@?$CSimpleIniTempl@DU?$SI_NoCase@D@@V?$SI_ConvertA@D@@@@V?$multimap@UEntry@?$CSimpleIniTempl@DU?$SI_NoCase@D@@V?$SI_ConvertA@D@@@@PBDUKeyOrder@12@V?$allocator@U?$pair@$$CBUEntry@?$CSimpleIniTempl@DU?$SI_NoCase@D@@V?$SI_ConvertA@D@@@@PBD@std@@@std@@@std@@@std@@@4@$0A@@std@@@std@@IAE?AU?$pair@PAU?$_Tree_node@U?$pair@$$CBUEntry@?$CSimpleIniTempl@DU?$SI_NoCase@D@@V?$SI_ConvertA@D@@@@V?$multimap@UEntry@?$CSimpleIniTempl@DU?$SI_NoCase@D@@V?$SI_ConvertA@D@@@@PBDUKeyOrder@12@V?$allocator@U?$pair@$$CBUEntry@?$CSimpleIniTempl@DU?$SI_NoCase@D@@V?$SI_ConvertA@D@@@@PBD@std@@@std@@@std@@@std@@PAX@std@@_N@1@AAU?$pair@$$CBUEntry@?$CSimpleIniTempl@DU?$SI_NoCase@D@@V?$SI_ConvertA@D@@@@V?$multimap@UEntry@?$CSimpleIniTempl@DU?$SI_NoCase@D@@V?$SI_ConvertA@D@@@@PBDUKeyOrder@12@V?$allocator@U?$pair@$$CBUEntry@?$CSimpleIniTempl@DU?$SI_NoCase@D@@V?$SI_ConvertA@D@@@@PBD@std@@@std@@@std@@@1@@Z$2 0043b1a0 f   TServerSystem:TServerSystem.obj
 0001:0003a1a8       __unwindfunclet$??$_Emplace@AAU?$pair@$$CBUEntry@?$CSimpleIniTempl@DU?$SI_NoCase@D@@V?$SI_ConvertA@D@@@@V?$multimap@UEntry@?$CSimpleIniTempl@DU?$SI_NoCase@D@@V?$SI_ConvertA@D@@@@PBDUKeyOrder@12@V?$allocator@U?$pair@$$CBUEntry@?$CSimpleIniTempl@DU?$SI_NoCase@D@@V?$SI_ConvertA@D@@@@PBD@std@@@std@@@std@@@std@@@?$_Tree@V?$_Tmap_traits@UEntry@?$CSimpleIniTempl@DU?$SI_NoCase@D@@V?$SI_ConvertA@D@@@@V?$multimap@UEntry@?$CSimpleIniTempl@DU?$SI_NoCase@D@@V?$SI_ConvertA@D@@@@PBDUKeyOrder@12@V?$allocator@U?$pair@$$CBUEntry@?$CSimpleIniTempl@DU?$SI_NoCase@D@@V?$SI_ConvertA@D@@@@PBD@std@@@std@@@std@@UKeyOrder@12@V?$allocator@U?$pair@$$CBUEntry@?$CSimpleIniTempl@DU?$SI_NoCase@D@@V?$SI_ConvertA@D@@@@V?$multimap@UEntry@?$CSimpleIniTempl@DU?$SI_NoCase@D@@V?$SI_ConvertA@D@@@@PBDUKeyOrder@12@V?$allocator@U?$pair@$$CBUEntry@?$CSimpleIniTempl@DU?$SI_NoCase@D@@V?$SI_ConvertA@D@@@@PBD@std@@@std@@@std@@@std@@@4@$0A@@std@@@std@@IAE?AU?$pair@PAU?$_Tree_node@U?$pair@$$CBUEntry@?$CSimpleIniTempl@DU?$SI_NoCase@D@@V?$SI_ConvertA@D@@@@V?$multimap@UEntry@?$CSimpleIniTempl@DU?$SI_NoCase@D@@V?$SI_ConvertA@D@@@@PBDUKeyOrder@12@V?$allocator@U?$pair@$$CBUEntry@?$CSimpleIniTempl@DU?$SI_NoCase@D@@V?$SI_ConvertA@D@@@@PBD@std@@@std@@@std@@@std@@PAX@std@@_N@1@AAU?$pair@$$CBUEntry@?$CSimpleIniTempl@DU?$SI_NoCase@D@@V?$SI_ConvertA@D@@@@V?$multimap@UEntry@?$CSimpleIniTempl@DU?$SI_NoCase@D@@V?$SI_ConvertA@D@@@@PBDUKeyOrder@12@V?$allocator@U?$pair@$$CBUEntry@?$CSimpleIniTempl@DU?$SI_NoCase@D@@V?$SI_ConvertA@D@@@@PBD@std@@@std@@@std@@@1@@Z$1 0043b1a8 f   TServerSystem:TServerSystem.obj
 0001:0003a1b0       __unwindfunclet$??$_Emplace@AAU?$pair@$$CBUEntry@?$CSimpleIniTempl@DU?$SI_NoCase@D@@V?$SI_ConvertA@D@@@@V?$multimap@UEntry@?$CSimpleIniTempl@DU?$SI_NoCase@D@@V?$SI_ConvertA@D@@@@PBDUKeyOrder@12@V?$allocator@U?$pair@$$CBUEntry@?$CSimpleIniTempl@DU?$SI_NoCase@D@@V?$SI_ConvertA@D@@@@PBD@std@@@std@@@std@@@std@@@?$_Tree@V?$_Tmap_traits@UEntry@?$CSimpleIniTempl@DU?$SI_NoCase@D@@V?$SI_ConvertA@D@@@@V?$multimap@UEntry@?$CSimpleIniTempl@DU?$SI_NoCase@D@@V?$SI_ConvertA@D@@@@PBDUKeyOrder@12@V?$allocator@U?$pair@$$CBUEntry@?$CSimpleIniTempl@DU?$SI_NoCase@D@@V?$SI_ConvertA@D@@@@PBD@std@@@std@@@std@@UKeyOrder@12@V?$allocator@U?$pair@$$CBUEntry@?$CSimpleIniTempl@DU?$SI_NoCase@D@@V?$SI_ConvertA@D@@@@V?$multimap@UEntry@?$CSimpleIniTempl@DU?$SI_NoCase@D@@V?$SI_ConvertA@D@@@@PBDUKeyOrder@12@V?$allocator@U?$pair@$$CBUEntry@?$CSimpleIniTempl@DU?$SI_NoCase@D@@V?$SI_ConvertA@D@@@@PBD@std@@@std@@@std@@@std@@@4@$0A@@std@@@std@@IAE?AU?$pair@PAU?$_Tree_node@U?$pair@$$CBUEntry@?$CSimpleIniTempl@DU?$SI_NoCase@D@@V?$SI_ConvertA@D@@@@V?$multimap@UEntry@?$CSimpleIniTempl@DU?$SI_NoCase@D@@V?$SI_ConvertA@D@@@@PBDUKeyOrder@12@V?$allocator@U?$pair@$$CBUEntry@?$CSimpleIniTempl@DU?$SI_NoCase@D@@V?$SI_ConvertA@D@@@@PBD@std@@@std@@@std@@@std@@PAX@std@@_N@1@AAU?$pair@$$CBUEntry@?$CSimpleIniTempl@DU?$SI_NoCase@D@@V?$SI_ConvertA@D@@@@V?$multimap@UEntry@?$CSimpleIniTempl@DU?$SI_NoCase@D@@V?$SI_ConvertA@D@@@@PBDUKeyOrder@12@V?$allocator@U?$pair@$$CBUEntry@?$CSimpleIniTempl@DU?$SI_NoCase@D@@V?$SI_ConvertA@D@@@@PBD@std@@@std@@@std@@@1@@Z$5 0043b1b0 f   TServerSystem:TServerSystem.obj
 0001:0003a1bd       __ehhandler$??$_Emplace@AAU?$pair@$$CBUEntry@?$CSimpleIniTempl@DU?$SI_NoCase@D@@V?$SI_ConvertA@D@@@@V?$multimap@UEntry@?$CSimpleIniTempl@DU?$SI_NoCase@D@@V?$SI_ConvertA@D@@@@PBDUKeyOrder@12@V?$allocator@U?$pair@$$CBUEntry@?$CSimpleIniTempl@DU?$SI_NoCase@D@@V?$SI_ConvertA@D@@@@PBD@std@@@std@@@std@@@std@@@?$_Tree@V?$_Tmap_traits@UEntry@?$CSimpleIniTempl@DU?$SI_NoCase@D@@V?$SI_ConvertA@D@@@@V?$multimap@UEntry@?$CSimpleIniTempl@DU?$SI_NoCase@D@@V?$SI_ConvertA@D@@@@PBDUKeyOrder@12@V?$allocator@U?$pair@$$CBUEntry@?$CSimpleIniTempl@DU?$SI_NoCase@D@@V?$SI_ConvertA@D@@@@PBD@std@@@std@@@std@@UKeyOrder@12@V?$allocator@U?$pair@$$CBUEntry@?$CSimpleIniTempl@DU?$SI_NoCase@D@@V?$SI_ConvertA@D@@@@V?$multimap@UEntry@?$CSimpleIniTempl@DU?$SI_NoCase@D@@V?$SI_ConvertA@D@@@@PBDUKeyOrder@12@V?$allocator@U?$pair@$$CBUEntry@?$CSimpleIniTempl@DU?$SI_NoCase@D@@V?$SI_ConvertA@D@@@@PBD@std@@@std@@@std@@@std@@@4@$0A@@std@@@std@@IAE?AU?$pair@PAU?$_Tree_node@U?$pair@$$CBUEntry@?$CSimpleIniTempl@DU?$SI_NoCase@D@@V?$SI_ConvertA@D@@@@V?$multimap@UEntry@?$CSimpleIniTempl@DU?$SI_NoCase@D@@V?$SI_ConvertA@D@@@@PBDUKeyOrder@12@V?$allocator@U?$pair@$$CBUEntry@?$CSimpleIniTempl@DU?$SI_NoCase@D@@V?$SI_ConvertA@D@@@@PBD@std@@@std@@@std@@@std@@PAX@std@@_N@1@AAU?$pair@$$CBUEntry@?$CSimpleIniTempl@DU?$SI_NoCase@D@@V?$SI_ConvertA@D@@@@V?$multimap@UEntry@?$CSimpleIniTempl@DU?$SI_NoCase@D@@V?$SI_ConvertA@D@@@@PBDUKeyOrder@12@V?$allocator@U?$pair@$$CBUEntry@?$CSimpleIniTempl@DU?$SI_NoCase@D@@V?$SI_ConvertA@D@@@@PBD@std@@@std@@@std@@@1@@Z 0043b1bd f   TServerSystem:TServerSystem.obj
 0001:0003a1e0       __unwindfunclet$??$_Copy_nodes@$0A@@?$_Tree@V?$_Tmap_traits@UEntry@?$CSimpleIniTempl@DU?$SI_NoCase@D@@V?$SI_ConvertA@D@@@@PBDUKeyOrder@12@V?$allocator@U?$pair@$$CBUEntry@?$CSimpleIniTempl@DU?$SI_NoCase@D@@V?$SI_ConvertA@D@@@@PBD@std@@@std@@$00@std@@@std@@IAEPAU?$_Tree_node@U?$pair@$$CBUEntry@?$CSimpleIniTempl@DU?$SI_NoCase@D@@V?$SI_ConvertA@D@@@@PBD@std@@PAX@1@PAU21@0@Z$2 0043b1e0 f   TServerSystem:TServerSystem.obj
 0001:0003a1ed       __ehhandler$??$_Copy_nodes@$0A@@?$_Tree@V?$_Tmap_traits@UEntry@?$CSimpleIniTempl@DU?$SI_NoCase@D@@V?$SI_ConvertA@D@@@@PBDUKeyOrder@12@V?$allocator@U?$pair@$$CBUEntry@?$CSimpleIniTempl@DU?$SI_NoCase@D@@V?$SI_ConvertA@D@@@@PBD@std@@@std@@$00@std@@@std@@IAEPAU?$_Tree_node@U?$pair@$$CBUEntry@?$CSimpleIniTempl@DU?$SI_NoCase@D@@V?$SI_ConvertA@D@@@@PBD@std@@PAX@1@PAU21@0@Z 0043b1ed f   TServerSystem:TServerSystem.obj
 0001:0003a210       __unwindfunclet$??$insert@$0A@$0A@@?$_Tree@V?$_Tmap_traits@KKU?$less@K@std@@V?$allocator@U?$pair@$$CBKK@std@@@2@$0A@@std@@@std@@QAE?AU?$pair@V?$_Tree_iterator@V?$_Tree_val@U?$_Tree_simple_types@U?$pair@$$CBKK@std@@@std@@@std@@@std@@_N@1@$$QAU?$pair@$$CBKK@1@@Z$2 0043b210 f   CSHandler.obj
 0001:0003a210       __unwindfunclet$??$insert@$0A@$0A@@?$_Tree@V?$_Tmap_traits@KPAVCTUser@@U?$less@K@std@@V?$allocator@U?$pair@$$CBKPAVCTUser@@@std@@@3@$0A@@std@@@std@@QAE?AU?$pair@V?$_Tree_iterator@V?$_Tree_val@U?$_Tree_simple_types@U?$pair@$$CBKPAVCTUser@@@std@@@std@@@std@@@std@@_N@1@$$QAU?$pair@$$CBKPAVCTUser@@@1@@Z$2 0043b210 f   CSHandler.obj
 0001:0003a21d       __ehhandler$??$insert@$0A@$0A@@?$_Tree@V?$_Tmap_traits@KKU?$less@K@std@@V?$allocator@U?$pair@$$CBKK@std@@@2@$0A@@std@@@std@@QAE?AU?$pair@V?$_Tree_iterator@V?$_Tree_val@U?$_Tree_simple_types@U?$pair@$$CBKK@std@@@std@@@std@@@std@@_N@1@$$QAU?$pair@$$CBKK@1@@Z 0043b21d f   CSHandler.obj
 0001:0003a21d       __ehhandler$??$insert@$0A@$0A@@?$_Tree@V?$_Tmap_traits@KPAVCTUser@@U?$less@K@std@@V?$allocator@U?$pair@$$CBKPAVCTUser@@@std@@@3@$0A@@std@@@std@@QAE?AU?$pair@V?$_Tree_iterator@V?$_Tree_val@U?$_Tree_simple_types@U?$pair@$$CBKPAVCTUser@@@std@@@std@@@std@@@std@@_N@1@$$QAU?$pair@$$CBKPAVCTUser@@@1@@Z 0043b21d f   CSHandler.obj
 0001:0003a240       __unwindfunclet$??0?$CStringT@DV?$StrTraitATL@DV?$ChTraitsCRT@D@ATL@@@ATL@@@ATL@@QAE@PBD@Z$0 0043b240 f   CSHandler.obj
 0001:0003a24d       __ehhandler$??0?$CStringT@DV?$StrTraitATL@DV?$ChTraitsCRT@D@ATL@@@ATL@@@ATL@@QAE@PBD@Z 0043b24d f   CSHandler.obj
 0001:0003a270       __unwindfunclet$??0tagEVENTINFO@@QAE@$$QAU0@@Z$0 0043b270 f   CSHandler.obj
 0001:0003a27b       __unwindfunclet$??0tagEVENTINFO@@QAE@$$QAU0@@Z$1 0043b27b f   CSHandler.obj
 0001:0003a286       __unwindfunclet$??0tagEVENTINFO@@QAE@$$QAU0@@Z$2 0043b286 f   CSHandler.obj
 0001:0003a291       __unwindfunclet$??0tagEVENTINFO@@QAE@$$QAU0@@Z$3 0043b291 f   CSHandler.obj
 0001:0003a29c       __unwindfunclet$??0tagEVENTINFO@@QAE@$$QAU0@@Z$4 0043b29c f   CSHandler.obj
 0001:0003a2a7       __unwindfunclet$??0tagEVENTINFO@@QAE@$$QAU0@@Z$5 0043b2a7 f   CSHandler.obj
 0001:0003a2b2       __unwindfunclet$??0tagEVENTINFO@@QAE@$$QAU0@@Z$6 0043b2b2 f   CSHandler.obj
 0001:0003a2c2       __ehhandler$??0tagEVENTINFO@@QAE@$$QAU0@@Z 0043b2c2 f   CSHandler.obj
 0001:0003a2e0       __unwindfunclet$??0tagEVENTINFO@@QAE@ABU0@@Z$0 0043b2e0 f   CSHandler.obj
 0001:0003a2eb       __unwindfunclet$??0tagEVENTINFO@@QAE@ABU0@@Z$1 0043b2eb f   CSHandler.obj
 0001:0003a2f6       __unwindfunclet$??0tagEVENTINFO@@QAE@ABU0@@Z$2 0043b2f6 f   CSHandler.obj
 0001:0003a301       __unwindfunclet$??0tagEVENTINFO@@QAE@ABU0@@Z$3 0043b301 f   CSHandler.obj
 0001:0003a30c       __unwindfunclet$??0tagEVENTINFO@@QAE@ABU0@@Z$4 0043b30c f   CSHandler.obj
 0001:0003a317       __unwindfunclet$??0tagEVENTINFO@@QAE@ABU0@@Z$5 0043b317 f   CSHandler.obj
 0001:0003a322       __unwindfunclet$??0tagEVENTINFO@@QAE@ABU0@@Z$6 0043b322 f   CSHandler.obj
 0001:0003a332       __ehhandler$??0tagEVENTINFO@@QAE@ABU0@@Z 0043b332 f   CSHandler.obj
 0001:0003a350       __unwindfunclet$?OnCS_AGREEMENT_REQ@CTLoginSvrModule@@IAEKPAVCSqlDatabase@@PAV?$map@EPAUtagTGROUP@@U?$less@E@std@@V?$allocator@U?$pair@$$CBEPAUtagTGROUP@@@std@@@3@@std@@PAVCTUser@@AAVCPacket@@@Z$1 0043b350 f   CSHandler.obj
 0001:0003a350       __unwindfunclet$?Flush@CSession@@QAEXXZ$0 0043b350 f   TNetLib:Session.obj
 0001:0003a350       __unwindfunclet$?OnInvalidSession@CSession@@QAEHXZ$0 0043b350 f   TNetLib:Session.obj
 0001:0003a350       __unwindfunclet$?Read@CSession@@QAEHK@Z$0 0043b350 f   TNetLib:Session.obj
 0001:0003a35d       __ehhandler$?OnCS_AGREEMENT_REQ@CTLoginSvrModule@@IAEKPAVCSqlDatabase@@PAV?$map@EPAUtagTGROUP@@U?$less@E@std@@V?$allocator@U?$pair@$$CBEPAUtagTGROUP@@@std@@@3@@std@@PAVCTUser@@AAVCPacket@@@Z 0043b35d f   CSHandler.obj
 0001:0003a35d       __ehhandler$?Flush@CSession@@QAEXXZ 0043b35d f   TNetLib:Session.obj
 0001:0003a35d       __ehhandler$?OnInvalidSession@CSession@@QAEHXZ 0043b35d f   TNetLib:Session.obj
 0001:0003a35d       __ehhandler$?Read@CSession@@QAEHK@Z 0043b35d f   TNetLib:Session.obj
 0001:0003a380       __unwindfunclet$?OnCS_CHANNELLIST_REQ@CTLoginSvrModule@@IAEKPAVCSqlDatabase@@PAV?$map@EPAUtagTGROUP@@U?$less@E@std@@V?$allocator@U?$pair@$$CBEPAUtagTGROUP@@@std@@@3@@std@@PAVCTUser@@AAVCPacket@@@Z$0 0043b380 f   CSHandler.obj
 0001:0003a38f       __unwindfunclet$?OnCS_CHANNELLIST_REQ@CTLoginSvrModule@@IAEKPAVCSqlDatabase@@PAV?$map@EPAUtagTGROUP@@U?$less@E@std@@V?$allocator@U?$pair@$$CBEPAUtagTGROUP@@@std@@@3@@std@@PAVCTUser@@AAVCPacket@@@Z$2 0043b38f f   CSHandler.obj
 0001:0003a397       __unwindfunclet$?OnCS_CHANNELLIST_REQ@CTLoginSvrModule@@IAEKPAVCSqlDatabase@@PAV?$map@EPAUtagTGROUP@@U?$less@E@std@@V?$allocator@U?$pair@$$CBEPAUtagTGROUP@@@std@@@3@@std@@PAVCTUser@@AAVCPacket@@@Z$4 0043b397 f   CSHandler.obj
 0001:0003a39f       __unwindfunclet$?OnCS_CHANNELLIST_REQ@CTLoginSvrModule@@IAEKPAVCSqlDatabase@@PAV?$map@EPAUtagTGROUP@@U?$less@E@std@@V?$allocator@U?$pair@$$CBEPAUtagTGROUP@@@std@@@3@@std@@PAVCTUser@@AAVCPacket@@@Z$3 0043b39f f   CSHandler.obj
 0001:0003a3ac       __ehhandler$?OnCS_CHANNELLIST_REQ@CTLoginSvrModule@@IAEKPAVCSqlDatabase@@PAV?$map@EPAUtagTGROUP@@U?$less@E@std@@V?$allocator@U?$pair@$$CBEPAUtagTGROUP@@@std@@@3@@std@@PAVCTUser@@AAVCPacket@@@Z 0043b3ac f   CSHandler.obj
 0001:0003a3d0       __unwindfunclet$?OnCS_CHARLIST_REQ@CTLoginSvrModule@@IAEKPAVCSqlDatabase@@PAV?$map@EPAUtagTGROUP@@U?$less@E@std@@V?$allocator@U?$pair@$$CBEPAUtagTGROUP@@@std@@@3@@std@@PAVCTUser@@AAVCPacket@@@Z$0 0043b3d0 f   CSHandler.obj
 0001:0003a3d8       __unwindfunclet$?OnCS_CHARLIST_REQ@CTLoginSvrModule@@IAEKPAVCSqlDatabase@@PAV?$map@EPAUtagTGROUP@@U?$less@E@std@@V?$allocator@U?$pair@$$CBEPAUtagTGROUP@@@std@@@3@@std@@PAVCTUser@@AAVCPacket@@@Z$2 0043b3d8 f   CSHandler.obj
 0001:0003a3e0       __unwindfunclet$?OnCS_CHARLIST_REQ@CTLoginSvrModule@@IAEKPAVCSqlDatabase@@PAV?$map@EPAUtagTGROUP@@U?$less@E@std@@V?$allocator@U?$pair@$$CBEPAUtagTGROUP@@@std@@@3@@std@@PAVCTUser@@AAVCPacket@@@Z$4 0043b3e0 f   CSHandler.obj
 0001:0003a3e8       __unwindfunclet$?OnCS_CHARLIST_REQ@CTLoginSvrModule@@IAEKPAVCSqlDatabase@@PAV?$map@EPAUtagTGROUP@@U?$less@E@std@@V?$allocator@U?$pair@$$CBEPAUtagTGROUP@@@std@@@3@@std@@PAVCTUser@@AAVCPacket@@@Z$6 0043b3e8 f   CSHandler.obj
 0001:0003a3f0       __unwindfunclet$?OnCS_CHARLIST_REQ@CTLoginSvrModule@@IAEKPAVCSqlDatabase@@PAV?$map@EPAUtagTGROUP@@U?$less@E@std@@V?$allocator@U?$pair@$$CBEPAUtagTGROUP@@@std@@@3@@std@@PAVCTUser@@AAVCPacket@@@Z$8 0043b3f0 f   CSHandler.obj
 0001:0003a3f8       __unwindfunclet$?OnCS_CHARLIST_REQ@CTLoginSvrModule@@IAEKPAVCSqlDatabase@@PAV?$map@EPAUtagTGROUP@@U?$less@E@std@@V?$allocator@U?$pair@$$CBEPAUtagTGROUP@@@std@@@3@@std@@PAVCTUser@@AAVCPacket@@@Z$10 0043b3f8 f   CSHandler.obj
 0001:0003a400       __unwindfunclet$?OnCS_CHARLIST_REQ@CTLoginSvrModule@@IAEKPAVCSqlDatabase@@PAV?$map@EPAUtagTGROUP@@U?$less@E@std@@V?$allocator@U?$pair@$$CBEPAUtagTGROUP@@@std@@@3@@std@@PAVCTUser@@AAVCPacket@@@Z$11 0043b400 f   CSHandler.obj
 0001:0003a414       __ehhandler$?OnCS_CHARLIST_REQ@CTLoginSvrModule@@IAEKPAVCSqlDatabase@@PAV?$map@EPAUtagTGROUP@@U?$less@E@std@@V?$allocator@U?$pair@$$CBEPAUtagTGROUP@@@std@@@3@@std@@PAVCTUser@@AAVCPacket@@@Z 0043b414 f   CSHandler.obj
 0001:0003a440       __unwindfunclet$?OnCS_CREATECHAR_REQ@CTLoginSvrModule@@IAEKPAVCSqlDatabase@@PAV?$map@EPAUtagTGROUP@@U?$less@E@std@@V?$allocator@U?$pair@$$CBEPAUtagTGROUP@@@std@@@3@@std@@PAVCTUser@@AAVCPacket@@@Z$0 0043b440 f   CSHandler.obj
 0001:0003a448       __unwindfunclet$?OnCS_CREATECHAR_REQ@CTLoginSvrModule@@IAEKPAVCSqlDatabase@@PAV?$map@EPAUtagTGROUP@@U?$less@E@std@@V?$allocator@U?$pair@$$CBEPAUtagTGROUP@@@std@@@3@@std@@PAVCTUser@@AAVCPacket@@@Z$4 0043b448 f   CSHandler.obj
 0001:0003a455       __ehhandler$?OnCS_CREATECHAR_REQ@CTLoginSvrModule@@IAEKPAVCSqlDatabase@@PAV?$map@EPAUtagTGROUP@@U?$less@E@std@@V?$allocator@U?$pair@$$CBEPAUtagTGROUP@@@std@@@3@@std@@PAVCTUser@@AAVCPacket@@@Z 0043b455 f   CSHandler.obj
 0001:0003a480       __unwindfunclet$?OnCS_DELCHAR_REQ@CTLoginSvrModule@@IAEKPAVCSqlDatabase@@PAV?$map@EPAUtagTGROUP@@U?$less@E@std@@V?$allocator@U?$pair@$$CBEPAUtagTGROUP@@@std@@@3@@std@@PAVCTUser@@AAVCPacket@@@Z$0 0043b480 f   CSHandler.obj
 0001:0003a488       __unwindfunclet$?OnCS_DELCHAR_REQ@CTLoginSvrModule@@IAEKPAVCSqlDatabase@@PAV?$map@EPAUtagTGROUP@@U?$less@E@std@@V?$allocator@U?$pair@$$CBEPAUtagTGROUP@@@std@@@3@@std@@PAVCTUser@@AAVCPacket@@@Z$2 0043b488 f   CSHandler.obj
 0001:0003a490       __unwindfunclet$?OnCS_DELCHAR_REQ@CTLoginSvrModule@@IAEKPAVCSqlDatabase@@PAV?$map@EPAUtagTGROUP@@U?$less@E@std@@V?$allocator@U?$pair@$$CBEPAUtagTGROUP@@@std@@@3@@std@@PAVCTUser@@AAVCPacket@@@Z$4 0043b490 f   CSHandler.obj
 0001:0003a49d       __ehhandler$?OnCS_DELCHAR_REQ@CTLoginSvrModule@@IAEKPAVCSqlDatabase@@PAV?$map@EPAUtagTGROUP@@U?$less@E@std@@V?$allocator@U?$pair@$$CBEPAUtagTGROUP@@@std@@@3@@std@@PAVCTUser@@AAVCPacket@@@Z 0043b49d f   CSHandler.obj
 0001:0003a4c0       __unwindfunclet$?OnCS_GROUPLIST_REQ@CTLoginSvrModule@@IAEKPAVCSqlDatabase@@PAV?$map@EPAUtagTGROUP@@U?$less@E@std@@V?$allocator@U?$pair@$$CBEPAUtagTGROUP@@@std@@@3@@std@@PAVCTUser@@AAVCPacket@@@Z$0 0043b4c0 f   CSHandler.obj
 0001:0003a4cf       __unwindfunclet$?OnCS_GROUPLIST_REQ@CTLoginSvrModule@@IAEKPAVCSqlDatabase@@PAV?$map@EPAUtagTGROUP@@U?$less@E@std@@V?$allocator@U?$pair@$$CBEPAUtagTGROUP@@@std@@@3@@std@@PAVCTUser@@AAVCPacket@@@Z$2 0043b4cf f   CSHandler.obj
 0001:0003a4d7       __unwindfunclet$?OnCS_GROUPLIST_REQ@CTLoginSvrModule@@IAEKPAVCSqlDatabase@@PAV?$map@EPAUtagTGROUP@@U?$less@E@std@@V?$allocator@U?$pair@$$CBEPAUtagTGROUP@@@std@@@3@@std@@PAVCTUser@@AAVCPacket@@@Z$4 0043b4d7 f   CSHandler.obj
 0001:0003a4df       __unwindfunclet$?OnCS_GROUPLIST_REQ@CTLoginSvrModule@@IAEKPAVCSqlDatabase@@PAV?$map@EPAUtagTGROUP@@U?$less@E@std@@V?$allocator@U?$pair@$$CBEPAUtagTGROUP@@@std@@@3@@std@@PAVCTUser@@AAVCPacket@@@Z$3 0043b4df f   CSHandler.obj
 0001:0003a4ec       __ehhandler$?OnCS_GROUPLIST_REQ@CTLoginSvrModule@@IAEKPAVCSqlDatabase@@PAV?$map@EPAUtagTGROUP@@U?$less@E@std@@V?$allocator@U?$pair@$$CBEPAUtagTGROUP@@@std@@@3@@std@@PAVCTUser@@AAVCPacket@@@Z 0043b4ec f   CSHandler.obj
 0001:0003a510       __unwindfunclet$?OnCS_LOGIN_REQ@CTLoginSvrModule@@IAEKPAVCSqlDatabase@@PAV?$map@EPAUtagTGROUP@@U?$less@E@std@@V?$allocator@U?$pair@$$CBEPAUtagTGROUP@@@std@@@3@@std@@PAVCTUser@@AAVCPacket@@@Z$2 0043b510 f   CSHandler.obj
 0001:0003a518       __unwindfunclet$?OnCS_LOGIN_REQ@CTLoginSvrModule@@IAEKPAVCSqlDatabase@@PAV?$map@EPAUtagTGROUP@@U?$less@E@std@@V?$allocator@U?$pair@$$CBEPAUtagTGROUP@@@std@@@3@@std@@PAVCTUser@@AAVCPacket@@@Z$4 0043b518 f   CSHandler.obj
 0001:0003a520       __unwindfunclet$?OnCS_LOGIN_REQ@CTLoginSvrModule@@IAEKPAVCSqlDatabase@@PAV?$map@EPAUtagTGROUP@@U?$less@E@std@@V?$allocator@U?$pair@$$CBEPAUtagTGROUP@@@std@@@3@@std@@PAVCTUser@@AAVCPacket@@@Z$6 0043b520 f   CSHandler.obj
 0001:0003a528       __unwindfunclet$?OnCS_LOGIN_REQ@CTLoginSvrModule@@IAEKPAVCSqlDatabase@@PAV?$map@EPAUtagTGROUP@@U?$less@E@std@@V?$allocator@U?$pair@$$CBEPAUtagTGROUP@@@std@@@3@@std@@PAVCTUser@@AAVCPacket@@@Z$5 0043b528 f   CSHandler.obj
 0001:0003a530       __unwindfunclet$?OnCS_LOGIN_REQ@CTLoginSvrModule@@IAEKPAVCSqlDatabase@@PAV?$map@EPAUtagTGROUP@@U?$less@E@std@@V?$allocator@U?$pair@$$CBEPAUtagTGROUP@@@std@@@3@@std@@PAVCTUser@@AAVCPacket@@@Z$8 0043b530 f   CSHandler.obj
 0001:0003a538       __unwindfunclet$?OnCS_LOGIN_REQ@CTLoginSvrModule@@IAEKPAVCSqlDatabase@@PAV?$map@EPAUtagTGROUP@@U?$less@E@std@@V?$allocator@U?$pair@$$CBEPAUtagTGROUP@@@std@@@3@@std@@PAVCTUser@@AAVCPacket@@@Z$10 0043b538 f   CSHandler.obj
 0001:0003a540       __unwindfunclet$?OnCS_LOGIN_REQ@CTLoginSvrModule@@IAEKPAVCSqlDatabase@@PAV?$map@EPAUtagTGROUP@@U?$less@E@std@@V?$allocator@U?$pair@$$CBEPAUtagTGROUP@@@std@@@3@@std@@PAVCTUser@@AAVCPacket@@@Z$9 0043b540 f   CSHandler.obj
 0001:0003a54d       __ehhandler$?OnCS_LOGIN_REQ@CTLoginSvrModule@@IAEKPAVCSqlDatabase@@PAV?$map@EPAUtagTGROUP@@U?$less@E@std@@V?$allocator@U?$pair@$$CBEPAUtagTGROUP@@@std@@@3@@std@@PAVCTUser@@AAVCPacket@@@Z 0043b54d f   CSHandler.obj
 0001:0003a570       __unwindfunclet$?OnCS_SECURITYCONFIRM_ACK@CTLoginSvrModule@@IAEKPAVCSqlDatabase@@PAV?$map@EPAUtagTGROUP@@U?$less@E@std@@V?$allocator@U?$pair@$$CBEPAUtagTGROUP@@@std@@@3@@std@@PAVCTUser@@AAVCPacket@@@Z$0 0043b570 f   CSHandler.obj
 0001:0003a578       __unwindfunclet$?OnCS_SECURITYCONFIRM_ACK@CTLoginSvrModule@@IAEKPAVCSqlDatabase@@PAV?$map@EPAUtagTGROUP@@U?$less@E@std@@V?$allocator@U?$pair@$$CBEPAUtagTGROUP@@@std@@@3@@std@@PAVCTUser@@AAVCPacket@@@Z$2 0043b578 f   CSHandler.obj
 0001:0003a585       __ehhandler$?OnCS_SECURITYCONFIRM_ACK@CTLoginSvrModule@@IAEKPAVCSqlDatabase@@PAV?$map@EPAUtagTGROUP@@U?$less@E@std@@V?$allocator@U?$pair@$$CBEPAUtagTGROUP@@@std@@@3@@std@@PAVCTUser@@AAVCPacket@@@Z 0043b585 f   CSHandler.obj
 0001:0003a5b0       __unwindfunclet$?OnCS_START_REQ@CTLoginSvrModule@@IAEKPAVCSqlDatabase@@PAV?$map@EPAUtagTGROUP@@U?$less@E@std@@V?$allocator@U?$pair@$$CBEPAUtagTGROUP@@@std@@@3@@std@@PAVCTUser@@AAVCPacket@@@Z$1 0043b5b0 f   CSHandler.obj
 0001:0003a5b8       __unwindfunclet$?OnCS_START_REQ@CTLoginSvrModule@@IAEKPAVCSqlDatabase@@PAV?$map@EPAUtagTGROUP@@U?$less@E@std@@V?$allocator@U?$pair@$$CBEPAUtagTGROUP@@@std@@@3@@std@@PAVCTUser@@AAVCPacket@@@Z$3 0043b5b8 f   CSHandler.obj
 0001:0003a5c0       __unwindfunclet$?OnCS_START_REQ@CTLoginSvrModule@@IAEKPAVCSqlDatabase@@PAV?$map@EPAUtagTGROUP@@U?$less@E@std@@V?$allocator@U?$pair@$$CBEPAUtagTGROUP@@@std@@@3@@std@@PAVCTUser@@AAVCPacket@@@Z$5 0043b5c0 f   CSHandler.obj
 0001:0003a5c8       __unwindfunclet$?OnCS_START_REQ@CTLoginSvrModule@@IAEKPAVCSqlDatabase@@PAV?$map@EPAUtagTGROUP@@U?$less@E@std@@V?$allocator@U?$pair@$$CBEPAUtagTGROUP@@@std@@@3@@std@@PAVCTUser@@AAVCPacket@@@Z$7 0043b5c8 f   CSHandler.obj
 0001:0003a5d5       __ehhandler$?OnCS_START_REQ@CTLoginSvrModule@@IAEKPAVCSqlDatabase@@PAV?$map@EPAUtagTGROUP@@U?$less@E@std@@V?$allocator@U?$pair@$$CBEPAUtagTGROUP@@@std@@@3@@std@@PAVCTUser@@AAVCPacket@@@Z 0043b5d5 f   CSHandler.obj
 0001:0003a600       __unwindfunclet$?OnCS_TESTLOGIN_REQ@CTLoginSvrModule@@IAEKPAVCSqlDatabase@@PAV?$map@EPAUtagTGROUP@@U?$less@E@std@@V?$allocator@U?$pair@$$CBEPAUtagTGROUP@@@std@@@3@@std@@PAVCTUser@@AAVCPacket@@@Z$1 0043b600 f   CSHandler.obj
 0001:0003a608       __unwindfunclet$?OnCS_TESTLOGIN_REQ@CTLoginSvrModule@@IAEKPAVCSqlDatabase@@PAV?$map@EPAUtagTGROUP@@U?$less@E@std@@V?$allocator@U?$pair@$$CBEPAUtagTGROUP@@@std@@@3@@std@@PAVCTUser@@AAVCPacket@@@Z$2 0043b608 f   CSHandler.obj
 0001:0003a615       __ehhandler$?OnCS_TESTLOGIN_REQ@CTLoginSvrModule@@IAEKPAVCSqlDatabase@@PAV?$map@EPAUtagTGROUP@@U?$less@E@std@@V?$allocator@U?$pair@$$CBEPAUtagTGROUP@@@std@@@3@@std@@PAVCTUser@@AAVCPacket@@@Z 0043b615 f   CSHandler.obj
 0001:0003a640       __unwindfunclet$?OnCT_EVENTMSG_REQ@CTLoginSvrModule@@IAEKPAVCSqlDatabase@@PAV?$map@EPAUtagTGROUP@@U?$less@E@std@@V?$allocator@U?$pair@$$CBEPAUtagTGROUP@@@std@@@3@@std@@PAVCTUser@@AAVCPacket@@@Z$0 0043b640 f   CSHandler.obj
 0001:0003a64d       __ehhandler$?OnCT_EVENTMSG_REQ@CTLoginSvrModule@@IAEKPAVCSqlDatabase@@PAV?$map@EPAUtagTGROUP@@U?$less@E@std@@V?$allocator@U?$pair@$$CBEPAUtagTGROUP@@@std@@@3@@std@@PAVCTUser@@AAVCPacket@@@Z 0043b64d f   CSHandler.obj
 0001:0003a670       __unwindfunclet$?OnCT_EVENTUPDATE_REQ@CTLoginSvrModule@@IAEKPAVCSqlDatabase@@PAV?$map@EPAUtagTGROUP@@U?$less@E@std@@V?$allocator@U?$pair@$$CBEPAUtagTGROUP@@@std@@@3@@std@@PAVCTUser@@AAVCPacket@@@Z$0 0043b670 f   CSHandler.obj
 0001:0003a67b       __unwindfunclet$?OnCT_EVENTUPDATE_REQ@CTLoginSvrModule@@IAEKPAVCSqlDatabase@@PAV?$map@EPAUtagTGROUP@@U?$less@E@std@@V?$allocator@U?$pair@$$CBEPAUtagTGROUP@@@std@@@3@@std@@PAVCTUser@@AAVCPacket@@@Z$1 0043b67b f   CSHandler.obj
 0001:0003a686       __unwindfunclet$?OnCT_EVENTUPDATE_REQ@CTLoginSvrModule@@IAEKPAVCSqlDatabase@@PAV?$map@EPAUtagTGROUP@@U?$less@E@std@@V?$allocator@U?$pair@$$CBEPAUtagTGROUP@@@std@@@3@@std@@PAVCTUser@@AAVCPacket@@@Z$8 0043b686 f   CSHandler.obj
 0001:0003a68e       __unwindfunclet$?OnCT_EVENTUPDATE_REQ@CTLoginSvrModule@@IAEKPAVCSqlDatabase@@PAV?$map@EPAUtagTGROUP@@U?$less@E@std@@V?$allocator@U?$pair@$$CBEPAUtagTGROUP@@@std@@@3@@std@@PAVCTUser@@AAVCPacket@@@Z$7 0043b68e f   CSHandler.obj
 0001:0003a69b       __ehhandler$?OnCT_EVENTUPDATE_REQ@CTLoginSvrModule@@IAEKPAVCSqlDatabase@@PAV?$map@EPAUtagTGROUP@@U?$less@E@std@@V?$allocator@U?$pair@$$CBEPAUtagTGROUP@@@std@@@3@@std@@PAVCTUser@@AAVCPacket@@@Z 0043b69b f   CSHandler.obj
 0001:0003a6c0       __unwindfunclet$?OnCT_SERVICEDATACLEAR_ACK@CTLoginSvrModule@@IAEKPAVCSqlDatabase@@PAV?$map@EPAUtagTGROUP@@U?$less@E@std@@V?$allocator@U?$pair@$$CBEPAUtagTGROUP@@@std@@@3@@std@@PAVCTUser@@AAVCPacket@@@Z$2 0043b6c0 f   CSHandler.obj
 0001:0003a6cd       __ehhandler$?OnCT_SERVICEDATACLEAR_ACK@CTLoginSvrModule@@IAEKPAVCSqlDatabase@@PAV?$map@EPAUtagTGROUP@@U?$less@E@std@@V?$allocator@U?$pair@$$CBEPAUtagTGROUP@@@std@@@3@@std@@PAVCTUser@@AAVCPacket@@@Z 0043b6cd f   CSHandler.obj
 0001:0003a6f0       __unwindfunclet$?SendCS_BOWPLAYERNOTIFY_ACK@CTUser@@QAEXE@Z$0 0043b6f0 f   CSSender.obj
 0001:0003a6f0       __unwindfunclet$?SendCS_DELCHAR_ACK@CTUser@@QAEXEK@Z$0 0043b6f0 f   CSSender.obj
 0001:0003a6f0       __unwindfunclet$?SendCS_LOGIN_ACK@CTUser@@QAEXEKKKKGEEK_J@Z$0 0043b6f0 f   CSSender.obj
 0001:0003a6f0       __unwindfunclet$?SendCS_SECURITYRESULT_ACK@CTUser@@QAEXE@Z$0 0043b6f0 f   CSSender.obj
 0001:0003a6f0       __unwindfunclet$?SendCS_START_ACK@CTUser@@QAEXEKGE@Z$0 0043b6f0 f   CSSender.obj
 0001:0003a6f0       __unwindfunclet$?SendCS_TESTVERSION_ACK@CTUser@@QAEXG@Z$0 0043b6f0 f   CSSender.obj
 0001:0003a6f0       __unwindfunclet$?SendCS_VETERAN_ACK@CTUser@@QAEXEEEE@Z$0 0043b6f0 f   CSSender.obj
 0001:0003a6f0       __unwindfunclet$?SendCT_SERVICEMONITOR_REQ@CTUser@@QAEXKKKK@Z$0 0043b6f0 f   CSSender.obj
 0001:0003a704       __ehhandler$?SendCS_BOWPLAYERNOTIFY_ACK@CTUser@@QAEXE@Z 0043b704 f   CSSender.obj
 0001:0003a704       __ehhandler$?SendCS_DELCHAR_ACK@CTUser@@QAEXEK@Z 0043b704 f   CSSender.obj
 0001:0003a704       __ehhandler$?SendCS_LOGIN_ACK@CTUser@@QAEXEKKKKGEEK_J@Z 0043b704 f   CSSender.obj
 0001:0003a704       __ehhandler$?SendCS_SECURITYRESULT_ACK@CTUser@@QAEXE@Z 0043b704 f   CSSender.obj
 0001:0003a704       __ehhandler$?SendCS_START_ACK@CTUser@@QAEXEKGE@Z 0043b704 f   CSSender.obj
 0001:0003a704       __ehhandler$?SendCS_TESTVERSION_ACK@CTUser@@QAEXG@Z 0043b704 f   CSSender.obj
 0001:0003a704       __ehhandler$?SendCS_VETERAN_ACK@CTUser@@QAEXEEEE@Z 0043b704 f   CSSender.obj
 0001:0003a704       __ehhandler$?SendCT_SERVICEMONITOR_REQ@CTUser@@QAEXKKKK@Z 0043b704 f   CSSender.obj
 0001:0003a730       __unwindfunclet$?SendCS_CREATECHAR_ACK@CTUser@@QAEXEKV?$CStringT@DV?$StrTraitATL@DV?$ChTraitsCRT@D@ATL@@@ATL@@@ATL@@EEEEEEEEEEEEE@Z$0 0043b730 f   CSSender.obj
 0001:0003a738       __unwindfunclet$?SendCS_CREATECHAR_ACK@CTUser@@QAEXEKV?$CStringT@DV?$StrTraitATL@DV?$ChTraitsCRT@D@ATL@@@ATL@@@ATL@@EEEEEEEEEEEEE@Z$1 0043b738 f   CSSender.obj
 0001:0003a74c       __ehhandler$?SendCS_CREATECHAR_ACK@CTUser@@QAEXEKV?$CStringT@DV?$StrTraitATL@DV?$ChTraitsCRT@D@ATL@@@ATL@@@ATL@@EEEEEEEEEEEEE@Z 0043b74c f   CSSender.obj
 0001:0003a770       __unwindfunclet$?InitQueryTGameSvr@@YAHPAVCSqlDatabase@@@Z$0 0043b770 f   DBAccess.obj
 0001:0003a782       __unwindfunclet$?InitQueryTGameSvr@@YAHPAVCSqlDatabase@@@Z$18 0043b782 f   DBAccess.obj
 0001:0003a78a       __unwindfunclet$?InitQueryTGameSvr@@YAHPAVCSqlDatabase@@@Z$2 0043b78a f   DBAccess.obj
 0001:0003a79c       __unwindfunclet$?InitQueryTGameSvr@@YAHPAVCSqlDatabase@@@Z$24 0043b79c f   DBAccess.obj
 0001:0003a7a4       __unwindfunclet$?InitQueryTGameSvr@@YAHPAVCSqlDatabase@@@Z$4 0043b7a4 f   DBAccess.obj
 0001:0003a7b6       __unwindfunclet$?InitQueryTGameSvr@@YAHPAVCSqlDatabase@@@Z$30 0043b7b6 f   DBAccess.obj
 0001:0003a7be       __unwindfunclet$?InitQueryTGameSvr@@YAHPAVCSqlDatabase@@@Z$6 0043b7be f   DBAccess.obj
 0001:0003a7d0       __unwindfunclet$?InitQueryTGameSvr@@YAHPAVCSqlDatabase@@@Z$36 0043b7d0 f   DBAccess.obj
 0001:0003a7d8       __unwindfunclet$?InitQueryTGameSvr@@YAHPAVCSqlDatabase@@@Z$8 0043b7d8 f   DBAccess.obj
 0001:0003a7ea       __unwindfunclet$?InitQueryTGameSvr@@YAHPAVCSqlDatabase@@@Z$42 0043b7ea f   DBAccess.obj
 0001:0003a7f2       __unwindfunclet$?InitQueryTGameSvr@@YAHPAVCSqlDatabase@@@Z$10 0043b7f2 f   DBAccess.obj
 0001:0003a804       __unwindfunclet$?InitQueryTGameSvr@@YAHPAVCSqlDatabase@@@Z$48 0043b804 f   DBAccess.obj
 0001:0003a80c       __unwindfunclet$?InitQueryTGameSvr@@YAHPAVCSqlDatabase@@@Z$12 0043b80c f   DBAccess.obj
 0001:0003a81e       __unwindfunclet$?InitQueryTGameSvr@@YAHPAVCSqlDatabase@@@Z$54 0043b81e f   DBAccess.obj
 0001:0003a826       __unwindfunclet$?InitQueryTGameSvr@@YAHPAVCSqlDatabase@@@Z$14 0043b826 f   DBAccess.obj
 0001:0003a838       __unwindfunclet$?InitQueryTGameSvr@@YAHPAVCSqlDatabase@@@Z$60 0043b838 f   DBAccess.obj
 0001:0003a845       __ehhandler$?InitQueryTGameSvr@@YAHPAVCSqlDatabase@@@Z 0043b845 f   DBAccess.obj
 0001:0003a870       __unwindfunclet$?InitQueryTLoginSvr@@YAHPAVCSqlDatabase@@@Z$0 0043b870 f   DBAccess.obj
 0001:0003a882       __unwindfunclet$?InitQueryTLoginSvr@@YAHPAVCSqlDatabase@@@Z$44 0043b882 f   DBAccess.obj
 0001:0003a88a       __unwindfunclet$?InitQueryTLoginSvr@@YAHPAVCSqlDatabase@@@Z$2 0043b88a f   DBAccess.obj
 0001:0003a89c       __unwindfunclet$?InitQueryTLoginSvr@@YAHPAVCSqlDatabase@@@Z$50 0043b89c f   DBAccess.obj
 0001:0003a8a4       __unwindfunclet$?InitQueryTLoginSvr@@YAHPAVCSqlDatabase@@@Z$4 0043b8a4 f   DBAccess.obj
 0001:0003a8b6       __unwindfunclet$?InitQueryTLoginSvr@@YAHPAVCSqlDatabase@@@Z$56 0043b8b6 f   DBAccess.obj
 0001:0003a8be       __unwindfunclet$?InitQueryTLoginSvr@@YAHPAVCSqlDatabase@@@Z$6 0043b8be f   DBAccess.obj
 0001:0003a8d0       __unwindfunclet$?InitQueryTLoginSvr@@YAHPAVCSqlDatabase@@@Z$62 0043b8d0 f   DBAccess.obj
 0001:0003a8d8       __unwindfunclet$?InitQueryTLoginSvr@@YAHPAVCSqlDatabase@@@Z$8 0043b8d8 f   DBAccess.obj
 0001:0003a8ea       __unwindfunclet$?InitQueryTLoginSvr@@YAHPAVCSqlDatabase@@@Z$68 0043b8ea f   DBAccess.obj
 0001:0003a8f2       __unwindfunclet$?InitQueryTLoginSvr@@YAHPAVCSqlDatabase@@@Z$10 0043b8f2 f   DBAccess.obj
 0001:0003a904       __unwindfunclet$?InitQueryTLoginSvr@@YAHPAVCSqlDatabase@@@Z$74 0043b904 f   DBAccess.obj
 0001:0003a90c       __unwindfunclet$?InitQueryTLoginSvr@@YAHPAVCSqlDatabase@@@Z$12 0043b90c f   DBAccess.obj
 0001:0003a91e       __unwindfunclet$?InitQueryTLoginSvr@@YAHPAVCSqlDatabase@@@Z$80 0043b91e f   DBAccess.obj
 0001:0003a926       __unwindfunclet$?InitQueryTLoginSvr@@YAHPAVCSqlDatabase@@@Z$14 0043b926 f   DBAccess.obj
 0001:0003a938       __unwindfunclet$?InitQueryTLoginSvr@@YAHPAVCSqlDatabase@@@Z$86 0043b938 f   DBAccess.obj
 0001:0003a940       __unwindfunclet$?InitQueryTLoginSvr@@YAHPAVCSqlDatabase@@@Z$16 0043b940 f   DBAccess.obj
 0001:0003a952       __unwindfunclet$?InitQueryTLoginSvr@@YAHPAVCSqlDatabase@@@Z$92 0043b952 f   DBAccess.obj
 0001:0003a95a       __unwindfunclet$?InitQueryTLoginSvr@@YAHPAVCSqlDatabase@@@Z$18 0043b95a f   DBAccess.obj
 0001:0003a96c       __unwindfunclet$?InitQueryTLoginSvr@@YAHPAVCSqlDatabase@@@Z$98 0043b96c f   DBAccess.obj
 0001:0003a974       __unwindfunclet$?InitQueryTLoginSvr@@YAHPAVCSqlDatabase@@@Z$20 0043b974 f   DBAccess.obj
 0001:0003a986       __unwindfunclet$?InitQueryTLoginSvr@@YAHPAVCSqlDatabase@@@Z$104 0043b986 f   DBAccess.obj
 0001:0003a98e       __unwindfunclet$?InitQueryTLoginSvr@@YAHPAVCSqlDatabase@@@Z$22 0043b98e f   DBAccess.obj
 0001:0003a9a0       __unwindfunclet$?InitQueryTLoginSvr@@YAHPAVCSqlDatabase@@@Z$110 0043b9a0 f   DBAccess.obj
 0001:0003a9a8       __unwindfunclet$?InitQueryTLoginSvr@@YAHPAVCSqlDatabase@@@Z$24 0043b9a8 f   DBAccess.obj
 0001:0003a9ba       __unwindfunclet$?InitQueryTLoginSvr@@YAHPAVCSqlDatabase@@@Z$116 0043b9ba f   DBAccess.obj
 0001:0003a9c2       __unwindfunclet$?InitQueryTLoginSvr@@YAHPAVCSqlDatabase@@@Z$26 0043b9c2 f   DBAccess.obj
 0001:0003a9d4       __unwindfunclet$?InitQueryTLoginSvr@@YAHPAVCSqlDatabase@@@Z$122 0043b9d4 f   DBAccess.obj
 0001:0003a9dc       __unwindfunclet$?InitQueryTLoginSvr@@YAHPAVCSqlDatabase@@@Z$28 0043b9dc f   DBAccess.obj
 0001:0003a9ee       __unwindfunclet$?InitQueryTLoginSvr@@YAHPAVCSqlDatabase@@@Z$128 0043b9ee f   DBAccess.obj
 0001:0003a9f6       __unwindfunclet$?InitQueryTLoginSvr@@YAHPAVCSqlDatabase@@@Z$30 0043b9f6 f   DBAccess.obj
 0001:0003aa08       __unwindfunclet$?InitQueryTLoginSvr@@YAHPAVCSqlDatabase@@@Z$132 0043ba08 f   DBAccess.obj
 0001:0003aa10       __unwindfunclet$?InitQueryTLoginSvr@@YAHPAVCSqlDatabase@@@Z$32 0043ba10 f   DBAccess.obj
 0001:0003aa22       __unwindfunclet$?InitQueryTLoginSvr@@YAHPAVCSqlDatabase@@@Z$135 0043ba22 f   DBAccess.obj
 0001:0003aa2a       __unwindfunclet$?InitQueryTLoginSvr@@YAHPAVCSqlDatabase@@@Z$34 0043ba2a f   DBAccess.obj
 0001:0003aa3c       __unwindfunclet$?InitQueryTLoginSvr@@YAHPAVCSqlDatabase@@@Z$138 0043ba3c f   DBAccess.obj
 0001:0003aa44       __unwindfunclet$?InitQueryTLoginSvr@@YAHPAVCSqlDatabase@@@Z$36 0043ba44 f   DBAccess.obj
 0001:0003aa56       __unwindfunclet$?InitQueryTLoginSvr@@YAHPAVCSqlDatabase@@@Z$141 0043ba56 f   DBAccess.obj
 0001:0003aa5e       __unwindfunclet$?InitQueryTLoginSvr@@YAHPAVCSqlDatabase@@@Z$38 0043ba5e f   DBAccess.obj
 0001:0003aa70       __unwindfunclet$?InitQueryTLoginSvr@@YAHPAVCSqlDatabase@@@Z$144 0043ba70 f   DBAccess.obj
 0001:0003aa78       __unwindfunclet$?InitQueryTLoginSvr@@YAHPAVCSqlDatabase@@@Z$40 0043ba78 f   DBAccess.obj
 0001:0003aa8a       __unwindfunclet$?InitQueryTLoginSvr@@YAHPAVCSqlDatabase@@@Z$147 0043ba8a f   DBAccess.obj
 0001:0003aa97       __ehhandler$?InitQueryTLoginSvr@@YAHPAVCSqlDatabase@@@Z 0043ba97 f   DBAccess.obj
 0001:0003aac0       __unwindfunclet$?FormatV@?$CStringT@DV?$StrTraitATL@DV?$ChTraitsCRT@D@ATL@@@ATL@@@ATL@@QAEXPBDPAD@Z$1 0043bac0 f   DebugSocket.obj
 0001:0003aac8       __unwindfunclet$?FormatV@?$CStringT@DV?$StrTraitATL@DV?$ChTraitsCRT@D@ATL@@@ATL@@@ATL@@QAEXPBDPAD@Z$0 0043bac8 f   DebugSocket.obj
 0001:0003aad5       __ehhandler$?FormatV@?$CStringT@DV?$StrTraitATL@DV?$ChTraitsCRT@D@ATL@@@ATL@@@ATL@@QAEXPBDPAD@Z 0043bad5 f   DebugSocket.obj
 0001:0003ab00       __unwindfunclet$??0?$basic_istream@DU?$char_traits@D@std@@@std@@QAE@PAV?$basic_streambuf@DU?$char_traits@D@std@@@1@_N@Z$0 0043bb00 f   mailer.obj
 0001:0003ab1c       __unwindfunclet$??0?$basic_istream@DU?$char_traits@D@std@@@std@@QAE@PAV?$basic_streambuf@DU?$char_traits@D@std@@@1@_N@Z$2 0043bb1c f   mailer.obj
 0001:0003ab29       __ehhandler$??0?$basic_istream@DU?$char_traits@D@std@@@std@@QAE@PAV?$basic_streambuf@DU?$char_traits@D@std@@@1@_N@Z 0043bb29 f   mailer.obj
 0001:0003ab50       __ehhandler$??1sentry@?$basic_istream@DU?$char_traits@D@std@@@std@@QAE@XZ 0043bb50 f   mailer.obj
 0001:0003ab50       __ehhandler$??_D?$basic_istream@DU?$char_traits@D@std@@@std@@QAEXXZ 0043bb50 f   libcpmt:cin.obj
 0001:0003ab70       __ehhandler$??_G?$basic_istream@DU?$char_traits@D@std@@@std@@UAEPAXI@Z 0043bb70 f   mailer.obj
 0001:0003ab90       __unwindfunclet$?_Ipfx@?$basic_istream@DU?$char_traits@D@std@@@std@@QAE_N_N@Z$2 0043bb90 f   mailer.obj
 0001:0003ab9d       __ehhandler$?_Ipfx@?$basic_istream@DU?$char_traits@D@std@@@std@@QAE_N_N@Z 0043bb9d f   mailer.obj
 0001:0003abc0       __unwindfunclet$??$?5DU?$char_traits@D@std@@V?$allocator@D@1@@std@@YAAAV?$basic_istream@DU?$char_traits@D@std@@@0@AAV10@AAV?$basic_string@DU?$char_traits@D@std@@V?$allocator@D@2@@0@@Z$6 0043bbc0 f   TLoginSvr.obj
 0001:0003abc8       __unwindfunclet$??$?5DU?$char_traits@D@std@@V?$allocator@D@1@@std@@YAAAV?$basic_istream@DU?$char_traits@D@std@@@0@AAV10@AAV?$basic_string@DU?$char_traits@D@std@@V?$allocator@D@2@@0@@Z$2 0043bbc8 f   TLoginSvr.obj
 0001:0003abd0       __unwindfunclet$??$?5DU?$char_traits@D@std@@V?$allocator@D@1@@std@@YAAAV?$basic_istream@DU?$char_traits@D@std@@@0@AAV10@AAV?$basic_string@DU?$char_traits@D@std@@V?$allocator@D@2@@0@@Z$3 0043bbd0 f   TLoginSvr.obj
 0001:0003abdd       __ehhandler$??$?5DU?$char_traits@D@std@@V?$allocator@D@1@@std@@YAAAV?$basic_istream@DU?$char_traits@D@std@@@0@AAV10@AAV?$basic_string@DU?$char_traits@D@std@@V?$allocator@D@2@@0@@Z 0043bbdd f   TLoginSvr.obj
 0001:0003ac00       __unwindfunclet$??0CTLoginSvrModule@@QAE@XZ$0 0043bc00 f   TLoginSvr.obj
 0001:0003ac08       __unwindfunclet$??0CTLoginSvrModule@@QAE@XZ$1 0043bc08 f   TLoginSvr.obj
 0001:0003ac10       __unwindfunclet$??0CTLoginSvrModule@@QAE@XZ$3 0043bc10 f   TLoginSvr.obj
 0001:0003ac1e       __unwindfunclet$??0CTLoginSvrModule@@QAE@XZ$4 0043bc1e f   TLoginSvr.obj
 0001:0003ac2c       __unwindfunclet$??0CTLoginSvrModule@@QAE@XZ$5 0043bc2c f   TLoginSvr.obj
 0001:0003ac3a       __unwindfunclet$??0CTLoginSvrModule@@QAE@XZ$6 0043bc3a f   TLoginSvr.obj
 0001:0003ac48       __unwindfunclet$??0CTLoginSvrModule@@QAE@XZ$7 0043bc48 f   TLoginSvr.obj
 0001:0003ac56       __unwindfunclet$??0CTLoginSvrModule@@QAE@XZ$8 0043bc56 f   TLoginSvr.obj
 0001:0003ac64       __unwindfunclet$??0CTLoginSvrModule@@QAE@XZ$9 0043bc64 f   TLoginSvr.obj
 0001:0003ac72       __unwindfunclet$??0CTLoginSvrModule@@QAE@XZ$10 0043bc72 f   TLoginSvr.obj
 0001:0003ac80       __unwindfunclet$??0CTLoginSvrModule@@QAE@XZ$11 0043bc80 f   TLoginSvr.obj
 0001:0003ac8e       __unwindfunclet$??0CTLoginSvrModule@@QAE@XZ$12 0043bc8e f   TLoginSvr.obj
 0001:0003ac9c       __unwindfunclet$??0CTLoginSvrModule@@QAE@XZ$13 0043bc9c f   TLoginSvr.obj
 0001:0003acaa       __unwindfunclet$??0CTLoginSvrModule@@QAE@XZ$14 0043bcaa f   TLoginSvr.obj
 0001:0003acb8       __unwindfunclet$??0CTLoginSvrModule@@QAE@XZ$15 0043bcb8 f   TLoginSvr.obj
 0001:0003acc6       __unwindfunclet$??0CTLoginSvrModule@@QAE@XZ$16 0043bcc6 f   TLoginSvr.obj
 0001:0003acd4       __unwindfunclet$??0CTLoginSvrModule@@QAE@XZ$17 0043bcd4 f   TLoginSvr.obj
 0001:0003ace2       __unwindfunclet$??0CTLoginSvrModule@@QAE@XZ$18 0043bce2 f   TLoginSvr.obj
 0001:0003acf6       __ehhandler$??0CTLoginSvrModule@@QAE@XZ 0043bcf6 f   TLoginSvr.obj
 0001:0003ad20       __unwindfunclet$?Accept@CTLoginSvrModule@@IAEEXZ$0 0043bd20 f   TLoginSvr.obj
 0001:0003ad32       __unwindfunclet$?Accept@CTLoginSvrModule@@IAEEXZ$1 0043bd32 f   TLoginSvr.obj
 0001:0003ad3a       __unwindfunclet$?Accept@CTLoginSvrModule@@IAEEXZ$4 0043bd3a f   TLoginSvr.obj
 0001:0003ad47       __ehhandler$?Accept@CTLoginSvrModule@@IAEEXZ 0043bd47 f   TLoginSvr.obj
 0001:0003ad70       __unwindfunclet$?LoadConfig@CTLoginSvrModule@@IAEKXZ$0 0043bd70 f   TLoginSvr.obj
 0001:0003ad78       __unwindfunclet$?LoadConfig@CTLoginSvrModule@@IAEKXZ$2 0043bd78 f   TLoginSvr.obj
 0001:0003ad80       __unwindfunclet$?LoadConfig@CTLoginSvrModule@@IAEKXZ$4 0043bd80 f   TLoginSvr.obj
 0001:0003ad88       __unwindfunclet$?LoadConfig@CTLoginSvrModule@@IAEKXZ$8 0043bd88 f   TLoginSvr.obj
 0001:0003ad95       __ehhandler$?LoadConfig@CTLoginSvrModule@@IAEKXZ 0043bd95 f   TLoginSvr.obj
 0001:0003adc0       __unwindfunclet$?LoadData@CTLoginSvrModule@@IAEKPAVCSqlDatabase@@PAV?$map@EPAUtagTGROUP@@U?$less@E@std@@V?$allocator@U?$pair@$$CBEPAUtagTGROUP@@@std@@@3@@std@@@Z$1 0043bdc0 f   TLoginSvr.obj
 0001:0003adc8       __unwindfunclet$?LoadData@CTLoginSvrModule@@IAEKPAVCSqlDatabase@@PAV?$map@EPAUtagTGROUP@@U?$less@E@std@@V?$allocator@U?$pair@$$CBEPAUtagTGROUP@@@std@@@3@@std@@@Z$2 0043bdc8 f   TLoginSvr.obj
 0001:0003add7       __unwindfunclet$?LoadData@CTLoginSvrModule@@IAEKPAVCSqlDatabase@@PAV?$map@EPAUtagTGROUP@@U?$less@E@std@@V?$allocator@U?$pair@$$CBEPAUtagTGROUP@@@std@@@3@@std@@@Z$5 0043bdd7 f   TLoginSvr.obj
 0001:0003ade4       __ehhandler$?LoadData@CTLoginSvrModule@@IAEKPAVCSqlDatabase@@PAV?$map@EPAUtagTGROUP@@U?$less@E@std@@V?$allocator@U?$pair@$$CBEPAUtagTGROUP@@@std@@@3@@std@@@Z 0043bde4 f   TLoginSvr.obj
 0001:0003ae10       __unwindfunclet$?LoadDataLogin@CTLoginSvrModule@@IAEKXZ$1 0043be10 f   TLoginSvr.obj
 0001:0003ae1b       __unwindfunclet$?LoadDataLogin@CTLoginSvrModule@@IAEKXZ$3 0043be1b f   TLoginSvr.obj
 0001:0003ae26       __unwindfunclet$?LoadDataLogin@CTLoginSvrModule@@IAEKXZ$5 0043be26 f   TLoginSvr.obj
 0001:0003ae31       __unwindfunclet$?LoadDataLogin@CTLoginSvrModule@@IAEKXZ$10 0043be31 f   TLoginSvr.obj
 0001:0003ae3c       __unwindfunclet$?LoadDataLogin@CTLoginSvrModule@@IAEKXZ$7 0043be3c f   TLoginSvr.obj
 0001:0003ae4c       __ehhandler$?LoadDataLogin@CTLoginSvrModule@@IAEKXZ 0043be4c f   TLoginSvr.obj
 0001:0003ae80       __unwindfunclet$?LogExecCheck@CTLoginSvrModule@@IAEXKKV?$CStringT@DV?$StrTraitATL@DV?$ChTraitsCRT@D@ATL@@@ATL@@@ATL@@@Z$0 0043be80 f   TLoginSvr.obj
 0001:0003ae88       __unwindfunclet$?LogExecCheck@CTLoginSvrModule@@IAEXKKV?$CStringT@DV?$StrTraitATL@DV?$ChTraitsCRT@D@ATL@@@ATL@@@ATL@@@Z$2 0043be88 f   TLoginSvr.obj
 0001:0003ae93       __unwindfunclet$?LogExecCheck@CTLoginSvrModule@@IAEXKKV?$CStringT@DV?$StrTraitATL@DV?$ChTraitsCRT@D@ATL@@@ATL@@@ATL@@@Z$6 0043be93 f   TLoginSvr.obj
 0001:0003ae9e       __unwindfunclet$?LogExecCheck@CTLoginSvrModule@@IAEXKKV?$CStringT@DV?$StrTraitATL@DV?$ChTraitsCRT@D@ATL@@@ATL@@@ATL@@@Z$3 0043be9e f   TLoginSvr.obj
 0001:0003aea9       __unwindfunclet$?LogExecCheck@CTLoginSvrModule@@IAEXKKV?$CStringT@DV?$StrTraitATL@DV?$ChTraitsCRT@D@ATL@@@ATL@@@ATL@@@Z$1 0043bea9 f   TLoginSvr.obj
 0001:0003aeb5       __unwindfunclet$?LogExecCheck@CTLoginSvrModule@@IAEXKKV?$CStringT@DV?$StrTraitATL@DV?$ChTraitsCRT@D@ATL@@@ATL@@@ATL@@@Z$7 0043beb5 f   TLoginSvr.obj
 0001:0003aec4       __ehhandler$?LogExecCheck@CTLoginSvrModule@@IAEXKKV?$CStringT@DV?$StrTraitATL@DV?$ChTraitsCRT@D@ATL@@@ATL@@@ATL@@@Z 0043bec4 f   TLoginSvr.obj
 0001:0003aef0       __unwindfunclet$?OnCloseSession@CTLoginSvrModule@@IAEXPAVCTUser@@@Z$0 0043bef0 f   TLoginSvr.obj
 0001:0003aef8       __unwindfunclet$?OnCloseSession@CTLoginSvrModule@@IAEXPAVCTUser@@@Z$2 0043bef8 f   TLoginSvr.obj
 0001:0003af05       __ehhandler$?OnCloseSession@CTLoginSvrModule@@IAEXPAVCTUser@@@Z 0043bf05 f   TLoginSvr.obj
 0001:0003af30       __unwindfunclet$?OnEnter@CTLoginSvrModule@@MAEKXZ$1 0043bf30 f   TLoginSvr.obj
 0001:0003af40       __ehhandler$?OnEnter@CTLoginSvrModule@@MAEKXZ 0043bf40 f   TLoginSvr.obj
 0001:0003af70       __unwindfunclet$?OnExit@CTLoginSvrModule@@MAEXXZ$1 0043bf70 f   TLoginSvr.obj
 0001:0003af7d       __ehhandler$?OnExit@CTLoginSvrModule@@MAEXXZ 0043bf7d f   TLoginSvr.obj
 0001:0003afa0       __unwindfunclet$?WorkThread@CTLoginSvrModule@@IAEKXZ$0 0043bfa0 f   TLoginSvr.obj
 0001:0003afa8       __unwindfunclet$?WorkThread@CTLoginSvrModule@@IAEKXZ$1 0043bfa8 f   TLoginSvr.obj
 0001:0003afb5       __ehhandler$?WorkThread@CTLoginSvrModule@@IAEKXZ 0043bfb5 f   TLoginSvr.obj
 0001:0003afe0       __unwindfunclet$_main$0    0043bfe0 f   TLoginSvr.obj
 0001:0003afed       __ehhandler$_main          0043bfed f   TLoginSvr.obj
 0001:0003b020       __unwindfunclet$??0CTUser@@QAE@XZ$0 0043c020 f   TUser.obj
 0001:0003b028       __unwindfunclet$??0CTUser@@QAE@XZ$1 0043c028 f   TUser.obj
 0001:0003b036       __unwindfunclet$??0CTUser@@QAE@XZ$2 0043c036 f   TUser.obj
 0001:0003b044       __unwindfunclet$??0CTUser@@QAE@XZ$3 0043c044 f   TUser.obj
 0001:0003b052       __unwindfunclet$??0CTUser@@QAE@XZ$4 0043c052 f   TUser.obj
 0001:0003b060       __unwindfunclet$??0CTUser@@QAE@XZ$5 0043c060 f   TUser.obj
 0001:0003b073       __ehhandler$??0CTUser@@QAE@XZ 0043c073 f   TUser.obj
 0001:0003b090       __ehhandler$??_GCSession@@UAEPAXI@Z 0043c090 f   TNetLib:Session.obj
 0001:0003b090       __ehhandler$??_GCSqlDatabase@@UAEPAXI@Z 0043c090 f   TNetLib:SqlDatabase.obj
 0001:0003b0b0       __unwindfunclet$?AddQuery@CSqlDatabase@@QAEHPAVCSqlQuery@@V?$basic_string@DU?$char_traits@D@std@@V?$allocator@D@2@@std@@@Z$0 0043c0b0 f   TNetLib:SqlDatabase.obj
 0001:0003b0b8       __unwindfunclet$?AddQuery@CSqlDatabase@@QAEHPAVCSqlQuery@@V?$basic_string@DU?$char_traits@D@std@@V?$allocator@D@2@@std@@@Z$1 0043c0b8 f   TNetLib:SqlDatabase.obj
 0001:0003b0c0       __unwindfunclet$?AddQuery@CSqlDatabase@@QAEHPAVCSqlQuery@@V?$basic_string@DU?$char_traits@D@std@@V?$allocator@D@2@@std@@@Z$6 0043c0c0 f   TNetLib:SqlDatabase.obj
 0001:0003b0c8       __unwindfunclet$?AddQuery@CSqlDatabase@@QAEHPAVCSqlQuery@@V?$basic_string@DU?$char_traits@D@std@@V?$allocator@D@2@@std@@@Z$5 0043c0c8 f   TNetLib:SqlDatabase.obj
 0001:0003b0d5       __ehhandler$?AddQuery@CSqlDatabase@@QAEHPAVCSqlQuery@@V?$basic_string@DU?$char_traits@D@std@@V?$allocator@D@2@@std@@@Z 0043c0d5 f   TNetLib:SqlDatabase.obj
 0001:0003b100       __unwindfunclet$?Fetch@CSqlBase@@QAEHXZ$0 0043c100 f   TNetLib:SqlBase.obj
 0001:0003b110       __ehhandler$?Fetch@CSqlBase@@QAEHXZ 0043c110 f   TNetLib:SqlBase.obj
 0001:0003b140       __unwindfunclet$?Open@CSqlBase@@QAEHH@Z$0 0043c140 f   TNetLib:SqlBase.obj
 0001:0003b14b       __unwindfunclet$?Open@CSqlBase@@QAEHH@Z$4 0043c14b f   TNetLib:SqlBase.obj
 0001:0003b156       __unwindfunclet$?Open@CSqlBase@@QAEHH@Z$1 0043c156 f   TNetLib:SqlBase.obj
 0001:0003b166       __ehhandler$?Open@CSqlBase@@QAEHH@Z 0043c166 f   TNetLib:SqlBase.obj
 0001:0003b190       __unwindfunclet$??0CSqlQuery@@QAE@PAVCSqlDatabase@@V?$basic_string@DU?$char_traits@D@std@@V?$allocator@D@2@@std@@PBD@Z$0 0043c190 f   TNetLib:SqlQuery.obj
 0001:0003b198       __unwindfunclet$??0CSqlQuery@@QAE@PAVCSqlDatabase@@V?$basic_string@DU?$char_traits@D@std@@V?$allocator@D@2@@std@@PBD@Z$1 0043c198 f   TNetLib:SqlQuery.obj
 0001:0003b1a3       __unwindfunclet$??0CSqlQuery@@QAE@PAVCSqlDatabase@@V?$basic_string@DU?$char_traits@D@std@@V?$allocator@D@2@@std@@PBD@Z$2 0043c1a3 f   TNetLib:SqlQuery.obj
 0001:0003b1b9       __ehhandler$??0CSqlQuery@@QAE@PAVCSqlDatabase@@V?$basic_string@DU?$char_traits@D@std@@V?$allocator@D@2@@std@@PBD@Z 0043c1b9 f   TNetLib:SqlQuery.obj
 0001:0003b1f0       __ehhandler$??1CSqlQuery@@UAE@XZ 0043c1f0 f   TNetLib:SqlQuery.obj
 0001:0003b210       __unwindfunclet$??0CSession@@QAE@XZ$0 0043c210 f   TNetLib:Session.obj
 0001:0003b21b       __unwindfunclet$??0CSession@@QAE@XZ$1 0043c21b f   TNetLib:Session.obj
 0001:0003b226       __unwindfunclet$??0CSession@@QAE@XZ$2 0043c226 f   TNetLib:Session.obj
 0001:0003b234       __unwindfunclet$??0CSession@@QAE@XZ$3 0043c234 f   TNetLib:Session.obj
 0001:0003b247       __ehhandler$??0CSession@@QAE@XZ 0043c247 f   TNetLib:Session.obj
 0001:0003b270       __unwindfunclet$??__Eg_strSecretKey@@YAXXZ$0 0043c270 f   TNetLib:Session.obj
 0001:0003b27f       __ehhandler$??__Eg_strSecretKey@@YAXXZ 0043c27f f   TNetLib:Session.obj
 0001:0003b2a0       __unwindfunclet$?CheckMessage@CSession@@QAEHXZ$0 0043c2a0 f   TNetLib:Session.obj
 0001:0003b2ad       __ehhandler$?CheckMessage@CSession@@QAEHXZ 0043c2ad f   TNetLib:Session.obj
 0001:0003b2d0       __unwindfunclet$?Decrypt@CSession@@AAEHPAVCPacket@@@Z$0 0043c2d0 f   TNetLib:Session.obj
 0001:0003b2dd       __ehhandler$?Decrypt@CSession@@AAEHPAVCPacket@@@Z 0043c2dd f   TNetLib:Session.obj
 0001:0003b300       __unwindfunclet$?Say@CSession@@UAEHPAVCPacket@@@Z$0 0043c300 f   TNetLib:Session.obj
 0001:0003b300       __unwindfunclet$?WaitForMessage@CSession@@QAEHXZ$0 0043c300 f   TNetLib:Session.obj
 0001:0003b30d       __ehhandler$?Say@CSession@@UAEHPAVCPacket@@@Z 0043c30d f   TNetLib:Session.obj
 0001:0003b30d       __ehhandler$?WaitForMessage@CSession@@QAEHXZ 0043c30d f   TNetLib:Session.obj
 0001:0003b330       __unwindfunclet$?SendComplete@CSession@@QAEHK@Z$0 0043c330 f   TNetLib:Session.obj
 0001:0003b338       __unwindfunclet$?SendComplete@CSession@@QAEHK@Z$1 0043c338 f   TNetLib:Session.obj
 0001:0003b345       __ehhandler$?SendComplete@CSession@@QAEHK@Z 0043c345 f   TNetLib:Session.obj
 0001:0003b370       __unwindfunclet$?TraceLastError@@YAXPBD0K@Z$0 0043c370 f   TNetLib:CryptographyExt.obj
 0001:0003b37d       __ehhandler$?TraceLastError@@YAXPBD0K@Z 0043c37d f   TNetLib:CryptographyExt.obj
 0001:0003b39a       __unwindfunclet$?_Init@locale@std@@CAPAV_Locimp@12@_N@Z$0 0043c39a f   libcpmt:locale0.obj
 0001:0003b3a7       __ehhandler$?_Init@locale@std@@CAPAV_Locimp@12@_N@Z 0043c3a7 f   libcpmt:locale0.obj
 0001:0003b3c4       __ehhandler$?CallUnexpected@@YAXPBU_s_ESTypeList@@@Z 0043c3c4 f   libvcruntime:frame.obj
 0001:0003b3e1       __unwindfunclet$?_wcstombs_l_helper@@YAIPADPB_WIPAU__crt_locale_pointers@@@Z$0 0043c3e1 f   libucrt:wcstombs.obj
 0001:0003b3e9       __ehhandler$?_wcstombs_l_helper@@YAIPADPB_WIPAU__crt_locale_pointers@@@Z 0043c3e9 f   libucrt:wcstombs.obj
 0001:0003b460       ??__F_AtlModule@@YAXXZ     0043c460 f   TLoginSvr.obj
 0001:0003b470       ??__FstrFileName@?1??LogExecCheck@CTLoginSvrModule@@IAEXKKV?$CStringT@DV?$StrTraitATL@DV?$ChTraitsCRT@D@ATL@@@ATL@@@ATL@@@Z@YAXXZ 0043c470 f   TLoginSvr.obj
 0001:0003b490       ??__Fg_strSecretKey@@YAXXZ 0043c490 f   TNetLib:Session.obj
 0001:0003b4af       ??__F_AtlBaseModule@ATL@@YAXXZ 0043c4af f   atls:atlbase.obj
 0001:0003b4b9       ??__Finitlocks@std@@YAXXZ  0043c4b9 f   libcpmt:xlock.obj
 0001:0003b4c3       ??__F_Fac_tidy_reg@std@@YAXXZ 0043c4c3 f   libcpmt:locale0.obj
 0001:0003b4cd       ??__Fclassic_locale@std@@YAXXZ 0043c4cd f   libcpmt:locale0.obj
 0001:0003b4d7       ??__Fcin@std@@YAXXZ        0043c4d7 f   libcpmt:cin.obj
 0001:0003b4e1       ??__Ffin@std@@YAXXZ        0043c4e1 f   libcpmt:cin.obj
 0001:0003b4eb       ??__Finitlocks@@YAXXZ      0043c4eb f   libcpmt:cin.obj
 0001:0003b4f5       ??__Fcout@std@@YAXXZ       0043c4f5 f   libcpmt:cout.obj
 0001:0003b4ff       ??__Ffout@std@@YAXXZ       0043c4ff f   libcpmt:cout.obj
 0001:0003b509       ??__Finitlocks@@YAXXZ      0043c509 f   libcpmt:cout.obj
 0001:0003b513       ??__Finit_atexit@@YAXXZ    0043c513 f   libcpmt:iosptrs.obj
 0001:0003b51d       ??__Finitlocks@std@@YAXXZ  0043c51d f   libcpmt:iosptrs.obj
 0002:0000029c       ?pre_cpp_initializer@@3P6AXXZA 0043d29c     LIBCMT:exe_main.obj
 0002:000002a0       ?initlocks$initializer$@std@@3P6AXXZA 0043d2a0     libcpmt:xlock.obj
 0002:000002a4       ?initlocks$initializer$@@3P6AXXZA 0043d2a4     libcpmt:cin.obj
 0002:000002a8       ?fin$initializer$@std@@3P6AXXZA 0043d2a8     libcpmt:cin.obj
 0002:000002ac       ?cin$initializer$@std@@3P6AXXZA 0043d2ac     libcpmt:cin.obj
 0002:000002b0       ?init_cin$initializer$@std@@3P6AXXZA 0043d2b0     libcpmt:cin.obj
 0002:000002b4       ?initlocks$initializer$@@3P6AXXZA 0043d2b4     libcpmt:cout.obj
 0002:000002b8       ?fout$initializer$@std@@3P6AXXZA 0043d2b8     libcpmt:cout.obj
 0002:000002bc       ?cout$initializer$@std@@3P6AXXZA 0043d2bc     libcpmt:cout.obj
 0002:000002c0       ?init_cout$initializer$@std@@3P6AXXZA 0043d2c0     libcpmt:cout.obj
 0002:000002c4       ?initlocks$initializer$@std@@3P6AXXZA 0043d2c4     libcpmt:iosptrs.obj
 0002:000002c8       ?init_atexit$initializer$@@3P6AXXZA 0043d2c8     libcpmt:iosptrs.obj
 0002:000002cc       ?_AtlBaseModule$initializer$@ATL@@3P6AXXZA 0043d2cc     atls:atlbase.obj
 0002:000002d0       ?_Fac_tidy_reg$initializer$@std@@3P6AXXZA 0043d2d0     libcpmt:locale0.obj
 0002:000002d4       ?classic_locale$initializer$@std@@3P6AXXZA 0043d2d4     libcpmt:locale0.obj
 0002:000002d8       ?InitializeCAtlStringMgr$initializer$@ATLImplementationDetails@ATL@@3P6AXXZA 0043d2d8     CSHandler.obj
 0002:000002dc       ??isInitialized$initializer$@CAtlStringMgr@ATL@@0P6AXXZA@@3P6AXXZA 0043d2dc     CSHandler.obj
 0002:000002e0       ?_AtlModule$initializer$@@3P6AXXZA 0043d2e0     TLoginSvr.obj
 0002:000002e4       ?g_strSecretKey$initializer$@@3P6AXXZA 0043d2e4     TNetLib:Session.obj
 0002:000002f0       ?pre_c_initializer@@3P6AHXZA 0043d2f0     LIBCMT:exe_main.obj
 0002:000002f4       ?post_pgo_initializer@@3P6AHXZA 0043d2f4     LIBCMT:exe_main.obj
 0002:000002f8       ?__scrt_initialize_tss_var@@3P6AHXZA 0043d2f8     LIBCMT:thread_safe_statics.obj
 0002:00000340       ?_Fake_alloc@std@@3U_Fake_allocator@1@B 0043d340     CSHandler.obj
 0002:0000050a       ?_Fake_alloc@std@@3U_Fake_allocator@1@B 0043d50a     CSSender.obj
 0002:0000050b       ?_Fake_alloc@std@@3U_Fake_allocator@1@B 0043d50b     DBAccess.obj
 0002:00001268       ?_Fake_alloc@std@@3U_Fake_allocator@1@B 0043e268     DebugSocket.obj
 0002:0000127e       ?_Fake_alloc@std@@3U_Fake_allocator@1@B 0043e27e     HwidManagerSvr.obj
 0002:0000127f       ?_Fake_alloc@std@@3U_Fake_allocator@1@B 0043e27f     base64.obj
 0002:00001280       ?_Fake_alloc@std@@3U_Fake_allocator@1@B 0043e280     compat.obj
 0002:00001281       ?_Fake_alloc@std@@3U_Fake_allocator@1@B 0043e281     mailer.obj
 0002:000013e0       ?_Fake_alloc@std@@3U_Fake_allocator@1@B 0043e3e0     SSHandler.obj
 0002:000013e1       ?_Fake_alloc@std@@3U_Fake_allocator@1@B 0043e3e1     stdafx.obj
 0002:000013e2       ?_Fake_alloc@std@@3U_Fake_allocator@1@B 0043e3e2     TLoginSession.obj
 0002:000013f8       ?_Fake_alloc@std@@3U_Fake_allocator@1@B 0043e3f8     TLoginSvr.obj
 0002:000016a4       ?_Fake_alloc@std@@3U_Fake_allocator@1@B 0043e6a4     TUser.obj
 0002:000016bc       ?_Fake_alloc@std@@3U_Fake_allocator@1@B 0043e6bc     UdpSocket.obj
 0002:000016bd       ?_Fake_alloc@std@@3U_Fake_allocator@1@B 0043e6bd     TNetLib:SqlDatabase.obj
 0002:00001734       ?_Fake_alloc@std@@3U_Fake_allocator@1@B 0043e734     TNetLib:SqlQuery.obj
 0002:00001790       ?_Fake_alloc@std@@3U_Fake_allocator@1@B 0043e790     TNetLib:stdafx.obj
 0002:000018e8       ?_Win_errtab@?A0xdad2e229@@3QBU_Win_errtab_t@1@B 0043e8e8     libcpmt:syserror.obj
 0002:00001b88       ?_Sys_errtab@?A0xdad2e229@@3QBU_Sys_errtab_t@1@B 0043eb88     libcpmt:syserror.obj
 0002:00002488       ?_Whitespace_bitmap@?A0xfa98056f@@3U_Whitespace_bitmap_t@1@B 0043f488     libcpmt:syserror_import_lib.obj
 0002:00002594       _digits                    0043f594     libcpmt:xstoul.obj
 0002:000025bc       _ndigs                     0043f5bc     libcpmt:xstoul.obj
 0002:000025e4       _digits                    0043f5e4     libcpmt:xstoull.obj
 0002:0000260c       _ndigs                     0043f60c     libcpmt:xstoull.obj
 0002:000026d8       _GS_ExceptionPointers      0043f6d8     LIBCMT:gs_report.obj
 0002:00002700       ?tokenTable@@3QBUStringLiteral@@B 0043f700     libvcruntime:undname.obj
 0002:00002788       ?nameTable@@3QBUStringLiteral@@B 0043f788     libvcruntime:undname.obj
 0002:00002a20       ?rttiTable@@3QBUStringLiteral@@B 0043fa20     libvcruntime:undname.obj
 0002:00002a48       ?IndirectionName@@3QBUStringLiteral@@B 0043fa48     libvcruntime:undname.obj
 0002:00002a78       ?PrefixName@@3QBUStringLiteral@@B 0043fa78     libvcruntime:undname.obj
 0002:000030a8       ?module_names@?A0x14174aea@@3QBQB_WB 004400a8     libvcruntime:winapi_downlevel.obj
 0002:00003150       ?candidate_modules@?1??try_get_FlsAlloc@@YAP6GKP6GXPAX@Z@ZXZ@4QBW4module_id@?A0x14174aea@@B 00440150     libvcruntime:winapi_downlevel.obj
 0002:00003164       ?candidate_modules@?1??try_get_FlsFree@@YAP6GHK@ZXZ@4QBW4module_id@?A0x14174aea@@B 00440164     libvcruntime:winapi_downlevel.obj
 0002:00003174       ?candidate_modules@?1??try_get_FlsGetValue@@YAP6GPAXK@ZXZ@4QBW4module_id@?A0x14174aea@@B 00440174     libvcruntime:winapi_downlevel.obj
 0002:00003188       ?candidate_modules@?1??try_get_FlsSetValue@@YAP6GHKPAX@ZXZ@4QBW4module_id@?A0x14174aea@@B 00440188     libvcruntime:winapi_downlevel.obj
 0002:0000319c       ?candidate_modules@?1??try_get_InitializeCriticalSectionEx@@YAP6GHPAU_RTL_CRITICAL_SECTION@@KK@ZXZ@4QBW4module_id@?A0x14174aea@@B 0044019c     libvcruntime:winapi_downlevel.obj
 0002:000031c0       ?errtable@@3QBUerrentry@?A0x31fdb9ec@@B 004401c0     libucrt:errno.obj
 0002:00004d20       POW_name                   00441d20     libucrt:pow_impl.obj
 0002:00004e28       ___acrt_initializers       00441e28     libucrt:initialization.obj
 0002:00004ea8       __first_127char            00441ea8     libucrt:wsetlocale.obj
 0002:000054d8       ?module_names@?A0x391cf84c@@3QBQB_WB 004424d8     libucrt:winapi_thunks.obj
 0002:00005950       ?candidate_modules@?1??try_get_AreFileApisANSI@@YAP6GHXZXZ@4QBW4module_id@?A0x391cf84c@@B 00442950     libucrt:winapi_thunks.obj
 0002:00005964       ?candidate_modules@?1??try_get_CompareStringEx@@YAP6GHPB_WK0H0HPAU_nlsversioninfo@@PAXJ@ZXZ@4QBW4module_id@?A0x391cf84c@@B 00442964     libucrt:winapi_thunks.obj
 0002:0000597c       ?candidate_modules@?1??try_get_EnumSystemLocalesEx@@YAP6GHP6GHPA_WKJ@ZKJPAX@ZXZ@4QBW4module_id@?A0x391cf84c@@B 0044297c     libucrt:winapi_thunks.obj
 0002:00005998       ?candidate_modules@?1??try_get_FlsAlloc@@YAP6GKP6GXPAX@Z@ZXZ@4QBW4module_id@?A0x391cf84c@@B 00442998     libucrt:winapi_thunks.obj
 0002:000059a0       ?candidate_modules@?1??try_get_FlsFree@@YAP6GHK@ZXZ@4QBW4module_id@?A0x391cf84c@@B 004429a0     libucrt:winapi_thunks.obj
 0002:000059a8       ?candidate_modules@?1??try_get_FlsGetValue@@YAP6GPAXK@ZXZ@4QBW4module_id@?A0x391cf84c@@B 004429a8     libucrt:winapi_thunks.obj
 0002:000059b0       ?candidate_modules@?1??try_get_FlsSetValue@@YAP6GHKPAX@ZXZ@4QBW4module_id@?A0x391cf84c@@B 004429b0     libucrt:winapi_thunks.obj
 0002:000059b8       ?candidate_modules@?1??try_get_GetDateFormatEx@@YAP6GHPB_WKPBU_SYSTEMTIME@@0PA_WH0@ZXZ@4QBW4module_id@?A0x391cf84c@@B 004429b8     libucrt:winapi_thunks.obj
 0002:000059d0       ?candidate_modules@?1??try_get_GetLocaleInfoEx@@YAP6GHPB_WKPA_WH@ZXZ@4QBW4module_id@?A0x391cf84c@@B 004429d0     libucrt:winapi_thunks.obj
 0002:000059e8       ?candidate_modules@?1??try_get_GetTimeFormatEx@@YAP6GHPB_WKPBU_SYSTEMTIME@@0PA_WH@ZXZ@4QBW4module_id@?A0x391cf84c@@B 004429e8     libucrt:winapi_thunks.obj
 0002:00005a00       ?candidate_modules@?1??try_get_GetUserDefaultLocaleName@@YAP6GHPA_WH@ZXZ@4QBW4module_id@?A0x391cf84c@@B 00442a00     libucrt:winapi_thunks.obj
 0002:00005a24       ?candidate_modules@?1??try_get_InitializeCriticalSectionEx@@YAP6GHPAU_RTL_CRITICAL_SECTION@@KK@ZXZ@4QBW4module_id@?A0x391cf84c@@B 00442a24     libucrt:winapi_thunks.obj
 0002:00005a2c       ?candidate_modules@?1??try_get_IsValidLocaleName@@YAP6GHPB_W@ZXZ@4QBW4module_id@?A0x391cf84c@@B 00442a2c     libucrt:winapi_thunks.obj
 0002:00005a48       ?candidate_modules@?1??try_get_LCMapStringEx@@YAP6GHPB_WK0HPA_WHPAU_nlsversioninfo@@PAXJ@ZXZ@4QBW4module_id@?A0x391cf84c@@B 00442a48     libucrt:winapi_thunks.obj
 0002:00005a60       ?candidate_modules@?1??try_get_LCIDToLocaleName@@YAP6GHKPA_WHK@ZXZ@4QBW4module_id@?A0x391cf84c@@B 00442a60     libucrt:winapi_thunks.obj
 0002:00005a7c       ?candidate_modules@?1??try_get_LocaleNameToLCID@@YAP6GKPB_WK@ZXZ@4QBW4module_id@?A0x391cf84c@@B 00442a7c     libucrt:winapi_thunks.obj
 0002:00005a98       ?candidate_modules@?1??try_get_AppPolicyGetProcessTerminationMethod@@YAP6GJPAXPAW4AppPolicyProcessTerminationMethod@@@ZXZ@4QBW4module_id@?A0x391cf84c@@B 00442a98     libucrt:winapi_thunks.obj
 0002:00005ac4       ?candidate_modules@?1??try_get_SystemFunction036@@YAP6GEPAXK@ZXZ@4QBW4module_id@?A0x391cf84c@@B 00442ac4     libucrt:winapi_thunks.obj
 0002:00005ae0       ?strings@?1??fp_format_nan_or_infinity@@YAHW4__acrt_fp_class@@_NPADI1@Z@4QAY03QBDA 00442ae0     libucrt:cvt.obj
 0002:00005b90       ?_names@?1??_get_fname@@9@9 00442b90     libucrt:fpexcept.obj
 0002:00005d58       _over                      00442d58     libucrt:fpctrl.obj
 0002:00005d64       _under                     00442d64     libucrt:fpctrl.obj
 0002:00005d70       Shifter                    00442d70     libucrt:pow_pentium4.obj
 0002:00005d80       SIGMASK                    00442d80     libucrt:pow_pentium4.obj
 0002:00005d90       ONEMASK                    00442d90     libucrt:pow_pentium4.obj
 0002:00005da0       ABSVALMASK                 00442da0     libucrt:pow_pentium4.obj
 0002:00005db0       cev                        00442db0     libucrt:pow_pentium4.obj
 0002:00005dd8       HALFSIG                    00442dd8     libucrt:pow_pentium4.obj
 0002:00005de0       LHN                        00442de0     libucrt:pow_pentium4.obj
 0002:00005de8       sNaN                       00442de8     libucrt:pow_pentium4.obj
 0002:00005df0       INF                        00442df0     libucrt:pow_pentium4.obj
 0002:00005df8       NEG_INF                    00442df8     libucrt:pow_pentium4.obj
 0002:00005e00       NEG_ZERO                   00442e00     libucrt:pow_pentium4.obj
 0002:00005e08       NEG_BIG                    00442e08     libucrt:pow_pentium4.obj
 0002:00005e10       POS_BIG                    00442e10     libucrt:pow_pentium4.obj
 0002:00005e18       EMIN                       00442e18     libucrt:pow_pentium4.obj
 0002:00005e20       QIND                       00442e20     libucrt:pow_pentium4.obj
 0002:00005e4e       _log2max                   00442e4e     libucrt:87tran.obj
 0002:00005e58       _smallarg                  00442e58     libucrt:87tran.obj
 0002:00005e62       _half                      00442e62     libucrt:87tran.obj
 0002:00005eae       One                        00442eae     libucrt:87disp.obj
 0002:00005eb6       Three                      00442eb6     libucrt:87disp.obj
 0002:00005ebe       XAMtoTagTab                00442ebe     libucrt:87disp.obj
 0002:00005ed0       One                        00442ed0     libucrt:common.obj
 0002:00005ee4       DblMax                     00442ee4     libucrt:common.obj
 0002:00005eec       DblMin                     00442eec     libucrt:common.obj
 0002:00005ef4       IeeeAdjO                   00442ef4     libucrt:common.obj
 0002:00005efc       IeeeAdjU                   00442efc     libucrt:common.obj
 0002:00005f04       _infinity                  00442f04     libucrt:common.obj
 0002:00005f0c       _zero                      00442f0c     libucrt:common.obj
 0002:00005f20       ?_mb_locale_names@@3QBQB_WB 00442f20     libucrt:mbctype.obj
 0002:00006d30       ?LcidToLocaleNameTable@?A0x881e4c05@@3QBULcidToLocaleName@1@B 00443d30     libucrt:lcidtoname_downlevel.obj
 0002:00007e50       ?LocaleNameToIndexTable@?A0x881e4c05@@3QBULocaleNameIndex@1@B 00444e50     libucrt:lcidtoname_downlevel.obj
 0002:0000c6b0       LOG_name                   004496b0     libucrt:log10_impl.obj
 0002:0000c6c0       _One                       004496c0     libucrt:ceil_pentium4.obj
 0002:0000c6d0       _Bns                       004496d0     libucrt:ceil_pentium4.obj
 0002:0000c6e0       _Zero                      004496e0     libucrt:ceil_pentium4.obj
 0002:0000c6f0       _S                         004496f0     libucrt:ceil_pentium4.obj
 0002:0000c700       _NegZero                   00449700     libucrt:ceil_pentium4.obj
 0002:0000c720       emask                      00449720     libucrt:log10_pentium4.obj
 0002:0000c730       CC                         00449730     libucrt:log10_pentium4.obj
 0002:0000c740       Magic                      00449740     libucrt:log10_pentium4.obj
 0002:0000c750       hi_mask                    00449750     libucrt:log10_pentium4.obj
 0002:0000c760       LOG10_2                    00449760     libucrt:log10_pentium4.obj
 0002:0000c770       place_L                    00449770     libucrt:log10_pentium4.obj
 0002:0000c790       One                        00449790     libucrt:log10_pentium4.obj
 0002:0000c7a0       Zero                       004497a0     libucrt:log10_pentium4.obj
 0002:0000c7b0       Two52                      004497b0     libucrt:log10_pentium4.obj
 0002:0000c7c0       Infs                       004497c0     libucrt:log10_pentium4.obj
 0002:0000c7d0       NaN                        004497d0     libucrt:log10_pentium4.obj
 0002:0000c7e0       coeff                      004497e0     libucrt:log10_pentium4.obj
 0002:0000d040       two32                      0044a040     LIBCMT:ftol2.obj
 0002:0000d044       two63                      0044a044     LIBCMT:ftol2.obj
 0002:0000d048       _NaN                       0044a048     LIBCMT:ftol2.obj
 0002:0000d3f8       ?_Fake_alloc@std@@3U_Fake_allocator@1@B 0044a3f8     TServerSystem:TServerSystem.obj
 0002:0000f488       __ehfuncinfo$??0_System_error@std@@IAE@Verror_code@1@ABV?$basic_string@DU?$char_traits@D@std@@V?$allocator@D@2@@1@@Z 0044c488     TServerSystem:TServerSystem.obj
 0002:0000f4ac       __unwindtable$??0_System_error@std@@IAE@Verror_code@1@ABV?$basic_string@DU?$char_traits@D@std@@V?$allocator@D@2@@1@@Z 0044c4ac     TServerSystem:TServerSystem.obj
 0002:0000f4bc       __ehfuncinfo$??0_Locinfo@std@@QAE@PBD@Z 0044c4bc     TServerSystem:TServerSystem.obj
 0002:0000f4e0       __unwindtable$??0_Locinfo@std@@QAE@PBD@Z 0044c4e0     TServerSystem:TServerSystem.obj
 0002:0000f518       __ehfuncinfo$??1tagEVENTINFO@@QAE@XZ 0044c518     CSHandler.obj
 0002:0000f518       __ehfuncinfo$??1CTUser@@UAE@XZ 0044c518     TUser.obj
 0002:0000f518       __ehfuncinfo$??1_Sentry_base@?$basic_istream@DU?$char_traits@D@std@@@std@@QAE@XZ 0044c518     mailer.obj
 0002:0000f518       __ehfuncinfo$?_Tidy@ios_base@std@@AAEXXZ 0044c518     libcpmt:ios.obj
 0002:0000f518       __ehfuncinfo$??1_Init_atexit@@QAE@XZ 0044c518     libcpmt:iosptrs.obj
 0002:0000f518       __ehfuncinfo$??1CSession@@UAE@XZ 0044c518     TNetLib:Session.obj
 0002:0000f518       __ehfuncinfo$??1CSqlDatabase@@UAE@XZ 0044c518     TNetLib:SqlDatabase.obj
 0002:0000f518       __ehfuncinfo$??1CSqlQuery@@UAE@XZ 0044c518     TNetLib:SqlQuery.obj
 0002:0000f518       __ehfuncinfo$??1?$basic_filebuf@DU?$char_traits@D@std@@@std@@UAE@XZ 0044c518     TServerSystem:TServerSystem.obj
 0002:0000f518       __ehfuncinfo$??1_Locinfo@std@@QAE@XZ 0044c518     TServerSystem:TServerSystem.obj
 0002:0000f518       __ehfuncinfo$??1_Sentry_base@?$basic_ostream@DU?$char_traits@D@std@@@std@@QAE@XZ 0044c518     TServerSystem:TServerSystem.obj
 0002:0000f53c       __ehfuncinfo$??0failure@ios_base@std@@QAE@PBDABVerror_code@2@@Z 0044c53c     TServerSystem:TServerSystem.obj
 0002:0000f560       __unwindtable$??0failure@ios_base@std@@QAE@PBDABVerror_code@2@@Z 0044c560     TServerSystem:TServerSystem.obj
 0002:0000f568       __ehfuncinfo$??1?$basic_ios@DU?$char_traits@D@std@@@std@@UAE@XZ 0044c568     TServerSystem:TServerSystem.obj
 0002:0000f568       __ehfuncinfo$??1sentry@?$basic_ostream@DU?$char_traits@D@std@@@std@@QAE@XZ 0044c568     TServerSystem:TServerSystem.obj
 0002:0000f568       __ehfuncinfo$??_D?$basic_ostream@DU?$char_traits@D@std@@@std@@QAEXXZ 0044c568     TServerSystem:TServerSystem.obj
 0002:0000f568       __ehfuncinfo$??_G?$basic_ios@DU?$char_traits@D@std@@@std@@UAEPAXI@Z 0044c568     TServerSystem:TServerSystem.obj
 0002:0000f568       __ehfuncinfo$??_G?$basic_ostream@DU?$char_traits@D@std@@@std@@UAEPAXI@Z 0044c568     TServerSystem:TServerSystem.obj
 0002:0000f568       __ehfuncinfo$??_Gios_base@std@@UAEPAXI@Z 0044c568     TServerSystem:TServerSystem.obj
 0002:0000f58c       __unwindtable$??1?$basic_ios@DU?$char_traits@D@std@@@std@@UAE@XZ 0044c58c     TServerSystem:TServerSystem.obj
 0002:0000f58c       __unwindtable$??1sentry@?$basic_ostream@DU?$char_traits@D@std@@@std@@QAE@XZ 0044c58c     TServerSystem:TServerSystem.obj
 0002:0000f58c       __unwindtable$??_D?$basic_ostream@DU?$char_traits@D@std@@@std@@QAEXXZ 0044c58c     TServerSystem:TServerSystem.obj
 0002:0000f58c       __unwindtable$??_G?$basic_ios@DU?$char_traits@D@std@@@std@@UAEPAXI@Z 0044c58c     TServerSystem:TServerSystem.obj
 0002:0000f58c       __unwindtable$??_G?$basic_ostream@DU?$char_traits@D@std@@@std@@UAEPAXI@Z 0044c58c     TServerSystem:TServerSystem.obj
 0002:0000f58c       __unwindtable$??_Gios_base@std@@UAEPAXI@Z 0044c58c     TServerSystem:TServerSystem.obj
 0002:0000f598       __ehfuncinfo$??0TServerSystem@@QAE@V?$basic_string@DU?$char_traits@D@std@@V?$allocator@D@2@@std@@0@Z 0044c598     TServerSystem:TServerSystem.obj
 0002:0000f5c0       __unwindtable$??0TServerSystem@@QAE@V?$basic_string@DU?$char_traits@D@std@@V?$allocator@D@2@@std@@0@Z 0044c5c0     TServerSystem:TServerSystem.obj
 0002:0000f620       __ehfuncinfo$?SSLogError@TServerSystem@@IAEXV?$basic_string@DU?$char_traits@D@std@@V?$allocator@D@2@@std@@H@Z 0044c620     TServerSystem:TServerSystem.obj
 0002:0000f620       __ehfuncinfo$?SSLogInfo@TServerSystem@@IAEXV?$basic_string@DU?$char_traits@D@std@@V?$allocator@D@2@@std@@H@Z 0044c620     TServerSystem:TServerSystem.obj
 0002:0000f644       __unwindtable$?SSLogError@TServerSystem@@IAEXV?$basic_string@DU?$char_traits@D@std@@V?$allocator@D@2@@std@@H@Z 0044c644     TServerSystem:TServerSystem.obj
 0002:0000f644       __unwindtable$?SSLogInfo@TServerSystem@@IAEXV?$basic_string@DU?$char_traits@D@std@@V?$allocator@D@2@@std@@H@Z 0044c644     TServerSystem:TServerSystem.obj
 0002:0000f64c       __ehfuncinfo$?DisplayIni@TServerSystem@@IAEXXZ 0044c64c     TServerSystem:TServerSystem.obj
 0002:0000f670       __unwindtable$?DisplayIni@TServerSystem@@IAEXXZ 0044c670     TServerSystem:TServerSystem.obj
 0002:0000f690       __ehfuncinfo$?LoadIntFromIni@TServerSystem@@IAEXV?$basic_string@DU?$char_traits@D@std@@V?$allocator@D@2@@std@@HAAH@Z 0044c690     TServerSystem:TServerSystem.obj
 0002:0000f6b4       __unwindtable$?LoadIntFromIni@TServerSystem@@IAEXV?$basic_string@DU?$char_traits@D@std@@V?$allocator@D@2@@std@@HAAH@Z 0044c6b4     TServerSystem:TServerSystem.obj
 0002:0000f6e4       __ehfuncinfo$?LoadStringFromIni@TServerSystem@@IAEXV?$basic_string@DU?$char_traits@D@std@@V?$allocator@D@2@@std@@0AAV23@@Z 0044c6e4     TServerSystem:TServerSystem.obj
 0002:0000f708       __unwindtable$?LoadStringFromIni@TServerSystem@@IAEXV?$basic_string@DU?$char_traits@D@std@@V?$allocator@D@2@@std@@0AAV23@@Z 0044c708     TServerSystem:TServerSystem.obj
 0002:0000f728       __ehfuncinfo$??0?$vector@V?$basic_string@DU?$char_traits@D@std@@V?$allocator@D@2@@std@@V?$allocator@V?$basic_string@DU?$char_traits@D@std@@V?$allocator@D@2@@std@@@2@@std@@QAE@ABV01@@Z 0044c728     TServerSystem:TServerSystem.obj
 0002:0000f74c       __unwindtable$??0?$vector@V?$basic_string@DU?$char_traits@D@std@@V?$allocator@D@2@@std@@V?$allocator@V?$basic_string@DU?$char_traits@D@std@@V?$allocator@D@2@@std@@@2@@std@@QAE@ABV01@@Z 0044c74c     TServerSystem:TServerSystem.obj
 0002:0000f75c       __ehfuncinfo$?uflow@?$basic_filebuf@DU?$char_traits@D@std@@@std@@MAEHXZ 0044c75c     TServerSystem:TServerSystem.obj
 0002:0000f780       __unwindtable$?uflow@?$basic_filebuf@DU?$char_traits@D@std@@@std@@MAEHXZ 0044c780     TServerSystem:TServerSystem.obj
 0002:0000f788       __ehfuncinfo$??0sentry@?$basic_ostream@DU?$char_traits@D@std@@@std@@QAE@AAV12@@Z 0044c788     TServerSystem:TServerSystem.obj
 0002:0000f7ac       __unwindtable$??0sentry@?$basic_ostream@DU?$char_traits@D@std@@@std@@QAE@AAV12@@Z 0044c7ac     TServerSystem:TServerSystem.obj
 0002:0000f7b4       __ehfuncinfo$??0?$basic_ostream@DU?$char_traits@D@std@@@std@@QAE@PAV?$basic_streambuf@DU?$char_traits@D@std@@@1@_N@Z 0044c7b4     TServerSystem:TServerSystem.obj
 0002:0000f7d8       __unwindtable$??0?$basic_ostream@DU?$char_traits@D@std@@@std@@QAE@PAV?$basic_streambuf@DU?$char_traits@D@std@@@1@_N@Z 0044c7d8     TServerSystem:TServerSystem.obj
 0002:0000f7f0       __ehfuncinfo$??0?$basic_streambuf@DU?$char_traits@D@std@@@std@@IAE@XZ 0044c7f0     TServerSystem:TServerSystem.obj
 0002:0000f814       __unwindtable$??0?$basic_streambuf@DU?$char_traits@D@std@@@std@@IAE@XZ 0044c814     TServerSystem:TServerSystem.obj
 0002:0000f81c       __ehfuncinfo$?flush@?$basic_ostream@DU?$char_traits@D@std@@@std@@QAEAAV12@XZ 0044c81c     TServerSystem:TServerSystem.obj
 0002:0000f840       __unwindtable$?flush@?$basic_ostream@DU?$char_traits@D@std@@@std@@QAEAAV12@XZ 0044c840     TServerSystem:TServerSystem.obj
 0002:0000f860       __tryblocktable$?flush@?$basic_ostream@DU?$char_traits@D@std@@@std@@QAEAAV12@XZ 0044c860     TServerSystem:TServerSystem.obj
 0002:0000f874       __catchsym$?flush@?$basic_ostream@DU?$char_traits@D@std@@@std@@QAEAAV12@XZ$11 0044c874     TServerSystem:TServerSystem.obj
 0002:0000f884       __ehfuncinfo$?_Osfx@?$basic_ostream@DU?$char_traits@D@std@@@std@@QAEXXZ 0044c884     TServerSystem:TServerSystem.obj
 0002:0000f8a8       __unwindtable$?_Osfx@?$basic_ostream@DU?$char_traits@D@std@@@std@@QAEXXZ 0044c8a8     TServerSystem:TServerSystem.obj
 0002:0000f8b8       __tryblocktable$?_Osfx@?$basic_ostream@DU?$char_traits@D@std@@@std@@QAEXXZ 0044c8b8     TServerSystem:TServerSystem.obj
 0002:0000f8cc       __catchsym$?_Osfx@?$basic_ostream@DU?$char_traits@D@std@@@std@@QAEXXZ$2 0044c8cc     TServerSystem:TServerSystem.obj
 0002:0000f8dc       __ehfuncinfo$??$use_facet@V?$ctype@D@std@@@std@@YAABV?$ctype@D@0@ABVlocale@0@@Z 0044c8dc     TServerSystem:TServerSystem.obj
 0002:0000f900       __unwindtable$??$use_facet@V?$ctype@D@std@@@std@@YAABV?$ctype@D@0@ABVlocale@0@@Z 0044c900     TServerSystem:TServerSystem.obj
 0002:0000f918       __ehfuncinfo$??$?6U?$char_traits@D@std@@@std@@YAAAV?$basic_ostream@DU?$char_traits@D@std@@@0@AAV10@PBD@Z 0044c918     TServerSystem:TServerSystem.obj
 0002:0000f93c       __unwindtable$??$?6U?$char_traits@D@std@@@std@@YAAAV?$basic_ostream@DU?$char_traits@D@std@@@0@AAV10@PBD@Z 0044c93c     TServerSystem:TServerSystem.obj
 0002:0000f964       __tryblocktable$??$?6U?$char_traits@D@std@@@std@@YAAAV?$basic_ostream@DU?$char_traits@D@std@@@0@AAV10@PBD@Z 0044c964     TServerSystem:TServerSystem.obj
 0002:0000f978       __catchsym$??$?6U?$char_traits@D@std@@@std@@YAAAV?$basic_ostream@DU?$char_traits@D@std@@@0@AAV10@PBD@Z$6 0044c978     TServerSystem:TServerSystem.obj
 0002:0000f988       __ehfuncinfo$??$endl@DU?$char_traits@D@std@@@std@@YAAAV?$basic_ostream@DU?$char_traits@D@std@@@0@AAV10@@Z 0044c988     TServerSystem:TServerSystem.obj
 0002:0000f9ac       __unwindtable$??$endl@DU?$char_traits@D@std@@@std@@YAAAV?$basic_ostream@DU?$char_traits@D@std@@@0@AAV10@@Z 0044c9ac     TServerSystem:TServerSystem.obj
 0002:0000f9b4       __ehfuncinfo$??$use_facet@V?$codecvt@DDU_Mbstatet@@@std@@@std@@YAABV?$codecvt@DDU_Mbstatet@@@0@ABVlocale@0@@Z 0044c9b4     TServerSystem:TServerSystem.obj
 0002:0000f9d8       __unwindtable$??$use_facet@V?$codecvt@DDU_Mbstatet@@@std@@@std@@YAABV?$codecvt@DDU_Mbstatet@@@0@ABVlocale@0@@Z 0044c9d8     TServerSystem:TServerSystem.obj
 0002:0000f9f0       __ehfuncinfo$?put@?$basic_ostream@DU?$char_traits@D@std@@@std@@QAEAAV12@D@Z 0044c9f0     TServerSystem:TServerSystem.obj
 0002:0000fa14       __unwindtable$?put@?$basic_ostream@DU?$char_traits@D@std@@@std@@QAEAAV12@D@Z 0044ca14     TServerSystem:TServerSystem.obj
 0002:0000fa3c       __tryblocktable$?put@?$basic_ostream@DU?$char_traits@D@std@@@std@@QAEAAV12@D@Z 0044ca3c     TServerSystem:TServerSystem.obj
 0002:0000fa50       __catchsym$?put@?$basic_ostream@DU?$char_traits@D@std@@@std@@QAEAAV12@D@Z$6 0044ca50     TServerSystem:TServerSystem.obj
 0002:0000fa60       __ehfuncinfo$??$_Insert_string@DU?$char_traits@D@std@@I@std@@YAAAV?$basic_ostream@DU?$char_traits@D@std@@@0@AAV10@QBDI@Z 0044ca60     TServerSystem:TServerSystem.obj
 0002:0000fa84       __unwindtable$??$_Insert_string@DU?$char_traits@D@std@@I@std@@YAAAV?$basic_ostream@DU?$char_traits@D@std@@@0@AAV10@QBDI@Z 0044ca84     TServerSystem:TServerSystem.obj
 0002:0000faac       __tryblocktable$??$_Insert_string@DU?$char_traits@D@std@@I@std@@YAAAV?$basic_ostream@DU?$char_traits@D@std@@@0@AAV10@QBDI@Z 0044caac     TServerSystem:TServerSystem.obj
 0002:0000fac0       __catchsym$??$_Insert_string@DU?$char_traits@D@std@@I@std@@YAAAV?$basic_ostream@DU?$char_traits@D@std@@@0@AAV10@QBDI@Z$6 0044cac0     TServerSystem:TServerSystem.obj
 0002:0000fad0       __ehfuncinfo$??$_Emplace_reallocate@ABV?$basic_string@DU?$char_traits@D@std@@V?$allocator@D@2@@std@@@?$vector@V?$basic_string@DU?$char_traits@D@std@@V?$allocator@D@2@@std@@V?$allocator@V?$basic_string@DU?$char_traits@D@std@@V?$allocator@D@2@@std@@@2@@std@@AAEPAV?$basic_string@DU?$char_traits@D@std@@V?$allocator@D@2@@1@QAV21@ABV21@@Z 0044cad0     TServerSystem:TServerSystem.obj
 0002:0000faf4       __unwindtable$??$_Emplace_reallocate@ABV?$basic_string@DU?$char_traits@D@std@@V?$allocator@D@2@@std@@@?$vector@V?$basic_string@DU?$char_traits@D@std@@V?$allocator@D@2@@std@@V?$allocator@V?$basic_string@DU?$char_traits@D@std@@V?$allocator@D@2@@std@@@2@@std@@AAEPAV?$basic_string@DU?$char_traits@D@std@@V?$allocator@D@2@@1@QAV21@ABV21@@Z 0044caf4     TServerSystem:TServerSystem.obj
 0002:0000fb04       __tryblocktable$??$_Emplace_reallocate@ABV?$basic_string@DU?$char_traits@D@std@@V?$allocator@D@2@@std@@@?$vector@V?$basic_string@DU?$char_traits@D@std@@V?$allocator@D@2@@std@@V?$allocator@V?$basic_string@DU?$char_traits@D@std@@V?$allocator@D@2@@std@@@2@@std@@AAEPAV?$basic_string@DU?$char_traits@D@std@@V?$allocator@D@2@@1@QAV21@ABV21@@Z 0044cb04     TServerSystem:TServerSystem.obj
 0002:0000fb18       __catchsym$??$_Emplace_reallocate@ABV?$basic_string@DU?$char_traits@D@std@@V?$allocator@D@2@@std@@@?$vector@V?$basic_string@DU?$char_traits@D@std@@V?$allocator@D@2@@std@@V?$allocator@V?$basic_string@DU?$char_traits@D@std@@V?$allocator@D@2@@std@@@2@@std@@AAEPAV?$basic_string@DU?$char_traits@D@std@@V?$allocator@D@2@@1@QAV21@ABV21@@Z$2 0044cb18     TServerSystem:TServerSystem.obj
 0002:0000fb28       __ehfuncinfo$??$_Emplace_reallocate@ABV?$vector@V?$basic_string@DU?$char_traits@D@std@@V?$allocator@D@2@@std@@V?$allocator@V?$basic_string@DU?$char_traits@D@std@@V?$allocator@D@2@@std@@@2@@std@@@?$vector@V?$vector@V?$basic_string@DU?$char_traits@D@std@@V?$allocator@D@2@@std@@V?$allocator@V?$basic_string@DU?$char_traits@D@std@@V?$allocator@D@2@@std@@@2@@std@@V?$allocator@V?$vector@V?$basic_string@DU?$char_traits@D@std@@V?$allocator@D@2@@std@@V?$allocator@V?$basic_string@DU?$char_traits@D@std@@V?$allocator@D@2@@std@@@2@@std@@@2@@std@@AAEPAV?$vector@V?$basic_string@DU?$char_traits@D@std@@V?$allocator@D@2@@std@@V?$allocator@V?$basic_string@DU?$char_traits@D@std@@V?$allocator@D@2@@std@@@2@@1@QAV21@ABV21@@Z 0044cb28     TServerSystem:TServerSystem.obj
 0002:0000fb4c       __unwindtable$??$_Emplace_reallocate@ABV?$vector@V?$basic_string@DU?$char_traits@D@std@@V?$allocator@D@2@@std@@V?$allocator@V?$basic_string@DU?$char_traits@D@std@@V?$allocator@D@2@@std@@@2@@std@@@?$vector@V?$vector@V?$basic_string@DU?$char_traits@D@std@@V?$allocator@D@2@@std@@V?$allocator@V?$basic_string@DU?$char_traits@D@std@@V?$allocator@D@2@@std@@@2@@std@@V?$allocator@V?$vector@V?$basic_string@DU?$char_traits@D@std@@V?$allocator@D@2@@std@@V?$allocator@V?$basic_string@DU?$char_traits@D@std@@V?$allocator@D@2@@std@@@2@@std@@@2@@std@@AAEPAV?$vector@V?$basic_string@DU?$char_traits@D@std@@V?$allocator@D@2@@std@@V?$allocator@V?$basic_string@DU?$char_traits@D@std@@V?$allocator@D@2@@std@@@2@@1@QAV21@ABV21@@Z 0044cb4c     TServerSystem:TServerSystem.obj
 0002:0000fb5c       __tryblocktable$??$_Emplace_reallocate@ABV?$vector@V?$basic_string@DU?$char_traits@D@std@@V?$allocator@D@2@@std@@V?$allocator@V?$basic_string@DU?$char_traits@D@std@@V?$allocator@D@2@@std@@@2@@std@@@?$vector@V?$vector@V?$basic_string@DU?$char_traits@D@std@@V?$allocator@D@2@@std@@V?$allocator@V?$basic_string@DU?$char_traits@D@std@@V?$allocator@D@2@@std@@@2@@std@@V?$allocator@V?$vector@V?$basic_string@DU?$char_traits@D@std@@V?$allocator@D@2@@std@@V?$allocator@V?$basic_string@DU?$char_traits@D@std@@V?$allocator@D@2@@std@@@2@@std@@@2@@std@@AAEPAV?$vector@V?$basic_string@DU?$char_traits@D@std@@V?$allocator@D@2@@std@@V?$allocator@V?$basic_string@DU?$char_traits@D@std@@V?$allocator@D@2@@std@@@2@@1@QAV21@ABV21@@Z 0044cb5c     TServerSystem:TServerSystem.obj
 0002:0000fb70       __catchsym$??$_Emplace_reallocate@ABV?$vector@V?$basic_string@DU?$char_traits@D@std@@V?$allocator@D@2@@std@@V?$allocator@V?$basic_string@DU?$char_traits@D@std@@V?$allocator@D@2@@std@@@2@@std@@@?$vector@V?$vector@V?$basic_string@DU?$char_traits@D@std@@V?$allocator@D@2@@std@@V?$allocator@V?$basic_string@DU?$char_traits@D@std@@V?$allocator@D@2@@std@@@2@@std@@V?$allocator@V?$vector@V?$basic_string@DU?$char_traits@D@std@@V?$allocator@D@2@@std@@V?$allocator@V?$basic_string@DU?$char_traits@D@std@@V?$allocator@D@2@@std@@@2@@std@@@2@@std@@AAEPAV?$vector@V?$basic_string@DU?$char_traits@D@std@@V?$allocator@D@2@@std@@V?$allocator@V?$basic_string@DU?$char_traits@D@std@@V?$allocator@D@2@@std@@@2@@1@QAV21@ABV21@@Z$2 0044cb70     TServerSystem:TServerSystem.obj
 0002:0000fb80       __ehfuncinfo$?AddEntry@?$CSimpleIniTempl@DU?$SI_NoCase@D@@V?$SI_ConvertA@D@@@@AAE?AW4SI_Error@@PBD000_N1@Z 0044cb80     TServerSystem:TServerSystem.obj
 0002:0000fba4       __unwindtable$?AddEntry@?$CSimpleIniTempl@DU?$SI_NoCase@D@@V?$SI_ConvertA@D@@@@AAE?AW4SI_Error@@PBD000_N1@Z 0044cba4     TServerSystem:TServerSystem.obj
 0002:0000fbcc       __ehfuncinfo$?CopyString@?$CSimpleIniTempl@DU?$SI_NoCase@D@@V?$SI_ConvertA@D@@@@AAE?AW4SI_Error@@AAPBD@Z 0044cbcc     TServerSystem:TServerSystem.obj
 0002:0000fbf0       __unwindtable$?CopyString@?$CSimpleIniTempl@DU?$SI_NoCase@D@@V?$SI_ConvertA@D@@@@AAE?AW4SI_Error@@AAPBD@Z 0044cbf0     TServerSystem:TServerSystem.obj
 0002:0000fbf8       __ehfuncinfo$??$_Emplace@AAU?$pair@$$CBUEntry@?$CSimpleIniTempl@DU?$SI_NoCase@D@@V?$SI_ConvertA@D@@@@V?$multimap@UEntry@?$CSimpleIniTempl@DU?$SI_NoCase@D@@V?$SI_ConvertA@D@@@@PBDUKeyOrder@12@V?$allocator@U?$pair@$$CBUEntry@?$CSimpleIniTempl@DU?$SI_NoCase@D@@V?$SI_ConvertA@D@@@@PBD@std@@@std@@@std@@@std@@@?$_Tree@V?$_Tmap_traits@UEntry@?$CSimpleIniTempl@DU?$SI_NoCase@D@@V?$SI_ConvertA@D@@@@V?$multimap@UEntry@?$CSimpleIniTempl@DU?$SI_NoCase@D@@V?$SI_ConvertA@D@@@@PBDUKeyOrder@12@V?$allocator@U?$pair@$$CBUEntry@?$CSimpleIniTempl@DU?$SI_NoCase@D@@V?$SI_ConvertA@D@@@@PBD@std@@@std@@@std@@UKeyOrder@12@V?$allocator@U?$pair@$$CBUEntry@?$CSimpleIniTempl@DU?$SI_NoCase@D@@V?$SI_ConvertA@D@@@@V?$multimap@UEntry@?$CSimpleIniTempl@DU?$SI_NoCase@D@@V?$SI_ConvertA@D@@@@PBDUKeyOrder@12@V?$allocator@U?$pair@$$CBUEntry@?$CSimpleIniTempl@DU?$SI_NoCase@D@@V?$SI_ConvertA@D@@@@PBD@std@@@std@@@std@@@std@@@4@$0A@@std@@@std@@IAE?AU?$pair@PAU?$_Tree_node@U?$pair@$$CBUEntry@?$CSimpleIniTempl@DU?$SI_NoCase@D@@V?$SI_ConvertA@D@@@@V?$multimap@UEntry@?$CSimpleIniTempl@DU?$SI_NoCase@D@@V?$SI_ConvertA@D@@@@PBDUKeyOrder@12@V?$allocator@U?$pair@$$CBUEntry@?$CSimpleIniTempl@DU?$SI_NoCase@D@@V?$SI_ConvertA@D@@@@PBD@std@@@std@@@std@@@std@@PAX@std@@_N@1@AAU?$pair@$$CBUEntry@?$CSimpleIniTempl@DU?$SI_NoCase@D@@V?$SI_ConvertA@D@@@@V?$multimap@UEntry@?$CSimpleIniTempl@DU?$SI_NoCase@D@@V?$SI_ConvertA@D@@@@PBDUKeyOrder@12@V?$allocator@U?$pair@$$CBUEntry@?$CSimpleIniTempl@DU?$SI_NoCase@D@@V?$SI_ConvertA@D@@@@PBD@std@@@std@@@std@@@1@@Z 0044cbf8     TServerSystem:TServerSystem.obj
 0002:0000fc1c       __unwindtable$??$_Emplace@AAU?$pair@$$CBUEntry@?$CSimpleIniTempl@DU?$SI_NoCase@D@@V?$SI_ConvertA@D@@@@V?$multimap@UEntry@?$CSimpleIniTempl@DU?$SI_NoCase@D@@V?$SI_ConvertA@D@@@@PBDUKeyOrder@12@V?$allocator@U?$pair@$$CBUEntry@?$CSimpleIniTempl@DU?$SI_NoCase@D@@V?$SI_ConvertA@D@@@@PBD@std@@@std@@@std@@@std@@@?$_Tree@V?$_Tmap_traits@UEntry@?$CSimpleIniTempl@DU?$SI_NoCase@D@@V?$SI_ConvertA@D@@@@V?$multimap@UEntry@?$CSimpleIniTempl@DU?$SI_NoCase@D@@V?$SI_ConvertA@D@@@@PBDUKeyOrder@12@V?$allocator@U?$pair@$$CBUEntry@?$CSimpleIniTempl@DU?$SI_NoCase@D@@V?$SI_ConvertA@D@@@@PBD@std@@@std@@@std@@UKeyOrder@12@V?$allocator@U?$pair@$$CBUEntry@?$CSimpleIniTempl@DU?$SI_NoCase@D@@V?$SI_ConvertA@D@@@@V?$multimap@UEntry@?$CSimpleIniTempl@DU?$SI_NoCase@D@@V?$SI_ConvertA@D@@@@PBDUKeyOrder@12@V?$allocator@U?$pair@$$CBUEntry@?$CSimpleIniTempl@DU?$SI_NoCase@D@@V?$SI_ConvertA@D@@@@PBD@std@@@std@@@std@@@std@@@4@$0A@@std@@@std@@IAE?AU?$pair@PAU?$_Tree_node@U?$pair@$$CBUEntry@?$CSimpleIniTempl@DU?$SI_NoCase@D@@V?$SI_ConvertA@D@@@@V?$multimap@UEntry@?$CSimpleIniTempl@DU?$SI_NoCase@D@@V?$SI_ConvertA@D@@@@PBDUKeyOrder@12@V?$allocator@U?$pair@$$CBUEntry@?$CSimpleIniTempl@DU?$SI_NoCase@D@@V?$SI_ConvertA@D@@@@PBD@std@@@std@@@std@@@std@@PAX@std@@_N@1@AAU?$pair@$$CBUEntry@?$CSimpleIniTempl@DU?$SI_NoCase@D@@V?$SI_ConvertA@D@@@@V?$multimap@UEntry@?$CSimpleIniTempl@DU?$SI_NoCase@D@@V?$SI_ConvertA@D@@@@PBDUKeyOrder@12@V?$allocator@U?$pair@$$CBUEntry@?$CSimpleIniTempl@DU?$SI_NoCase@D@@V?$SI_ConvertA@D@@@@PBD@std@@@std@@@std@@@1@@Z 0044cc1c     TServerSystem:TServerSystem.obj
 0002:0000fc34       __ehfuncinfo$??$_Copy_nodes@$0A@@?$_Tree@V?$_Tmap_traits@UEntry@?$CSimpleIniTempl@DU?$SI_NoCase@D@@V?$SI_ConvertA@D@@@@PBDUKeyOrder@12@V?$allocator@U?$pair@$$CBUEntry@?$CSimpleIniTempl@DU?$SI_NoCase@D@@V?$SI_ConvertA@D@@@@PBD@std@@@std@@$00@std@@@std@@IAEPAU?$_Tree_node@U?$pair@$$CBUEntry@?$CSimpleIniTempl@DU?$SI_NoCase@D@@V?$SI_ConvertA@D@@@@PBD@std@@PAX@1@PAU21@0@Z 0044cc34     TServerSystem:TServerSystem.obj
 0002:0000fc58       __unwindtable$??$_Copy_nodes@$0A@@?$_Tree@V?$_Tmap_traits@UEntry@?$CSimpleIniTempl@DU?$SI_NoCase@D@@V?$SI_ConvertA@D@@@@PBDUKeyOrder@12@V?$allocator@U?$pair@$$CBUEntry@?$CSimpleIniTempl@DU?$SI_NoCase@D@@V?$SI_ConvertA@D@@@@PBD@std@@@std@@$00@std@@@std@@IAEPAU?$_Tree_node@U?$pair@$$CBUEntry@?$CSimpleIniTempl@DU?$SI_NoCase@D@@V?$SI_ConvertA@D@@@@PBD@std@@PAX@1@PAU21@0@Z 0044cc58     TServerSystem:TServerSystem.obj
 0002:0000fc70       __tryblocktable$??$_Copy_nodes@$0A@@?$_Tree@V?$_Tmap_traits@UEntry@?$CSimpleIniTempl@DU?$SI_NoCase@D@@V?$SI_ConvertA@D@@@@PBDUKeyOrder@12@V?$allocator@U?$pair@$$CBUEntry@?$CSimpleIniTempl@DU?$SI_NoCase@D@@V?$SI_ConvertA@D@@@@PBD@std@@@std@@$00@std@@@std@@IAEPAU?$_Tree_node@U?$pair@$$CBUEntry@?$CSimpleIniTempl@DU?$SI_NoCase@D@@V?$SI_ConvertA@D@@@@PBD@std@@PAX@1@PAU21@0@Z 0044cc70     TServerSystem:TServerSystem.obj
 0002:0000fc84       __catchsym$??$_Copy_nodes@$0A@@?$_Tree@V?$_Tmap_traits@UEntry@?$CSimpleIniTempl@DU?$SI_NoCase@D@@V?$SI_ConvertA@D@@@@PBDUKeyOrder@12@V?$allocator@U?$pair@$$CBUEntry@?$CSimpleIniTempl@DU?$SI_NoCase@D@@V?$SI_ConvertA@D@@@@PBD@std@@@std@@$00@std@@@std@@IAEPAU?$_Tree_node@U?$pair@$$CBUEntry@?$CSimpleIniTempl@DU?$SI_NoCase@D@@V?$SI_ConvertA@D@@@@PBD@std@@PAX@1@PAU21@0@Z$3 0044cc84     TServerSystem:TServerSystem.obj
 0002:0000fc94       __unwindtable$??0?$CStringT@DV?$StrTraitATL@DV?$ChTraitsCRT@D@ATL@@@ATL@@@ATL@@QAE@PBD@Z 0044cc94     CSHandler.obj
 0002:0000fc9c       __ehfuncinfo$??0?$CStringT@DV?$StrTraitATL@DV?$ChTraitsCRT@D@ATL@@@ATL@@@ATL@@QAE@PBD@Z 0044cc9c     CSHandler.obj
 0002:0000fcc0       __ehfuncinfo$??0tagEVENTINFO@@QAE@ABU0@@Z 0044ccc0     CSHandler.obj
 0002:0000fce4       __unwindtable$??0tagEVENTINFO@@QAE@ABU0@@Z 0044cce4     CSHandler.obj
 0002:0000fd1c       __ehfuncinfo$??0tagEVENTINFO@@QAE@$$QAU0@@Z 0044cd1c     CSHandler.obj
 0002:0000fd40       __unwindtable$??0tagEVENTINFO@@QAE@$$QAU0@@Z 0044cd40     CSHandler.obj
 0002:0000fd78       __unwindtable$?OnCT_SERVICEDATACLEAR_ACK@CTLoginSvrModule@@IAEKPAVCSqlDatabase@@PAV?$map@EPAUtagTGROUP@@U?$less@E@std@@V?$allocator@U?$pair@$$CBEPAUtagTGROUP@@@std@@@3@@std@@PAVCTUser@@AAVCPacket@@@Z 0044cd78     CSHandler.obj
 0002:0000fd80       __ehfuncinfo$?OnCT_SERVICEDATACLEAR_ACK@CTLoginSvrModule@@IAEKPAVCSqlDatabase@@PAV?$map@EPAUtagTGROUP@@U?$less@E@std@@V?$allocator@U?$pair@$$CBEPAUtagTGROUP@@@std@@@3@@std@@PAVCTUser@@AAVCPacket@@@Z 0044cd80     CSHandler.obj
 0002:0000fda4       __unwindtable$?OnCT_EVENTUPDATE_REQ@CTLoginSvrModule@@IAEKPAVCSqlDatabase@@PAV?$map@EPAUtagTGROUP@@U?$less@E@std@@V?$allocator@U?$pair@$$CBEPAUtagTGROUP@@@std@@@3@@std@@PAVCTUser@@AAVCPacket@@@Z 0044cda4     CSHandler.obj
 0002:0000fdc4       __ehfuncinfo$?OnCT_EVENTUPDATE_REQ@CTLoginSvrModule@@IAEKPAVCSqlDatabase@@PAV?$map@EPAUtagTGROUP@@U?$less@E@std@@V?$allocator@U?$pair@$$CBEPAUtagTGROUP@@@std@@@3@@std@@PAVCTUser@@AAVCPacket@@@Z 0044cdc4     CSHandler.obj
 0002:0000fde8       __unwindtable$?OnCT_EVENTMSG_REQ@CTLoginSvrModule@@IAEKPAVCSqlDatabase@@PAV?$map@EPAUtagTGROUP@@U?$less@E@std@@V?$allocator@U?$pair@$$CBEPAUtagTGROUP@@@std@@@3@@std@@PAVCTUser@@AAVCPacket@@@Z 0044cde8     CSHandler.obj
 0002:0000fdf0       __ehfuncinfo$?OnCT_EVENTMSG_REQ@CTLoginSvrModule@@IAEKPAVCSqlDatabase@@PAV?$map@EPAUtagTGROUP@@U?$less@E@std@@V?$allocator@U?$pair@$$CBEPAUtagTGROUP@@@std@@@3@@std@@PAVCTUser@@AAVCPacket@@@Z 0044cdf0     CSHandler.obj
 0002:0000fe14       __unwindtable$?OnCS_CHANNELLIST_REQ@CTLoginSvrModule@@IAEKPAVCSqlDatabase@@PAV?$map@EPAUtagTGROUP@@U?$less@E@std@@V?$allocator@U?$pair@$$CBEPAUtagTGROUP@@@std@@@3@@std@@PAVCTUser@@AAVCPacket@@@Z 0044ce14     CSHandler.obj
 0002:0000fe34       __ehfuncinfo$?OnCS_CHANNELLIST_REQ@CTLoginSvrModule@@IAEKPAVCSqlDatabase@@PAV?$map@EPAUtagTGROUP@@U?$less@E@std@@V?$allocator@U?$pair@$$CBEPAUtagTGROUP@@@std@@@3@@std@@PAVCTUser@@AAVCPacket@@@Z 0044ce34     CSHandler.obj
 0002:0000fe58       __unwindtable$?OnCS_GROUPLIST_REQ@CTLoginSvrModule@@IAEKPAVCSqlDatabase@@PAV?$map@EPAUtagTGROUP@@U?$less@E@std@@V?$allocator@U?$pair@$$CBEPAUtagTGROUP@@@std@@@3@@std@@PAVCTUser@@AAVCPacket@@@Z 0044ce58     CSHandler.obj
 0002:0000fe78       __ehfuncinfo$?OnCS_GROUPLIST_REQ@CTLoginSvrModule@@IAEKPAVCSqlDatabase@@PAV?$map@EPAUtagTGROUP@@U?$less@E@std@@V?$allocator@U?$pair@$$CBEPAUtagTGROUP@@@std@@@3@@std@@PAVCTUser@@AAVCPacket@@@Z 0044ce78     CSHandler.obj
 0002:0000fe9c       __ehfuncinfo$?OnCS_CHARLIST_REQ@CTLoginSvrModule@@IAEKPAVCSqlDatabase@@PAV?$map@EPAUtagTGROUP@@U?$less@E@std@@V?$allocator@U?$pair@$$CBEPAUtagTGROUP@@@std@@@3@@std@@PAVCTUser@@AAVCPacket@@@Z 0044ce9c     CSHandler.obj
 0002:0000fec0       __unwindtable$?OnCS_CHARLIST_REQ@CTLoginSvrModule@@IAEKPAVCSqlDatabase@@PAV?$map@EPAUtagTGROUP@@U?$less@E@std@@V?$allocator@U?$pair@$$CBEPAUtagTGROUP@@@std@@@3@@std@@PAVCTUser@@AAVCPacket@@@Z 0044cec0     CSHandler.obj
 0002:0000fef8       __ehfuncinfo$?OnCS_LOGIN_REQ@CTLoginSvrModule@@IAEKPAVCSqlDatabase@@PAV?$map@EPAUtagTGROUP@@U?$less@E@std@@V?$allocator@U?$pair@$$CBEPAUtagTGROUP@@@std@@@3@@std@@PAVCTUser@@AAVCPacket@@@Z 0044cef8     CSHandler.obj
 0002:0000ff1c       __unwindtable$?OnCS_LOGIN_REQ@CTLoginSvrModule@@IAEKPAVCSqlDatabase@@PAV?$map@EPAUtagTGROUP@@U?$less@E@std@@V?$allocator@U?$pair@$$CBEPAUtagTGROUP@@@std@@@3@@std@@PAVCTUser@@AAVCPacket@@@Z 0044cf1c     CSHandler.obj
 0002:0000ff54       __unwindtable$?OnCS_TESTLOGIN_REQ@CTLoginSvrModule@@IAEKPAVCSqlDatabase@@PAV?$map@EPAUtagTGROUP@@U?$less@E@std@@V?$allocator@U?$pair@$$CBEPAUtagTGROUP@@@std@@@3@@std@@PAVCTUser@@AAVCPacket@@@Z 0044cf54     CSHandler.obj
 0002:0000ff64       __ehfuncinfo$?OnCS_TESTLOGIN_REQ@CTLoginSvrModule@@IAEKPAVCSqlDatabase@@PAV?$map@EPAUtagTGROUP@@U?$less@E@std@@V?$allocator@U?$pair@$$CBEPAUtagTGROUP@@@std@@@3@@std@@PAVCTUser@@AAVCPacket@@@Z 0044cf64     CSHandler.obj
 0002:0000ff88       __unwindtable$?OnCS_CREATECHAR_REQ@CTLoginSvrModule@@IAEKPAVCSqlDatabase@@PAV?$map@EPAUtagTGROUP@@U?$less@E@std@@V?$allocator@U?$pair@$$CBEPAUtagTGROUP@@@std@@@3@@std@@PAVCTUser@@AAVCPacket@@@Z 0044cf88     CSHandler.obj
 0002:0000ff98       __ehfuncinfo$?OnCS_CREATECHAR_REQ@CTLoginSvrModule@@IAEKPAVCSqlDatabase@@PAV?$map@EPAUtagTGROUP@@U?$less@E@std@@V?$allocator@U?$pair@$$CBEPAUtagTGROUP@@@std@@@3@@std@@PAVCTUser@@AAVCPacket@@@Z 0044cf98     CSHandler.obj
 0002:0000ffbc       __unwindtable$?OnCS_DELCHAR_REQ@CTLoginSvrModule@@IAEKPAVCSqlDatabase@@PAV?$map@EPAUtagTGROUP@@U?$less@E@std@@V?$allocator@U?$pair@$$CBEPAUtagTGROUP@@@std@@@3@@std@@PAVCTUser@@AAVCPacket@@@Z 0044cfbc     CSHandler.obj
 0002:0000ffd4       __ehfuncinfo$?OnCS_DELCHAR_REQ@CTLoginSvrModule@@IAEKPAVCSqlDatabase@@PAV?$map@EPAUtagTGROUP@@U?$less@E@std@@V?$allocator@U?$pair@$$CBEPAUtagTGROUP@@@std@@@3@@std@@PAVCTUser@@AAVCPacket@@@Z 0044cfd4     CSHandler.obj
 0002:0000fff8       __unwindtable$?OnCS_START_REQ@CTLoginSvrModule@@IAEKPAVCSqlDatabase@@PAV?$map@EPAUtagTGROUP@@U?$less@E@std@@V?$allocator@U?$pair@$$CBEPAUtagTGROUP@@@std@@@3@@std@@PAVCTUser@@AAVCPacket@@@Z 0044cff8     CSHandler.obj
 0002:00010018       __ehfuncinfo$?OnCS_START_REQ@CTLoginSvrModule@@IAEKPAVCSqlDatabase@@PAV?$map@EPAUtagTGROUP@@U?$less@E@std@@V?$allocator@U?$pair@$$CBEPAUtagTGROUP@@@std@@@3@@std@@PAVCTUser@@AAVCPacket@@@Z 0044d018     CSHandler.obj
 0002:0001003c       __unwindtable$?OnCS_AGREEMENT_REQ@CTLoginSvrModule@@IAEKPAVCSqlDatabase@@PAV?$map@EPAUtagTGROUP@@U?$less@E@std@@V?$allocator@U?$pair@$$CBEPAUtagTGROUP@@@std@@@3@@std@@PAVCTUser@@AAVCPacket@@@Z 0044d03c     CSHandler.obj
 0002:0001003c       __unwindtable$?Flush@CSession@@QAEXXZ 0044d03c     TNetLib:Session.obj
 0002:0001003c       __unwindtable$?OnInvalidSession@CSession@@QAEHXZ 0044d03c     TNetLib:Session.obj
 0002:0001003c       __unwindtable$?Read@CSession@@QAEHK@Z 0044d03c     TNetLib:Session.obj
 0002:00010044       __ehfuncinfo$?OnCS_AGREEMENT_REQ@CTLoginSvrModule@@IAEKPAVCSqlDatabase@@PAV?$map@EPAUtagTGROUP@@U?$less@E@std@@V?$allocator@U?$pair@$$CBEPAUtagTGROUP@@@std@@@3@@std@@PAVCTUser@@AAVCPacket@@@Z 0044d044     CSHandler.obj
 0002:00010044       __ehfuncinfo$?Flush@CSession@@QAEXXZ 0044d044     TNetLib:Session.obj
 0002:00010044       __ehfuncinfo$?OnInvalidSession@CSession@@QAEHXZ 0044d044     TNetLib:Session.obj
 0002:00010044       __ehfuncinfo$?Read@CSession@@QAEHK@Z 0044d044     TNetLib:Session.obj
 0002:00010068       __unwindtable$?OnCS_SECURITYCONFIRM_ACK@CTLoginSvrModule@@IAEKPAVCSqlDatabase@@PAV?$map@EPAUtagTGROUP@@U?$less@E@std@@V?$allocator@U?$pair@$$CBEPAUtagTGROUP@@@std@@@3@@std@@PAVCTUser@@AAVCPacket@@@Z 0044d068     CSHandler.obj
 0002:00010078       __ehfuncinfo$?OnCS_SECURITYCONFIRM_ACK@CTLoginSvrModule@@IAEKPAVCSqlDatabase@@PAV?$map@EPAUtagTGROUP@@U?$less@E@std@@V?$allocator@U?$pair@$$CBEPAUtagTGROUP@@@std@@@3@@std@@PAVCTUser@@AAVCPacket@@@Z 0044d078     CSHandler.obj
 0002:0001009c       __unwindtable$??$insert@$0A@$0A@@?$_Tree@V?$_Tmap_traits@KKU?$less@K@std@@V?$allocator@U?$pair@$$CBKK@std@@@2@$0A@@std@@@std@@QAE?AU?$pair@V?$_Tree_iterator@V?$_Tree_val@U?$_Tree_simple_types@U?$pair@$$CBKK@std@@@std@@@std@@@std@@_N@1@$$QAU?$pair@$$CBKK@1@@Z 0044d09c     CSHandler.obj
 0002:0001009c       __unwindtable$??$insert@$0A@$0A@@?$_Tree@V?$_Tmap_traits@KPAVCTUser@@U?$less@K@std@@V?$allocator@U?$pair@$$CBKPAVCTUser@@@std@@@3@$0A@@std@@@std@@QAE?AU?$pair@V?$_Tree_iterator@V?$_Tree_val@U?$_Tree_simple_types@U?$pair@$$CBKPAVCTUser@@@std@@@std@@@std@@@std@@_N@1@$$QAU?$pair@$$CBKPAVCTUser@@@1@@Z 0044d09c     CSHandler.obj
 0002:000100a4       __ehfuncinfo$??$insert@$0A@$0A@@?$_Tree@V?$_Tmap_traits@KKU?$less@K@std@@V?$allocator@U?$pair@$$CBKK@std@@@2@$0A@@std@@@std@@QAE?AU?$pair@V?$_Tree_iterator@V?$_Tree_val@U?$_Tree_simple_types@U?$pair@$$CBKK@std@@@std@@@std@@@std@@_N@1@$$QAU?$pair@$$CBKK@1@@Z 0044d0a4     CSHandler.obj
 0002:000100a4       __ehfuncinfo$??$insert@$0A@$0A@@?$_Tree@V?$_Tmap_traits@KPAVCTUser@@U?$less@K@std@@V?$allocator@U?$pair@$$CBKPAVCTUser@@@std@@@3@$0A@@std@@@std@@QAE?AU?$pair@V?$_Tree_iterator@V?$_Tree_val@U?$_Tree_simple_types@U?$pair@$$CBKPAVCTUser@@@std@@@std@@@std@@@std@@_N@1@$$QAU?$pair@$$CBKPAVCTUser@@@1@@Z 0044d0a4     CSHandler.obj
 0002:000100fc       __unwindtable$?SendCS_BOWPLAYERNOTIFY_ACK@CTUser@@QAEXE@Z 0044d0fc     CSSender.obj
 0002:000100fc       __unwindtable$?SendCS_DELCHAR_ACK@CTUser@@QAEXEK@Z 0044d0fc     CSSender.obj
 0002:000100fc       __unwindtable$?SendCS_LOGIN_ACK@CTUser@@QAEXEKKKKGEEK_J@Z 0044d0fc     CSSender.obj
 0002:000100fc       __unwindtable$?SendCS_SECURITYRESULT_ACK@CTUser@@QAEXE@Z 0044d0fc     CSSender.obj
 0002:000100fc       __unwindtable$?SendCS_START_ACK@CTUser@@QAEXEKGE@Z 0044d0fc     CSSender.obj
 0002:000100fc       __unwindtable$?SendCS_TESTVERSION_ACK@CTUser@@QAEXG@Z 0044d0fc     CSSender.obj
 0002:000100fc       __unwindtable$?SendCS_VETERAN_ACK@CTUser@@QAEXEEEE@Z 0044d0fc     CSSender.obj
 0002:000100fc       __unwindtable$?SendCT_SERVICEMONITOR_REQ@CTUser@@QAEXKKKK@Z 0044d0fc     CSSender.obj
 0002:00010104       __ehfuncinfo$?SendCS_BOWPLAYERNOTIFY_ACK@CTUser@@QAEXE@Z 0044d104     CSSender.obj
 0002:00010104       __ehfuncinfo$?SendCS_DELCHAR_ACK@CTUser@@QAEXEK@Z 0044d104     CSSender.obj
 0002:00010104       __ehfuncinfo$?SendCS_LOGIN_ACK@CTUser@@QAEXEKKKKGEEK_J@Z 0044d104     CSSender.obj
 0002:00010104       __ehfuncinfo$?SendCS_SECURITYRESULT_ACK@CTUser@@QAEXE@Z 0044d104     CSSender.obj
 0002:00010104       __ehfuncinfo$?SendCS_START_ACK@CTUser@@QAEXEKGE@Z 0044d104     CSSender.obj
 0002:00010104       __ehfuncinfo$?SendCS_TESTVERSION_ACK@CTUser@@QAEXG@Z 0044d104     CSSender.obj
 0002:00010104       __ehfuncinfo$?SendCS_VETERAN_ACK@CTUser@@QAEXEEEE@Z 0044d104     CSSender.obj
 0002:00010104       __ehfuncinfo$?SendCT_SERVICEMONITOR_REQ@CTUser@@QAEXKKKK@Z 0044d104     CSSender.obj
 0002:00010128       __unwindtable$?SendCS_CREATECHAR_ACK@CTUser@@QAEXEKV?$CStringT@DV?$StrTraitATL@DV?$ChTraitsCRT@D@ATL@@@ATL@@@ATL@@EEEEEEEEEEEEE@Z 0044d128     CSSender.obj
 0002:00010138       __ehfuncinfo$?SendCS_CREATECHAR_ACK@CTUser@@QAEXEKV?$CStringT@DV?$StrTraitATL@DV?$ChTraitsCRT@D@ATL@@@ATL@@@ATL@@EEEEEEEEEEEEE@Z 0044d138     CSSender.obj
 0002:0001015c       __ehfuncinfo$?InitQueryTLoginSvr@@YAHPAVCSqlDatabase@@@Z 0044d15c     DBAccess.obj
 0002:00010180       __unwindtable$?InitQueryTLoginSvr@@YAHPAVCSqlDatabase@@@Z 0044d180     DBAccess.obj
 0002:000102d0       __ehfuncinfo$?InitQueryTGameSvr@@YAHPAVCSqlDatabase@@@Z 0044d2d0     DBAccess.obj
 0002:000102f4       __unwindtable$?InitQueryTGameSvr@@YAHPAVCSqlDatabase@@@Z 0044d2f4     DBAccess.obj
 0002:00010374       __unwindtable$?FormatV@?$CStringT@DV?$StrTraitATL@DV?$ChTraitsCRT@D@ATL@@@ATL@@@ATL@@QAEXPBDPAD@Z 0044d374     DebugSocket.obj
 0002:00010384       __ehfuncinfo$?FormatV@?$CStringT@DV?$StrTraitATL@DV?$ChTraitsCRT@D@ATL@@@ATL@@@ATL@@QAEXPBDPAD@Z 0044d384     DebugSocket.obj
 0002:000103a8       __unwindtable$??0?$basic_istream@DU?$char_traits@D@std@@@std@@QAE@PAV?$basic_streambuf@DU?$char_traits@D@std@@@1@_N@Z 0044d3a8     mailer.obj
 0002:000103c0       __ehfuncinfo$??0?$basic_istream@DU?$char_traits@D@std@@@std@@QAE@PAV?$basic_streambuf@DU?$char_traits@D@std@@@1@_N@Z 0044d3c0     mailer.obj
 0002:000103e4       __catchsym$?_Ipfx@?$basic_istream@DU?$char_traits@D@std@@@std@@QAE_N_N@Z$4 0044d3e4     mailer.obj
 0002:000103f4       __tryblocktable$?_Ipfx@?$basic_istream@DU?$char_traits@D@std@@@std@@QAE_N_N@Z 0044d3f4     mailer.obj
 0002:00010408       __unwindtable$?_Ipfx@?$basic_istream@DU?$char_traits@D@std@@@std@@QAE_N_N@Z 0044d408     mailer.obj
 0002:00010420       __ehfuncinfo$?_Ipfx@?$basic_istream@DU?$char_traits@D@std@@@std@@QAE_N_N@Z 0044d420     mailer.obj
 0002:00010444       __unwindtable$??1sentry@?$basic_istream@DU?$char_traits@D@std@@@std@@QAE@XZ 0044d444     mailer.obj
 0002:00010444       __unwindtable$??_G?$basic_istream@DU?$char_traits@D@std@@@std@@UAEPAXI@Z 0044d444     mailer.obj
 0002:00010444       __unwindtable$??_D?$basic_istream@DU?$char_traits@D@std@@@std@@QAEXXZ 0044d444     libcpmt:cin.obj
 0002:00010444       __unwindtable$??_GCSession@@UAEPAXI@Z 0044d444     TNetLib:Session.obj
 0002:00010444       __unwindtable$??_GCSqlDatabase@@UAEPAXI@Z 0044d444     TNetLib:SqlDatabase.obj
 0002:0001044c       __ehfuncinfo$??1sentry@?$basic_istream@DU?$char_traits@D@std@@@std@@QAE@XZ 0044d44c     mailer.obj
 0002:0001044c       __ehfuncinfo$??_G?$basic_istream@DU?$char_traits@D@std@@@std@@UAEPAXI@Z 0044d44c     mailer.obj
 0002:0001044c       __ehfuncinfo$??_D?$basic_istream@DU?$char_traits@D@std@@@std@@QAEXXZ 0044d44c     libcpmt:cin.obj
 0002:0001044c       __ehfuncinfo$??_GCSession@@UAEPAXI@Z 0044d44c     TNetLib:Session.obj
 0002:0001044c       __ehfuncinfo$??_GCSqlDatabase@@UAEPAXI@Z 0044d44c     TNetLib:SqlDatabase.obj
 0002:00010470       __unwindtable$?OnCloseSession@CTLoginSvrModule@@IAEXPAVCTUser@@@Z 0044d470     TLoginSvr.obj
 0002:00010480       __ehfuncinfo$?OnCloseSession@CTLoginSvrModule@@IAEXPAVCTUser@@@Z 0044d480     TLoginSvr.obj
 0002:000104a4       __unwindtable$?LoadData@CTLoginSvrModule@@IAEKPAVCSqlDatabase@@PAV?$map@EPAUtagTGROUP@@U?$less@E@std@@V?$allocator@U?$pair@$$CBEPAUtagTGROUP@@@std@@@3@@std@@@Z 0044d4a4     TLoginSvr.obj
 0002:000104bc       __ehfuncinfo$?LoadData@CTLoginSvrModule@@IAEKPAVCSqlDatabase@@PAV?$map@EPAUtagTGROUP@@U?$less@E@std@@V?$allocator@U?$pair@$$CBEPAUtagTGROUP@@@std@@@3@@std@@@Z 0044d4bc     TLoginSvr.obj
 0002:000104e0       __ehfuncinfo$?LoadDataLogin@CTLoginSvrModule@@IAEKXZ 0044d4e0     TLoginSvr.obj
 0002:00010504       __unwindtable$?LoadDataLogin@CTLoginSvrModule@@IAEKXZ 0044d504     TLoginSvr.obj
 0002:0001052c       __unwindtable$?LoadConfig@CTLoginSvrModule@@IAEKXZ 0044d52c     TLoginSvr.obj
 0002:0001054c       __ehfuncinfo$?LoadConfig@CTLoginSvrModule@@IAEKXZ 0044d54c     TLoginSvr.obj
 0002:00010570       __unwindtable$?Accept@CTLoginSvrModule@@IAEEXZ 0044d570     TLoginSvr.obj
 0002:00010588       __ehfuncinfo$?Accept@CTLoginSvrModule@@IAEEXZ 0044d588     TLoginSvr.obj
 0002:000105ac       __unwindtable$?WorkThread@CTLoginSvrModule@@IAEKXZ 0044d5ac     TLoginSvr.obj
 0002:000105c4       __ehfuncinfo$?WorkThread@CTLoginSvrModule@@IAEKXZ 0044d5c4     TLoginSvr.obj
 0002:000105e8       __ehfuncinfo$?LogExecCheck@CTLoginSvrModule@@IAEXKKV?$CStringT@DV?$StrTraitATL@DV?$ChTraitsCRT@D@ATL@@@ATL@@@ATL@@@Z 0044d5e8     TLoginSvr.obj
 0002:0001060c       __unwindtable$?LogExecCheck@CTLoginSvrModule@@IAEXKKV?$CStringT@DV?$StrTraitATL@DV?$ChTraitsCRT@D@ATL@@@ATL@@@ATL@@@Z 0044d60c     TLoginSvr.obj
 0002:00010644       __unwindtable$?OnEnter@CTLoginSvrModule@@MAEKXZ 0044d644     TLoginSvr.obj
 0002:0001064c       __ehfuncinfo$?OnEnter@CTLoginSvrModule@@MAEKXZ 0044d64c     TLoginSvr.obj
 0002:00010670       __unwindtable$?OnExit@CTLoginSvrModule@@MAEXXZ 0044d670     TLoginSvr.obj
 0002:00010678       __ehfuncinfo$?OnExit@CTLoginSvrModule@@MAEXXZ 0044d678     TLoginSvr.obj
 0002:0001069c       __ehfuncinfo$??0CTLoginSvrModule@@QAE@XZ 0044d69c     TLoginSvr.obj
 0002:000106c0       __unwindtable$??0CTLoginSvrModule@@QAE@XZ 0044d6c0     TLoginSvr.obj
 0002:00010750       __unwindtable$_main        0044d750     TLoginSvr.obj
 0002:00010758       __ehfuncinfo$_main         0044d758     TLoginSvr.obj
 0002:0001077c       __catchsym$??$?5DU?$char_traits@D@std@@V?$allocator@D@1@@std@@YAAAV?$basic_istream@DU?$char_traits@D@std@@@0@AAV10@AAV?$basic_string@DU?$char_traits@D@std@@V?$allocator@D@2@@0@@Z$8 0044d77c     TLoginSvr.obj
 0002:0001078c       __tryblocktable$??$?5DU?$char_traits@D@std@@V?$allocator@D@1@@std@@YAAAV?$basic_istream@DU?$char_traits@D@std@@@0@AAV10@AAV?$basic_string@DU?$char_traits@D@std@@V?$allocator@D@2@@0@@Z 0044d78c     TLoginSvr.obj
 0002:000107a0       __ehfuncinfo$??$?5DU?$char_traits@D@std@@V?$allocator@D@1@@std@@YAAAV?$basic_istream@DU?$char_traits@D@std@@@0@AAV10@AAV?$basic_string@DU?$char_traits@D@std@@V?$allocator@D@2@@0@@Z 0044d7a0     TLoginSvr.obj
 0002:000107c4       __unwindtable$??$?5DU?$char_traits@D@std@@V?$allocator@D@1@@std@@YAAAV?$basic_istream@DU?$char_traits@D@std@@@0@AAV10@AAV?$basic_string@DU?$char_traits@D@std@@V?$allocator@D@2@@0@@Z 0044d7c4     TLoginSvr.obj
 0002:000107f4       __ehfuncinfo$??0CTUser@@QAE@XZ 0044d7f4     TUser.obj
 0002:00010818       __unwindtable$??0CTUser@@QAE@XZ 0044d818     TUser.obj
 0002:00010848       __unwindtable$?AddQuery@CSqlDatabase@@QAEHPAVCSqlQuery@@V?$basic_string@DU?$char_traits@D@std@@V?$allocator@D@2@@std@@@Z 0044d848     TNetLib:SqlDatabase.obj
 0002:00010868       __ehfuncinfo$?AddQuery@CSqlDatabase@@QAEHPAVCSqlQuery@@V?$basic_string@DU?$char_traits@D@std@@V?$allocator@D@2@@std@@@Z 0044d868     TNetLib:SqlDatabase.obj
 0002:0001088c       __unwindtable$?Fetch@CSqlBase@@QAEHXZ 0044d88c     TNetLib:SqlBase.obj
 0002:00010894       __ehfuncinfo$?Fetch@CSqlBase@@QAEHXZ 0044d894     TNetLib:SqlBase.obj
 0002:000108b8       __unwindtable$?Open@CSqlBase@@QAEHH@Z 0044d8b8     TNetLib:SqlBase.obj
 0002:000108d8       __ehfuncinfo$?Open@CSqlBase@@QAEHH@Z 0044d8d8     TNetLib:SqlBase.obj
 0002:000108fc       __unwindtable$??0CSqlQuery@@QAE@PAVCSqlDatabase@@V?$basic_string@DU?$char_traits@D@std@@V?$allocator@D@2@@std@@PBD@Z 0044d8fc     TNetLib:SqlQuery.obj
 0002:00010914       __ehfuncinfo$??0CSqlQuery@@QAE@PAVCSqlDatabase@@V?$basic_string@DU?$char_traits@D@std@@V?$allocator@D@2@@std@@PBD@Z 0044d914     TNetLib:SqlQuery.obj
 0002:00010938       __unwindtable$?Decrypt@CSession@@AAEHPAVCPacket@@@Z 0044d938     TNetLib:Session.obj
 0002:00010940       __ehfuncinfo$?Decrypt@CSession@@AAEHPAVCPacket@@@Z 0044d940     TNetLib:Session.obj
 0002:00010964       __unwindtable$?Say@CSession@@UAEHPAVCPacket@@@Z 0044d964     TNetLib:Session.obj
 0002:00010964       __unwindtable$?WaitForMessage@CSession@@QAEHXZ 0044d964     TNetLib:Session.obj
 0002:0001096c       __ehfuncinfo$?Say@CSession@@UAEHPAVCPacket@@@Z 0044d96c     TNetLib:Session.obj
 0002:0001096c       __ehfuncinfo$?WaitForMessage@CSession@@QAEHXZ 0044d96c     TNetLib:Session.obj
 0002:00010990       __unwindtable$?SendComplete@CSession@@QAEHK@Z 0044d990     TNetLib:Session.obj
 0002:000109a0       __ehfuncinfo$?SendComplete@CSession@@QAEHK@Z 0044d9a0     TNetLib:Session.obj
 0002:000109c4       __unwindtable$?CheckMessage@CSession@@QAEHXZ 0044d9c4     TNetLib:Session.obj
 0002:000109cc       __ehfuncinfo$?CheckMessage@CSession@@QAEHXZ 0044d9cc     TNetLib:Session.obj
 0002:000109f0       __unwindtable$??0CSession@@QAE@XZ 0044d9f0     TNetLib:Session.obj
 0002:00010a10       __ehfuncinfo$??0CSession@@QAE@XZ 0044da10     TNetLib:Session.obj
 0002:00010a34       __unwindtable$??__Eg_strSecretKey@@YAXXZ 0044da34     TNetLib:Session.obj
 0002:00010a3c       __ehfuncinfo$??__Eg_strSecretKey@@YAXXZ 0044da3c     TNetLib:Session.obj
 0002:00010a60       __unwindtable$?TraceLastError@@YAXPBD0K@Z 0044da60     TNetLib:CryptographyExt.obj
 0002:00010a68       __ehfuncinfo$?TraceLastError@@YAXPBD0K@Z 0044da68     TNetLib:CryptographyExt.obj
 0002:00010b94       __unwindtable$?_Init@locale@std@@CAPAV_Locimp@12@_N@Z 0044db94     libcpmt:locale0.obj
 0002:00010b9c       __ehfuncinfo$?_Init@locale@std@@CAPAV_Locimp@12@_N@Z 0044db9c     libcpmt:locale0.obj
 0002:00010bc0       __sehtable$___scrt_is_nonwritable_in_current_image 0044dbc0     LIBCMT:utility.obj
 0002:00010be0       __sehtable$?__scrt_common_main_seh@@YAHXZ 0044dbe0     LIBCMT:exe_main.obj
 0002:00010c00       __sehtable$___DestructExceptionObject 0044dc00     libvcruntime:ehhelpers.obj
 0002:00010c20       __sehtable$?FrameUnwindToState@__FrameHandler3@@SAXPAUEHRegistrationNode@@PAXPBU_s_FuncInfo@@H@Z 0044dc20     libvcruntime:frame.obj
 0002:00010c48       __sehtable$?CallCatchBlock@@YAPAXPAUEHExceptionRecord@@PAUEHRegistrationNode@@PAU_CONTEXT@@PBU_s_FuncInfo@@PAXHK@Z 0044dc48     libvcruntime:frame.obj
 0002:00010c70       __catchsym$?CallUnexpected@@YAXPBU_s_ESTypeList@@@Z$2 0044dc70     libvcruntime:frame.obj
 0002:00010c80       __unwindtable$?CallUnexpected@@YAXPBU_s_ESTypeList@@@Z 0044dc80     libvcruntime:frame.obj
 0002:00010c90       __tryblocktable$?CallUnexpected@@YAXPBU_s_ESTypeList@@@Z 0044dc90     libvcruntime:frame.obj
 0002:00010ca4       __ehfuncinfo$?CallUnexpected@@YAXPBU_s_ESTypeList@@@Z 0044dca4     libvcruntime:frame.obj
 0002:00010cc8       __sehtable$??$BuildCatchObjectHelperInternal@V__FrameHandler3@@@@YAHPAUEHExceptionRecord@@PAXPBU_s_HandlerType@@PBU_s_CatchableType@@@Z 0044dcc8     libvcruntime:frame.obj
 0002:00010ce8       __sehtable$??$BuildCatchObjectInternal@V__FrameHandler3@@@@YAXPAUEHExceptionRecord@@PAXPBU_s_HandlerType@@PBU_s_CatchableType@@@Z 0044dce8     libvcruntime:frame.obj
 0002:00010d40       __sehtable$_fclose         0044dd40     libucrt:fclose.obj
 0002:00010d60       __sehtable$??$?RV<lambda_2866be3712abc81a800a822484c830d8>@@AAV<lambda_39ca0ed439415581b5b15c265174cece>@@V<lambda_2b24c74d71094a6cd0cb82e44167d71b>@@@?$__crt_seh_guarded_call@X@@QAEX$$QAV<lambda_2866be3712abc81a800a822484c830d8>@@AAV<lambda_39ca0ed439415581b5b15c265174cece>@@$$QAV<lambda_2b24c74d71094a6cd0cb82e44167d71b>@@@Z 0044dd60     libucrt:fflush.obj
 0002:00010d80       __sehtable$??$?RV<lambda_2cc53f568c5a2bb6f192f930a45d44ea>@@AAV<lambda_ab61a845afdef5b7c387490eaf3616ee>@@V<lambda_c2ffc0b7726aa6be21d5f0026187e748>@@@?$__crt_seh_guarded_call@X@@QAEX$$QAV<lambda_2cc53f568c5a2bb6f192f930a45d44ea>@@AAV<lambda_ab61a845afdef5b7c387490eaf3616ee>@@$$QAV<lambda_c2ffc0b7726aa6be21d5f0026187e748>@@@Z 0044dd80     libucrt:fflush.obj
 0002:00010da0       __sehtable$??$?RV<lambda_6d20deecaf4856105ebacbad442d1079>@@AAV<lambda_9a32fed5bf61b6b509b2d3f6003082a1>@@V<lambda_63ea2239ed67c638ddbae41947fdf875>@@@?$__crt_seh_guarded_call@H@@QAEH$$QAV<lambda_6d20deecaf4856105ebacbad442d1079>@@AAV<lambda_9a32fed5bf61b6b509b2d3f6003082a1>@@$$QAV<lambda_63ea2239ed67c638ddbae41947fdf875>@@@Z 0044dda0     libucrt:fflush.obj
 0002:00010dc0       __sehtable$_fgetc          0044ddc0     libucrt:fgetc.obj
 0002:00010de0       __sehtable$_fputc          0044dde0     libucrt:fputc.obj
 0002:00010e00       __sehtable$_fread_s        0044de00     libucrt:fread.obj
 0002:00010e20       __sehtable$?common_fseek@@YAHV__crt_stdio_stream@@_JH@Z 0044de20     libucrt:fseek.obj
 0002:00010e40       __sehtable$??$?RV<lambda_4ac01c32aa5b53846f05d0620572872e>@@AAV<lambda_5856287d7ecd2be6c9197bb4007c3f6e>@@V<lambda_e7a9868ed898c75c0f0637692d94351a>@@@?$__crt_seh_guarded_call@I@@QAEI$$QAV<lambda_4ac01c32aa5b53846f05d0620572872e>@@AAV<lambda_5856287d7ecd2be6c9197bb4007c3f6e>@@$$QAV<lambda_e7a9868ed898c75c0f0637692d94351a>@@@Z 0044de40     libucrt:fwrite.obj
 0002:00010e60       __sehtable$??$?RV<lambda_b4242a90177f71b82d5a351515ac407a>@@AAV<lambda_b4f66040be5f354a654fb75160c27bfc>@@V<lambda_414c89348e1c610e2dbd648c5fde2086>@@@?$__crt_seh_guarded_call@H@@QAEH$$QAV<lambda_b4242a90177f71b82d5a351515ac407a>@@AAV<lambda_b4f66040be5f354a654fb75160c27bfc>@@$$QAV<lambda_414c89348e1c610e2dbd648c5fde2086>@@@Z 0044de60     libucrt:setvbuf.obj
 0002:00010e80       __sehtable$_ungetc         0044de80     libucrt:ungetc.obj
 0002:00010ea0       __sehtable$??$?RV<lambda_9a462f4e0ebb28b87551e12ccffee677>@@AAV<lambda_aa3754a7aa5b4d51093b5036e29efe7b>@@V<lambda_0e3764851bdc48140fe2cf5acfa0db04>@@@?$__crt_seh_guarded_call@H@@QAEH$$QAV<lambda_9a462f4e0ebb28b87551e12ccffee677>@@AAV<lambda_aa3754a7aa5b4d51093b5036e29efe7b>@@$$QAV<lambda_0e3764851bdc48140fe2cf5acfa0db04>@@@Z 0044dea0     libucrt:puts.obj
 0002:00010ec0       __sehtable$??$common_fsopen@D@@YAPAU_iobuf@@QBD0H@Z 0044dec0     libucrt:fopen.obj
 0002:00010ee0       __sehtable$??$common_ftell@J@@YAJV__crt_stdio_stream@@@Z 0044dee0     libucrt:ftell.obj
 0002:00010f00       __sehtable$??$common_ftell@_J@@YA_JV__crt_stdio_stream@@@Z 0044df00     libucrt:ftell.obj
 0002:00010f20       __sehtable$??$?RV<lambda_f5952838e36297a1e2e9d6c748429792>@@AAV<lambda_2116bde18c9e5f34230805ea4a4660ed>@@V<lambda_3c7107de1cc98bf330a3031f42c322a3>@@@?$__crt_seh_guarded_call@PAD@@QAEPAD$$QAV<lambda_f5952838e36297a1e2e9d6c748429792>@@AAV<lambda_2116bde18c9e5f34230805ea4a4660ed>@@$$QAV<lambda_3c7107de1cc98bf330a3031f42c322a3>@@@Z 0044df20     libucrt:setlocale.obj
 0002:00010f40       __sehtable$__query_new_handler 0044df40     libucrt:new_handler.obj
 0002:00010f60       __sehtable$??R<lambda_6e4b09c48022b2350581041d5f6b0c4c>@@QBE@XZ 0044df60     libucrt:exit.obj
 0002:00010f80       __sehtable$??$?RV<lambda_03b1d95aef87969028cfba75ccab2455>@@AAV<lambda_6e4b09c48022b2350581041d5f6b0c4c>@@V<lambda_22bdf7517842c4b3e53723af5aa32b9e>@@@?$__crt_seh_guarded_call@X@@QAEX$$QAV<lambda_03b1d95aef87969028cfba75ccab2455>@@AAV<lambda_6e4b09c48022b2350581041d5f6b0c4c>@@$$QAV<lambda_22bdf7517842c4b3e53723af5aa32b9e>@@@Z 0044df80     libucrt:exit.obj
 0002:00010fa0       __sehtable$??$?RV<lambda_8e746cf0007f6ed984d6f78af1fec997>@@AAV<lambda_22ebabd17bc4fa466a2aca6d8deb888d>@@V<lambda_18ed0c0b38a6dc0daf1e7ac6d6adf05e>@@@?$__crt_seh_guarded_call@H@@QAEH$$QAV<lambda_8e746cf0007f6ed984d6f78af1fec997>@@AAV<lambda_22ebabd17bc4fa466a2aca6d8deb888d>@@$$QAV<lambda_18ed0c0b38a6dc0daf1e7ac6d6adf05e>@@@Z 0044dfa0     libucrt:onexit.obj
 0002:00010fc0       __sehtable$??$?RV<lambda_69a2805e680e0e292e8ba93315fe43a8>@@AAV<lambda_f03950bc5685219e0bcd2087efbe011e>@@V<lambda_03fcd07e894ec930e3f35da366ca99d6>@@@?$__crt_seh_guarded_call@H@@QAEH$$QAV<lambda_69a2805e680e0e292e8ba93315fe43a8>@@AAV<lambda_f03950bc5685219e0bcd2087efbe011e>@@$$QAV<lambda_03fcd07e894ec930e3f35da366ca99d6>@@@Z 0044dfc0     libucrt:onexit.obj
 0002:00010fe0       __sehtable$??$?RV<lambda_e5124f882df8998aaf41531e079ba474>@@AAV<lambda_3e16ef9562a7dcce91392c22ab16ea36>@@V<lambda_e25ca0880e6ef98be67edffd8c599615>@@@?$__crt_seh_guarded_call@X@@QAEX$$QAV<lambda_e5124f882df8998aaf41531e079ba474>@@AAV<lambda_3e16ef9562a7dcce91392c22ab16ea36>@@$$QAV<lambda_e25ca0880e6ef98be67edffd8c599615>@@@Z 0044dfe0     libucrt:wsetlocale.obj
 0002:00011000       __sehtable$??$?RV<lambda_4fdada1b837b2abbf20876fac97688ad>@@AAV<lambda_b57350f2640456a0859d250846f69caf>@@V<lambda_eed5e4f92b5b7d55fa22c48c484aaa54>@@@?$__crt_seh_guarded_call@X@@QAEX$$QAV<lambda_4fdada1b837b2abbf20876fac97688ad>@@AAV<lambda_b57350f2640456a0859d250846f69caf>@@$$QAV<lambda_eed5e4f92b5b7d55fa22c48c484aaa54>@@@Z 0044e000     libucrt:wsetlocale.obj
 0002:00011020       __sehtable$??$?RV<lambda_ac03c5d59bd18b09cb88b28331f6bfed>@@AAV<lambda_2a444430fde8c29194d880d93eed5e8f>@@AAV<lambda_02db5278e8aef8b5e4976579d73f5304>@@@?$__crt_seh_guarded_call@X@@QAEX$$QAV<lambda_ac03c5d59bd18b09cb88b28331f6bfed>@@AAV<lambda_2a444430fde8c29194d880d93eed5e8f>@@AAV<lambda_02db5278e8aef8b5e4976579d73f5304>@@@Z 0044e020     libucrt:wsetlocale.obj
 0002:00011040       __sehtable$_terminate      0044e040     libucrt:terminate.obj
 0002:00011060       __sehtable$??$?RV<lambda_15ade71b0218206bbe3333a0c9b79046>@@AAV<lambda_da44e0f8b0f19ba52fefafb335991732>@@V<lambda_207f2d024fc103971653565357d6cd41>@@@?$__crt_seh_guarded_call@X@@QAEX$$QAV<lambda_15ade71b0218206bbe3333a0c9b79046>@@AAV<lambda_da44e0f8b0f19ba52fefafb335991732>@@$$QAV<lambda_207f2d024fc103971653565357d6cd41>@@@Z 0044e060     libucrt:per_thread_data.obj
 0002:00011080       __sehtable$??$?RV<lambda_a7e850c220f1c8d1e6efeecdedd162c6>@@AAV<lambda_46720907175c18b6c9d2717bc0d2d362>@@V<lambda_9048902d66e8d99359bc9897bbb930a8>@@@?$__crt_seh_guarded_call@X@@QAEX$$QAV<lambda_a7e850c220f1c8d1e6efeecdedd162c6>@@AAV<lambda_46720907175c18b6c9d2717bc0d2d362>@@$$QAV<lambda_9048902d66e8d99359bc9897bbb930a8>@@@Z 0044e080     libucrt:per_thread_data.obj
 0002:000110a0       __sehtable$??$?RV<lambda_38edbb1296d33220d7e4dd0ed76b244a>@@AAV<lambda_5ce1d447e08cb34b2473517608e21441>@@V<lambda_fb385d3da700c9147fc39e65dd577a8c>@@@?$__crt_seh_guarded_call@X@@QAEX$$QAV<lambda_38edbb1296d33220d7e4dd0ed76b244a>@@AAV<lambda_5ce1d447e08cb34b2473517608e21441>@@$$QAV<lambda_fb385d3da700c9147fc39e65dd577a8c>@@@Z 0044e0a0     libucrt:per_thread_data.obj
 0002:000110c0       __sehtable$??$?RV<lambda_6affb1475c98b40b75cdec977db92e3c>@@AAV<lambda_b8d4b9c228a6ecc3f80208dbb4b4a104>@@V<lambda_608742c3c92a14382c1684fc64f96c88>@@@?$__crt_seh_guarded_call@X@@QAEX$$QAV<lambda_6affb1475c98b40b75cdec977db92e3c>@@AAV<lambda_b8d4b9c228a6ecc3f80208dbb4b4a104>@@$$QAV<lambda_608742c3c92a14382c1684fc64f96c88>@@@Z 0044e0c0     libucrt:per_thread_data.obj
 0002:000110e0       __sehtable$??$?RV<lambda_6b4b7855443974f2b4b77000ea21c99c>@@AAV<lambda_8f7d3b162ab39427f4fa9995c67a7986>@@V<lambda_cc9a5ba8a5d8428b9634eab82665e5dc>@@@?$__crt_seh_guarded_call@H@@QAEH$$QAV<lambda_6b4b7855443974f2b4b77000ea21c99c>@@AAV<lambda_8f7d3b162ab39427f4fa9995c67a7986>@@$$QAV<lambda_cc9a5ba8a5d8428b9634eab82665e5dc>@@@Z 0044e0e0     libucrt:winapi_thunks.obj
 0002:00011100       __sehtable$___acrt_initialize_lowio 0044e100     libucrt:ioinit.obj
 0002:00011120       __sehtable$__fcloseall     0044e120     libucrt:closeall.obj
 0002:00011140       __sehtable$??$?RV<lambda_218ce3db14220d0be481dae8ef3383b6>@@AAV<lambda_628dfdc04ba53c8bfc02c9951375f3f5>@@V<lambda_57dc472bd5c9d5f3b2cbca59b8a843ae>@@@?$__crt_seh_guarded_call@H@@QAEH$$QAV<lambda_218ce3db14220d0be481dae8ef3383b6>@@AAV<lambda_628dfdc04ba53c8bfc02c9951375f3f5>@@$$QAV<lambda_57dc472bd5c9d5f3b2cbca59b8a843ae>@@@Z 0044e140     libucrt:close.obj
 0002:00011160       __sehtable$?__acrt_stdio_allocate_stream@@YA?AV__crt_stdio_stream@@XZ 0044e160     libucrt:stream.obj
 0002:00011180       __sehtable$??$?RV<lambda_9e9de3de5fa147e2223d7db92bc10aa6>@@AAV<lambda_38ce7e780aa69e748d6df282ebc68efe>@@V<lambda_8ca6da459f0f6780f1cff60fdc3d00e5>@@@?$__crt_seh_guarded_call@H@@QAEH$$QAV<lambda_9e9de3de5fa147e2223d7db92bc10aa6>@@AAV<lambda_38ce7e780aa69e748d6df282ebc68efe>@@$$QAV<lambda_8ca6da459f0f6780f1cff60fdc3d00e5>@@@Z 0044e180     libucrt:commit.obj
 0002:000111a0       __sehtable$__write         0044e1a0     libucrt:write.obj
 0002:000111c0       __sehtable$__read          0044e1c0     libucrt:read.obj
 0002:000111e0       __sehtable$??$common_lseek@_J@@YA_JH_JH@Z 0044e1e0     libucrt:lseek.obj
 0002:00011200       __sehtable$__isindst       0044e200     libucrt:tzset.obj
 0002:00011220       __sehtable$___tzset        0044e220     libucrt:tzset.obj
 0002:00011240       __sehtable$___set_fpsr_sse2 0044e240     libucrt:fpctrl.obj
 0002:0001125c       __unwindtable$?_wcstombs_l_helper@@YAIPADPB_WIPAU__crt_locale_pointers@@@Z 0044e25c     libucrt:wcstombs.obj
 0002:00011264       __ehfuncinfo$?_wcstombs_l_helper@@YAIPADPB_WIPAU__crt_locale_pointers@@@Z 0044e264     libucrt:wcstombs.obj
 0002:00011288       __sehtable$_raise          0044e288     libucrt:signal.obj
 0002:000112a8       __sehtable$??$?RV<lambda_cbab9ec6f41b0180b23cc171c22676b0>@@AAV<lambda_44731a7d0e6d81c3e6aa82d741081786>@@V<lambda_4b292cb8dd18144e164572427af410ab>@@@?$__crt_seh_guarded_call@P6AXH@Z@@QAEP6AXH@Z$$QAV<lambda_cbab9ec6f41b0180b23cc171c22676b0>@@AAV<lambda_44731a7d0e6d81c3e6aa82d741081786>@@$$QAV<lambda_4b292cb8dd18144e164572427af410ab>@@@Z 0044e2a8     libucrt:signal.obj
 0002:000112c8       __sehtable$?update_thread_multibyte_data_internal@@YAPAU__crt_multibyte_data@@QAU__acrt_ptd@@QAPAU1@@Z 0044e2c8     libucrt:mbctype.obj
 0002:000112e8       __sehtable$??$?RV<lambda_ceb1ee4838e85a9d631eb091e2fbe199>@@AAV<lambda_ae742caa10f662c28703da3d2ea5e57e>@@V<lambda_cd08b5d6af4937fe54fc07d0c9bf6b37>@@@?$__crt_seh_guarded_call@X@@QAEX$$QAV<lambda_ceb1ee4838e85a9d631eb091e2fbe199>@@AAV<lambda_ae742caa10f662c28703da3d2ea5e57e>@@$$QAV<lambda_cd08b5d6af4937fe54fc07d0c9bf6b37>@@@Z 0044e2e8     libucrt:mbctype.obj
 0002:00011308       __sehtable$__alloc_osfhnd  0044e308     libucrt:osfinfo.obj
 0002:00011328       __sehtable$___acrt_lowio_ensure_fh_exists 0044e328     libucrt:osfinfo.obj
 0002:00011348       __sehtable$___acrt_update_thread_locale_data 0044e348     libucrt:locale_refcounting.obj
 0002:00011368       __sehtable$??$common_getenv_s@_W@@YAHQAIQA_WIQB_W@Z 0044e368     libucrt:getenv.obj
 0002:00011388       __sehtable$??$common_sopen_dispatch@D@@YAHQBDHHHQAHH@Z 0044e388     libucrt:open.obj
 0002:000113a8       __sehtable$__IsNonwritableInCurrentImage 0044e3a8     LIBCMT:pesect.obj
 0002:00011800       .idata$6                   0044e800     ws2_32:WS2_32.dll
 0002:00011818       .idata$6                   0044e818     mswsock:MSWSOCK.dll
 0002:00011b80       .idata$6                   0044eb80     kernel32:KERNEL32.dll
 0002:00011bb2       .idata$6                   0044ebb2     user32:USER32.dll
 0002:00011c96       .idata$6                   0044ec96     advapi32:ADVAPI32.dll
 0002:00011cea       .idata$6                   0044ecea     ole32:ole32.dll
 0002:00011cf4       .idata$6                   0044ecf4     odbc32:ODBC32.dll
 0003:00000038       ?init@std@@3JA             00450038     libcpmt:xlock.obj
 0003:00000040       ?atcount_cdecl@@3IA        00450040     libcpmt:iosptrs.obj
 0003:00000090       ?__vcrt_flsindex@@3KA      00450090     libvcruntime:per_thread_data.obj
 0003:000000b0       ?errno_no_memory@@3HA      004500b0     libucrt:errno.obj
 0003:000000b4       ?doserrno_no_memory@@3KA   004500b4     libucrt:errno.obj
 0003:000001d4       __ctype_loc_style          004501d4     libucrt:wsetlocale.obj
 0003:000001e0       ?__acrt_flsindex@@3KA      004501e0     libucrt:per_thread_data.obj
 0003:000003e8       ?tzstd_program@@3PADA      004503e8     libucrt:timeset.obj
 0003:00000428       ?tzdst_program@@3PADA      00450428     libucrt:timeset.obj
 0003:00000468       ?w_tzstd_program@@3PA_WA   00450468     libucrt:timeset.obj
 0003:000004e8       ?w_tzdst_program@@3PA_WA   004504e8     libucrt:timeset.obj
 0003:00000568       ?tzname_states@@3PAY01PADA 00450568     libucrt:timeset.obj
 0003:00000570       ?w_tzname_states@@3PAY01PA_WA 00450570     libucrt:timeset.obj
 0003:00000578       ?dststart@@3Utransitiondate@?A0x7639d0b4@@A 00450578     libucrt:tzset.obj
 0003:00000584       ?dstend@@3Utransitiondate@?A0x7639d0b4@@A 00450584     libucrt:tzset.obj
 0003:00000590       ?__DAZ_ENABLED@?1??__set_fpsr_sse2@@9@9 00450590     libucrt:fpctrl.obj
 0003:000007c0       __mbctypes                 004507c0     libucrt:mbctype.obj
 0003:000008c8       __mbcasemaps               004508c8     libucrt:mbctype.obj
 0003:000009c8       ?__rgctypeflag@@3PADA      004509c8     libucrt:mbctype.obj
 0003:000009d0       ?__rgcode_page_info@@3PAUcode_page_info@@A 004509d0     libucrt:mbctype.obj
 0003:00000ac0       ?__dcrt_lowio_console_output_handle@@3PAXA 00450ac0     libucrt:initcon.obj
 0003:00000ad8       ?bPresent@?1???0TServerSystem@@QAE@V?$basic_string@DU?$char_traits@D@std@@V?$allocator@D@2@@std@@0@Z@4_NA 00450ad8     TServerSystem:TServerSystem.obj
 0003:000015d0       ?tick@?1??OnCT_SERVICEMONITOR_ACK@CTLoginSvrModule@@IAEKPAVCSqlDatabase@@PAV?$map@EPAUtagTGROUP@@U?$less@E@std@@V?$allocator@U?$pair@$$CBEPAUtagTGROUP@@@std@@@3@@std@@PAVCTUser@@AAVCPacket@@@Z@4KA 004515d0     CSHandler.obj
 0003:000015d4       ?$TSS0@?1??OnCT_SERVICEMONITOR_ACK@CTLoginSvrModule@@IAEKPAVCSqlDatabase@@PAV?$map@EPAUtagTGROUP@@U?$less@E@std@@V?$allocator@U?$pair@$$CBEPAUtagTGROUP@@@std@@@3@@std@@PAVCTUser@@AAVCPacket@@@Z@4HA 004515d4     CSHandler.obj
 0003:00011e28       ?Initialized@?1??main@@9@4_NA 00461e28     TLoginSvr.obj
 0003:00011e2c       ?strFileName@?1??LogExecCheck@CTLoginSvrModule@@IAEXKKV?$CStringT@DV?$StrTraitATL@DV?$ChTraitsCRT@D@ATL@@@ATL@@@ATL@@@Z@4V34@A 00461e2c     TLoginSvr.obj
 0003:00011e30       ?$TSS0@?1??LogExecCheck@CTLoginSvrModule@@IAEXKKV?$CStringT@DV?$StrTraitATL@DV?$ChTraitsCRT@D@ATL@@@ATL@@@ATL@@@Z@4HA 00461e30     TLoginSvr.obj
 0003:00011e78       ?initlocks@std@@3V_Init_locks@1@A 00461e78     libcpmt:xlock.obj
 0003:00011e80       ?mtx@std@@3PAU_RTL_CRITICAL_SECTION@@A 00461e80     libcpmt:xlock.obj
 0003:00011f5c       ?classic_locale@std@@3Vlocale@1@A 00461f5c     libcpmt:locale0.obj
 0003:00011f64       ?_Fac_head@std@@3PAU_Fac_node@1@A 00461f64     libcpmt:locale0.obj
 0003:00011f68       ?_Fac_tidy_reg@std@@3U_Fac_tidy_reg_t@1@B 00461f68     libcpmt:locale0.obj
 0003:00011f6c       _global_locale             00461f6c     libcpmt:locale0.obj
 0003:00011f70       ?registered@?1??_Setgloballocale@locale@std@@CAXPAX@Z@4_NA 00461f70     libcpmt:locale0.obj
 0003:00011f78       ?stdstr@std@@3PAPAVios_base@1@A 00461f78     libcpmt:ios.obj
 0003:00011fa0       ?stdopens@std@@3PADA       00461fa0     libcpmt:ios.obj
 0003:00011fb0       ?initlocks@@3V_Init_locks@std@@A 00461fb0     libcpmt:cin.obj
 0003:00011fb1       ?init_cin@std@@3U_Init_cin@1@A 00461fb1     libcpmt:cin.obj
 0003:00011fb8       ?fin@std@@3V?$basic_filebuf@DU?$char_traits@D@std@@@1@A 00461fb8     libcpmt:cin.obj
 0003:00012070       ?initlocks@@3V_Init_locks@std@@A 00462070     libcpmt:cout.obj
 0003:00012071       ?init_cout@std@@3U_Init_cout@1@A 00462071     libcpmt:cout.obj
 0003:000120c8       ?fout@std@@3V?$basic_filebuf@DU?$char_traits@D@std@@@1@A 004620c8     libcpmt:cout.obj
 0003:00012144       ?initlocks@std@@3V_Init_locks@1@A 00462144     libcpmt:iosptrs.obj
 0003:00012145       ?init_atexit@@3U_Init_atexit@@A 00462145     libcpmt:iosptrs.obj
 0003:00012148       ?atfuns_cdecl@@3PAP6AXXZA  00462148     libcpmt:iosptrs.obj
 0003:000121f0       ?is_initialized_as_dll@@3_NA 004621f0     LIBCMT:utility.obj
 0003:000121f1       ?module_local_atexit_table_initialized@@3_NA 004621f1     LIBCMT:utility.obj
 0003:000121f4       ?module_local_atexit_table@@3U_onexit_table_t@@A 004621f4     LIBCMT:utility.obj
 0003:00012200       ?module_local_at_quick_exit_table@@3U_onexit_table_t@@A 00462200     LIBCMT:utility.obj
 0003:0001220c       ?g_tss_cv@@3U_RTL_CONDITION_VARIABLE@@A 0046220c     LIBCMT:thread_safe_statics.obj
 0003:00012210       ?g_tss_event@@3PAXA        00462210     LIBCMT:thread_safe_statics.obj
 0003:00012214       ?g_tss_mutex@@3U_RTL_CRITICAL_SECTION@@A 00462214     LIBCMT:thread_safe_statics.obj
 0003:0001222c       ?g_sleep_condition_variable_cs@@3P6GHPAU_RTL_CONDITION_VARIABLE@@PAU_RTL_CRITICAL_SECTION@@K@ZA 0046222c     LIBCMT:thread_safe_statics.obj
 0003:00012230       ?g_wake_all_condition_variable@@3P6GXPAU_RTL_CONDITION_VARIABLE@@@ZA 00462230     LIBCMT:thread_safe_statics.obj
 0003:00012238       _GS_ExceptionRecord        00462238     LIBCMT:gs_report.obj
 0003:00012288       _GS_ContextRecord          00462288     LIBCMT:gs_report.obj
 0003:00012574       ?__vcrt_startup_thread_ptd@@3U__vcrt_ptd@@A 00462574     libvcruntime:per_thread_data.obj
 0003:000125a0       ___vcrt_lock_table         004625a0     libvcruntime:locks.obj
 0003:000125b8       ___vcrt_locks_initialized  004625b8     libvcruntime:locks.obj
 0003:000125e4       ?heap@@3V_HeapManager@@A   004625e4     libvcruntime:undname.obj
 0003:000125f8       ?module_handles@@3PAPAUHINSTANCE__@@A 004625f8     libvcruntime:winapi_downlevel.obj
 0003:00012604       ?function_pointers@@3PAPAXA 00462604     libvcruntime:winapi_downlevel.obj
 0003:00012618       ?__acrt_invalid_parameter_handler@@3V?$dual_state_global@P6AXPB_W00II@Z@__crt_state_management@@A 00462618     libucrt:invalid_parameter.obj
 0003:00012630       ?__acrt_lock_table@@3PAU_RTL_CRITICAL_SECTION@@A 00462630     libucrt:locks.obj
 0003:00012780       ?__acrt_locks_initialized@@3IA 00462780     libucrt:locks.obj
 0003:00012784       ?__acrt_new_handler@@3V?$dual_state_global@P6AHI@Z@__crt_state_management@@A 00462784     libucrt:new_handler.obj
 0003:00012788       ?c_termination_complete@@3JA 00462788     libucrt:exit.obj
 0003:0001278c       ?thread_local_exit_callback_func@@3P6GXPAXK0@ZA 0046278c     libucrt:exit.obj
 0003:00012798       ?program_name@?1???$common_configure_argv@D@@YAHW4_crt_argv_mode@@@Z@4PADA 00462798     libucrt:argv_parsing.obj
 0003:000128c8       ?__acrt_app_type@@3W4_crt_app_type@@A 004628c8     libucrt:report_runtime_error.obj
 0003:000128cc       ?user_matherr@@3V?$dual_state_global@P6AHPAU_exception@@@Z@__crt_state_management@@A 004628cc     libucrt:matherr.obj
 0003:000128ec       ?__acrt_global_new_mode@@3V?$dual_state_global@J@__crt_state_management@@A 004628ec     libucrt:new_mode.obj
 0003:000128f8       ?module_handles@@3PAPAUHINSTANCE__@@A 004628f8     libucrt:winapi_thunks.obj
 0003:00012948       ?encoded_function_pointers@@3PAPAXA 00462948     libucrt:winapi_thunks.obj
 0003:000129d0       ?static_enum_proc@?1??enum_system_locales_ex_nolock@@YAHQ6GHPA_WKJ@Z@Z@4P6GH0KJ@ZA 004629d0     libucrt:winapi_thunks.obj
 0003:000129d4       ?internal_state@?1??_mbtowc_l@@9@4U_Mbstatet@@A 004629d4     libucrt:mbtowc.obj
 0003:000129dc       ?enable_percent_n@@3IA     004629dc     libucrt:printf_count_output.obj
 0003:00012bf8       ?_tzname@@3V?$dual_state_global@PAPAD@__crt_state_management@@A 00462bf8     libucrt:timeset.obj
 0003:00012bfc       ?w_tzname@@3V?$dual_state_global@PAPA_W@__crt_state_management@@A 00462bfc     libucrt:timeset.obj
 0003:00012c00       ?last_wide_tz@@3PA_WA      00462c00     libucrt:tzset.obj
 0003:00012c08       ?tz_api_used@@3HA          00462c08     libucrt:tzset.obj
 0003:00012c0c       ?tzset_init_state@@3V?$dual_state_global@J@__crt_state_management@@A 00462c0c     libucrt:tzset.obj
 0003:00012c10       ?tz_info@@3U_TIME_ZONE_INFORMATION@@A 00462c10     libucrt:tzset.obj
 0003:00012cc0       ?ctrlc_action@@3V?$dual_state_global@P6AXH@Z@__crt_state_management@@A 00462cc0     libucrt:signal.obj
 0003:00012cc4       ?ctrlbreak_action@@3V?$dual_state_global@P6AXH@Z@__crt_state_management@@A 00462cc4     libucrt:signal.obj
 0003:00012cc8       ?abort_action@@3V?$dual_state_global@P6AXH@Z@__crt_state_management@@A 00462cc8     libucrt:signal.obj
 0003:00012ccc       ?term_action@@3V?$dual_state_global@P6AXH@Z@__crt_state_management@@A 00462ccc     libucrt:signal.obj
 0003:00012cdc       ?fSystemSet@@3HA           00462cdc     libucrt:mbctype.obj
 0003:00012ce0       ?initialized@?1??__acrt_initialize_multibyte@@9@4_NA 00462ce0     libucrt:mbctype.obj
 0003:00012cec       __pmatherr_set             00462cec     libucrt:libm_error.obj
 0003:00012cf0       ?internal_pst@?1??__mbrtoc32_utf8@__crt_mbstring@@YAIPA_UPBDIPAU_Mbstatet@@@Z@4U3@A 00462cf0     libucrt:mbrtoc32.obj
 0003:00012cfc       ?internal_pst@?1??__c16rtomb_utf8@__crt_mbstring@@YAIPAD_SPAU_Mbstatet@@@Z@4U3@A 00462cfc     libucrt:c16rtomb.obj
 0004:000001a0       $R000000                   004631a0     TLoginSvr.res
 0004:00000460       $R0002C0                   00463460     TLoginSvr.res
 0004:000004e0       $R000340                   004634e0     TLoginSvr.res
 0004:000009b8       $R000818                   004639b8     TLoginSvr.res
 0004:000009f0       $R000850                   004639f0     TLoginSvr.res
