 TLoginSvr

 Timestamp is 6752140e (Thu Dec  5 22:58:54 2024)

 Preferred load address is 00400000

 Start         Length     Name                   Class
 0001:00000000 000001b0H .text$di                CODE
 0001:000001b0 0003bd50H .text$mn                CODE
 0001:0003bf00 00001970H .text$x                 CODE
 0001:0003d870 00000107H .text$yd                CODE
 0002:00000000 00000290H .idata$5                DATA
 0002:00000290 00000004H .00cfg                  DATA
 0002:00000294 00000004H .CRT$XCA                DATA
 0002:00000298 00000004H .CRT$XCAA               DATA
 0002:0000029c 0000002cH .CRT$XCC                DATA
 0002:000002c8 0000000cH .CRT$XCL                DATA
 0002:000002d4 00000008H .CRT$XCU                DATA
 0002:000002dc 00000004H .CRT$XCZ                DATA
 0002:000002e0 00000004H .CRT$XIA                DATA
 0002:000002e4 00000004H .CRT$XIAA               DATA
 0002:000002e8 00000004H .CRT$XIAC               DATA
 0002:000002ec 0000001cH .CRT$XIC                DATA
 0002:00000308 00000004H .CRT$XIZ                DATA
 0002:0000030c 00000004H .CRT$XLA                DATA
 0002:00000310 00000004H .CRT$XLZ                DATA
 0002:00000314 00000004H .CRT$XPA                DATA
 0002:00000318 00000008H .CRT$XPX                DATA
 0002:00000320 00000004H .CRT$XPXA               DATA
 0002:00000324 00000004H .CRT$XPZ                DATA
 0002:00000328 00000004H .CRT$XTA                DATA
 0002:0000032c 00000004H .CRT$XTZ                DATA
 0002:00000330 00000000H .gfids$y                DATA
 0002:00000330 0000d9e8H .rdata                  DATA
 0002:0000dd18 00000018H .rdata$T                DATA
 0002:0000dd30 000018b0H .rdata$r                DATA
 0002:0000f5e0 000001bcH .rdata$sxdata           DATA
 0002:0000f79c 00000418H .rdata$zzzdbg           DATA
 0002:0000fbb4 00000004H .rtc$IAA                DATA
 0002:0000fbb8 00000004H .rtc$IZZ                DATA
 0002:0000fbbc 00000004H .rtc$TAA                DATA
 0002:0000fbc0 00000004H .rtc$TZZ                DATA
 0002:0000fbc4 00000004H .tls                    DATA
 0002:0000fbc8 00000004H .tls$                   DATA
 0002:0000fbcc 00000004H .tls$ZZZ                DATA
 0002:0000fbd0 0000233cH .xdata$x                DATA
 0002:00011f0c 00000000H ATL$__a                 DATA
 0002:00011f0c 00000000H ATL$__z                 DATA
 0002:00011f0c 00000000H .edata                  DATA
 0002:00011f0c 0000008cH .idata$2                DATA
 0002:00011f98 00000014H .idata$3                DATA
 0002:00011fac 00000290H .idata$4                DATA
 0002:0001223c 000009ceH .idata$6                DATA
 0003:00000000 00000b28H .data                   DATA
 0003:00000b28 00000ad8H .data$r                 DATA
 0003:00001600 00011860H .bss                    DATA
 0004:00000000 000001a0H .rsrc$01                DATA
 0004:000001a0 000009d0H .rsrc$02                DATA

  Address         Publics by Value              Rva+Base       Lib:Object

 0000:00000000       ___guard_iat_count         00000000     <absolute>
 0000:00000000       ___guard_longjmp_table     00000000     <absolute>
 0000:00000000       ___hybrid_auxiliary_iat    00000000     <absolute>
 0000:00000000       ___hybrid_code_map_count   00000000     <absolute>
 0000:00000000       ___dynamic_value_reloc_table 00000000     <absolute>
 0000:00000000       ___guard_longjmp_count     00000000     <absolute>
 0000:00000000       ___guard_fids_table        00000000     <absolute>
 0000:00000000       ___volatile_metadata       00000000     <absolute>
 0000:00000000       ___guard_fids_count        00000000     <absolute>
 0000:00000000       ___guard_iat_table         00000000     <absolute>
 0000:00000000       __except_list              00000000     <absolute>
 0000:00000000       ___enclave_config          00000000     <absolute>
 0000:00000000       ___hybrid_code_map         00000000     <absolute>
 0000:0000002c       __tls_array                0000002c     <absolute>
 0000:0000006f       ___safe_se_handler_count   0000006f     <absolute>
 0000:00000100       ___guard_flags             00000100     <absolute>
 0000:00000000       ___ImageBase               00400000     <linker-defined>
 0001:000001b0       ___local_stdio_printf_options 004011b0 f i TServerSystem:TServerSystem.obj
 0001:000001c0       ??0exception@std@@QAE@QBD@Z 004011c0 f i TServerSystem:TServerSystem.obj
 0001:00000210       ??0exception@std@@QAE@ABV01@@Z 00401210 f i TServerSystem:TServerSystem.obj
 0001:00000240       ?what@exception@std@@UBEPBDXZ 00401240 f i TServerSystem:TServerSystem.obj
 0001:00000250       ??_Eruntime_error@std@@UAEPAXI@Z 00401250 f i * CIL library *:* CIL module *
 0001:00000250       ??_Eexception@std@@UAEPAXI@Z 00401250 f i * CIL library *:* CIL module *
 0001:00000250       ??_Gruntime_error@std@@UAEPAXI@Z 00401250 f i TServerSystem:TServerSystem.obj
 0001:00000250       ??_Gexception@std@@UAEPAXI@Z 00401250 f i TServerSystem:TServerSystem.obj
 0001:00000280       ??0runtime_error@std@@QAE@PBD@Z 00401280 f i TServerSystem:TServerSystem.obj
 0001:000002e0       ??1length_error@std@@UAE@XZ 004012e0 f i libcpmt:xthrow.obj
 0001:000002e0       ??1bad_exception@std@@UAE@XZ 004012e0 f i libvcruntime:frame.obj
 0001:000002e0       ??1bad_alloc@std@@UAE@XZ   004012e0 f i libcpmt:xthrow.obj
 0001:000002e0       ??1out_of_range@std@@UAE@XZ 004012e0 f i libcpmt:xthrow.obj
 0001:000002e0       ??1invalid_argument@std@@UAE@XZ 004012e0 f i libcpmt:xthrow.obj
 0001:000002e0       ??1runtime_error@std@@UAE@XZ 004012e0 f i TServerSystem:TServerSystem.obj
 0001:000002e0       ??1bad_array_new_length@std@@UAE@XZ 004012e0 f i LIBCMT:throw_bad_alloc.obj
 0001:000002e0       ??1failure@ios_base@std@@UAE@XZ 004012e0 f i TServerSystem:TServerSystem.obj
 0001:00000300       ??0_Locinfo@std@@QAE@PBD@Z 00401300 f i TServerSystem:TServerSystem.obj
 0001:000003c0       ??1_Locinfo@std@@QAE@XZ    004013c0 f i TServerSystem:TServerSystem.obj
 0001:00000490       ??0runtime_error@std@@QAE@ABV01@@Z 00401490 f i TServerSystem:TServerSystem.obj
 0001:000004d0       ??_E_Facet_base@std@@UAEPAXI@Z 004014d0 f i * CIL library *:* CIL module *
 0001:000004d0       ??_G_Facet_base@std@@UAEPAXI@Z 004014d0 f i TServerSystem:TServerSystem.obj
 0001:00000500       ?_Incref@facet@locale@std@@UAEXXZ 00401500 f i TServerSystem:TServerSystem.obj
 0001:00000510       ?_Decref@facet@locale@std@@UAEPAV_Facet_base@3@XZ 00401510 f i TServerSystem:TServerSystem.obj
 0001:00000530       ??1locale@std@@QAE@XZ      00401530 f i TServerSystem:TServerSystem.obj
 0001:00000580       ?GetNumParam@CSPAgreement@@UAEHXZ 00401580 f i DBAccess.obj
 0001:00000580       ?GetNumParam@CSPGetNation@@UAEHXZ 00401580 f i DBAccess.obj
 0001:00000580       ?GetNumParam@CTBLChar@@UAEHXZ 00401580 f i DBAccess.obj
 0001:00000580       ?do_max_length@codecvt_base@std@@MBEHXZ 00401580 f i TServerSystem:TServerSystem.obj
 0001:00000580       ?GetNumParam@CTBLChannel@@UAEHXZ 00401580 f i DBAccess.obj
 0001:00000580       ?GetNumParam@CTBLGroupList@@UAEHXZ 00401580 f i DBAccess.obj
 0001:00000580       ?do_encoding@codecvt_base@std@@MBEHXZ 00401580 f i TServerSystem:TServerSystem.obj
 0001:00000590       ?do_tolower@?$ctype@D@std@@MBEDD@Z 00401590 f i TServerSystem:TServerSystem.obj
 0001:000005b0       ?do_tolower@?$ctype@D@std@@MBEPBDPADPBD@Z 004015b0 f i TServerSystem:TServerSystem.obj
 0001:00000600       ?do_toupper@?$ctype@D@std@@MBEDD@Z 00401600 f i TServerSystem:TServerSystem.obj
 0001:00000620       ?do_toupper@?$ctype@D@std@@MBEPBDPADPBD@Z 00401620 f i TServerSystem:TServerSystem.obj
 0001:00000670       ?do_widen@?$ctype@D@std@@MBEDD@Z 00401670 f i TServerSystem:TServerSystem.obj
 0001:00000680       ?do_widen@?$ctype@D@std@@MBEPBDPBD0PAD@Z 00401680 f i TServerSystem:TServerSystem.obj
 0001:000006b0       ?do_narrow@?$ctype@D@std@@MBEDDD@Z 004016b0 f i TServerSystem:TServerSystem.obj
 0001:000006c0       ?do_narrow@?$ctype@D@std@@MBEPBDPBD0DPAD@Z 004016c0 f i TServerSystem:TServerSystem.obj
 0001:000006f0       ??_G?$ctype@D@std@@MAEPAXI@Z 004016f0 f i TServerSystem:TServerSystem.obj
 0001:000006f0       ??_E?$ctype@D@std@@MAEPAXI@Z 004016f0 f i * CIL library *:* CIL module *
 0001:00000750       ?default_error_condition@error_category@std@@UBE?AVerror_condition@2@H@Z 00401750 f i TServerSystem:TServerSystem.obj
 0001:00000770       ?equivalent@error_category@std@@UBE_NHABVerror_condition@2@@Z 00401770 f i TServerSystem:TServerSystem.obj
 0001:000007d0       ?equivalent@error_category@std@@UBE_NABVerror_code@2@H@Z 004017d0 f i TServerSystem:TServerSystem.obj
 0001:00000800       ?make_error_code@std@@YA?AVerror_code@1@W4io_errc@1@@Z 00401800 f i TServerSystem:TServerSystem.obj
 0001:00000840       ??0_System_error@std@@IAE@Verror_code@1@ABV?$basic_string@DU?$char_traits@D@std@@V?$allocator@D@2@@1@@Z 00401840 f i TServerSystem:TServerSystem.obj
 0001:00000a60       ??_Efailure@ios_base@std@@UAEPAXI@Z 00401a60 f i * CIL library *:* CIL module *
 0001:00000a60       ??_Gfailure@ios_base@std@@UAEPAXI@Z 00401a60 f i TServerSystem:TServerSystem.obj
 0001:00000a60       ??_Gsystem_error@std@@UAEPAXI@Z 00401a60 f i TServerSystem:TServerSystem.obj
 0001:00000a60       ??_Esystem_error@std@@UAEPAXI@Z 00401a60 f i * CIL library *:* CIL module *
 0001:00000a60       ??_E_System_error@std@@UAEPAXI@Z 00401a60 f i * CIL library *:* CIL module *
 0001:00000a60       ??_G_System_error@std@@UAEPAXI@Z 00401a60 f i TServerSystem:TServerSystem.obj
 0001:00000a90       ?name@_Iostream_error_category@std@@UBEPBDXZ 00401a90 f i TServerSystem:TServerSystem.obj
 0001:00000aa0       ?message@_Iostream_error_category@std@@UBE?AV?$basic_string@DU?$char_traits@D@std@@V?$allocator@D@2@@2@H@Z 00401aa0 f i TServerSystem:TServerSystem.obj
 0001:00000b20       ??_G_Iostream_error_category@std@@UAEPAXI@Z 00401b20 f i TServerSystem:TServerSystem.obj
 0001:00000b20       ??_E_Iostream_error_category@std@@UAEPAXI@Z 00401b20 f i * CIL library *:* CIL module *
 0001:00000b40       ??0failure@ios_base@std@@QAE@PBDABVerror_code@2@@Z 00401b40 f i TServerSystem:TServerSystem.obj
 0001:00000c10       ?clear@ios_base@std@@QAEXH_N@Z 00401c10 f i TServerSystem:TServerSystem.obj
 0001:00000c90       ??0failure@ios_base@std@@QAE@ABV012@@Z 00401c90 f i TServerSystem:TServerSystem.obj
 0001:00000ce0       ??0system_error@std@@QAE@ABV01@@Z 00401ce0 f i TServerSystem:TServerSystem.obj
 0001:00000d30       ??0_System_error@std@@QAE@ABV01@@Z 00401d30 f i TServerSystem:TServerSystem.obj
 0001:00000d80       ??_Eios_base@std@@UAEPAXI@Z 00401d80 f i * CIL library *:* CIL module *
 0001:00000d80       ??_Gios_base@std@@UAEPAXI@Z 00401d80 f i TServerSystem:TServerSystem.obj
 0001:00000de0       ?to_string@std@@YA?AV?$basic_string@DU?$char_traits@D@std@@V?$allocator@D@2@@1@H@Z 00401de0 f i TServerSystem:TServerSystem.obj
 0001:00000e90       ??$_Fputc@D@std@@YA_NDPAU_iobuf@@@Z 00401e90 f i TServerSystem:TServerSystem.obj
 0001:00000eb0       ??0TServerSystem@@QAE@V?$basic_string@DU?$char_traits@D@std@@V?$allocator@D@2@@std@@0@Z 00401eb0 f   TServerSystem:TServerSystem.obj
 0001:00001370       ??1TServerSystem@@QAE@XZ   00402370 f   TServerSystem:TServerSystem.obj
 0001:00001520       ?SSLogInfo@TServerSystem@@IAEXV?$basic_string@DU?$char_traits@D@std@@V?$allocator@D@2@@std@@H@Z 00402520 f   TServerSystem:TServerSystem.obj
 0001:00001650       ?SSLogInfo@TServerSystem@@IAEXPADH@Z 00402650 f   TServerSystem:TServerSystem.obj
 0001:000016a0       ?SSLogEvent@TServerSystem@@IAAXIPBDZZ 004026a0 f   TServerSystem:TServerSystem.obj
 0001:000017a0       ?SSLogError@TServerSystem@@IAEXV?$basic_string@DU?$char_traits@D@std@@V?$allocator@D@2@@std@@H@Z 004027a0 f   TServerSystem:TServerSystem.obj
 0001:000018d0       ?DisplayIni@TServerSystem@@IAEXXZ 004028d0 f   TServerSystem:TServerSystem.obj
 0001:00001bf0       ?LoadIntFromIni@TServerSystem@@IAEXV?$basic_string@DU?$char_traits@D@std@@V?$allocator@D@2@@std@@HAAH@Z 00402bf0 f   TServerSystem:TServerSystem.obj
 0001:00001f30       ?LoadStringFromIni@TServerSystem@@IAEXV?$basic_string@DU?$char_traits@D@std@@V?$allocator@D@2@@std@@0AAV23@@Z 00402f30 f   TServerSystem:TServerSystem.obj
 0001:00002130       ?OnEnter@TServerSystem@@MAEKXZ 00403130 f   TServerSystem:TServerSystem.obj
 0001:00002140       ?OnExit@TServerSystem@@MAEXXZ 00403140 f   TServerSystem:TServerSystem.obj
 0001:00002180       ?StartServer@TServerSystem@@QAEXXZ 00403180 f   TServerSystem:TServerSystem.obj
 0001:000021d0       ?ExitServer@TServerSystem@@QAEXXZ 004031d0 f   TServerSystem:TServerSystem.obj
 0001:00002220       ?StartupError@TServerSystem@@IAEXK@Z 00403220 f   TServerSystem:TServerSystem.obj
 0001:000023e0       ??1?$vector@V?$vector@V?$basic_string@DU?$char_traits@D@std@@V?$allocator@D@2@@std@@V?$allocator@V?$basic_string@DU?$char_traits@D@std@@V?$allocator@D@2@@std@@@2@@std@@V?$allocator@V?$vector@V?$basic_string@DU?$char_traits@D@std@@V?$allocator@D@2@@std@@V?$allocator@V?$basic_string@DU?$char_traits@D@std@@V?$allocator@D@2@@std@@@2@@std@@@2@@std@@QAE@XZ 004033e0 f i TServerSystem:TServerSystem.obj
 0001:00002460       ??1?$vector@V?$basic_string@DU?$char_traits@D@std@@V?$allocator@D@2@@std@@V?$allocator@V?$basic_string@DU?$char_traits@D@std@@V?$allocator@D@2@@std@@@2@@std@@QAE@XZ 00403460 f i TServerSystem:TServerSystem.obj
 0001:00002470       ??0?$vector@V?$basic_string@DU?$char_traits@D@std@@V?$allocator@D@2@@std@@V?$allocator@V?$basic_string@DU?$char_traits@D@std@@V?$allocator@D@2@@std@@@2@@std@@QAE@ABV01@@Z 00403470 f i TServerSystem:TServerSystem.obj
 0001:000025d0       ??1?$_Yarn@D@std@@QAE@XZ   004035d0 f i TServerSystem:TServerSystem.obj
 0001:000025d0       ??1?$_Yarn@_W@std@@QAE@XZ  004035d0 f i TServerSystem:TServerSystem.obj
 0001:000025f0       ??1?$pair@$$CBV?$basic_string@DU?$char_traits@D@std@@V?$allocator@D@2@@std@@PAVCSqlQuery@@@std@@QAE@XZ 004035f0 f i TNetLib:SqlDatabase.obj
 0001:000025f0       ??1?$basic_string@DU?$char_traits@D@std@@V?$allocator@D@2@@std@@QAE@XZ 004035f0 f i TServerSystem:TServerSystem.obj
 0001:00002640       ??4?$basic_string@DU?$char_traits@D@std@@V?$allocator@D@2@@std@@QAEAAV01@$$QAV01@@Z 00403640 f i TServerSystem:TServerSystem.obj
 0001:000026c0       ??0?$basic_string@DU?$char_traits@D@std@@V?$allocator@D@2@@std@@QAE@QBD@Z 004036c0 f i TServerSystem:TServerSystem.obj
 0001:00002700       ??0?$basic_string@DU?$char_traits@D@std@@V?$allocator@D@2@@std@@QAE@ABV01@@Z 00403700 f i TServerSystem:TServerSystem.obj
 0001:000027d0       ?imbue@?$basic_filebuf@DU?$char_traits@D@std@@@std@@MAEXABVlocale@2@@Z 004037d0 f i TServerSystem:TServerSystem.obj
 0001:000027f0       ?sync@?$basic_filebuf@DU?$char_traits@D@std@@@std@@MAEHXZ 004037f0 f i TServerSystem:TServerSystem.obj
 0001:00002820       ?setbuf@?$basic_filebuf@DU?$char_traits@D@std@@@std@@MAEPAV?$basic_streambuf@DU?$char_traits@D@std@@@2@PAD_J@Z 00403820 f i TServerSystem:TServerSystem.obj
 0001:00002870       ?seekpos@?$basic_filebuf@DU?$char_traits@D@std@@@std@@MAE?AV?$fpos@U_Mbstatet@@@2@V32@H@Z 00403870 f i TServerSystem:TServerSystem.obj
 0001:00002950       ?seekoff@?$basic_filebuf@DU?$char_traits@D@std@@@std@@MAE?AV?$fpos@U_Mbstatet@@@2@_JHH@Z 00403950 f i TServerSystem:TServerSystem.obj
 0001:00002a70       ?xsputn@?$basic_filebuf@DU?$char_traits@D@std@@@std@@MAE_JPBD_J@Z 00403a70 f i TServerSystem:TServerSystem.obj
 0001:00002b60       ?xsgetn@?$basic_filebuf@DU?$char_traits@D@std@@@std@@MAE_JPAD_J@Z 00403b60 f i TServerSystem:TServerSystem.obj
 0001:00002c70       ?uflow@?$basic_filebuf@DU?$char_traits@D@std@@@std@@MAEHXZ 00403c70 f i TServerSystem:TServerSystem.obj
 0001:00002f20       ?underflow@?$basic_filebuf@DU?$char_traits@D@std@@@std@@MAEHXZ 00403f20 f i TServerSystem:TServerSystem.obj
 0001:00002ff0       ?pbackfail@?$basic_filebuf@DU?$char_traits@D@std@@@std@@MAEHH@Z 00403ff0 f i TServerSystem:TServerSystem.obj
 0001:000030a0       ?overflow@?$basic_filebuf@DU?$char_traits@D@std@@@std@@MAEHH@Z 004040a0 f i TServerSystem:TServerSystem.obj
 0001:00003220       ?_Unlock@?$basic_filebuf@DU?$char_traits@D@std@@@std@@UAEXXZ 00404220 f i TServerSystem:TServerSystem.obj
 0001:00003230       ?_Lock@?$basic_filebuf@DU?$char_traits@D@std@@@std@@UAEXXZ 00404230 f i TServerSystem:TServerSystem.obj
 0001:00003240       ??1?$basic_filebuf@DU?$char_traits@D@std@@@std@@UAE@XZ 00404240 f i TServerSystem:TServerSystem.obj
 0001:00003380       ?imbue@?$basic_streambuf@DU?$char_traits@D@std@@@std@@MAEXABVlocale@2@@Z 00404380 f i TServerSystem:TServerSystem.obj
 0001:00003380       ?OnERROR@CTLoginSvrModule@@MAEXK@Z 00404380 f i TLoginSvr.obj
 0001:00003390       __get_startup_thread_locale_mode 00404390 f i LIBCMT:thread_locale.obj
 0001:00003390       ?sync@?$basic_streambuf@DU?$char_traits@D@std@@@std@@MAEHXZ 00404390 f i TServerSystem:TServerSystem.obj
 0001:00003390       __get_startup_new_mode     00404390 f i LIBCMT:new_mode.obj
 0001:00003390       ?GetNumParam@CSqlBase@@UAEHXZ 00404390 f i TNetLib:SqlBase.obj
 0001:00003390       ?BindColumns@CSqlQuery@@UAEFXZ 00404390 f i TNetLib:SqlQuery.obj
 0001:00003390       ?GetNumCol@CSqlBase@@UAEHXZ 00404390 f i TNetLib:SqlBase.obj
 0001:00003390       ___scrt_exe_initialize_mta 00404390 f i LIBCMT:utility_desktop.obj
 0001:00003390       __get_startup_commit_mode  00404390 f i LIBCMT:commit_mode.obj
 0001:00003390       ___scrt_stub_for_initialize_mta 00404390 f i LIBCMT:utility_desktop.obj
 0001:00003390       __matherr                  00404390 f i LIBCMT:matherr.obj
 0001:00003390       ___scrt_initialize_winrt   00404390 f i LIBCMT:utility_desktop.obj
 0001:000033a0       ?setbuf@?$basic_streambuf@DU?$char_traits@D@std@@@std@@MAEPAV12@PAD_J@Z 004043a0 f i TServerSystem:TServerSystem.obj
 0001:000033b0       ?seekpos@?$basic_streambuf@DU?$char_traits@D@std@@@std@@MAE?AV?$fpos@U_Mbstatet@@@2@V32@H@Z 004043b0 f i TServerSystem:TServerSystem.obj
 0001:000033e0       ?seekoff@?$basic_streambuf@DU?$char_traits@D@std@@@std@@MAE?AV?$fpos@U_Mbstatet@@@2@_JHH@Z 004043e0 f i TServerSystem:TServerSystem.obj
 0001:00003410       ?xsputn@?$basic_streambuf@DU?$char_traits@D@std@@@std@@MAE_JPBD_J@Z 00404410 f i TServerSystem:TServerSystem.obj
 0001:000034f0       ?xsgetn@?$basic_streambuf@DU?$char_traits@D@std@@@std@@MAE_JPAD_J@Z 004044f0 f i TServerSystem:TServerSystem.obj
 0001:000035d0       ?uflow@?$basic_streambuf@DU?$char_traits@D@std@@@std@@MAEHXZ 004045d0 f i TServerSystem:TServerSystem.obj
 0001:00003600       ?underflow@?$basic_streambuf@DU?$char_traits@D@std@@@std@@MAEHXZ 00404600 f i TServerSystem:TServerSystem.obj
 0001:00003610       ?showmanyc@?$basic_streambuf@DU?$char_traits@D@std@@@std@@MAE_JXZ 00404610 f i TServerSystem:TServerSystem.obj
 0001:00003620       ?pbackfail@?$basic_streambuf@DU?$char_traits@D@std@@@std@@MAEHH@Z 00404620 f i TServerSystem:TServerSystem.obj
 0001:00003620       ?overflow@?$basic_streambuf@DU?$char_traits@D@std@@@std@@MAEHH@Z 00404620 f i TServerSystem:TServerSystem.obj
 0001:00003630       __initialize_invalid_parameter_handler 00404630 f i LIBCMT:invalid_parameter_handler.obj
 0001:00003630       ?_Unlock@?$basic_streambuf@DU?$char_traits@D@std@@@std@@UAEXXZ 00404630 f i TServerSystem:TServerSystem.obj
 0001:00003630       @_guard_check_icall_nop@4  00404630 f i LIBCMT:guard_support.obj
 0001:00003630       ?_Lock@?$basic_streambuf@DU?$char_traits@D@std@@@std@@UAEXXZ 00404630 f i TServerSystem:TServerSystem.obj
 0001:00003630       __initialize_denormal_control 00404630 f i LIBCMT:denormal_control.obj
 0001:00003640       ??1?$basic_ios@DU?$char_traits@D@std@@@std@@UAE@XZ 00404640 f i TServerSystem:TServerSystem.obj
 0001:00003690       ??_E?$basic_filebuf@DU?$char_traits@D@std@@@std@@UAEPAXI@Z 00404690 f i * CIL library *:* CIL module *
 0001:00003690       ??_G?$basic_filebuf@DU?$char_traits@D@std@@@std@@UAEPAXI@Z 00404690 f i TServerSystem:TServerSystem.obj
 0001:000036c0       ??_G?$basic_ostream@DU?$char_traits@D@std@@@std@@UAEPAXI@Z 004046c0 f i TServerSystem:TServerSystem.obj
 0001:000036c0       ??_E?$basic_ostream@DU?$char_traits@D@std@@@std@@UAEPAXI@Z 004046c0 f i * CIL library *:* CIL module *
 0001:00003740       ??_G?$basic_streambuf@DU?$char_traits@D@std@@@std@@UAEPAXI@Z 00404740 f i TServerSystem:TServerSystem.obj
 0001:00003740       ??_E?$basic_streambuf@DU?$char_traits@D@std@@@std@@UAEPAXI@Z 00404740 f i * CIL library *:* CIL module *
 0001:000037d0       ??_E?$basic_ios@DU?$char_traits@D@std@@@std@@UAEPAXI@Z 004047d0 f i * CIL library *:* CIL module *
 0001:000037d0       ??_G?$basic_ios@DU?$char_traits@D@std@@@std@@UAEPAXI@Z 004047d0 f i TServerSystem:TServerSystem.obj
 0001:00003830       ??_D?$basic_ostream@DU?$char_traits@D@std@@@std@@QAEXXZ 00404830 f i TServerSystem:TServerSystem.obj
 0001:000038a0       ?do_length@?$codecvt@DDU_Mbstatet@@@std@@MBEHAAU_Mbstatet@@PBD1I@Z 004048a0 f i TServerSystem:TServerSystem.obj
 0001:000038c0       ?do_unshift@?$codecvt@DDU_Mbstatet@@@std@@MBEHAAU_Mbstatet@@PAD1AAPAD@Z 004048c0 f i TServerSystem:TServerSystem.obj
 0001:000038e0       ?do_in@?$codecvt@DDU_Mbstatet@@@std@@MBEHAAU_Mbstatet@@PBD1AAPBDPAD3AAPAD@Z 004048e0 f i TServerSystem:TServerSystem.obj
 0001:000038e0       ?do_out@?$codecvt@DDU_Mbstatet@@@std@@MBEHAAU_Mbstatet@@PBD1AAPBDPAD3AAPAD@Z 004048e0 f i TServerSystem:TServerSystem.obj
 0001:00003900       ?do_always_noconv@?$codecvt@DDU_Mbstatet@@@std@@MBE_NXZ 00404900 f i TServerSystem:TServerSystem.obj
 0001:00003900       ___acrt_uninitialize_command_line 00404900 f i libucrt:argv_data.obj
 0001:00003900       __should_initialize_environment 00404900 f i LIBCMT:env_mode.obj
 0001:00003910       ??1sentry@?$basic_ostream@DU?$char_traits@D@std@@@std@@QAE@XZ 00404910 f i TServerSystem:TServerSystem.obj
 0001:00003980       ??0sentry@?$basic_ostream@DU?$char_traits@D@std@@@std@@QAE@AAV12@@Z 00404980 f i TServerSystem:TServerSystem.obj
 0001:00003a10       ?_Xrange@?$vector@V?$basic_string@DU?$char_traits@D@std@@V?$allocator@D@2@@std@@V?$allocator@V?$basic_string@DU?$char_traits@D@std@@V?$allocator@D@2@@std@@@2@@std@@CAXXZ 00404a10 f i TServerSystem:TServerSystem.obj
 0001:00003a10       ?_Xrange@?$vector@V?$vector@V?$basic_string@DU?$char_traits@D@std@@V?$allocator@D@2@@std@@V?$allocator@V?$basic_string@DU?$char_traits@D@std@@V?$allocator@D@2@@std@@@2@@std@@V?$allocator@V?$vector@V?$basic_string@DU?$char_traits@D@std@@V?$allocator@D@2@@std@@V?$allocator@V?$basic_string@DU?$char_traits@D@std@@V?$allocator@D@2@@std@@@2@@std@@@2@@std@@CAXXZ 00404a10 f i TServerSystem:TServerSystem.obj
 0001:00003a20       ?_Tidy@?$vector@V?$basic_string@DU?$char_traits@D@std@@V?$allocator@D@2@@std@@V?$allocator@V?$basic_string@DU?$char_traits@D@std@@V?$allocator@D@2@@std@@@2@@std@@AAEXXZ 00404a20 f i TServerSystem:TServerSystem.obj
 0001:00003aa0       ?assign@?$basic_string@DU?$char_traits@D@std@@V?$allocator@D@2@@std@@QAEAAV12@QBDI@Z 00404aa0 f i TServerSystem:TServerSystem.obj
 0001:00003be0       ?_Reset_back@?$basic_filebuf@DU?$char_traits@D@std@@@std@@AAEXXZ 00404be0 f i TServerSystem:TServerSystem.obj
 0001:00003c10       ?_Initcvt@?$basic_filebuf@DU?$char_traits@D@std@@@std@@IAEXABV?$codecvt@DDU_Mbstatet@@@2@@Z 00404c10 f i TServerSystem:TServerSystem.obj
 0001:00003ca0       ?_Endwrite@?$basic_filebuf@DU?$char_traits@D@std@@@std@@IAE_NXZ 00404ca0 f i TServerSystem:TServerSystem.obj
 0001:00003d70       ?_Init@?$basic_filebuf@DU?$char_traits@D@std@@@std@@IAEXPAU_iobuf@@W4_Initfl@12@@Z 00404d70 f i TServerSystem:TServerSystem.obj
 0001:00003e70       ?allocate@?$allocator@D@std@@QAEPADI@Z 00404e70 f i TServerSystem:TServerSystem.obj
 0001:00003ed0       ??0?$basic_ostream@DU?$char_traits@D@std@@@std@@QAE@PAV?$basic_streambuf@DU?$char_traits@D@std@@@1@_N@Z 00404ed0 f i TServerSystem:TServerSystem.obj
 0001:00004020       ?_Pnavail@?$basic_streambuf@DU?$char_traits@D@std@@@std@@IBE_JXZ 00405020 f i TServerSystem:TServerSystem.obj
 0001:00004040       ?_Gnavail@?$basic_streambuf@DU?$char_traits@D@std@@@std@@IBE_JXZ 00405040 f i TServerSystem:TServerSystem.obj
 0001:00004060       ?setstate@?$basic_ios@DU?$char_traits@D@std@@@std@@QAEXH_N@Z 00405060 f i TServerSystem:TServerSystem.obj
 0001:00004090       ??_G?$codecvt@DDU_Mbstatet@@@std@@MAEPAXI@Z 00405090 f i TServerSystem:TServerSystem.obj
 0001:00004090       ??_E?$codecvt@DDU_Mbstatet@@@std@@MAEPAXI@Z 00405090 f i * CIL library *:* CIL module *
 0001:000040c0       ??1_Sentry_base@?$basic_istream@DU?$char_traits@D@std@@@std@@QAE@XZ 004050c0 f i mailer.obj
 0001:000040c0       ??1_Sentry_base@?$basic_ostream@DU?$char_traits@D@std@@@std@@QAE@XZ 004050c0 f i TServerSystem:TServerSystem.obj
 0001:00004110       ?_Destroy@?$vector@V?$vector@V?$basic_string@DU?$char_traits@D@std@@V?$allocator@D@2@@std@@V?$allocator@V?$basic_string@DU?$char_traits@D@std@@V?$allocator@D@2@@std@@@2@@std@@V?$allocator@V?$vector@V?$basic_string@DU?$char_traits@D@std@@V?$allocator@D@2@@std@@V?$allocator@V?$basic_string@DU?$char_traits@D@std@@V?$allocator@D@2@@std@@@2@@std@@@2@@std@@AAEXPAV?$vector@V?$basic_string@DU?$char_traits@D@std@@V?$allocator@D@2@@std@@V?$allocator@V?$basic_string@DU?$char_traits@D@std@@V?$allocator@D@2@@std@@@2@@2@0@Z 00405110 f i TServerSystem:TServerSystem.obj
 0001:00004140       ?deallocate@?$allocator@V?$vector@V?$basic_string@DU?$char_traits@D@std@@V?$allocator@D@2@@std@@V?$allocator@V?$basic_string@DU?$char_traits@D@std@@V?$allocator@D@2@@std@@@2@@std@@@std@@QAEXQAV?$vector@V?$basic_string@DU?$char_traits@D@std@@V?$allocator@D@2@@std@@V?$allocator@V?$basic_string@DU?$char_traits@D@std@@V?$allocator@D@2@@std@@@2@@2@I@Z 00405140 f i TServerSystem:TServerSystem.obj
 0001:00004180       ?_Xlength@?$vector@UtagMONREGEN@@V?$allocator@UtagMONREGEN@@@std@@@std@@CAXXZ 00405180 f i CSHandler.obj
 0001:00004180       ?_Xlength@?$vector@PAUtagTITEM@@V?$allocator@PAUtagTITEM@@@std@@@std@@CAXXZ 00405180 f i CSHandler.obj
 0001:00004180       ?_Xlength@?$vector@PAUtagTCHAR@@V?$allocator@PAUtagTCHAR@@@std@@@std@@CAXXZ 00405180 f i CSHandler.obj
 0001:00004180       ?_Xlength@?$vector@UtagTCASHITEMSALE@@V?$allocator@UtagTCASHITEMSALE@@@std@@@std@@CAXXZ 00405180 f i CSHandler.obj
 0001:00004180       ?_Xlength@?$vector@V?$basic_string@DU?$char_traits@D@std@@V?$allocator@D@2@@std@@V?$allocator@V?$basic_string@DU?$char_traits@D@std@@V?$allocator@D@2@@std@@@2@@std@@CAXXZ 00405180 f i TServerSystem:TServerSystem.obj
 0001:00004180       ?_Xlength@?$vector@GV?$allocator@G@std@@@std@@CAXXZ 00405180 f i CSHandler.obj
 0001:00004180       ?_Xlength@?$vector@V?$vector@V?$basic_string@DU?$char_traits@D@std@@V?$allocator@D@2@@std@@V?$allocator@V?$basic_string@DU?$char_traits@D@std@@V?$allocator@D@2@@std@@@2@@std@@V?$allocator@V?$vector@V?$basic_string@DU?$char_traits@D@std@@V?$allocator@D@2@@std@@V?$allocator@V?$basic_string@DU?$char_traits@D@std@@V?$allocator@D@2@@std@@@2@@std@@@2@@std@@CAXXZ 00405180 f i TServerSystem:TServerSystem.obj
 0001:00004180       ?_Xlength@?$vector@UtagLOTTERY@@V?$allocator@UtagLOTTERY@@@std@@@std@@CAXXZ 00405180 f i CSHandler.obj
 0001:00004180       ?_Xlength@?$vector@UtagTVETERAN@@V?$allocator@UtagTVETERAN@@@std@@@std@@CAXXZ 00405180 f i TLoginSvr.obj
 0001:00004190       ?_Destroy@?$vector@V?$basic_string@DU?$char_traits@D@std@@V?$allocator@D@2@@std@@V?$allocator@V?$basic_string@DU?$char_traits@D@std@@V?$allocator@D@2@@std@@@2@@std@@AAEXPAV?$basic_string@DU?$char_traits@D@std@@V?$allocator@D@2@@2@0@Z 00405190 f i TServerSystem:TServerSystem.obj
 0001:000041b0       ?deallocate@?$allocator@V?$basic_string@DU?$char_traits@D@std@@V?$allocator@D@2@@std@@@std@@QAEXQAV?$basic_string@DU?$char_traits@D@std@@V?$allocator@D@2@@2@I@Z 004051b0 f i TServerSystem:TServerSystem.obj
 0001:000041f0       ?flush@?$basic_ostream@DU?$char_traits@D@std@@@std@@QAEAAV12@XZ 004051f0 f i TServerSystem:TServerSystem.obj
 0001:000042c0       ?_Osfx@?$basic_ostream@DU?$char_traits@D@std@@@std@@QAEXXZ 004052c0 f i TServerSystem:TServerSystem.obj
 0001:00004350       ??0?$basic_streambuf@DU?$char_traits@D@std@@@std@@IAE@XZ 00405350 f i TServerSystem:TServerSystem.obj
 0001:00004410       ?widen@?$basic_ios@DU?$char_traits@D@std@@@std@@QBEDD@Z 00405410 f i TServerSystem:TServerSystem.obj
 0001:000044b0       ??$use_facet@V?$ctype@D@std@@@std@@YAABV?$ctype@D@0@ABVlocale@0@@Z 004054b0 f i TServerSystem:TServerSystem.obj
 0001:00004650       ??1?$CSimpleIniTempl@DU?$SI_NoCase@D@@V?$SI_ConvertA@D@@@@QAE@XZ 00405650 f i TServerSystem:TServerSystem.obj
 0001:00004750       ?GetValue@?$CSimpleIniTempl@DU?$SI_NoCase@D@@V?$SI_ConvertA@D@@@@QBEPBDPBD00PA_N@Z 00405750 f i TServerSystem:TServerSystem.obj
 0001:00004850       ??$?HDU?$char_traits@D@std@@V?$allocator@D@1@@std@@YA?AV?$basic_string@DU?$char_traits@D@std@@V?$allocator@D@2@@0@ABV10@QBD@Z 00405850 f i TServerSystem:TServerSystem.obj
 0001:000049a0       ??$?HDU?$char_traits@D@std@@V?$allocator@D@1@@std@@YA?AV?$basic_string@DU?$char_traits@D@std@@V?$allocator@D@2@@0@QBDABV10@@Z 004059a0 f i TServerSystem:TServerSystem.obj
 0001:00004af0       ??$?6U?$char_traits@D@std@@@std@@YAAAV?$basic_ostream@DU?$char_traits@D@std@@@0@AAV10@PBD@Z 00405af0 f i TServerSystem:TServerSystem.obj
 0001:00004da0       ??$endl@DU?$char_traits@D@std@@@std@@YAAAV?$basic_ostream@DU?$char_traits@D@std@@@0@AAV10@@Z 00405da0 f i TServerSystem:TServerSystem.obj
 0001:00004de0       ??$_Emplace_reallocate@ABV?$vector@V?$basic_string@DU?$char_traits@D@std@@V?$allocator@D@2@@std@@V?$allocator@V?$basic_string@DU?$char_traits@D@std@@V?$allocator@D@2@@std@@@2@@std@@@?$vector@V?$vector@V?$basic_string@DU?$char_traits@D@std@@V?$allocator@D@2@@std@@V?$allocator@V?$basic_string@DU?$char_traits@D@std@@V?$allocator@D@2@@std@@@2@@std@@V?$allocator@V?$vector@V?$basic_string@DU?$char_traits@D@std@@V?$allocator@D@2@@std@@V?$allocator@V?$basic_string@DU?$char_traits@D@std@@V?$allocator@D@2@@std@@@2@@std@@@2@@std@@QAEPAV?$vector@V?$basic_string@DU?$char_traits@D@std@@V?$allocator@D@2@@std@@V?$allocator@V?$basic_string@DU?$char_traits@D@std@@V?$allocator@D@2@@std@@@2@@1@QAV21@ABV21@@Z 00405de0 f i TServerSystem:TServerSystem.obj
 0001:00005000       ??$_Emplace_reallocate@V?$basic_string@DU?$char_traits@D@std@@V?$allocator@D@2@@std@@@?$vector@V?$basic_string@DU?$char_traits@D@std@@V?$allocator@D@2@@std@@V?$allocator@V?$basic_string@DU?$char_traits@D@std@@V?$allocator@D@2@@std@@@2@@std@@QAEPAV?$basic_string@DU?$char_traits@D@std@@V?$allocator@D@2@@1@QAV21@$$QAV21@@Z 00406000 f i TServerSystem:TServerSystem.obj
 0001:00005180       ??$_Emplace_reallocate@ABV?$basic_string@DU?$char_traits@D@std@@V?$allocator@D@2@@std@@@?$vector@V?$basic_string@DU?$char_traits@D@std@@V?$allocator@D@2@@std@@V?$allocator@V?$basic_string@DU?$char_traits@D@std@@V?$allocator@D@2@@std@@@2@@std@@QAEPAV?$basic_string@DU?$char_traits@D@std@@V?$allocator@D@2@@1@QAV21@ABV21@@Z 00406180 f i TServerSystem:TServerSystem.obj
 0001:00005340       ??$use_facet@V?$codecvt@DDU_Mbstatet@@@std@@@std@@YAABV?$codecvt@DDU_Mbstatet@@@0@ABVlocale@0@@Z 00406340 f i TServerSystem:TServerSystem.obj
 0001:000054a0       ??$_Reallocate_grow_by@V<lambda_15711c68e099a15a58f4d77303cb286d>@@D@?$basic_string@DU?$char_traits@D@std@@V?$allocator@D@2@@std@@QAEAAV01@IV<lambda_15711c68e099a15a58f4d77303cb286d>@@D@Z 004064a0 f i TServerSystem:TServerSystem.obj
 0001:000055e0       ??$_Reallocate_grow_by@V<lambda_ab246b20b9526e2ef7792587e4298a77>@@PBDI@?$basic_string@DU?$char_traits@D@std@@V?$allocator@D@2@@std@@QAEAAV01@IV<lambda_ab246b20b9526e2ef7792587e4298a77>@@PBDI@Z 004065e0 f i TServerSystem:TServerSystem.obj
 0001:00005740       ??$_Destroy_range@V?$allocator@V?$basic_string@DU?$char_traits@D@std@@V?$allocator@D@2@@std@@@std@@@std@@YAXPAV?$basic_string@DU?$char_traits@D@std@@V?$allocator@D@2@@0@0AAV?$allocator@V?$basic_string@DU?$char_traits@D@std@@V?$allocator@D@2@@std@@@0@@Z 00406740 f i TServerSystem:TServerSystem.obj
 0001:000057b0       ??1?$map@UEntry@?$CSimpleIniTempl@DU?$SI_NoCase@D@@V?$SI_ConvertA@D@@@@V?$multimap@UEntry@?$CSimpleIniTempl@DU?$SI_NoCase@D@@V?$SI_ConvertA@D@@@@PBDUKeyOrder@12@V?$allocator@U?$pair@$$CBUEntry@?$CSimpleIniTempl@DU?$SI_NoCase@D@@V?$SI_ConvertA@D@@@@PBD@std@@@std@@@std@@UKeyOrder@12@V?$allocator@U?$pair@$$CBUEntry@?$CSimpleIniTempl@DU?$SI_NoCase@D@@V?$SI_ConvertA@D@@@@V?$multimap@UEntry@?$CSimpleIniTempl@DU?$SI_NoCase@D@@V?$SI_ConvertA@D@@@@PBDUKeyOrder@12@V?$allocator@U?$pair@$$CBUEntry@?$CSimpleIniTempl@DU?$SI_NoCase@D@@V?$SI_ConvertA@D@@@@PBD@std@@@std@@@std@@@std@@@4@@std@@QAE@XZ 004067b0 f i TServerSystem:TServerSystem.obj
 0001:000057e0       ??1?$unique_ptr@V_Facet_base@std@@U?$default_delete@V_Facet_base@std@@@2@@std@@QAE@XZ 004067e0 f i TServerSystem:TServerSystem.obj
 0001:000057f0       ?_Change_array@?$vector@V?$basic_string@DU?$char_traits@D@std@@V?$allocator@D@2@@std@@V?$allocator@V?$basic_string@DU?$char_traits@D@std@@V?$allocator@D@2@@std@@@2@@std@@AAEXQAV?$basic_string@DU?$char_traits@D@std@@V?$allocator@D@2@@2@II@Z 004067f0 f i TServerSystem:TServerSystem.obj
 0001:00005880       ?_Xlen@?$basic_string@DU?$char_traits@D@std@@V?$allocator@D@2@@std@@SAXXZ 00406880 f i TServerSystem:TServerSystem.obj
 0001:00005890       ?reserve@?$basic_string@DU?$char_traits@D@std@@V?$allocator@D@2@@std@@QAEXI@Z 00406890 f i TServerSystem:TServerSystem.obj
 0001:00005a30       ?put@?$basic_ostream@DU?$char_traits@D@std@@@std@@QAEAAV12@D@Z 00406a30 f i TServerSystem:TServerSystem.obj
 0001:00005bb0       ?sputn@?$basic_streambuf@DU?$char_traits@D@std@@@std@@QAE_JPBD_J@Z 00406bb0 f i TServerSystem:TServerSystem.obj
 0001:00005bd0       ?erase@?$_Tree@V?$_Tmap_traits@UEntry@?$CSimpleIniTempl@DU?$SI_NoCase@D@@V?$SI_ConvertA@D@@@@V?$multimap@UEntry@?$CSimpleIniTempl@DU?$SI_NoCase@D@@V?$SI_ConvertA@D@@@@PBDUKeyOrder@12@V?$allocator@U?$pair@$$CBUEntry@?$CSimpleIniTempl@DU?$SI_NoCase@D@@V?$SI_ConvertA@D@@@@PBD@std@@@std@@@std@@UKeyOrder@12@V?$allocator@U?$pair@$$CBUEntry@?$CSimpleIniTempl@DU?$SI_NoCase@D@@V?$SI_ConvertA@D@@@@V?$multimap@UEntry@?$CSimpleIniTempl@DU?$SI_NoCase@D@@V?$SI_ConvertA@D@@@@PBDUKeyOrder@12@V?$allocator@U?$pair@$$CBUEntry@?$CSimpleIniTempl@DU?$SI_NoCase@D@@V?$SI_ConvertA@D@@@@PBD@std@@@std@@@std@@@std@@@4@$0A@@std@@@std@@QAE?AV?$_Tree_iterator@V?$_Tree_val@U?$_Tree_simple_types@U?$pair@$$CBUEntry@?$CSimpleIniTempl@DU?$SI_NoCase@D@@V?$SI_ConvertA@D@@@@V?$multimap@UEntry@?$CSimpleIniTempl@DU?$SI_NoCase@D@@V?$SI_ConvertA@D@@@@PBDUKeyOrder@12@V?$allocator@U?$pair@$$CBUEntry@?$CSimpleIniTempl@DU?$SI_NoCase@D@@V?$SI_ConvertA@D@@@@PBD@std@@@std@@@std@@@std@@@std@@@std@@@2@V?$_Tree_const_iterator@V?$_Tree_val@U?$_Tree_simple_types@U?$pair@$$CBUEntry@?$CSimpleIniTempl@DU?$SI_NoCase@D@@V?$SI_ConvertA@D@@@@V?$multimap@UEntry@?$CSimpleIniTempl@DU?$SI_NoCase@D@@V?$SI_ConvertA@D@@@@PBDUKeyOrder@12@V?$allocator@U?$pair@$$CBUEntry@?$CSimpleIniTempl@DU?$SI_NoCase@D@@V?$SI_ConvertA@D@@@@PBD@std@@@std@@@std@@@std@@@std@@@std@@@2@0@Z 00406bd0 f i TServerSystem:TServerSystem.obj
 0001:00005d20       ?_Buynode0@?$_List_alloc@U?$_List_base_types@UEntry@?$CSimpleIniTempl@DU?$SI_NoCase@D@@V?$SI_ConvertA@D@@@@V?$allocator@UEntry@?$CSimpleIniTempl@DU?$SI_NoCase@D@@V?$SI_ConvertA@D@@@@@std@@@std@@@std@@QAEPAU?$_List_node@UEntry@?$CSimpleIniTempl@DU?$SI_NoCase@D@@V?$SI_ConvertA@D@@@@PAX@2@PAU32@0@Z 00406d20 f i TServerSystem:TServerSystem.obj
 0001:00005d50       ?_Extract@?$_Tree_val@U?$_Tree_simple_types@U?$pair@$$CBUEntry@?$CSimpleIniTempl@DU?$SI_NoCase@D@@V?$SI_ConvertA@D@@@@V?$multimap@UEntry@?$CSimpleIniTempl@DU?$SI_NoCase@D@@V?$SI_ConvertA@D@@@@PBDUKeyOrder@12@V?$allocator@U?$pair@$$CBUEntry@?$CSimpleIniTempl@DU?$SI_NoCase@D@@V?$SI_ConvertA@D@@@@PBD@std@@@std@@@std@@@std@@@std@@@std@@QAEPAU?$_Tree_node@U?$pair@$$CBUEntry@?$CSimpleIniTempl@DU?$SI_NoCase@D@@V?$SI_ConvertA@D@@@@V?$multimap@UEntry@?$CSimpleIniTempl@DU?$SI_NoCase@D@@V?$SI_ConvertA@D@@@@PBDUKeyOrder@12@V?$allocator@U?$pair@$$CBUEntry@?$CSimpleIniTempl@DU?$SI_NoCase@D@@V?$SI_ConvertA@D@@@@PBD@std@@@std@@@std@@@std@@PAX@2@V?$_Tree_const_iterator@V?$_Tree_val@U?$_Tree_simple_types@U?$pair@$$CBUEntry@?$CSimpleIniTempl@DU?$SI_NoCase@D@@V?$SI_ConvertA@D@@@@V?$multimap@UEntry@?$CSimpleIniTempl@DU?$SI_NoCase@D@@V?$SI_ConvertA@D@@@@PBDUKeyOrder@12@V?$allocator@U?$pair@$$CBUEntry@?$CSimpleIniTempl@DU?$SI_NoCase@D@@V?$SI_ConvertA@D@@@@PBD@std@@@std@@@std@@@std@@@std@@@std@@@2@@Z 00406d50 f i TServerSystem:TServerSystem.obj
 0001:00006020       ?_Buyheadnode@?$_Tree_comp_alloc@V?$_Tmap_traits@UEntry@?$CSimpleIniTempl@DU?$SI_NoCase@D@@V?$SI_ConvertA@D@@@@V?$multimap@UEntry@?$CSimpleIniTempl@DU?$SI_NoCase@D@@V?$SI_ConvertA@D@@@@PBDUKeyOrder@12@V?$allocator@U?$pair@$$CBUEntry@?$CSimpleIniTempl@DU?$SI_NoCase@D@@V?$SI_ConvertA@D@@@@PBD@std@@@std@@@std@@UKeyOrder@12@V?$allocator@U?$pair@$$CBUEntry@?$CSimpleIniTempl@DU?$SI_NoCase@D@@V?$SI_ConvertA@D@@@@V?$multimap@UEntry@?$CSimpleIniTempl@DU?$SI_NoCase@D@@V?$SI_ConvertA@D@@@@PBDUKeyOrder@12@V?$allocator@U?$pair@$$CBUEntry@?$CSimpleIniTempl@DU?$SI_NoCase@D@@V?$SI_ConvertA@D@@@@PBD@std@@@std@@@std@@@std@@@4@$0A@@std@@@std@@QAEPAU?$_Tree_node@U?$pair@$$CBUEntry@?$CSimpleIniTempl@DU?$SI_NoCase@D@@V?$SI_ConvertA@D@@@@V?$multimap@UEntry@?$CSimpleIniTempl@DU?$SI_NoCase@D@@V?$SI_ConvertA@D@@@@PBDUKeyOrder@12@V?$allocator@U?$pair@$$CBUEntry@?$CSimpleIniTempl@DU?$SI_NoCase@D@@V?$SI_ConvertA@D@@@@PBD@std@@@std@@@std@@@std@@PAX@2@XZ 00407020 f i TServerSystem:TServerSystem.obj
 0001:00006040       ?_Erase@?$_Tree@V?$_Tmap_traits@UEntry@?$CSimpleIniTempl@DU?$SI_NoCase@D@@V?$SI_ConvertA@D@@@@V?$multimap@UEntry@?$CSimpleIniTempl@DU?$SI_NoCase@D@@V?$SI_ConvertA@D@@@@PBDUKeyOrder@12@V?$allocator@U?$pair@$$CBUEntry@?$CSimpleIniTempl@DU?$SI_NoCase@D@@V?$SI_ConvertA@D@@@@PBD@std@@@std@@@std@@UKeyOrder@12@V?$allocator@U?$pair@$$CBUEntry@?$CSimpleIniTempl@DU?$SI_NoCase@D@@V?$SI_ConvertA@D@@@@V?$multimap@UEntry@?$CSimpleIniTempl@DU?$SI_NoCase@D@@V?$SI_ConvertA@D@@@@PBDUKeyOrder@12@V?$allocator@U?$pair@$$CBUEntry@?$CSimpleIniTempl@DU?$SI_NoCase@D@@V?$SI_ConvertA@D@@@@PBD@std@@@std@@@std@@@std@@@4@$0A@@std@@@std@@IAEXPAU?$_Tree_node@U?$pair@$$CBUEntry@?$CSimpleIniTempl@DU?$SI_NoCase@D@@V?$SI_ConvertA@D@@@@V?$multimap@UEntry@?$CSimpleIniTempl@DU?$SI_NoCase@D@@V?$SI_ConvertA@D@@@@PBDUKeyOrder@12@V?$allocator@U?$pair@$$CBUEntry@?$CSimpleIniTempl@DU?$SI_NoCase@D@@V?$SI_ConvertA@D@@@@PBD@std@@@std@@@std@@@std@@PAX@2@@Z 00407040 f i TServerSystem:TServerSystem.obj
 0001:000060a0       ?_Rrotate@?$_Tree_val@U?$_Tree_simple_types@U?$pair@$$CBUEntry@?$CSimpleIniTempl@DU?$SI_NoCase@D@@V?$SI_ConvertA@D@@@@V?$multimap@UEntry@?$CSimpleIniTempl@DU?$SI_NoCase@D@@V?$SI_ConvertA@D@@@@PBDUKeyOrder@12@V?$allocator@U?$pair@$$CBUEntry@?$CSimpleIniTempl@DU?$SI_NoCase@D@@V?$SI_ConvertA@D@@@@PBD@std@@@std@@@std@@@std@@@std@@@std@@QAEXPAU?$_Tree_node@U?$pair@$$CBUEntry@?$CSimpleIniTempl@DU?$SI_NoCase@D@@V?$SI_ConvertA@D@@@@V?$multimap@UEntry@?$CSimpleIniTempl@DU?$SI_NoCase@D@@V?$SI_ConvertA@D@@@@PBDUKeyOrder@12@V?$allocator@U?$pair@$$CBUEntry@?$CSimpleIniTempl@DU?$SI_NoCase@D@@V?$SI_ConvertA@D@@@@PBD@std@@@std@@@std@@@std@@PAX@2@@Z 004070a0 f i TServerSystem:TServerSystem.obj
 0001:000060a0       ?_Rrotate@?$_Tree_val@U?$_Tree_simple_types@U?$pair@$$CBUEntry@?$CSimpleIniTempl@DU?$SI_NoCase@D@@V?$SI_ConvertA@D@@@@PBD@std@@@std@@@std@@QAEXPAU?$_Tree_node@U?$pair@$$CBUEntry@?$CSimpleIniTempl@DU?$SI_NoCase@D@@V?$SI_ConvertA@D@@@@PBD@std@@PAX@2@@Z 004070a0 f i TServerSystem:TServerSystem.obj
 0001:000060a0       ?_Rrotate@?$_Tree_val@U?$_Tree_simple_types@U?$pair@$$CBKUtagEVENTINFO@@@std@@@std@@@std@@QAEXPAU?$_Tree_node@U?$pair@$$CBKUtagEVENTINFO@@@std@@PAX@2@@Z 004070a0 f i CSHandler.obj
 0001:000060a0       ?_Rrotate@?$_Tree_val@U?$_Tree_simple_types@U?$pair@$$CBEPAUtagTGROUP@@@std@@@std@@@std@@QAEXPAU?$_Tree_node@U?$pair@$$CBEPAUtagTGROUP@@@std@@PAX@2@@Z 004070a0 f i TLoginSvr.obj
 0001:000060a0       ?_Rrotate@?$_Tree_val@U?$_Tree_simple_types@U?$pair@$$CBKPAVCTUser@@@std@@@std@@@std@@QAEXPAU?$_Tree_node@U?$pair@$$CBKPAVCTUser@@@std@@PAX@2@@Z 004070a0 f i CSHandler.obj
 0001:000060a0       ?_Rrotate@?$_Tree_val@U?$_Tree_simple_types@U?$pair@$$CBKK@std@@@std@@@std@@QAEXPAU?$_Tree_node@U?$pair@$$CBKK@std@@PAX@2@@Z 004070a0 f i CSHandler.obj
 0001:000060a0       ?_Rrotate@?$_Tree_val@U?$_Tree_simple_types@U?$pair@$$CBV?$basic_string@DU?$char_traits@D@std@@V?$allocator@D@2@@std@@PAVCSqlQuery@@@std@@@std@@@std@@QAEXPAU?$_Tree_node@U?$pair@$$CBV?$basic_string@DU?$char_traits@D@std@@V?$allocator@D@2@@std@@PAVCSqlQuery@@@std@@PAX@2@@Z 004070a0 f i TNetLib:SqlDatabase.obj
 0001:00006100       ?_Lrotate@?$_Tree_val@U?$_Tree_simple_types@U?$pair@$$CBKUtagEVENTINFO@@@std@@@std@@@std@@QAEXPAU?$_Tree_node@U?$pair@$$CBKUtagEVENTINFO@@@std@@PAX@2@@Z 00407100 f i CSHandler.obj
 0001:00006100       ?_Lrotate@?$_Tree_val@U?$_Tree_simple_types@U?$pair@$$CBUEntry@?$CSimpleIniTempl@DU?$SI_NoCase@D@@V?$SI_ConvertA@D@@@@V?$multimap@UEntry@?$CSimpleIniTempl@DU?$SI_NoCase@D@@V?$SI_ConvertA@D@@@@PBDUKeyOrder@12@V?$allocator@U?$pair@$$CBUEntry@?$CSimpleIniTempl@DU?$SI_NoCase@D@@V?$SI_ConvertA@D@@@@PBD@std@@@std@@@std@@@std@@@std@@@std@@QAEXPAU?$_Tree_node@U?$pair@$$CBUEntry@?$CSimpleIniTempl@DU?$SI_NoCase@D@@V?$SI_ConvertA@D@@@@V?$multimap@UEntry@?$CSimpleIniTempl@DU?$SI_NoCase@D@@V?$SI_ConvertA@D@@@@PBDUKeyOrder@12@V?$allocator@U?$pair@$$CBUEntry@?$CSimpleIniTempl@DU?$SI_NoCase@D@@V?$SI_ConvertA@D@@@@PBD@std@@@std@@@std@@@std@@PAX@2@@Z 00407100 f i TServerSystem:TServerSystem.obj
 0001:00006100       ?_Lrotate@?$_Tree_val@U?$_Tree_simple_types@U?$pair@$$CBEPAUtagTGROUP@@@std@@@std@@@std@@QAEXPAU?$_Tree_node@U?$pair@$$CBEPAUtagTGROUP@@@std@@PAX@2@@Z 00407100 f i TLoginSvr.obj
 0001:00006100       ?_Lrotate@?$_Tree_val@U?$_Tree_simple_types@U?$pair@$$CBV?$basic_string@DU?$char_traits@D@std@@V?$allocator@D@2@@std@@PAVCSqlQuery@@@std@@@std@@@std@@QAEXPAU?$_Tree_node@U?$pair@$$CBV?$basic_string@DU?$char_traits@D@std@@V?$allocator@D@2@@std@@PAVCSqlQuery@@@std@@PAX@2@@Z 00407100 f i TNetLib:SqlDatabase.obj
 0001:00006100       ?_Lrotate@?$_Tree_val@U?$_Tree_simple_types@U?$pair@$$CBKPAVCTUser@@@std@@@std@@@std@@QAEXPAU?$_Tree_node@U?$pair@$$CBKPAVCTUser@@@std@@PAX@2@@Z 00407100 f i CSHandler.obj
 0001:00006100       ?_Lrotate@?$_Tree_val@U?$_Tree_simple_types@U?$pair@$$CBKK@std@@@std@@@std@@QAEXPAU?$_Tree_node@U?$pair@$$CBKK@std@@PAX@2@@Z 00407100 f i CSHandler.obj
 0001:00006160       ??$_Immortalize_impl@V_Iostream_error_category@std@@@std@@YGHPAX0PAPAX@Z 00407160 f i TServerSystem:TServerSystem.obj
 0001:00006180       ??$_Insert_string@DU?$char_traits@D@std@@I@std@@YAAAV?$basic_ostream@DU?$char_traits@D@std@@@0@AAV10@QBDI@Z 00407180 f i TServerSystem:TServerSystem.obj
 0001:00006400       ??$_Uninitialized_move@PAV?$vector@V?$basic_string@DU?$char_traits@D@std@@V?$allocator@D@2@@std@@V?$allocator@V?$basic_string@DU?$char_traits@D@std@@V?$allocator@D@2@@std@@@2@@std@@PAV12@V?$allocator@V?$vector@V?$basic_string@DU?$char_traits@D@std@@V?$allocator@D@2@@std@@V?$allocator@V?$basic_string@DU?$char_traits@D@std@@V?$allocator@D@2@@std@@@2@@std@@@2@@std@@YAPAV?$vector@V?$basic_string@DU?$char_traits@D@std@@V?$allocator@D@2@@std@@V?$allocator@V?$basic_string@DU?$char_traits@D@std@@V?$allocator@D@2@@std@@@2@@0@QAV10@0PAV10@AAV?$allocator@V?$vector@V?$basic_string@DU?$char_traits@D@std@@V?$allocator@D@2@@std@@V?$allocator@V?$basic_string@DU?$char_traits@D@std@@V?$allocator@D@2@@std@@@2@@std@@@0@@Z 00407400 f i TServerSystem:TServerSystem.obj
 0001:00006470       ??$_Uninitialized_move@PAV?$basic_string@DU?$char_traits@D@std@@V?$allocator@D@2@@std@@PAV12@V?$allocator@V?$basic_string@DU?$char_traits@D@std@@V?$allocator@D@2@@std@@@2@@std@@YAPAV?$basic_string@DU?$char_traits@D@std@@V?$allocator@D@2@@0@QAV10@0PAV10@AAV?$allocator@V?$basic_string@DU?$char_traits@D@std@@V?$allocator@D@2@@std@@@0@@Z 00407470 f i TServerSystem:TServerSystem.obj
 0001:000064e0       ??1?$pair@$$CBUEntry@?$CSimpleIniTempl@DU?$SI_NoCase@D@@V?$SI_ConvertA@D@@@@V?$multimap@UEntry@?$CSimpleIniTempl@DU?$SI_NoCase@D@@V?$SI_ConvertA@D@@@@PBDUKeyOrder@12@V?$allocator@U?$pair@$$CBUEntry@?$CSimpleIniTempl@DU?$SI_NoCase@D@@V?$SI_ConvertA@D@@@@PBD@std@@@std@@@std@@@std@@QAE@XZ 004074e0 f i TServerSystem:TServerSystem.obj
 0001:00006500       ??1?$multimap@UEntry@?$CSimpleIniTempl@DU?$SI_NoCase@D@@V?$SI_ConvertA@D@@@@PBDUKeyOrder@12@V?$allocator@U?$pair@$$CBUEntry@?$CSimpleIniTempl@DU?$SI_NoCase@D@@V?$SI_ConvertA@D@@@@PBD@std@@@std@@@std@@QAE@XZ 00407500 f i TServerSystem:TServerSystem.obj
 0001:00006520       ??1?$_Tree_comp_alloc@V?$_Tmap_traits@UEntry@?$CSimpleIniTempl@DU?$SI_NoCase@D@@V?$SI_ConvertA@D@@@@PBDUKeyOrder@12@V?$allocator@U?$pair@$$CBUEntry@?$CSimpleIniTempl@DU?$SI_NoCase@D@@V?$SI_ConvertA@D@@@@PBD@std@@@std@@$00@std@@@std@@QAE@XZ 00407520 f i TServerSystem:TServerSystem.obj
 0001:00006530       ?_Tidy@?$_Tree@V?$_Tmap_traits@UEntry@?$CSimpleIniTempl@DU?$SI_NoCase@D@@V?$SI_ConvertA@D@@@@PBDUKeyOrder@12@V?$allocator@U?$pair@$$CBUEntry@?$CSimpleIniTempl@DU?$SI_NoCase@D@@V?$SI_ConvertA@D@@@@PBD@std@@@std@@$00@std@@@std@@IAEXXZ 00407530 f i TServerSystem:TServerSystem.obj
 0001:000065c0       ?_Erase@?$_Tree@V?$_Tmap_traits@UEntry@?$CSimpleIniTempl@DU?$SI_NoCase@D@@V?$SI_ConvertA@D@@@@PBDUKeyOrder@12@V?$allocator@U?$pair@$$CBUEntry@?$CSimpleIniTempl@DU?$SI_NoCase@D@@V?$SI_ConvertA@D@@@@PBD@std@@@std@@$00@std@@@std@@IAEXPAU?$_Tree_node@U?$pair@$$CBUEntry@?$CSimpleIniTempl@DU?$SI_NoCase@D@@V?$SI_ConvertA@D@@@@PBD@std@@PAX@2@@Z 004075c0 f i TServerSystem:TServerSystem.obj
 0001:00006600       ?LoadData@?$CSimpleIniTempl@DU?$SI_NoCase@D@@V?$SI_ConvertA@D@@@@QAE?AW4SI_Error@@PBDI@Z 00407600 f i TServerSystem:TServerSystem.obj
 0001:00006790       ??1?$_Uninitialized_backout_al@PAV?$basic_string@DU?$char_traits@D@std@@V?$allocator@D@2@@std@@V?$allocator@V?$basic_string@DU?$char_traits@D@std@@V?$allocator@D@2@@std@@@2@@std@@QAE@XZ 00407790 f i TServerSystem:TServerSystem.obj
 0001:000067b0       ?FindEntry@?$CSimpleIniTempl@DU?$SI_NoCase@D@@V?$SI_ConvertA@D@@@@ABE_NAAPADAAPBD111@Z 004077b0 f i TServerSystem:TServerSystem.obj
 0001:00006a60       ?AddEntry@?$CSimpleIniTempl@DU?$SI_NoCase@D@@V?$SI_ConvertA@D@@@@AAE?AW4SI_Error@@PBD000_N1@Z 00407a60 f i TServerSystem:TServerSystem.obj
 0001:00006d10       ?find@?$_Tree@V?$_Tmap_traits@UEntry@?$CSimpleIniTempl@DU?$SI_NoCase@D@@V?$SI_ConvertA@D@@@@V?$multimap@UEntry@?$CSimpleIniTempl@DU?$SI_NoCase@D@@V?$SI_ConvertA@D@@@@PBDUKeyOrder@12@V?$allocator@U?$pair@$$CBUEntry@?$CSimpleIniTempl@DU?$SI_NoCase@D@@V?$SI_ConvertA@D@@@@PBD@std@@@std@@@std@@UKeyOrder@12@V?$allocator@U?$pair@$$CBUEntry@?$CSimpleIniTempl@DU?$SI_NoCase@D@@V?$SI_ConvertA@D@@@@V?$multimap@UEntry@?$CSimpleIniTempl@DU?$SI_NoCase@D@@V?$SI_ConvertA@D@@@@PBDUKeyOrder@12@V?$allocator@U?$pair@$$CBUEntry@?$CSimpleIniTempl@DU?$SI_NoCase@D@@V?$SI_ConvertA@D@@@@PBD@std@@@std@@@std@@@std@@@4@$0A@@std@@@std@@QAE?AV?$_Tree_iterator@V?$_Tree_val@U?$_Tree_simple_types@U?$pair@$$CBUEntry@?$CSimpleIniTempl@DU?$SI_NoCase@D@@V?$SI_ConvertA@D@@@@V?$multimap@UEntry@?$CSimpleIniTempl@DU?$SI_NoCase@D@@V?$SI_ConvertA@D@@@@PBDUKeyOrder@12@V?$allocator@U?$pair@$$CBUEntry@?$CSimpleIniTempl@DU?$SI_NoCase@D@@V?$SI_ConvertA@D@@@@PBD@std@@@std@@@std@@@std@@@std@@@std@@@2@ABUEntry@?$CSimpleIniTempl@DU?$SI_NoCase@D@@V?$SI_ConvertA@D@@@@@Z 00407d10 f i TServerSystem:TServerSystem.obj
 0001:00006d10       ?find@?$_Tree@V?$_Tmap_traits@UEntry@?$CSimpleIniTempl@DU?$SI_NoCase@D@@V?$SI_ConvertA@D@@@@PBDUKeyOrder@12@V?$allocator@U?$pair@$$CBUEntry@?$CSimpleIniTempl@DU?$SI_NoCase@D@@V?$SI_ConvertA@D@@@@PBD@std@@@std@@$00@std@@@std@@QAE?AV?$_Tree_iterator@V?$_Tree_val@U?$_Tree_simple_types@U?$pair@$$CBUEntry@?$CSimpleIniTempl@DU?$SI_NoCase@D@@V?$SI_ConvertA@D@@@@PBD@std@@@std@@@std@@@2@ABUEntry@?$CSimpleIniTempl@DU?$SI_NoCase@D@@V?$SI_ConvertA@D@@@@@Z 00407d10 f i TServerSystem:TServerSystem.obj
 0001:00006da0       ?IsSpace@?$CSimpleIniTempl@DU?$SI_NoCase@D@@V?$SI_ConvertA@D@@@@ABE_ND@Z 00407da0 f i TServerSystem:TServerSystem.obj
 0001:00006dc0       ?_Buyheadnode@?$_Tree_comp_alloc@V?$_Tmap_traits@UEntry@?$CSimpleIniTempl@DU?$SI_NoCase@D@@V?$SI_ConvertA@D@@@@PBDUKeyOrder@12@V?$allocator@U?$pair@$$CBUEntry@?$CSimpleIniTempl@DU?$SI_NoCase@D@@V?$SI_ConvertA@D@@@@PBD@std@@@std@@$00@std@@@std@@QAEPAU?$_Tree_node@U?$pair@$$CBUEntry@?$CSimpleIniTempl@DU?$SI_NoCase@D@@V?$SI_ConvertA@D@@@@PBD@std@@PAX@2@XZ 00407dc0 f i TServerSystem:TServerSystem.obj
 0001:00006de0       ?CopyString@?$CSimpleIniTempl@DU?$SI_NoCase@D@@V?$SI_ConvertA@D@@@@AAE?AW4SI_Error@@AAPBD@Z 00407de0 f i TServerSystem:TServerSystem.obj
 0001:00006e90       ?LoadMultiLineText@?$CSimpleIniTempl@DU?$SI_NoCase@D@@V?$SI_ConvertA@D@@@@ABE_NAAPADAAPBDPBD_N@Z 00407e90 f i TServerSystem:TServerSystem.obj
 0001:00007050       ??$_Buynode@AAU?$pair@$$CBUEntry@?$CSimpleIniTempl@DU?$SI_NoCase@D@@V?$SI_ConvertA@D@@@@V?$multimap@UEntry@?$CSimpleIniTempl@DU?$SI_NoCase@D@@V?$SI_ConvertA@D@@@@PBDUKeyOrder@12@V?$allocator@U?$pair@$$CBUEntry@?$CSimpleIniTempl@DU?$SI_NoCase@D@@V?$SI_ConvertA@D@@@@PBD@std@@@std@@@std@@@std@@@?$_Tree_comp_alloc@V?$_Tmap_traits@UEntry@?$CSimpleIniTempl@DU?$SI_NoCase@D@@V?$SI_ConvertA@D@@@@V?$multimap@UEntry@?$CSimpleIniTempl@DU?$SI_NoCase@D@@V?$SI_ConvertA@D@@@@PBDUKeyOrder@12@V?$allocator@U?$pair@$$CBUEntry@?$CSimpleIniTempl@DU?$SI_NoCase@D@@V?$SI_ConvertA@D@@@@PBD@std@@@std@@@std@@UKeyOrder@12@V?$allocator@U?$pair@$$CBUEntry@?$CSimpleIniTempl@DU?$SI_NoCase@D@@V?$SI_ConvertA@D@@@@V?$multimap@UEntry@?$CSimpleIniTempl@DU?$SI_NoCase@D@@V?$SI_ConvertA@D@@@@PBDUKeyOrder@12@V?$allocator@U?$pair@$$CBUEntry@?$CSimpleIniTempl@DU?$SI_NoCase@D@@V?$SI_ConvertA@D@@@@PBD@std@@@std@@@std@@@std@@@4@$0A@@std@@@std@@QAEPAU?$_Tree_node@U?$pair@$$CBUEntry@?$CSimpleIniTempl@DU?$SI_NoCase@D@@V?$SI_ConvertA@D@@@@V?$multimap@UEntry@?$CSimpleIniTempl@DU?$SI_NoCase@D@@V?$SI_ConvertA@D@@@@PBDUKeyOrder@12@V?$allocator@U?$pair@$$CBUEntry@?$CSimpleIniTempl@DU?$SI_NoCase@D@@V?$SI_ConvertA@D@@@@PBD@std@@@std@@@std@@@std@@PAX@1@AAU?$pair@$$CBUEntry@?$CSimpleIniTempl@DU?$SI_NoCase@D@@V?$SI_ConvertA@D@@@@V?$multimap@UEntry@?$CSimpleIniTempl@DU?$SI_NoCase@D@@V?$SI_ConvertA@D@@@@PBDUKeyOrder@12@V?$allocator@U?$pair@$$CBUEntry@?$CSimpleIniTempl@DU?$SI_NoCase@D@@V?$SI_ConvertA@D@@@@PBD@std@@@std@@@std@@@1@@Z 00408050 f i TServerSystem:TServerSystem.obj
 0001:000070e0       ??$_Insert_nohint@AAU?$pair@$$CBUEntry@?$CSimpleIniTempl@DU?$SI_NoCase@D@@V?$SI_ConvertA@D@@@@V?$multimap@UEntry@?$CSimpleIniTempl@DU?$SI_NoCase@D@@V?$SI_ConvertA@D@@@@PBDUKeyOrder@12@V?$allocator@U?$pair@$$CBUEntry@?$CSimpleIniTempl@DU?$SI_NoCase@D@@V?$SI_ConvertA@D@@@@PBD@std@@@std@@@std@@@std@@PAU?$_Tree_node@U?$pair@$$CBUEntry@?$CSimpleIniTempl@DU?$SI_NoCase@D@@V?$SI_ConvertA@D@@@@V?$multimap@UEntry@?$CSimpleIniTempl@DU?$SI_NoCase@D@@V?$SI_ConvertA@D@@@@PBDUKeyOrder@12@V?$allocator@U?$pair@$$CBUEntry@?$CSimpleIniTempl@DU?$SI_NoCase@D@@V?$SI_ConvertA@D@@@@PBD@std@@@std@@@std@@@std@@PAX@2@@?$_Tree@V?$_Tmap_traits@UEntry@?$CSimpleIniTempl@DU?$SI_NoCase@D@@V?$SI_ConvertA@D@@@@V?$multimap@UEntry@?$CSimpleIniTempl@DU?$SI_NoCase@D@@V?$SI_ConvertA@D@@@@PBDUKeyOrder@12@V?$allocator@U?$pair@$$CBUEntry@?$CSimpleIniTempl@DU?$SI_NoCase@D@@V?$SI_ConvertA@D@@@@PBD@std@@@std@@@std@@UKeyOrder@12@V?$allocator@U?$pair@$$CBUEntry@?$CSimpleIniTempl@DU?$SI_NoCase@D@@V?$SI_ConvertA@D@@@@V?$multimap@UEntry@?$CSimpleIniTempl@DU?$SI_NoCase@D@@V?$SI_ConvertA@D@@@@PBDUKeyOrder@12@V?$allocator@U?$pair@$$CBUEntry@?$CSimpleIniTempl@DU?$SI_NoCase@D@@V?$SI_ConvertA@D@@@@PBD@std@@@std@@@std@@@std@@@4@$0A@@std@@@std@@IAE?AU?$pair@V?$_Tree_iterator@V?$_Tree_val@U?$_Tree_simple_types@U?$pair@$$CBUEntry@?$CSimpleIniTempl@DU?$SI_NoCase@D@@V?$SI_ConvertA@D@@@@V?$multimap@UEntry@?$CSimpleIniTempl@DU?$SI_NoCase@D@@V?$SI_ConvertA@D@@@@PBDUKeyOrder@12@V?$allocator@U?$pair@$$CBUEntry@?$CSimpleIniTempl@DU?$SI_NoCase@D@@V?$SI_ConvertA@D@@@@PBD@std@@@std@@@std@@@std@@@std@@@std@@@std@@_N@1@_NAAU?$pair@$$CBUEntry@?$CSimpleIniTempl@DU?$SI_NoCase@D@@V?$SI_ConvertA@D@@@@V?$multimap@UEntry@?$CSimpleIniTempl@DU?$SI_NoCase@D@@V?$SI_ConvertA@D@@@@PBDUKeyOrder@12@V?$allocator@U?$pair@$$CBUEntry@?$CSimpleIniTempl@DU?$SI_NoCase@D@@V?$SI_ConvertA@D@@@@PBD@std@@@std@@@std@@@1@PAU?$_Tree_node@U?$pair@$$CBUEntry@?$CSimpleIniTempl@DU?$SI_NoCase@D@@V?$SI_ConvertA@D@@@@V?$multimap@UEntry@?$CSimpleIniTempl@DU?$SI_NoCase@D@@V?$SI_ConvertA@D@@@@PBDUKeyOrder@12@V?$allocator@U?$pair@$$CBUEntry@?$CSimpleIniTempl@DU?$SI_NoCase@D@@V?$SI_ConvertA@D@@@@PBD@std@@@std@@@std@@@std@@PAX@1@@Z 004080e0 f i TServerSystem:TServerSystem.obj
 0001:00007280       ??$_Buynode@UEntry@?$CSimpleIniTempl@DU?$SI_NoCase@D@@V?$SI_ConvertA@D@@@@@?$_List_buy@UEntry@?$CSimpleIniTempl@DU?$SI_NoCase@D@@V?$SI_ConvertA@D@@@@V?$allocator@UEntry@?$CSimpleIniTempl@DU?$SI_NoCase@D@@V?$SI_ConvertA@D@@@@@std@@@std@@QAEPAU?$_List_node@UEntry@?$CSimpleIniTempl@DU?$SI_NoCase@D@@V?$SI_ConvertA@D@@@@PAX@1@PAU21@0$$QAUEntry@?$CSimpleIniTempl@DU?$SI_NoCase@D@@V?$SI_ConvertA@D@@@@@Z 00408280 f i TServerSystem:TServerSystem.obj
 0001:000072b0       ?_Freenode0@?$_Tree_comp_alloc@V?$_Tmap_traits@UEntry@?$CSimpleIniTempl@DU?$SI_NoCase@D@@V?$SI_ConvertA@D@@@@V?$multimap@UEntry@?$CSimpleIniTempl@DU?$SI_NoCase@D@@V?$SI_ConvertA@D@@@@PBDUKeyOrder@12@V?$allocator@U?$pair@$$CBUEntry@?$CSimpleIniTempl@DU?$SI_NoCase@D@@V?$SI_ConvertA@D@@@@PBD@std@@@std@@@std@@UKeyOrder@12@V?$allocator@U?$pair@$$CBUEntry@?$CSimpleIniTempl@DU?$SI_NoCase@D@@V?$SI_ConvertA@D@@@@V?$multimap@UEntry@?$CSimpleIniTempl@DU?$SI_NoCase@D@@V?$SI_ConvertA@D@@@@PBDUKeyOrder@12@V?$allocator@U?$pair@$$CBUEntry@?$CSimpleIniTempl@DU?$SI_NoCase@D@@V?$SI_ConvertA@D@@@@PBD@std@@@std@@@std@@@std@@@4@$0A@@std@@@std@@QAEXPAU?$_Tree_node@U?$pair@$$CBUEntry@?$CSimpleIniTempl@DU?$SI_NoCase@D@@V?$SI_ConvertA@D@@@@V?$multimap@UEntry@?$CSimpleIniTempl@DU?$SI_NoCase@D@@V?$SI_ConvertA@D@@@@PBDUKeyOrder@12@V?$allocator@U?$pair@$$CBUEntry@?$CSimpleIniTempl@DU?$SI_NoCase@D@@V?$SI_ConvertA@D@@@@PBD@std@@@std@@@std@@@std@@PAX@2@@Z 004082b0 f i TServerSystem:TServerSystem.obj
 0001:000072d0       ?_Buynode0@?$_Tree_comp_alloc@V?$_Tmap_traits@UEntry@?$CSimpleIniTempl@DU?$SI_NoCase@D@@V?$SI_ConvertA@D@@@@V?$multimap@UEntry@?$CSimpleIniTempl@DU?$SI_NoCase@D@@V?$SI_ConvertA@D@@@@PBDUKeyOrder@12@V?$allocator@U?$pair@$$CBUEntry@?$CSimpleIniTempl@DU?$SI_NoCase@D@@V?$SI_ConvertA@D@@@@PBD@std@@@std@@@std@@UKeyOrder@12@V?$allocator@U?$pair@$$CBUEntry@?$CSimpleIniTempl@DU?$SI_NoCase@D@@V?$SI_ConvertA@D@@@@V?$multimap@UEntry@?$CSimpleIniTempl@DU?$SI_NoCase@D@@V?$SI_ConvertA@D@@@@PBDUKeyOrder@12@V?$allocator@U?$pair@$$CBUEntry@?$CSimpleIniTempl@DU?$SI_NoCase@D@@V?$SI_ConvertA@D@@@@PBD@std@@@std@@@std@@@std@@@4@$0A@@std@@@std@@QAEPAU?$_Tree_node@U?$pair@$$CBUEntry@?$CSimpleIniTempl@DU?$SI_NoCase@D@@V?$SI_ConvertA@D@@@@V?$multimap@UEntry@?$CSimpleIniTempl@DU?$SI_NoCase@D@@V?$SI_ConvertA@D@@@@PBDUKeyOrder@12@V?$allocator@U?$pair@$$CBUEntry@?$CSimpleIniTempl@DU?$SI_NoCase@D@@V?$SI_ConvertA@D@@@@PBD@std@@@std@@@std@@@std@@PAX@2@XZ 004082d0 f i TServerSystem:TServerSystem.obj
 0001:000072f0       ?_Destroy_if_node@?$_Tree@V?$_Tmap_traits@UEntry@?$CSimpleIniTempl@DU?$SI_NoCase@D@@V?$SI_ConvertA@D@@@@V?$multimap@UEntry@?$CSimpleIniTempl@DU?$SI_NoCase@D@@V?$SI_ConvertA@D@@@@PBDUKeyOrder@12@V?$allocator@U?$pair@$$CBUEntry@?$CSimpleIniTempl@DU?$SI_NoCase@D@@V?$SI_ConvertA@D@@@@PBD@std@@@std@@@std@@UKeyOrder@12@V?$allocator@U?$pair@$$CBUEntry@?$CSimpleIniTempl@DU?$SI_NoCase@D@@V?$SI_ConvertA@D@@@@V?$multimap@UEntry@?$CSimpleIniTempl@DU?$SI_NoCase@D@@V?$SI_ConvertA@D@@@@PBDUKeyOrder@12@V?$allocator@U?$pair@$$CBUEntry@?$CSimpleIniTempl@DU?$SI_NoCase@D@@V?$SI_ConvertA@D@@@@PBD@std@@@std@@@std@@@std@@@4@$0A@@std@@@std@@IAEXPAU?$_Tree_node@U?$pair@$$CBUEntry@?$CSimpleIniTempl@DU?$SI_NoCase@D@@V?$SI_ConvertA@D@@@@V?$multimap@UEntry@?$CSimpleIniTempl@DU?$SI_NoCase@D@@V?$SI_ConvertA@D@@@@PBDUKeyOrder@12@V?$allocator@U?$pair@$$CBUEntry@?$CSimpleIniTempl@DU?$SI_NoCase@D@@V?$SI_ConvertA@D@@@@PBD@std@@@std@@@std@@@std@@PAX@2@@Z 004082f0 f i TServerSystem:TServerSystem.obj
 0001:00007320       ??$_Insert_at@AAU?$pair@$$CBUEntry@?$CSimpleIniTempl@DU?$SI_NoCase@D@@V?$SI_ConvertA@D@@@@V?$multimap@UEntry@?$CSimpleIniTempl@DU?$SI_NoCase@D@@V?$SI_ConvertA@D@@@@PBDUKeyOrder@12@V?$allocator@U?$pair@$$CBUEntry@?$CSimpleIniTempl@DU?$SI_NoCase@D@@V?$SI_ConvertA@D@@@@PBD@std@@@std@@@std@@@std@@PAU?$_Tree_node@U?$pair@$$CBUEntry@?$CSimpleIniTempl@DU?$SI_NoCase@D@@V?$SI_ConvertA@D@@@@V?$multimap@UEntry@?$CSimpleIniTempl@DU?$SI_NoCase@D@@V?$SI_ConvertA@D@@@@PBDUKeyOrder@12@V?$allocator@U?$pair@$$CBUEntry@?$CSimpleIniTempl@DU?$SI_NoCase@D@@V?$SI_ConvertA@D@@@@PBD@std@@@std@@@std@@@std@@PAX@2@@?$_Tree@V?$_Tmap_traits@UEntry@?$CSimpleIniTempl@DU?$SI_NoCase@D@@V?$SI_ConvertA@D@@@@V?$multimap@UEntry@?$CSimpleIniTempl@DU?$SI_NoCase@D@@V?$SI_ConvertA@D@@@@PBDUKeyOrder@12@V?$allocator@U?$pair@$$CBUEntry@?$CSimpleIniTempl@DU?$SI_NoCase@D@@V?$SI_ConvertA@D@@@@PBD@std@@@std@@@std@@UKeyOrder@12@V?$allocator@U?$pair@$$CBUEntry@?$CSimpleIniTempl@DU?$SI_NoCase@D@@V?$SI_ConvertA@D@@@@V?$multimap@UEntry@?$CSimpleIniTempl@DU?$SI_NoCase@D@@V?$SI_ConvertA@D@@@@PBDUKeyOrder@12@V?$allocator@U?$pair@$$CBUEntry@?$CSimpleIniTempl@DU?$SI_NoCase@D@@V?$SI_ConvertA@D@@@@PBD@std@@@std@@@std@@@std@@@4@$0A@@std@@@std@@IAE?AV?$_Tree_iterator@V?$_Tree_val@U?$_Tree_simple_types@U?$pair@$$CBUEntry@?$CSimpleIniTempl@DU?$SI_NoCase@D@@V?$SI_ConvertA@D@@@@V?$multimap@UEntry@?$CSimpleIniTempl@DU?$SI_NoCase@D@@V?$SI_ConvertA@D@@@@PBDUKeyOrder@12@V?$allocator@U?$pair@$$CBUEntry@?$CSimpleIniTempl@DU?$SI_NoCase@D@@V?$SI_ConvertA@D@@@@PBD@std@@@std@@@std@@@std@@@std@@@std@@@1@_NPAU?$_Tree_node@U?$pair@$$CBUEntry@?$CSimpleIniTempl@DU?$SI_NoCase@D@@V?$SI_ConvertA@D@@@@V?$multimap@UEntry@?$CSimpleIniTempl@DU?$SI_NoCase@D@@V?$SI_ConvertA@D@@@@PBDUKeyOrder@12@V?$allocator@U?$pair@$$CBUEntry@?$CSimpleIniTempl@DU?$SI_NoCase@D@@V?$SI_ConvertA@D@@@@PBD@std@@@std@@@std@@@std@@PAX@1@AAU?$pair@$$CBUEntry@?$CSimpleIniTempl@DU?$SI_NoCase@D@@V?$SI_ConvertA@D@@@@V?$multimap@UEntry@?$CSimpleIniTempl@DU?$SI_NoCase@D@@V?$SI_ConvertA@D@@@@PBDUKeyOrder@12@V?$allocator@U?$pair@$$CBUEntry@?$CSimpleIniTempl@DU?$SI_NoCase@D@@V?$SI_ConvertA@D@@@@PBD@std@@@std@@@std@@@1@1@Z 00408320 f i TServerSystem:TServerSystem.obj
 0001:00007510       ??$_Buynode@AAU?$pair@$$CBUEntry@?$CSimpleIniTempl@DU?$SI_NoCase@D@@V?$SI_ConvertA@D@@@@PBD@std@@@?$_Tree_comp_alloc@V?$_Tmap_traits@UEntry@?$CSimpleIniTempl@DU?$SI_NoCase@D@@V?$SI_ConvertA@D@@@@PBDUKeyOrder@12@V?$allocator@U?$pair@$$CBUEntry@?$CSimpleIniTempl@DU?$SI_NoCase@D@@V?$SI_ConvertA@D@@@@PBD@std@@@std@@$00@std@@@std@@QAEPAU?$_Tree_node@U?$pair@$$CBUEntry@?$CSimpleIniTempl@DU?$SI_NoCase@D@@V?$SI_ConvertA@D@@@@PBD@std@@PAX@1@AAU?$pair@$$CBUEntry@?$CSimpleIniTempl@DU?$SI_NoCase@D@@V?$SI_ConvertA@D@@@@PBD@1@@Z 00408510 f i TServerSystem:TServerSystem.obj
 0001:00007550       ??$_Insert_nohint@AAU?$pair@$$CBUEntry@?$CSimpleIniTempl@DU?$SI_NoCase@D@@V?$SI_ConvertA@D@@@@PBD@std@@PAU?$_Tree_node@U?$pair@$$CBUEntry@?$CSimpleIniTempl@DU?$SI_NoCase@D@@V?$SI_ConvertA@D@@@@PBD@std@@PAX@2@@?$_Tree@V?$_Tmap_traits@UEntry@?$CSimpleIniTempl@DU?$SI_NoCase@D@@V?$SI_ConvertA@D@@@@PBDUKeyOrder@12@V?$allocator@U?$pair@$$CBUEntry@?$CSimpleIniTempl@DU?$SI_NoCase@D@@V?$SI_ConvertA@D@@@@PBD@std@@@std@@$00@std@@@std@@IAE?AU?$pair@V?$_Tree_iterator@V?$_Tree_val@U?$_Tree_simple_types@U?$pair@$$CBUEntry@?$CSimpleIniTempl@DU?$SI_NoCase@D@@V?$SI_ConvertA@D@@@@PBD@std@@@std@@@std@@@std@@_N@1@_NAAU?$pair@$$CBUEntry@?$CSimpleIniTempl@DU?$SI_NoCase@D@@V?$SI_ConvertA@D@@@@PBD@1@PAU?$_Tree_node@U?$pair@$$CBUEntry@?$CSimpleIniTempl@DU?$SI_NoCase@D@@V?$SI_ConvertA@D@@@@PBD@std@@PAX@1@@Z 00408550 f i TServerSystem:TServerSystem.obj
 0001:00007620       ?_Buynode0@?$_Tree_comp_alloc@V?$_Tmap_traits@UEntry@?$CSimpleIniTempl@DU?$SI_NoCase@D@@V?$SI_ConvertA@D@@@@PBDUKeyOrder@12@V?$allocator@U?$pair@$$CBUEntry@?$CSimpleIniTempl@DU?$SI_NoCase@D@@V?$SI_ConvertA@D@@@@PBD@std@@@std@@$00@std@@@std@@QAEPAU?$_Tree_node@U?$pair@$$CBUEntry@?$CSimpleIniTempl@DU?$SI_NoCase@D@@V?$SI_ConvertA@D@@@@PBD@std@@PAX@2@XZ 00408620 f i TServerSystem:TServerSystem.obj
 0001:00007640       ?_Destroy_if_node@?$_Tree@V?$_Tmap_traits@UEntry@?$CSimpleIniTempl@DU?$SI_NoCase@D@@V?$SI_ConvertA@D@@@@PBDUKeyOrder@12@V?$allocator@U?$pair@$$CBUEntry@?$CSimpleIniTempl@DU?$SI_NoCase@D@@V?$SI_ConvertA@D@@@@PBD@std@@@std@@$00@std@@@std@@IAEXPAU?$_Tree_node@U?$pair@$$CBUEntry@?$CSimpleIniTempl@DU?$SI_NoCase@D@@V?$SI_ConvertA@D@@@@PBD@std@@PAX@2@@Z 00408640 f i TServerSystem:TServerSystem.obj
 0001:00007660       ??$_Insert_at@AAU?$pair@$$CBUEntry@?$CSimpleIniTempl@DU?$SI_NoCase@D@@V?$SI_ConvertA@D@@@@PBD@std@@PAU?$_Tree_node@U?$pair@$$CBUEntry@?$CSimpleIniTempl@DU?$SI_NoCase@D@@V?$SI_ConvertA@D@@@@PBD@std@@PAX@2@@?$_Tree@V?$_Tmap_traits@UEntry@?$CSimpleIniTempl@DU?$SI_NoCase@D@@V?$SI_ConvertA@D@@@@PBDUKeyOrder@12@V?$allocator@U?$pair@$$CBUEntry@?$CSimpleIniTempl@DU?$SI_NoCase@D@@V?$SI_ConvertA@D@@@@PBD@std@@@std@@$00@std@@@std@@IAE?AV?$_Tree_iterator@V?$_Tree_val@U?$_Tree_simple_types@U?$pair@$$CBUEntry@?$CSimpleIniTempl@DU?$SI_NoCase@D@@V?$SI_ConvertA@D@@@@PBD@std@@@std@@@std@@@1@_NPAU?$_Tree_node@U?$pair@$$CBUEntry@?$CSimpleIniTempl@DU?$SI_NoCase@D@@V?$SI_ConvertA@D@@@@PBD@std@@PAX@1@AAU?$pair@$$CBUEntry@?$CSimpleIniTempl@DU?$SI_NoCase@D@@V?$SI_ConvertA@D@@@@PBD@1@1@Z 00408660 f i TServerSystem:TServerSystem.obj
 0001:00007850       ??$?0V?$allocator@U?$_Tree_node@U?$pair@$$CBUEntry@?$CSimpleIniTempl@DU?$SI_NoCase@D@@V?$SI_ConvertA@D@@@@PBD@std@@PAX@std@@@std@@@?$_Tree@V?$_Tmap_traits@UEntry@?$CSimpleIniTempl@DU?$SI_NoCase@D@@V?$SI_ConvertA@D@@@@PBDUKeyOrder@12@V?$allocator@U?$pair@$$CBUEntry@?$CSimpleIniTempl@DU?$SI_NoCase@D@@V?$SI_ConvertA@D@@@@PBD@std@@@std@@$00@std@@@std@@QAE@ABV01@$$QAV?$allocator@U?$_Tree_node@U?$pair@$$CBUEntry@?$CSimpleIniTempl@DU?$SI_NoCase@D@@V?$SI_ConvertA@D@@@@PBD@std@@PAX@std@@@1@@Z 00408850 f i TServerSystem:TServerSystem.obj
 0001:00007930       ??$_Copy_nodes@U_Copy_tag@?$_Tree@V?$_Tmap_traits@UEntry@?$CSimpleIniTempl@DU?$SI_NoCase@D@@V?$SI_ConvertA@D@@@@PBDUKeyOrder@12@V?$allocator@U?$pair@$$CBUEntry@?$CSimpleIniTempl@DU?$SI_NoCase@D@@V?$SI_ConvertA@D@@@@PBD@std@@@std@@$00@std@@@std@@@?$_Tree@V?$_Tmap_traits@UEntry@?$CSimpleIniTempl@DU?$SI_NoCase@D@@V?$SI_ConvertA@D@@@@PBDUKeyOrder@12@V?$allocator@U?$pair@$$CBUEntry@?$CSimpleIniTempl@DU?$SI_NoCase@D@@V?$SI_ConvertA@D@@@@PBD@std@@@std@@$00@std@@@std@@IAEPAU?$_Tree_node@U?$pair@$$CBUEntry@?$CSimpleIniTempl@DU?$SI_NoCase@D@@V?$SI_ConvertA@D@@@@PBD@std@@PAX@1@PAU21@0U_Copy_tag@01@@Z 00408930 f i TServerSystem:TServerSystem.obj
 0001:000079e4       ??_E?$basic_ostream@DU?$char_traits@D@std@@@std@@$4PPPPPPPM@A@AEPAXI@Z 004089e4 f i TServerSystem:TServerSystem.obj
 0001:000079f0       ??$_Buynode@U?$pair@$$CBKPAVCTUser@@@std@@@?$_Tree_comp_alloc@V?$_Tmap_traits@KPAVCTUser@@U?$less@K@std@@V?$allocator@U?$pair@$$CBKPAVCTUser@@@std@@@3@$0A@@std@@@std@@QAEPAU?$_Tree_node@U?$pair@$$CBKPAVCTUser@@@std@@PAX@1@$$QAU?$pair@$$CBKPAVCTUser@@@1@@Z 004089f0 f i CSHandler.obj
 0001:000079f0       ??$_Buynode@U?$pair@$$CBEPAUtagTGROUP@@@std@@@?$_Tree_comp_alloc@V?$_Tmap_traits@EPAUtagTGROUP@@U?$less@E@std@@V?$allocator@U?$pair@$$CBEPAUtagTGROUP@@@std@@@3@$0A@@std@@@std@@QAEPAU?$_Tree_node@U?$pair@$$CBEPAUtagTGROUP@@@std@@PAX@1@$$QAU?$pair@$$CBEPAUtagTGROUP@@@1@@Z 004089f0 f i TLoginSvr.obj
 0001:000079f0       ??$_Buynode@U?$pair@$$CBKK@std@@@?$_Tree_comp_alloc@V?$_Tmap_traits@KKU?$less@K@std@@V?$allocator@U?$pair@$$CBKK@std@@@2@$0A@@std@@@std@@QAEPAU?$_Tree_node@U?$pair@$$CBKK@std@@PAX@1@$$QAU?$pair@$$CBKK@1@@Z 004089f0 f i CSHandler.obj
 0001:00007a10       ??$_Buynode@U?$pair@$$CBKUtagEVENTINFO@@@std@@@?$_Tree_comp_alloc@V?$_Tmap_traits@KUtagEVENTINFO@@U?$less@K@std@@V?$allocator@U?$pair@$$CBKUtagEVENTINFO@@@std@@@3@$0A@@std@@@std@@QAEPAU?$_Tree_node@U?$pair@$$CBKUtagEVENTINFO@@@std@@PAX@1@$$QAU?$pair@$$CBKUtagEVENTINFO@@@1@@Z 00408a10 f i CSHandler.obj
 0001:00007aa0       ??$_Emplace_reallocate@ABG@?$vector@GV?$allocator@G@std@@@std@@QAEPAGQAGABG@Z 00408aa0 f i CSHandler.obj
 0001:00007bb0       ??$_Emplace_reallocate@ABQAUtagTITEM@@@?$vector@PAUtagTITEM@@V?$allocator@PAUtagTITEM@@@std@@@std@@QAEPAPAUtagTITEM@@QAPAU2@ABQAU2@@Z 00408bb0 f i CSHandler.obj
 0001:00007bb0       ??$_Emplace_reallocate@ABQAUtagTCHAR@@@?$vector@PAUtagTCHAR@@V?$allocator@PAUtagTCHAR@@@std@@@std@@QAEPAPAUtagTCHAR@@QAPAU2@ABQAU2@@Z 00408bb0 f i CSHandler.obj
 0001:00007d10       ??$_Emplace_reallocate@ABUtagLOTTERY@@@?$vector@UtagLOTTERY@@V?$allocator@UtagLOTTERY@@@std@@@std@@QAEPAUtagLOTTERY@@QAU2@ABU2@@Z 00408d10 f i CSHandler.obj
 0001:00007e70       ??$_Emplace_reallocate@ABUtagMONREGEN@@@?$vector@UtagMONREGEN@@V?$allocator@UtagMONREGEN@@@std@@@std@@QAEPAUtagMONREGEN@@QAU2@ABU2@@Z 00408e70 f i CSHandler.obj
 0001:00007fe0       ??$_Emplace_reallocate@ABUtagTCASHITEMSALE@@@?$vector@UtagTCASHITEMSALE@@V?$allocator@UtagTCASHITEMSALE@@@std@@@std@@QAEPAUtagTCASHITEMSALE@@QAU2@ABU2@@Z 00408fe0 f i CSHandler.obj
 0001:000080f0       ??$_Insert_at@U?$pair@$$CBKPAVCTUser@@@std@@U_Not_a_node_tag@2@@?$_Tree@V?$_Tmap_traits@KPAVCTUser@@U?$less@K@std@@V?$allocator@U?$pair@$$CBKPAVCTUser@@@std@@@3@$0A@@std@@@std@@IAE?AV?$_Tree_iterator@V?$_Tree_val@U?$_Tree_simple_types@U?$pair@$$CBKPAVCTUser@@@std@@@std@@@std@@@1@_NPAU?$_Tree_node@U?$pair@$$CBKPAVCTUser@@@std@@PAX@1@$$QAU?$pair@$$CBKPAVCTUser@@@1@U_Not_a_node_tag@1@@Z 004090f0 f i CSHandler.obj
 0001:000080f0       ??$_Insert_at@U?$pair@$$CBKK@std@@U_Not_a_node_tag@2@@?$_Tree@V?$_Tmap_traits@KKU?$less@K@std@@V?$allocator@U?$pair@$$CBKK@std@@@2@$0A@@std@@@std@@IAE?AV?$_Tree_iterator@V?$_Tree_val@U?$_Tree_simple_types@U?$pair@$$CBKK@std@@@std@@@std@@@1@_NPAU?$_Tree_node@U?$pair@$$CBKK@std@@PAX@1@$$QAU?$pair@$$CBKK@1@U_Not_a_node_tag@1@@Z 004090f0 f i CSHandler.obj
 0001:000080f0       ??$_Insert_at@U?$pair@$$CBEPAUtagTGROUP@@@std@@U_Not_a_node_tag@2@@?$_Tree@V?$_Tmap_traits@EPAUtagTGROUP@@U?$less@E@std@@V?$allocator@U?$pair@$$CBEPAUtagTGROUP@@@std@@@3@$0A@@std@@@std@@IAE?AV?$_Tree_iterator@V?$_Tree_val@U?$_Tree_simple_types@U?$pair@$$CBEPAUtagTGROUP@@@std@@@std@@@std@@@1@_NPAU?$_Tree_node@U?$pair@$$CBEPAUtagTGROUP@@@std@@PAX@1@$$QAU?$pair@$$CBEPAUtagTGROUP@@@1@U_Not_a_node_tag@1@@Z 004090f0 f i TLoginSvr.obj
 0001:00008250       ??$_Insert_at@U?$pair@$$CBKUtagEVENTINFO@@@std@@U_Not_a_node_tag@2@@?$_Tree@V?$_Tmap_traits@KUtagEVENTINFO@@U?$less@K@std@@V?$allocator@U?$pair@$$CBKUtagEVENTINFO@@@std@@@3@$0A@@std@@@std@@IAE?AV?$_Tree_iterator@V?$_Tree_val@U?$_Tree_simple_types@U?$pair@$$CBKUtagEVENTINFO@@@std@@@std@@@std@@@1@_NPAU?$_Tree_node@U?$pair@$$CBKUtagEVENTINFO@@@std@@PAX@1@$$QAU?$pair@$$CBKUtagEVENTINFO@@@1@U_Not_a_node_tag@1@@Z 00409250 f i CSHandler.obj
 0001:000083b0       ??$_Insert_nohint@U?$pair@$$CBKK@std@@U_Not_a_node_tag@2@@?$_Tree@V?$_Tmap_traits@KKU?$less@K@std@@V?$allocator@U?$pair@$$CBKK@std@@@2@$0A@@std@@@std@@IAE?AU?$pair@V?$_Tree_iterator@V?$_Tree_val@U?$_Tree_simple_types@U?$pair@$$CBKK@std@@@std@@@std@@@std@@_N@1@_N$$QAU?$pair@$$CBKK@1@U_Not_a_node_tag@1@@Z 004093b0 f i CSHandler.obj
 0001:000083b0       ??$_Insert_nohint@U?$pair@$$CBKPAVCTUser@@@std@@U_Not_a_node_tag@2@@?$_Tree@V?$_Tmap_traits@KPAVCTUser@@U?$less@K@std@@V?$allocator@U?$pair@$$CBKPAVCTUser@@@std@@@3@$0A@@std@@@std@@IAE?AU?$pair@V?$_Tree_iterator@V?$_Tree_val@U?$_Tree_simple_types@U?$pair@$$CBKPAVCTUser@@@std@@@std@@@std@@@std@@_N@1@_N$$QAU?$pair@$$CBKPAVCTUser@@@1@U_Not_a_node_tag@1@@Z 004093b0 f i CSHandler.obj
 0001:00008510       ??$_Insert_nohint@U?$pair@$$CBKUtagEVENTINFO@@@std@@U_Not_a_node_tag@2@@?$_Tree@V?$_Tmap_traits@KUtagEVENTINFO@@U?$less@K@std@@V?$allocator@U?$pair@$$CBKUtagEVENTINFO@@@std@@@3@$0A@@std@@@std@@IAE?AU?$pair@V?$_Tree_iterator@V?$_Tree_val@U?$_Tree_simple_types@U?$pair@$$CBKUtagEVENTINFO@@@std@@@std@@@std@@@std@@_N@1@_N$$QAU?$pair@$$CBKUtagEVENTINFO@@@1@U_Not_a_node_tag@1@@Z 00409510 f i CSHandler.obj
 0001:00008670       ??0?$CStringT@DV?$StrTraitATL@DV?$ChTraitsCRT@D@ATL@@@ATL@@@ATL@@QAE@ABV01@@Z 00409670 f i CSHandler.obj
 0001:000086a0       ??0?$CStringT@DV?$StrTraitATL@DV?$ChTraitsCRT@D@ATL@@@ATL@@@ATL@@QAE@PBD@Z 004096a0 f i CSHandler.obj
 0001:00008740       ??0?$vector@GV?$allocator@G@std@@@std@@QAE@ABV01@@Z 00409740 f i CSHandler.obj
 0001:000087b0       ??0?$vector@UtagLOTTERY@@V?$allocator@UtagLOTTERY@@@std@@@std@@QAE@ABV01@@Z 004097b0 f i CSHandler.obj
 0001:00008830       ??0?$vector@UtagMONREGEN@@V?$allocator@UtagMONREGEN@@@std@@@std@@QAE@ABV01@@Z 00409830 f i CSHandler.obj
 0001:000088c0       ??0?$vector@UtagTCASHITEMSALE@@V?$allocator@UtagTCASHITEMSALE@@@std@@@std@@QAE@ABV01@@Z 004098c0 f i CSHandler.obj
 0001:00008940       ??0CAtlException@ATL@@QAE@J@Z 00409940 f i CSHandler.obj
 0001:00008950       ??0tagEVENTINFO@@QAE@$$QAU0@@Z 00409950 f i CSHandler.obj
 0001:00008b70       ??1?$CStringT@DV?$StrTraitATL@DV?$ChTraitsCRT@D@ATL@@@ATL@@@ATL@@QAE@XZ 00409b70 f i CSHandler.obj
 0001:00008b70       ??1?$CSimpleStringT@D$0A@@ATL@@QAE@XZ 00409b70 f i CSHandler.obj
 0001:00008b90       ??1?$pair@$$CBKUtagEVENTINFO@@@std@@QAE@XZ 00409b90 f i CSHandler.obj
 0001:00008ba0       ??1?$vector@UtagTCASHITEMSALE@@V?$allocator@UtagTCASHITEMSALE@@@std@@@std@@QAE@XZ 00409ba0 f i CSHandler.obj
 0001:00008ba0       ??1?$vector@PAUtagTCHAR@@V?$allocator@PAUtagTCHAR@@@std@@@std@@QAE@XZ 00409ba0 f i CSHandler.obj
 0001:00008c00       ??1?$vector@UtagLOTTERY@@V?$allocator@UtagLOTTERY@@@std@@@std@@QAE@XZ 00409c00 f i CSHandler.obj
 0001:00008c10       ??1?$vector@UtagMONREGEN@@V?$allocator@UtagMONREGEN@@@std@@@std@@QAE@XZ 00409c10 f i CSHandler.obj
 0001:00008c20       ??1CCSLock@@UAE@XZ         00409c20 f i CSHandler.obj
 0001:00008c30       ??1tagEVENTINFO@@QAE@XZ    00409c30 f i CSHandler.obj
 0001:00008d80       ??1tagMONEVENT@@QAE@XZ     00409d80 f i CSHandler.obj
 0001:00008de0       ??E?$_Tree_const_iterator@V?$_Tree_val@U?$_Tree_simple_types@U?$pair@$$CBEPAUtagTGROUP@@@std@@@std@@@std@@@std@@QAEAAV01@XZ 00409de0 f i TLoginSvr.obj
 0001:00008de0       ??E?$_Tree_const_iterator@V?$_Tree_val@U?$_Tree_simple_types@U?$pair@$$CBKPAVCTUser@@@std@@@std@@@std@@@std@@QAEAAV01@XZ 00409de0 f i TLoginSvr.obj
 0001:00008de0       ??E?$_Tree_const_iterator@V?$_Tree_val@U?$_Tree_simple_types@U?$pair@$$CBV?$basic_string@DU?$char_traits@D@std@@V?$allocator@D@2@@std@@PAVCSqlQuery@@@std@@@std@@@std@@@std@@QAEAAV01@XZ 00409de0 f i TNetLib:SqlDatabase.obj
 0001:00008de0       ??E?$_Tree_const_iterator@V?$_Tree_val@U?$_Tree_simple_types@U?$pair@$$CBKUtagEVENTINFO@@@std@@@std@@@std@@@std@@QAEAAV01@XZ 00409de0 f i CSHandler.obj
 0001:00008e40       ??_ECAtlStringMgr@ATL@@UAEPAXI@Z 00409e40 f i CSHandler.obj
 0001:00008e40       ??_GCAtlStringMgr@ATL@@UAEPAXI@Z 00409e40 f i CSHandler.obj
 0001:00008e60       ??_GCCSLock@@UAEPAXI@Z     00409e60 f i CSHandler.obj
 0001:00008e60       ??_ECCSLock@@UAEPAXI@Z     00409e60 f i CSHandler.obj
 0001:00008e90       ??_GCWin32Heap@ATL@@UAEPAXI@Z 00409e90 f i CSHandler.obj
 0001:00008e90       ??_ECWin32Heap@ATL@@UAEPAXI@Z 00409e90 f i CSHandler.obj
 0001:00008ed0       ?Allocate@CAtlStringMgr@ATL@@UAEPAUCStringData@2@HH@Z 00409ed0 f i CSHandler.obj
 0001:00008f40       ?Allocate@CWin32Heap@ATL@@UAEPAXI@Z 00409f40 f i CSHandler.obj
 0001:00008f60       ?AtlCrtErrorCheck@ATL@@YAHH@Z 00409f60 f i CSHandler.obj
 0001:00009000       ?AtlThrowImpl@ATL@@YGXJ@Z  0040a000 f i CSHandler.obj
 0001:00009020       ?Clone@CAtlStringMgr@ATL@@UAEPAUIAtlStringMgr@2@XZ 0040a020 f i CSHandler.obj
 0001:00009030       ?CloneData@?$CSimpleStringT@D$0A@@ATL@@CAPAUCStringData@2@PAU32@@Z 0040a030 f i CSHandler.obj
 0001:00009090       ?Empty@?$CSimpleStringT@D$0A@@ATL@@QAEXXZ 0040a090 f i CSHandler.obj
 0001:000090f0       ?Fork@?$CSimpleStringT@D$0A@@ATL@@AAEXH@Z 0040a0f0 f i CSHandler.obj
 0001:00009170       ?Free@CAtlStringMgr@ATL@@UAEXPAUCStringData@2@@Z 0040a170 f i CSHandler.obj
 0001:00009180       ?Free@CWin32Heap@ATL@@UAEXPAX@Z 0040a180 f i CSHandler.obj
 0001:000091a0       ?GetInstance@CAtlStringMgr@ATL@@SAPAUIAtlStringMgr@2@XZ 0040a1a0 f i CSHandler.obj
 0001:000091a0       ?GetDefaultManager@?$StrTraitATL@DV?$ChTraitsCRT@D@ATL@@@ATL@@SAPAUIAtlStringMgr@2@XZ 0040a1a0 f i TNetLib:SqlBase.obj
 0001:000092a0       ?GetNilString@CAtlStringMgr@ATL@@UAEPAUCStringData@2@XZ 0040a2a0 f i CSHandler.obj
 0001:000092b0       ?GetSize@CWin32Heap@ATL@@UAEIPAX@Z 0040a2b0 f i CSHandler.obj
 0001:000092d0       ?LoadStringA@?$CStringT@DV?$StrTraitATL@DV?$ChTraitsCRT@D@ATL@@@ATL@@@ATL@@QAEHI@Z 0040a2d0 f i CSHandler.obj
 0001:00009410       ?MakeUpper@?$CStringT@DV?$StrTraitATL@DV?$ChTraitsCRT@D@ATL@@@ATL@@@ATL@@QAEAAV12@XZ 0040a410 f i CSHandler.obj
 0001:00009470       ?OnCS_AGREEMENT_REQ@CTLoginSvrModule@@IAEKPAVCSqlDatabase@@PAV?$map@EPAUtagTGROUP@@U?$less@E@std@@V?$allocator@U?$pair@$$CBEPAUtagTGROUP@@@std@@@3@@std@@PAVCTUser@@AAVCPacket@@@Z 0040a470 f   CSHandler.obj
 0001:00009530       ?OnCS_CHANNELLIST_REQ@CTLoginSvrModule@@IAEKPAVCSqlDatabase@@PAV?$map@EPAUtagTGROUP@@U?$less@E@std@@V?$allocator@U?$pair@$$CBEPAUtagTGROUP@@@std@@@3@@std@@PAVCTUser@@AAVCPacket@@@Z 0040a530 f   CSHandler.obj
 0001:00009760       ?OnCS_CHARLIST_REQ@CTLoginSvrModule@@IAEKPAVCSqlDatabase@@PAV?$map@EPAUtagTGROUP@@U?$less@E@std@@V?$allocator@U?$pair@$$CBEPAUtagTGROUP@@@std@@@3@@std@@PAVCTUser@@AAVCPacket@@@Z 0040a760 f   CSHandler.obj
 0001:0000a0e0       ?OnCS_CREATECHAR_REQ@CTLoginSvrModule@@IAEKPAVCSqlDatabase@@PAV?$map@EPAUtagTGROUP@@U?$less@E@std@@V?$allocator@U?$pair@$$CBEPAUtagTGROUP@@@std@@@3@@std@@PAVCTUser@@AAVCPacket@@@Z 0040b0e0 f   CSHandler.obj
 0001:0000a570       ?OnCS_DELCHAR_REQ@CTLoginSvrModule@@IAEKPAVCSqlDatabase@@PAV?$map@EPAUtagTGROUP@@U?$less@E@std@@V?$allocator@U?$pair@$$CBEPAUtagTGROUP@@@std@@@3@@std@@PAVCTUser@@AAVCPacket@@@Z 0040b570 f   CSHandler.obj
 0001:0000a830       ?OnCS_GROUPLIST_REQ@CTLoginSvrModule@@IAEKPAVCSqlDatabase@@PAV?$map@EPAUtagTGROUP@@U?$less@E@std@@V?$allocator@U?$pair@$$CBEPAUtagTGROUP@@@std@@@3@@std@@PAVCTUser@@AAVCPacket@@@Z 0040b830 f   CSHandler.obj
 0001:0000ab10       ?OnCS_HOTSEND_REQ@CTLoginSvrModule@@IAEKPAVCSqlDatabase@@PAV?$map@EPAUtagTGROUP@@U?$less@E@std@@V?$allocator@U?$pair@$$CBEPAUtagTGROUP@@@std@@@3@@std@@PAVCTUser@@AAVCPacket@@@Z 0040bb10 f   CSHandler.obj
 0001:0000ab40       ?OnCS_LOGIN_REQ@CTLoginSvrModule@@IAEKPAVCSqlDatabase@@PAV?$map@EPAUtagTGROUP@@U?$less@E@std@@V?$allocator@U?$pair@$$CBEPAUtagTGROUP@@@std@@@3@@std@@PAVCTUser@@AAVCPacket@@@Z 0040bb40 f   CSHandler.obj
 0001:0000b4d0       ?OnCS_SECURITYCONFIRM_ACK@CTLoginSvrModule@@IAEKPAVCSqlDatabase@@PAV?$map@EPAUtagTGROUP@@U?$less@E@std@@V?$allocator@U?$pair@$$CBEPAUtagTGROUP@@@std@@@3@@std@@PAVCTUser@@AAVCPacket@@@Z 0040c4d0 f   CSHandler.obj
 0001:0000b6b0       ?OnCS_START_REQ@CTLoginSvrModule@@IAEKPAVCSqlDatabase@@PAV?$map@EPAUtagTGROUP@@U?$less@E@std@@V?$allocator@U?$pair@$$CBEPAUtagTGROUP@@@std@@@3@@std@@PAVCTUser@@AAVCPacket@@@Z 0040c6b0 f   CSHandler.obj
 0001:0000ba40       ?OnCS_TERMINATE_REQ@CTLoginSvrModule@@IAEKPAVCSqlDatabase@@PAV?$map@EPAUtagTGROUP@@U?$less@E@std@@V?$allocator@U?$pair@$$CBEPAUtagTGROUP@@@std@@@3@@std@@PAVCTUser@@AAVCPacket@@@Z 0040ca40 f   CSHandler.obj
 0001:0000ba70       ?OnCS_TESTLOGIN_REQ@CTLoginSvrModule@@IAEKPAVCSqlDatabase@@PAV?$map@EPAUtagTGROUP@@U?$less@E@std@@V?$allocator@U?$pair@$$CBEPAUtagTGROUP@@@std@@@3@@std@@PAVCTUser@@AAVCPacket@@@Z 0040ca70 f   CSHandler.obj
 0001:0000bd20       ?OnCS_TESTVERSION_REQ@CTLoginSvrModule@@IAEKPAVCSqlDatabase@@PAV?$map@EPAUtagTGROUP@@U?$less@E@std@@V?$allocator@U?$pair@$$CBEPAUtagTGROUP@@@std@@@3@@std@@PAVCTUser@@AAVCPacket@@@Z 0040cd20 f   CSHandler.obj
 0001:0000bd40       ?OnCS_VETERAN_REQ@CTLoginSvrModule@@IAEKPAVCSqlDatabase@@PAV?$map@EPAUtagTGROUP@@U?$less@E@std@@V?$allocator@U?$pair@$$CBEPAUtagTGROUP@@@std@@@3@@std@@PAVCTUser@@AAVCPacket@@@Z 0040cd40 f   CSHandler.obj
 0001:0000bd70       ?OnCT_CTRLSVR_REQ@CTLoginSvrModule@@IAEKPAVCSqlDatabase@@PAV?$map@EPAUtagTGROUP@@U?$less@E@std@@V?$allocator@U?$pair@$$CBEPAUtagTGROUP@@@std@@@3@@std@@PAVCTUser@@AAVCPacket@@@Z 0040cd70 f   CSHandler.obj
 0001:0000bd80       ?OnCT_EVENTMSG_REQ@CTLoginSvrModule@@IAEKPAVCSqlDatabase@@PAV?$map@EPAUtagTGROUP@@U?$less@E@std@@V?$allocator@U?$pair@$$CBEPAUtagTGROUP@@@std@@@3@@std@@PAVCTUser@@AAVCPacket@@@Z 0040cd80 f   CSHandler.obj
 0001:0000be30       ?OnCT_EVENTUPDATE_REQ@CTLoginSvrModule@@IAEKPAVCSqlDatabase@@PAV?$map@EPAUtagTGROUP@@U?$less@E@std@@V?$allocator@U?$pair@$$CBEPAUtagTGROUP@@@std@@@3@@std@@PAVCTUser@@AAVCPacket@@@Z 0040ce30 f   CSHandler.obj
 0001:0000c1c0       ?OnCT_SERVICEDATACLEAR_ACK@CTLoginSvrModule@@IAEKPAVCSqlDatabase@@PAV?$map@EPAUtagTGROUP@@U?$less@E@std@@V?$allocator@U?$pair@$$CBEPAUtagTGROUP@@@std@@@3@@std@@PAVCTUser@@AAVCPacket@@@Z 0040d1c0 f   CSHandler.obj
 0001:0000c350       ?OnCT_SERVICEMONITOR_ACK@CTLoginSvrModule@@IAEKPAVCSqlDatabase@@PAV?$map@EPAUtagTGROUP@@U?$less@E@std@@V?$allocator@U?$pair@$$CBEPAUtagTGROUP@@@std@@@3@@std@@PAVCTUser@@AAVCPacket@@@Z 0040d350 f   CSHandler.obj
 0001:0000c480       ?PrepareWrite2@?$CSimpleStringT@D$0A@@ATL@@AAEXH@Z 0040d480 f i CSHandler.obj
 0001:0000c4e0       ?Reallocate@?$CSimpleStringT@D$0A@@ATL@@AAEXH@Z 0040d4e0 f i CSHandler.obj
 0001:0000c520       ?Reallocate@CAtlStringMgr@ATL@@UAEPAUCStringData@2@PAU32@HH@Z 0040d520 f i CSHandler.obj
 0001:0000c580       ?Reallocate@CWin32Heap@ATL@@UAEPAXPAXI@Z 0040d580 f i CSHandler.obj
 0001:0000c5c0       ?SetString@?$CSimpleStringT@D$0A@@ATL@@QAEXPBDH@Z 0040d5c0 f i CSHandler.obj
 0001:0000c690       ?TRand@@YAKK@Z             0040d690 f i CSHandler.obj
 0001:0000c790       ?ThrowMemoryException@?$CSimpleStringT@D$0A@@ATL@@KAXXZ 0040d790 f i CSHandler.obj
 0001:0000c7a0       ?WrapPacketOut@tagEVENTINFO@@QAEXPAVCPacket@@@Z 0040d7a0 f i CSHandler.obj
 0001:0000ca40       ?_AtlGetStringResourceImage@ATL@@YAPBUATLSTRINGRESOURCEIMAGE@1@PAUHINSTANCE__@@PAUHRSRC__@@I@Z 0040da40 f i CSHandler.obj
 0001:0000caa0       ?_AtlInitializeCriticalSectionEx@ATL@@YAHPAU_RTL_CRITICAL_SECTION@@KK@Z 0040daa0 f i CSHandler.obj
 0001:0000cac0       ?_AtlRaiseException@ATL@@YAXKK@Z 0040dac0 f i CSHandler.obj
 0001:0000cae0       ?_Buynode0@?$_Tree_comp_alloc@V?$_Tmap_traits@KPAVCTUser@@U?$less@K@std@@V?$allocator@U?$pair@$$CBKPAVCTUser@@@std@@@3@$0A@@std@@@std@@QAEPAU?$_Tree_node@U?$pair@$$CBKPAVCTUser@@@std@@PAX@2@XZ 0040dae0 f i CSHandler.obj
 0001:0000cae0       ?_Buynode0@?$_Tree_comp_alloc@V?$_Tmap_traits@EPAUtagTGROUP@@U?$less@E@std@@V?$allocator@U?$pair@$$CBEPAUtagTGROUP@@@std@@@3@$0A@@std@@@std@@QAEPAU?$_Tree_node@U?$pair@$$CBEPAUtagTGROUP@@@std@@PAX@2@XZ 0040dae0 f i TLoginSvr.obj
 0001:0000cae0       ?_Buynode0@?$_Tree_comp_alloc@V?$_Tmap_traits@KKU?$less@K@std@@V?$allocator@U?$pair@$$CBKK@std@@@2@$0A@@std@@@std@@QAEPAU?$_Tree_node@U?$pair@$$CBKK@std@@PAX@2@XZ 0040dae0 f i CSHandler.obj
 0001:0000cb00       ?_Buynode0@?$_Tree_comp_alloc@V?$_Tmap_traits@KUtagEVENTINFO@@U?$less@K@std@@V?$allocator@U?$pair@$$CBKUtagEVENTINFO@@@std@@@3@$0A@@std@@@std@@QAEPAU?$_Tree_node@U?$pair@$$CBKUtagEVENTINFO@@@std@@PAX@2@XZ 0040db00 f i CSHandler.obj
 0001:0000cb20       ?_Erase@?$_Tree@V?$_Tmap_traits@KPAVCTUser@@U?$less@K@std@@V?$allocator@U?$pair@$$CBKPAVCTUser@@@std@@@3@$0A@@std@@@std@@IAEXPAU?$_Tree_node@U?$pair@$$CBKPAVCTUser@@@std@@PAX@2@@Z 0040db20 f i TLoginSvr.obj
 0001:0000cb20       ?_Erase@?$_Tree@V?$_Tmap_traits@KKU?$less@K@std@@V?$allocator@U?$pair@$$CBKK@std@@@2@$0A@@std@@@std@@IAEXPAU?$_Tree_node@U?$pair@$$CBKK@std@@PAX@2@@Z 0040db20 f i CSHandler.obj
 0001:0000cb20       ?_Erase@?$_Tree@V?$_Tmap_traits@EPAUtagTGROUP@@U?$less@E@std@@V?$allocator@U?$pair@$$CBEPAUtagTGROUP@@@std@@@3@$0A@@std@@@std@@IAEXPAU?$_Tree_node@U?$pair@$$CBEPAUtagTGROUP@@@std@@PAX@2@@Z 0040db20 f i TLoginSvr.obj
 0001:0000cb60       ?_Extract@?$_Tree_val@U?$_Tree_simple_types@U?$pair@$$CBV?$basic_string@DU?$char_traits@D@std@@V?$allocator@D@2@@std@@PAVCSqlQuery@@@std@@@std@@@std@@QAEPAU?$_Tree_node@U?$pair@$$CBV?$basic_string@DU?$char_traits@D@std@@V?$allocator@D@2@@std@@PAVCSqlQuery@@@std@@PAX@2@V?$_Tree_const_iterator@V?$_Tree_val@U?$_Tree_simple_types@U?$pair@$$CBV?$basic_string@DU?$char_traits@D@std@@V?$allocator@D@2@@std@@PAVCSqlQuery@@@std@@@std@@@std@@@2@@Z 0040db60 f i TNetLib:SqlDatabase.obj
 0001:0000cb60       ?_Extract@?$_Tree_val@U?$_Tree_simple_types@U?$pair@$$CBKUtagEVENTINFO@@@std@@@std@@@std@@QAEPAU?$_Tree_node@U?$pair@$$CBKUtagEVENTINFO@@@std@@PAX@2@V?$_Tree_const_iterator@V?$_Tree_val@U?$_Tree_simple_types@U?$pair@$$CBKUtagEVENTINFO@@@std@@@std@@@std@@@2@@Z 0040db60 f i CSHandler.obj
 0001:0000cb60       ?_Extract@?$_Tree_val@U?$_Tree_simple_types@U?$pair@$$CBKPAVCTUser@@@std@@@std@@@std@@QAEPAU?$_Tree_node@U?$pair@$$CBKPAVCTUser@@@std@@PAX@2@V?$_Tree_const_iterator@V?$_Tree_val@U?$_Tree_simple_types@U?$pair@$$CBKPAVCTUser@@@std@@@std@@@std@@@2@@Z 0040db60 f i TLoginSvr.obj
 0001:0000cdd0       ?_Freenode0@?$_Tree_comp_alloc@V?$_Tmap_traits@KUtagEVENTINFO@@U?$less@K@std@@V?$allocator@U?$pair@$$CBKUtagEVENTINFO@@@std@@@3@$0A@@std@@@std@@QAEXPAU?$_Tree_node@U?$pair@$$CBKUtagEVENTINFO@@@std@@PAX@2@@Z 0040ddd0 f i CSHandler.obj
 0001:0000cdf0       ?_Growmap@?$deque@PAVCPacket@@V?$allocator@PAVCPacket@@@std@@@std@@IAEXI@Z 0040ddf0 f i TNetLib:Session.obj
 0001:0000cdf0       ?_Growmap@?$deque@KV?$allocator@K@std@@@std@@IAEXI@Z 0040ddf0 f i CSHandler.obj
 0001:0000cf90       ?_Tidy@?$vector@UtagLOTTERY@@V?$allocator@UtagLOTTERY@@@std@@@std@@AAEXXZ 0040df90 f i CSHandler.obj
 0001:0000d000       ?_Tidy@?$vector@UtagMONREGEN@@V?$allocator@UtagMONREGEN@@@std@@@std@@AAEXXZ 0040e000 f i CSHandler.obj
 0001:0000d070       ?_Xlen@?$deque@KV?$allocator@K@std@@@std@@IBEXXZ 0040e070 f i CSHandler.obj
 0001:0000d070       ?_Xlen@?$deque@PAVCPacket@@V?$allocator@PAVCPacket@@@std@@@std@@IBEXXZ 0040e070 f i TNetLib:Session.obj
 0001:0000d080       ?allocate@?$allocator@G@std@@QAEPAGI@Z 0040e080 f i CSHandler.obj
 0001:0000d0f0       ?allocate@?$allocator@UtagLOTTERY@@@std@@QAEPAUtagLOTTERY@@I@Z 0040e0f0 f i CSHandler.obj
 0001:0000d160       ?allocate@?$allocator@UtagMONREGEN@@@std@@QAEPAUtagMONREGEN@@I@Z 0040e160 f i CSHandler.obj
 0001:0000d1d0       ?allocate@?$allocator@UtagTCASHITEMSALE@@@std@@QAEPAUtagTCASHITEMSALE@@I@Z 0040e1d0 f i CSHandler.obj
 0001:0000d240       ?find@?$_Tree@V?$_Tmap_traits@KKU?$less@K@std@@V?$allocator@U?$pair@$$CBKK@std@@@2@$0A@@std@@@std@@QAE?AV?$_Tree_iterator@V?$_Tree_val@U?$_Tree_simple_types@U?$pair@$$CBKK@std@@@std@@@std@@@2@ABK@Z 0040e240 f i CSHandler.obj
 0001:0000d240       ?find@?$_Tree@V?$_Tmap_traits@KPAVCTUser@@U?$less@K@std@@V?$allocator@U?$pair@$$CBKPAVCTUser@@@std@@@3@$0A@@std@@@std@@QAE?AV?$_Tree_iterator@V?$_Tree_val@U?$_Tree_simple_types@U?$pair@$$CBKPAVCTUser@@@std@@@std@@@std@@@2@ABK@Z 0040e240 f i CSHandler.obj
 0001:0000d330       ?SendCS_BOWPLAYERNOTIFY_ACK@CTUser@@QAEXE@Z 0040e330 f   CSSender.obj
 0001:0000d3c0       ?SendCS_CREATECHAR_ACK@CTUser@@QAEXEKV?$CStringT@DV?$StrTraitATL@DV?$ChTraitsCRT@D@ATL@@@ATL@@@ATL@@EEEEEEEEEEEEE@Z 0040e3c0 f   CSSender.obj
 0001:0000d500       ?SendCS_DELCHAR_ACK@CTUser@@QAEXEK@Z 0040e500 f   CSSender.obj
 0001:0000d590       ?SendCS_LOGIN_ACK@CTUser@@QAEXEKKKKGEEK_J@Z 0040e590 f   CSSender.obj
 0001:0000d690       ?SendCS_SECURITYRESULT_ACK@CTUser@@QAEXE@Z 0040e690 f   CSSender.obj
 0001:0000d720       ?SendCS_START_ACK@CTUser@@QAEXEKGE@Z 0040e720 f   CSSender.obj
 0001:0000d7d0       ?SendCS_TESTVERSION_ACK@CTUser@@QAEXG@Z 0040e7d0 f   CSSender.obj
 0001:0000d860       ?SendCS_VETERAN_ACK@CTUser@@QAEXEEEE@Z 0040e860 f   CSSender.obj
 0001:0000d910       ?SendCT_SERVICEMONITOR_REQ@CTUser@@QAEXKKKK@Z 0040e910 f   CSSender.obj
 0001:0000d9c0       ??_GCSPCheckForbiddenHWID@@UAEPAXI@Z 0040e9c0 f i DBAccess.obj
 0001:0000d9c0       ??_GCSPAddNewMACAddress@@UAEPAXI@Z 0040e9c0 f i DBAccess.obj
 0001:0000d9c0       ??_ECSPLoadService@@UAEPAXI@Z 0040e9c0 f i DBAccess.obj
 0001:0000d9c0       ??_ECSPCheckIP@@UAEPAXI@Z  0040e9c0 f i DBAccess.obj
 0001:0000d9c0       ??_GCSPCheckIP@@UAEPAXI@Z  0040e9c0 f i DBAccess.obj
 0001:0000d9c0       ??_ECSPCheckForbiddenHWID@@UAEPAXI@Z 0040e9c0 f i DBAccess.obj
 0001:0000d9c0       ??_GCSPLoadService@@UAEPAXI@Z 0040e9c0 f i DBAccess.obj
 0001:0000d9c0       ??_ECSPAddNewMACAddress@@UAEPAXI@Z 0040e9c0 f i DBAccess.obj
 0001:0000d9f0       ??_ECTBLVeteranChart@@UAEPAXI@Z 0040e9f0 f i DBAccess.obj
 0001:0000d9f0       ??_GCTBLVeteranChart@@UAEPAXI@Z 0040e9f0 f i DBAccess.obj
 0001:0000d9f0       ??_GCSPGetNation@@UAEPAXI@Z 0040e9f0 f i DBAccess.obj
 0001:0000d9f0       ??_ECSPAgreement@@UAEPAXI@Z 0040e9f0 f i DBAccess.obj
 0001:0000d9f0       ??_ECSPGetNation@@UAEPAXI@Z 0040e9f0 f i DBAccess.obj
 0001:0000d9f0       ??_GCSPAgreement@@UAEPAXI@Z 0040e9f0 f i DBAccess.obj
 0001:0000da20       ??_ECSPCheckPasswd@@UAEPAXI@Z 0040ea20 f i DBAccess.obj
 0001:0000da20       ??_GCSPRoute@@UAEPAXI@Z    0040ea20 f i DBAccess.obj
 0001:0000da20       ??_ECSPRoute@@UAEPAXI@Z    0040ea20 f i DBAccess.obj
 0001:0000da20       ??_GCSPCheckPasswd@@UAEPAXI@Z 0040ea20 f i DBAccess.obj
 0001:0000da50       ??_GCSPClearLoginUser@@UAEPAXI@Z 0040ea50 f i DBAccess.obj
 0001:0000da50       ??_ECSPClearLoginUser@@UAEPAXI@Z 0040ea50 f i DBAccess.obj
 0001:0000da80       ??_ECSPCreateChar@@UAEPAXI@Z 0040ea80 f i DBAccess.obj
 0001:0000da80       ??_GCSPCreateChar@@UAEPAXI@Z 0040ea80 f i DBAccess.obj
 0001:0000da80       ??_GCTBLChar@@UAEPAXI@Z    0040ea80 f i DBAccess.obj
 0001:0000da80       ??_ECTBLChar@@UAEPAXI@Z    0040ea80 f i DBAccess.obj
 0001:0000dab0       ??_ECSPDeleteChar@@UAEPAXI@Z 0040eab0 f i DBAccess.obj
 0001:0000dab0       ??_GCSPLogout@@UAEPAXI@Z   0040eab0 f i DBAccess.obj
 0001:0000dab0       ??_ECSPLogout@@UAEPAXI@Z   0040eab0 f i DBAccess.obj
 0001:0000dab0       ??_GCSPDeleteChar@@UAEPAXI@Z 0040eab0 f i DBAccess.obj
 0001:0000dae0       ??_ECTBLUserCount@@UAEPAXI@Z 0040eae0 f i DBAccess.obj
 0001:0000dae0       ??_GCTBLUserCount@@UAEPAXI@Z 0040eae0 f i DBAccess.obj
 0001:0000dae0       ??_ECSPFindBRPlayer@@UAEPAXI@Z 0040eae0 f i DBAccess.obj
 0001:0000dae0       ??_ECSPFindBOWPlayer@@UAEPAXI@Z 0040eae0 f i DBAccess.obj
 0001:0000dae0       ??_GCSPVeteran@@UAEPAXI@Z  0040eae0 f i DBAccess.obj
 0001:0000dae0       ??_GCSPFindBOWPlayer@@UAEPAXI@Z 0040eae0 f i DBAccess.obj
 0001:0000dae0       ??_GCSPFindBRPlayer@@UAEPAXI@Z 0040eae0 f i DBAccess.obj
 0001:0000dae0       ??_ECSPVeteran@@UAEPAXI@Z  0040eae0 f i DBAccess.obj
 0001:0000db10       ??_ECSPFindServerID@@UAEPAXI@Z 0040eb10 f i DBAccess.obj
 0001:0000db10       ??_GCSPFindServerID@@UAEPAXI@Z 0040eb10 f i DBAccess.obj
 0001:0000db40       ??_ECSPGetBanReason@@UAEPAXI@Z 0040eb40 f i DBAccess.obj
 0001:0000db40       ??_GCSPGetBanReason@@UAEPAXI@Z 0040eb40 f i DBAccess.obj
 0001:0000db70       ??_ECSPGetClientSha@@UAEPAXI@Z 0040eb70 f i DBAccess.obj
 0001:0000db70       ??_GCSPGetClientSha@@UAEPAXI@Z 0040eb70 f i DBAccess.obj
 0001:0000dba0       ??_ECTBLChannel@@UAEPAXI@Z 0040eba0 f i DBAccess.obj
 0001:0000dba0       ??_GCTBLChannel@@UAEPAXI@Z 0040eba0 f i DBAccess.obj
 0001:0000dba0       ??_ECSPGetGuildInfo@@UAEPAXI@Z 0040eba0 f i DBAccess.obj
 0001:0000dba0       ??_GCSPGetGuildInfo@@UAEPAXI@Z 0040eba0 f i DBAccess.obj
 0001:0000dbd0       ??_GCSPLogin@@UAEPAXI@Z    0040ebd0 f i DBAccess.obj
 0001:0000dbd0       ??_ECSPLogin@@UAEPAXI@Z    0040ebd0 f i DBAccess.obj
 0001:0000dc00       ??_ECSPLoginJP@@UAEPAXI@Z  0040ec00 f i DBAccess.obj
 0001:0000dc00       ??_GCSPLoginJP@@UAEPAXI@Z  0040ec00 f i DBAccess.obj
 0001:0000dc30       ??_GCSPTestLogin@@UAEPAXI@Z 0040ec30 f i DBAccess.obj
 0001:0000dc30       ??_ECSPTestLogin@@UAEPAXI@Z 0040ec30 f i DBAccess.obj
 0001:0000dc60       ??_GCTBLGroup@@UAEPAXI@Z   0040ec60 f i DBAccess.obj
 0001:0000dc60       ??_ECTBLGroup@@UAEPAXI@Z   0040ec60 f i DBAccess.obj
 0001:0000dc90       ??_GCTBLGroupList@@UAEPAXI@Z 0040ec90 f i DBAccess.obj
 0001:0000dc90       ??_ECTBLGroupList@@UAEPAXI@Z 0040ec90 f i DBAccess.obj
 0001:0000dcc0       ??_GCTBLItem@@UAEPAXI@Z    0040ecc0 f i DBAccess.obj
 0001:0000dcc0       ??_ECTBLItem@@UAEPAXI@Z    0040ecc0 f i DBAccess.obj
 0001:0000dcf0       ?BindColumns@CTBLChannel@@UAEFXZ 0040ecf0 f i DBAccess.obj
 0001:0000ddb0       ?BindColumns@CTBLChar@@UAEFXZ 0040edb0 f i DBAccess.obj
 0001:0000dff0       ?BindColumns@CTBLGroup@@UAEFXZ 0040eff0 f i DBAccess.obj
 0001:0000e0c0       ?BindColumns@CTBLGroupList@@UAEFXZ 0040f0c0 f i DBAccess.obj
 0001:0000e1f0       ?BindColumns@CTBLItem@@UAEFXZ 0040f1f0 f i DBAccess.obj
 0001:0000e2f0       ?BindColumns@CTBLUserCount@@UAEFXZ 0040f2f0 f i DBAccess.obj
 0001:0000e330       ?BindColumns@CTBLVeteranChart@@UAEFXZ 0040f330 f i DBAccess.obj
 0001:0000e370       ?BindParameters@CSPAddNewMACAddress@@UAEFH@Z 0040f370 f i DBAccess.obj
 0001:0000e3e0       ?BindParameters@CSPAgreement@@UAEFH@Z 0040f3e0 f i DBAccess.obj
 0001:0000e420       ?BindParameters@CSPCheckForbiddenHWID@@UAEFH@Z 0040f420 f i DBAccess.obj
 0001:0000e420       ?BindParameters@CSPCheckIP@@UAEFH@Z 0040f420 f i DBAccess.obj
 0001:0000e490       ?BindParameters@CSPCheckPasswd@@UAEFH@Z 0040f490 f i DBAccess.obj
 0001:0000e530       ?BindParameters@CSPCreateChar@@UAEFH@Z 0040f530 f i DBAccess.obj
 0001:0000e880       ?BindParameters@CSPDeleteChar@@UAEFH@Z 0040f880 f i DBAccess.obj
 0001:0000e970       ?BindParameters@CSPFindBOWPlayer@@UAEFH@Z 0040f970 f i DBAccess.obj
 0001:0000e970       ?BindParameters@CSPFindBRPlayer@@UAEFH@Z 0040f970 f i DBAccess.obj
 0001:0000e9e0       ?BindParameters@CSPFindServerID@@UAEFH@Z 0040f9e0 f i DBAccess.obj
 0001:0000eaa0       ?BindParameters@CSPGetBanReason@@UAEFH@Z 0040faa0 f i DBAccess.obj
 0001:0000eb90       ?BindParameters@CSPGetClientSha@@UAEFH@Z 0040fb90 f i DBAccess.obj
 0001:0000ec00       ?BindParameters@CSPGetGuildInfo@@UAEFH@Z 0040fc00 f i DBAccess.obj
 0001:0000ecc0       ?BindParameters@CSPGetNation@@UAEFH@Z 0040fcc0 f i DBAccess.obj
 0001:0000ed00       ?BindParameters@CSPLoadService@@UAEFH@Z 0040fd00 f i DBAccess.obj
 0001:0000edc0       ?BindParameters@CSPLogin@@UAEFH@Z 0040fdc0 f i DBAccess.obj
 0001:0000f040       ?BindParameters@CSPLoginJP@@UAEFH@Z 00410040 f i DBAccess.obj
 0001:0000f2f0       ?BindParameters@CSPLogout@@UAEFH@Z 004102f0 f i DBAccess.obj
 0001:0000f3e0       ?BindParameters@CSPRoute@@UAEFH@Z 004103e0 f i DBAccess.obj
 0001:0000f500       ?BindParameters@CSPTestLogin@@UAEFH@Z 00410500 f i DBAccess.obj
 0001:0000f690       ?BindParameters@CSPVeteran@@UAEFH@Z 00410690 f i DBAccess.obj
 0001:0000f700       ?BindParameters@CTBLChannel@@UAEFH@Z 00410700 f i DBAccess.obj
 0001:0000f740       ?BindParameters@CTBLChar@@UAEFH@Z 00410740 f i DBAccess.obj
 0001:0000f780       ?BindParameters@CTBLGroupList@@UAEFH@Z 00410780 f i DBAccess.obj
 0001:0000f7c0       ?BindParameters@CTBLItem@@UAEFH@Z 004107c0 f i DBAccess.obj
 0001:0000f880       ?GetNumCol@CTBLChannel@@UAEHXZ 00410880 f i DBAccess.obj
 0001:0000f880       ?GetNumParam@CSPRoute@@UAEHXZ 00410880 f i DBAccess.obj
 0001:0000f880       ?GetNumCol@CTBLGroup@@UAEHXZ 00410880 f i DBAccess.obj
 0001:0000f890       ?GetNumCol@CTBLChar@@UAEHXZ 00410890 f i DBAccess.obj
 0001:0000f8a0       ?GetNumCol@CTBLGroupList@@UAEHXZ 004108a0 f i DBAccess.obj
 0001:0000f8b0       ?GetNumCol@CTBLItem@@UAEHXZ 004108b0 f i DBAccess.obj
 0001:0000f8b0       ?GetNumParam@CSPTestLogin@@UAEHXZ 004108b0 f i DBAccess.obj
 0001:0000f8c0       ?GetNumParam@CSPAddNewMACAddress@@UAEHXZ 004108c0 f i DBAccess.obj
 0001:0000f8c0       ?GetNumParam@CSPVeteran@@UAEHXZ 004108c0 f i DBAccess.obj
 0001:0000f8c0       ?GetNumCol@CTBLUserCount@@UAEHXZ 004108c0 f i DBAccess.obj
 0001:0000f8c0       ?GetNumParam@CSPGetClientSha@@UAEHXZ 004108c0 f i DBAccess.obj
 0001:0000f8c0       ?GetNumParam@CSPFindBOWPlayer@@UAEHXZ 004108c0 f i DBAccess.obj
 0001:0000f8c0       ?GetNumParam@CSPCheckForbiddenHWID@@UAEHXZ 004108c0 f i DBAccess.obj
 0001:0000f8c0       ?GetNumParam@CSPFindBRPlayer@@UAEHXZ 004108c0 f i DBAccess.obj
 0001:0000f8c0       ?GetNumParam@CSPCheckIP@@UAEHXZ 004108c0 f i DBAccess.obj
 0001:0000f8c0       ?GetNumCol@CTBLVeteranChart@@UAEHXZ 004108c0 f i DBAccess.obj
 0001:0000f8d0       ?GetNumParam@CSPCheckPasswd@@UAEHXZ 004108d0 f i DBAccess.obj
 0001:0000f8e0       ?GetNumParam@CSPCreateChar@@UAEHXZ 004108e0 f i DBAccess.obj
 0001:0000f8f0       ?GetNumParam@CSPDeleteChar@@UAEHXZ 004108f0 f i DBAccess.obj
 0001:0000f8f0       ?GetNumParam@CSPLogout@@UAEHXZ 004108f0 f i DBAccess.obj
 0001:0000f8f0       ?GetNumParam@CSPGetBanReason@@UAEHXZ 004108f0 f i DBAccess.obj
 0001:0000f900       ?GetNumParam@CSPLoadService@@UAEHXZ 00410900 f i DBAccess.obj
 0001:0000f900       ?GetNumParam@CSPGetGuildInfo@@UAEHXZ 00410900 f i DBAccess.obj
 0001:0000f900       ?GetNumParam@CSPFindServerID@@UAEHXZ 00410900 f i DBAccess.obj
 0001:0000f900       ?GetNumParam@CTBLItem@@UAEHXZ 00410900 f i DBAccess.obj
 0001:0000f910       ?GetNumParam@CSPLogin@@UAEHXZ 00410910 f i DBAccess.obj
 0001:0000f920       ?GetNumParam@CSPLoginJP@@UAEHXZ 00410920 f i DBAccess.obj
 0001:0000f930       ?InitQueryTGameSvr@@YAHPAVCSqlDatabase@@@Z 00410930 f   DBAccess.obj
 0001:0000ff30       ?InitQueryTLoginSvr@@YAHPAVCSqlDatabase@@@Z 00410f30 f   DBAccess.obj
 0001:00010d40       ??0CDebugSocket@@QAE@XZ    00411d40 f   DebugSocket.obj
 0001:00010d60       ?Format@?$CStringT@DV?$StrTraitATL@DV?$ChTraitsCRT@D@ATL@@@ATL@@@ATL@@QAAXPBDZZ 00411d60 f i DebugSocket.obj
 0001:00010e10       ?Initialize@CDebugSocket@@QAEHPADH@Z 00411e10 f   DebugSocket.obj
 0001:00010e90       ??0?$basic_istream@DU?$char_traits@D@std@@@std@@QAE@PAV?$basic_streambuf@DU?$char_traits@D@std@@@1@_N@Z 00411e90 f i mailer.obj
 0001:00011080       ??1sentry@?$basic_istream@DU?$char_traits@D@std@@@std@@QAE@XZ 00412080 f i mailer.obj
 0001:000110cc       ??_E?$basic_istream@DU?$char_traits@D@std@@@std@@$4PPPPPPPM@A@AEPAXI@Z 004120cc f i mailer.obj
 0001:000110e0       ??_G?$basic_istream@DU?$char_traits@D@std@@@std@@UAEPAXI@Z 004120e0 f i mailer.obj
 0001:000110e0       ??_E?$basic_istream@DU?$char_traits@D@std@@@std@@UAEPAXI@Z 004120e0 f i mailer.obj
 0001:00011160       ?_Ipfx@?$basic_istream@DU?$char_traits@D@std@@@std@@QAE_N_N@Z 00412160 f i mailer.obj
 0001:00011400       ?LogEvent@?$CAtlServiceModuleT@VCTLoginSvrModule@@$0GE@@ATL@@QAAXPBDZZ 00412400 f i SSHandler.obj
 0001:000114b0       ??0CTLoginSession@@QAE@XZ  004124b0 f   TLoginSession.obj
 0001:000114d0       ??1CTLoginSession@@UAE@XZ  004124d0 f   TLoginSession.obj
 0001:000114e0       ??_ECTLoginSession@@UAEPAXI@Z 004124e0 f i TLoginSession.obj
 0001:000114e0       ??_GCTLoginSession@@UAEPAXI@Z 004124e0 f i TLoginSession.obj
 0001:00011510       ??$?5DU?$char_traits@D@std@@V?$allocator@D@1@@std@@YAAAV?$basic_istream@DU?$char_traits@D@std@@@0@$$QAV10@AAV?$basic_string@DU?$char_traits@D@std@@V?$allocator@D@2@@0@@Z 00412510 f i TLoginSvr.obj
 0001:00011860       ??$_Emplace_reallocate@ABUtagTVETERAN@@@?$vector@UtagTVETERAN@@V?$allocator@UtagTVETERAN@@@std@@@std@@QAEPAUtagTVETERAN@@QAU2@ABU2@@Z 00412860 f i TLoginSvr.obj
 0001:000119c0       ??$_Insert_nohint@U?$pair@$$CBEPAUtagTGROUP@@@std@@U_Not_a_node_tag@2@@?$_Tree@V?$_Tmap_traits@EPAUtagTGROUP@@U?$less@E@std@@V?$allocator@U?$pair@$$CBEPAUtagTGROUP@@@std@@@3@$0A@@std@@@std@@IAE?AU?$pair@V?$_Tree_iterator@V?$_Tree_val@U?$_Tree_simple_types@U?$pair@$$CBEPAUtagTGROUP@@@std@@@std@@@std@@@std@@_N@1@_N$$QAU?$pair@$$CBEPAUtagTGROUP@@@1@U_Not_a_node_tag@1@@Z 004129c0 f i TLoginSvr.obj
 0001:00011b20       ??0CAtlModule@ATL@@QAE@XZ  00412b20 f i TLoginSvr.obj
 0001:00011b90       ??0CTLoginSvrModule@@QAE@XZ 00412b90 f   TLoginSvr.obj
 0001:00011f50       ??1?$CAtlServiceModuleT@VCTLoginSvrModule@@$0GE@@ATL@@UAE@XZ 00412f50 f i TLoginSvr.obj
 0001:00011f60       ??1?$map@KKU?$less@K@std@@V?$allocator@U?$pair@$$CBKK@std@@@2@@std@@QAE@XZ 00412f60 f i TLoginSvr.obj
 0001:00011f60       ??1?$map@KPAVCTUser@@U?$less@K@std@@V?$allocator@U?$pair@$$CBKPAVCTUser@@@std@@@3@@std@@QAE@XZ 00412f60 f i TLoginSvr.obj
 0001:00011f60       ??1?$map@EPAUtagTGROUP@@U?$less@E@std@@V?$allocator@U?$pair@$$CBEPAUtagTGROUP@@@std@@@3@@std@@QAE@XZ 00412f60 f i TLoginSvr.obj
 0001:00011f80       ??1?$map@KUtagEVENTINFO@@U?$less@K@std@@V?$allocator@U?$pair@$$CBKUtagEVENTINFO@@@std@@@3@@std@@QAE@XZ 00412f80 f i TLoginSvr.obj
 0001:00011ff0       ??1?$vector@UtagTVETERAN@@V?$allocator@UtagTVETERAN@@@std@@@std@@QAE@XZ 00412ff0 f i TLoginSvr.obj
 0001:00012050       ??1CTLoginSvrModule@@UAE@XZ 00413050 f   TLoginSvr.obj
 0001:00012360       ??_ECTLoginSvrModule@@UAEPAXI@Z 00413360 f i TLoginSvr.obj
 0001:00012360       ??_GCTLoginSvrModule@@UAEPAXI@Z 00413360 f i TLoginSvr.obj
 0001:00012390       ?AddCommonRGSReplacements@?$CAtlModuleT@VCTLoginSvrModule@@@ATL@@UAEJPAUIRegistrarBase@@@Z 00413390 f i TLoginSvr.obj
 0001:000123b0       ?CheckCharName@CTLoginSvrModule@@QAEEPBD@Z 004133b0 f   TLoginSvr.obj
 0001:00012610       ?CloseSession@CTLoginSvrModule@@IAEXPAVCTUser@@@Z 00413610 f   TLoginSvr.obj
 0001:00012620       ?ControlThread@CTLoginSvrModule@@IAEKXZ 00413620 f   TLoginSvr.obj
 0001:00012890       ?FindGroup@CTLoginSvrModule@@IAEPAUtagTGROUP@@PAV?$map@EPAUtagTGROUP@@U?$less@E@std@@V?$allocator@U?$pair@$$CBEPAUtagTGROUP@@@std@@@3@@std@@E@Z 00413890 f   TLoginSvr.obj
 0001:000128e0       ?GetCheckFilePoint@CTLoginSvrModule@@IAEKPAVCTUser@@@Z 004138e0 f   TLoginSvr.obj
 0001:00012a90       ?GetCurrentUser@CTLoginSvrModule@@IAEKE@Z 00413a90 f   TLoginSvr.obj
 0001:00012af0       ?GetGITPtr@CAtlModule@ATL@@UAEJPAPAUIGlobalInterfaceTable@@@Z 00413af0 f i TLoginSvr.obj
 0001:00012b40       ?GetLockCount@CAtlModule@ATL@@UAEJXZ 00413b40 f i TLoginSvr.obj
 0001:00012b50       ?InitDB@CTLoginSvrModule@@IAEKPAVCSqlDatabase@@@Z 00413b50 f   TLoginSvr.obj
 0001:00012bc0       ?LoadConfig@CTLoginSvrModule@@IAEKXZ 00413bc0 f   TLoginSvr.obj
 0001:00012e40       ?LoadData@CTLoginSvrModule@@IAEKPAVCSqlDatabase@@PAV?$map@EPAUtagTGROUP@@U?$less@E@std@@V?$allocator@U?$pair@$$CBEPAUtagTGROUP@@@std@@@3@@std@@@Z 00413e40 f   TLoginSvr.obj
 0001:00013140       ?LoadDataLogin@CTLoginSvrModule@@IAEKXZ 00414140 f   TLoginSvr.obj
 0001:00013580       ?Lock@?$CAtlExeModuleT@VCTLoginSvrModule@@@ATL@@UAEJXZ 00414580 f i TLoginSvr.obj
 0001:00013590       ?LogExecCheck@CTLoginSvrModule@@IAEXKKV?$CStringT@DV?$StrTraitATL@DV?$ChTraitsCRT@D@ATL@@@ATL@@@ATL@@@Z 00414590 f   TLoginSvr.obj
 0001:000138e0       ?OnCloseSession@CTLoginSvrModule@@IAEXPAVCTUser@@@Z 004148e0 f   TLoginSvr.obj
 0001:00013aa0       ?OnEnter@CTLoginSvrModule@@MAEKXZ 00414aa0 f   TLoginSvr.obj
 0001:00013de0       ?OnExit@CTLoginSvrModule@@MAEXXZ 00414de0 f   TLoginSvr.obj
 0001:00014040       ?OnInvalidSession@CTLoginSvrModule@@IAEXPAVCTUser@@@Z 00415040 f   TLoginSvr.obj
 0001:00014070       ?OnReceive@CTLoginSvrModule@@IAEKPAVCSqlDatabase@@PAV?$map@EPAUtagTGROUP@@U?$less@E@std@@V?$allocator@U?$pair@$$CBEPAUtagTGROUP@@@std@@@3@@std@@PAVCTUser@@AAVCPacket@@@Z 00415070 f   TLoginSvr.obj
 0001:00014380       ?OnSendComplete@CTLoginSvrModule@@IAEXPAVCTUser@@K@Z 00415380 f   TLoginSvr.obj
 0001:000143b0       ?Term@CAtlModule@ATL@@QAEXXZ 004153b0 f i TLoginSvr.obj
 0001:00014430       ?Unlock@?$CAtlServiceModuleT@VCTLoginSvrModule@@$0GE@@ATL@@UAEJXZ 00415430 f i TLoginSvr.obj
 0001:00014450       ?WaitForConnect@CTLoginSvrModule@@IAEEXZ 00415450 f   TLoginSvr.obj
 0001:000144f0       ?WorkThread@CTLoginSvrModule@@IAEKXZ 004154f0 f   TLoginSvr.obj
 0001:000148b0       ?_Buyheadnode@?$_Tree_comp_alloc@V?$_Tmap_traits@EPAUtagTGROUP@@U?$less@E@std@@V?$allocator@U?$pair@$$CBEPAUtagTGROUP@@@std@@@3@$0A@@std@@@std@@QAEPAU?$_Tree_node@U?$pair@$$CBEPAUtagTGROUP@@@std@@PAX@2@XZ 004158b0 f i TLoginSvr.obj
 0001:000148b0       ?_Buyheadnode@?$_Tree_comp_alloc@V?$_Tmap_traits@KPAVCTUser@@U?$less@K@std@@V?$allocator@U?$pair@$$CBKPAVCTUser@@@std@@@3@$0A@@std@@@std@@QAEPAU?$_Tree_node@U?$pair@$$CBKPAVCTUser@@@std@@PAX@2@XZ 004158b0 f i TLoginSvr.obj
 0001:000148b0       ?_Buyheadnode@?$_Tree_comp_alloc@V?$_Tmap_traits@KKU?$less@K@std@@V?$allocator@U?$pair@$$CBKK@std@@@2@$0A@@std@@@std@@QAEPAU?$_Tree_node@U?$pair@$$CBKK@std@@PAX@2@XZ 004158b0 f i TLoginSvr.obj
 0001:000148d0       ?_Buyheadnode@?$_Tree_comp_alloc@V?$_Tmap_traits@KUtagEVENTINFO@@U?$less@K@std@@V?$allocator@U?$pair@$$CBKUtagEVENTINFO@@@std@@@3@$0A@@std@@@std@@QAEPAU?$_Tree_node@U?$pair@$$CBKUtagEVENTINFO@@@std@@PAX@2@XZ 004158d0 f i TLoginSvr.obj
 0001:000148f0       ?_ControlThread@CTLoginSvrModule@@CGKPAX@Z 004158f0 f   TLoginSvr.obj
 0001:00014900       ?_Erase@?$_Tree@V?$_Tmap_traits@KUtagEVENTINFO@@U?$less@K@std@@V?$allocator@U?$pair@$$CBKUtagEVENTINFO@@@std@@@3@$0A@@std@@@std@@IAEXPAU?$_Tree_node@U?$pair@$$CBKUtagEVENTINFO@@@std@@PAX@2@@Z 00415900 f i TLoginSvr.obj
 0001:00014950       ?_WorkThread@CTLoginSvrModule@@CGKPAX@Z 00415950 f   TLoginSvr.obj
 0001:00014960       ?clear@?$_Tree@V?$_Tmap_traits@EPAUtagTGROUP@@U?$less@E@std@@V?$allocator@U?$pair@$$CBEPAUtagTGROUP@@@std@@@3@$0A@@std@@@std@@QAEXXZ 00415960 f i TLoginSvr.obj
 0001:00014960       ?clear@?$_Tree@V?$_Tmap_traits@KPAVCTUser@@U?$less@K@std@@V?$allocator@U?$pair@$$CBKPAVCTUser@@@std@@@3@$0A@@std@@@std@@QAEXXZ 00415960 f i TLoginSvr.obj
 0001:00014960       ?clear@?$_Tree@V?$_Tmap_traits@KKU?$less@K@std@@V?$allocator@U?$pair@$$CBKK@std@@@2@$0A@@std@@@std@@QAEXXZ 00415960 f i TLoginSvr.obj
 0001:000149f0       ?snextc@?$basic_streambuf@DU?$char_traits@D@std@@@std@@QAEHXZ 004159f0 f i TLoginSvr.obj
 0001:00014a60       _main                      00415a60 f   TLoginSvr.obj
 0001:00014b90       ??0CTUser@@QAE@XZ          00415b90 f   TUser.obj
 0001:00014e30       ??1?$deque@PAVCPacket@@V?$allocator@PAVCPacket@@@std@@@std@@QAE@XZ 00415e30 f i TNetLib:Session.obj
 0001:00014e30       ??1?$deque@KV?$allocator@K@std@@@std@@QAE@XZ 00415e30 f i TUser.obj
 0001:00014ee0       ??1CTUser@@UAE@XZ          00415ee0 f   TUser.obj
 0001:00015020       ??_ECTUser@@UAEPAXI@Z      00416020 f i TUser.obj
 0001:00015020       ??_GCTUser@@UAEPAXI@Z      00416020 f i TUser.obj
 0001:00015050       ?Say@CTUser@@UAEHPAVCPacket@@@Z 00416050 f   TUser.obj
 0001:00015071       _AcceptEx@32               00416071 f   mswsock:MSWSOCK.dll
 0001:00015080       ??$_Buynode@U?$pair@$$CBV?$basic_string@DU?$char_traits@D@std@@V?$allocator@D@2@@std@@PAVCSqlQuery@@@std@@@?$_Tree_comp_alloc@V?$_Tmap_traits@V?$basic_string@DU?$char_traits@D@std@@V?$allocator@D@2@@std@@PAVCSqlQuery@@U?$less@V?$basic_string@DU?$char_traits@D@std@@V?$allocator@D@2@@std@@@2@V?$allocator@U?$pair@$$CBV?$basic_string@DU?$char_traits@D@std@@V?$allocator@D@2@@std@@PAVCSqlQuery@@@std@@@2@$0A@@std@@@std@@QAEPAU?$_Tree_node@U?$pair@$$CBV?$basic_string@DU?$char_traits@D@std@@V?$allocator@D@2@@std@@PAVCSqlQuery@@@std@@PAX@1@$$QAU?$pair@$$CBV?$basic_string@DU?$char_traits@D@std@@V?$allocator@D@2@@std@@PAVCSqlQuery@@@1@@Z 00416080 f i TNetLib:SqlDatabase.obj
 0001:00015110       ??$_Insert_at@U?$pair@$$CBV?$basic_string@DU?$char_traits@D@std@@V?$allocator@D@2@@std@@PAVCSqlQuery@@@std@@U_Not_a_node_tag@2@@?$_Tree@V?$_Tmap_traits@V?$basic_string@DU?$char_traits@D@std@@V?$allocator@D@2@@std@@PAVCSqlQuery@@U?$less@V?$basic_string@DU?$char_traits@D@std@@V?$allocator@D@2@@std@@@2@V?$allocator@U?$pair@$$CBV?$basic_string@DU?$char_traits@D@std@@V?$allocator@D@2@@std@@PAVCSqlQuery@@@std@@@2@$0A@@std@@@std@@IAE?AV?$_Tree_iterator@V?$_Tree_val@U?$_Tree_simple_types@U?$pair@$$CBV?$basic_string@DU?$char_traits@D@std@@V?$allocator@D@2@@std@@PAVCSqlQuery@@@std@@@std@@@std@@@1@_NPAU?$_Tree_node@U?$pair@$$CBV?$basic_string@DU?$char_traits@D@std@@V?$allocator@D@2@@std@@PAVCSqlQuery@@@std@@PAX@1@$$QAU?$pair@$$CBV?$basic_string@DU?$char_traits@D@std@@V?$allocator@D@2@@std@@PAVCSqlQuery@@@1@U_Not_a_node_tag@1@@Z 00416110 f i TNetLib:SqlDatabase.obj
 0001:00015270       ??$_Insert_nohint@U?$pair@$$CBV?$basic_string@DU?$char_traits@D@std@@V?$allocator@D@2@@std@@PAVCSqlQuery@@@std@@U_Not_a_node_tag@2@@?$_Tree@V?$_Tmap_traits@V?$basic_string@DU?$char_traits@D@std@@V?$allocator@D@2@@std@@PAVCSqlQuery@@U?$less@V?$basic_string@DU?$char_traits@D@std@@V?$allocator@D@2@@std@@@2@V?$allocator@U?$pair@$$CBV?$basic_string@DU?$char_traits@D@std@@V?$allocator@D@2@@std@@PAVCSqlQuery@@@std@@@2@$0A@@std@@@std@@IAE?AU?$pair@V?$_Tree_iterator@V?$_Tree_val@U?$_Tree_simple_types@U?$pair@$$CBV?$basic_string@DU?$char_traits@D@std@@V?$allocator@D@2@@std@@PAVCSqlQuery@@@std@@@std@@@std@@@std@@_N@1@_N$$QAU?$pair@$$CBV?$basic_string@DU?$char_traits@D@std@@V?$allocator@D@2@@std@@PAVCSqlQuery@@@1@U_Not_a_node_tag@1@@Z 00416270 f i TNetLib:SqlDatabase.obj
 0001:00015520       ??0CSqlDatabase@@QAE@XZ    00416520 f   TNetLib:SqlDatabase.obj
 0001:00015570       ??1CSqlDatabase@@UAE@XZ    00416570 f   TNetLib:SqlDatabase.obj
 0001:000155f0       ??R?$less@V?$basic_string@DU?$char_traits@D@std@@V?$allocator@D@2@@std@@@std@@QBE_NABV?$basic_string@DU?$char_traits@D@std@@V?$allocator@D@2@@1@0@Z 004165f0 f i TNetLib:SqlDatabase.obj
 0001:000156a0       ??_ECSqlDatabase@@UAEPAXI@Z 004166a0 f i TNetLib:SqlDatabase.obj
 0001:000156a0       ??_GCSqlDatabase@@UAEPAXI@Z 004166a0 f i TNetLib:SqlDatabase.obj
 0001:00015740       ?AddQuery@CSqlDatabase@@QAEHPAVCSqlQuery@@V?$basic_string@DU?$char_traits@D@std@@V?$allocator@D@2@@std@@@Z 00416740 f   TNetLib:SqlDatabase.obj
 0001:00015850       ?Close@CSqlDatabase@@QAEXXZ 00416850 f   TNetLib:SqlDatabase.obj
 0001:00015940       ?DelQuery@CSqlDatabase@@QAEPAVCSqlQuery@@V?$basic_string@DU?$char_traits@D@std@@V?$allocator@D@2@@std@@@Z 00416940 f   TNetLib:SqlDatabase.obj
 0001:000159b0       ?GetQuery@CSqlDatabase@@QAEPAVCSqlQuery@@V?$basic_string@DU?$char_traits@D@std@@V?$allocator@D@2@@std@@@Z 004169b0 f   TNetLib:SqlDatabase.obj
 0001:00015a20       ?HDBC@CSqlDatabase@@QAEPAXXZ 00416a20 f   TNetLib:SqlDatabase.obj
 0001:00015a30       ?Open@CSqlDatabase@@QAEHPBD00@Z 00416a30 f   TNetLib:SqlDatabase.obj
 0001:00015b00       ?_Buyheadnode@?$_Tree_comp_alloc@V?$_Tmap_traits@V?$basic_string@DU?$char_traits@D@std@@V?$allocator@D@2@@std@@PAVCSqlQuery@@U?$less@V?$basic_string@DU?$char_traits@D@std@@V?$allocator@D@2@@std@@@2@V?$allocator@U?$pair@$$CBV?$basic_string@DU?$char_traits@D@std@@V?$allocator@D@2@@std@@PAVCSqlQuery@@@std@@@2@$0A@@std@@@std@@QAEPAU?$_Tree_node@U?$pair@$$CBV?$basic_string@DU?$char_traits@D@std@@V?$allocator@D@2@@std@@PAVCSqlQuery@@@std@@PAX@2@XZ 00416b00 f i TNetLib:SqlDatabase.obj
 0001:00015b20       ?_Buynode0@?$_Tree_comp_alloc@V?$_Tmap_traits@V?$basic_string@DU?$char_traits@D@std@@V?$allocator@D@2@@std@@PAVCSqlQuery@@U?$less@V?$basic_string@DU?$char_traits@D@std@@V?$allocator@D@2@@std@@@2@V?$allocator@U?$pair@$$CBV?$basic_string@DU?$char_traits@D@std@@V?$allocator@D@2@@std@@PAVCSqlQuery@@@std@@@2@$0A@@std@@@std@@QAEPAU?$_Tree_node@U?$pair@$$CBV?$basic_string@DU?$char_traits@D@std@@V?$allocator@D@2@@std@@PAVCSqlQuery@@@std@@PAX@2@XZ 00416b20 f i TNetLib:SqlDatabase.obj
 0001:00015b40       ?_Erase@?$_Tree@V?$_Tmap_traits@V?$basic_string@DU?$char_traits@D@std@@V?$allocator@D@2@@std@@PAVCSqlQuery@@U?$less@V?$basic_string@DU?$char_traits@D@std@@V?$allocator@D@2@@std@@@2@V?$allocator@U?$pair@$$CBV?$basic_string@DU?$char_traits@D@std@@V?$allocator@D@2@@std@@PAVCSqlQuery@@@std@@@2@$0A@@std@@@std@@IAEXPAU?$_Tree_node@U?$pair@$$CBV?$basic_string@DU?$char_traits@D@std@@V?$allocator@D@2@@std@@PAVCSqlQuery@@@std@@PAX@2@@Z 00416b40 f i TNetLib:SqlDatabase.obj
 0001:00015bd0       ?_Freenode0@?$_Tree_comp_alloc@V?$_Tmap_traits@V?$basic_string@DU?$char_traits@D@std@@V?$allocator@D@2@@std@@PAVCSqlQuery@@U?$less@V?$basic_string@DU?$char_traits@D@std@@V?$allocator@D@2@@std@@@2@V?$allocator@U?$pair@$$CBV?$basic_string@DU?$char_traits@D@std@@V?$allocator@D@2@@std@@PAVCSqlQuery@@@std@@@2@$0A@@std@@@std@@QAEXPAU?$_Tree_node@U?$pair@$$CBV?$basic_string@DU?$char_traits@D@std@@V?$allocator@D@2@@std@@PAVCSqlQuery@@@std@@PAX@2@@Z 00416bd0 f i TNetLib:SqlDatabase.obj
 0001:00015bf0       ?erase@?$_Tree@V?$_Tmap_traits@V?$basic_string@DU?$char_traits@D@std@@V?$allocator@D@2@@std@@PAVCSqlQuery@@U?$less@V?$basic_string@DU?$char_traits@D@std@@V?$allocator@D@2@@std@@@2@V?$allocator@U?$pair@$$CBV?$basic_string@DU?$char_traits@D@std@@V?$allocator@D@2@@std@@PAVCSqlQuery@@@std@@@2@$0A@@std@@@std@@QAE?AV?$_Tree_iterator@V?$_Tree_val@U?$_Tree_simple_types@U?$pair@$$CBV?$basic_string@DU?$char_traits@D@std@@V?$allocator@D@2@@std@@PAVCSqlQuery@@@std@@@std@@@std@@@2@V?$_Tree_const_iterator@V?$_Tree_val@U?$_Tree_simple_types@U?$pair@$$CBV?$basic_string@DU?$char_traits@D@std@@V?$allocator@D@2@@std@@PAVCSqlQuery@@@std@@@std@@@std@@@2@@Z 00416bf0 f i TNetLib:SqlDatabase.obj
 0001:00015c80       ?find@?$_Tree@V?$_Tmap_traits@V?$basic_string@DU?$char_traits@D@std@@V?$allocator@D@2@@std@@PAVCSqlQuery@@U?$less@V?$basic_string@DU?$char_traits@D@std@@V?$allocator@D@2@@std@@@2@V?$allocator@U?$pair@$$CBV?$basic_string@DU?$char_traits@D@std@@V?$allocator@D@2@@std@@PAVCSqlQuery@@@std@@@2@$0A@@std@@@std@@QAE?AV?$_Tree_iterator@V?$_Tree_val@U?$_Tree_simple_types@U?$pair@$$CBV?$basic_string@DU?$char_traits@D@std@@V?$allocator@D@2@@std@@PAVCSqlQuery@@@std@@@std@@@std@@@2@ABV?$basic_string@DU?$char_traits@D@std@@V?$allocator@D@2@@2@@Z 00416c80 f i TNetLib:SqlDatabase.obj
 0001:00015cf0       ??0CSqlBase@@QAE@PAVCSqlDatabase@@PBD@Z 00416cf0 f   TNetLib:SqlBase.obj
 0001:00015d70       ??1CSqlBase@@UAE@XZ        00416d70 f   TNetLib:SqlBase.obj
 0001:00015da0       ??_GCSqlBase@@UAEPAXI@Z    00416da0 f i TNetLib:SqlBase.obj
 0001:00015da0       ??_ECSqlBase@@UAEPAXI@Z    00416da0 f i TNetLib:SqlBase.obj
 0001:00015df0       ?AllocStatement@CSqlBase@@UAEHXZ 00416df0 f   TNetLib:SqlBase.obj
 0001:00015e60       ?BindCol@CSqlBase@@QAEFFPAE@Z 00416e60 f   TNetLib:SqlBase.obj
 0001:00015e90       ?BindCol@CSqlBase@@QAEFFPAG@Z 00416e90 f   TNetLib:SqlBase.obj
 0001:00015ec0       ?BindCol@CSqlBase@@QAEFFPAK@Z 00416ec0 f   TNetLib:SqlBase.obj
 0001:00015ef0       ?BindColStr@CSqlBase@@QAEFFPADJ@Z 00416ef0 f   TNetLib:SqlBase.obj
 0001:00015f20       ?BindParam@CSqlBase@@QAEFFFPAE@Z 00416f20 f   TNetLib:SqlBase.obj
 0001:00015f50       ?BindParam@CSqlBase@@QAEFFFPAG@Z 00416f50 f   TNetLib:SqlBase.obj
 0001:00015f80       ?BindParam@CSqlBase@@QAEFFFPAK@Z 00416f80 f   TNetLib:SqlBase.obj
 0001:00015f80       ?BindParam@CSqlBase@@QAEFFFPAH@Z 00416f80 f   TNetLib:SqlBase.obj
 0001:00015fb0       ?BindParam@CSqlBase@@QAEFFFPAUtagTIMESTAMP_STRUCT@@@Z 00416fb0 f   TNetLib:SqlBase.obj
 0001:00015fe0       ?BindParamStr@CSqlBase@@QAEFFFPADJ@Z 00416fe0 f   TNetLib:SqlBase.obj
 0001:00016010       ?Call@CSqlBase@@QAEHXZ     00417010 f   TNetLib:SqlBase.obj
 0001:00016020       ?Close@CSqlBase@@QAEXXZ    00417020 f   TNetLib:SqlBase.obj
 0001:00016030       ?CopyChars@?$CSimpleStringT@D$0A@@ATL@@SAXPADIPBDH@Z 00417030 f i TNetLib:SqlBase.obj
 0001:000160b0       ?Fetch@CSqlBase@@QAEHXZ    004170b0 f   TNetLib:SqlBase.obj
 0001:000162c0       ?FreeStatement@CSqlBase@@QAEXXZ 004172c0 f   TNetLib:SqlBase.obj
 0001:000162f0       ?Open@CSqlBase@@QAEHH@Z    004172f0 f   TNetLib:SqlBase.obj
 0001:000165d0       ??0COverlappedEx@@QAE@XZ   004175d0 f   TNetLib:Packet.obj
 0001:00016600       ??0CPacket@@QAE@XZ         00417600 f   TNetLib:Packet.obj
 0001:000166a0       ??1COverlappedEx@@UAE@XZ   004176a0 f   TNetLib:Packet.obj
 0001:000166b0       ??1CPacket@@UAE@XZ         004176b0 f   TNetLib:Packet.obj
 0001:000166d0       ??5CPacket@@QAEAAV0@AAE@Z  004176d0 f   TNetLib:Packet.obj
 0001:00016720       ??5CPacket@@QAEAAV0@AAG@Z  00417720 f   TNetLib:Packet.obj
 0001:00016780       ??5CPacket@@QAEAAV0@AAM@Z  00417780 f   TNetLib:Packet.obj
 0001:00016780       ??5CPacket@@QAEAAV0@AAK@Z  00417780 f   TNetLib:Packet.obj
 0001:000167d0       ??5CPacket@@QAEAAV0@AAV?$CStringT@DV?$StrTraitATL@DV?$ChTraitsCRT@D@ATL@@@ATL@@@ATL@@@Z 004177d0 f   TNetLib:Packet.obj
 0001:00016980       ??5CPacket@@QAEAAV0@AA_J@Z 00417980 f   TNetLib:Packet.obj
 0001:000169e0       ??6CPacket@@QAEAAV0@E@Z    004179e0 f   TNetLib:Packet.obj
 0001:00016a50       ??6CPacket@@QAEAAV0@G@Z    00417a50 f   TNetLib:Packet.obj
 0001:00016ad0       ??6CPacket@@QAEAAV0@K@Z    00417ad0 f   TNetLib:Packet.obj
 0001:00016b40       ??6CPacket@@QAEAAV0@PBD@Z  00417b40 f   TNetLib:Packet.obj
 0001:00016bc0       ??6CPacket@@QAEAAV0@_J@Z   00417bc0 f   TNetLib:Packet.obj
 0001:00016c40       ??_GCOverlappedEx@@UAEPAXI@Z 00417c40 f i TNetLib:Packet.obj
 0001:00016c40       ??_ECOverlappedEx@@UAEPAXI@Z 00417c40 f i TNetLib:Packet.obj
 0001:00016c70       ??_ECPacket@@UAEPAXI@Z     00417c70 f i TNetLib:Packet.obj
 0001:00016c70       ??_GCPacket@@UAEPAXI@Z     00417c70 f i TNetLib:Packet.obj
 0001:00016cb0       ?Clear@CPacket@@QAEXXZ     00417cb0 f   TNetLib:Packet.obj
 0001:00016cf0       ?Decrypt@CPacket@@QAEH_J@Z 00417cf0 f   TNetLib:Packet.obj
 0001:00016e50       ?DecryptHeader@CPacket@@QAEX_J@Z 00417e50 f   TNetLib:Packet.obj
 0001:00016ea0       ?Encrypt@CPacket@@QAEX_J@Z 00417ea0 f   TNetLib:Packet.obj
 0001:00017010       ?EncryptHeader@CPacket@@QAEX_J@Z 00418010 f   TNetLib:Packet.obj
 0001:00017060       ?ExpandIoBuffer@CPacket@@QAEKK@Z 00418060 f   TNetLib:Packet.obj
 0001:000170e0       ?Flush@CPacket@@QAEXXZ     004180e0 f   TNetLib:Packet.obj
 0001:00017150       ?GetBuffer@CPacket@@QAEPAEXZ 00418150 f   TNetLib:Packet.obj
 0001:00017160       ?GetID@CPacket@@QAEGXZ     00418160 f   TNetLib:Packet.obj
 0001:00017180       ?GetReadBytes@CPacket@@QAEKXZ 00418180 f   TNetLib:Packet.obj
 0001:00017190       ?GetSize@CPacket@@QAEGXZ   00418190 f   TNetLib:Packet.obj
 0001:000171b0       ?IsReadBufferFull@CPacket@@QAEHXZ 004181b0 f   TNetLib:Packet.obj
 0001:000171e0       ?Read@CPacket@@QAEXPAXH@Z  004181e0 f   TNetLib:Packet.obj
 0001:00017240       ?ReadBytes@CPacket@@QAEHK@Z 00418240 f   TNetLib:Packet.obj
 0001:00017260       ?SetID@CPacket@@QAEAAV1@G@Z 00418260 f   TNetLib:Packet.obj
 0001:00017280       ?Write@CPacket@@QAEXPAXH@Z 00418280 f   TNetLib:Packet.obj
 0001:00017300       ??0CSqlQuery@@QAE@PAVCSqlDatabase@@V?$basic_string@DU?$char_traits@D@std@@V?$allocator@D@2@@std@@PBD@Z 00418300 f   TNetLib:SqlQuery.obj
 0001:000174d0       ??1CSqlQuery@@UAE@XZ       004184d0 f   TNetLib:SqlQuery.obj
 0001:00017590       ??_ECSqlQuery@@UAEPAXI@Z   00418590 f i TNetLib:SqlQuery.obj
 0001:00017590       ??_GCSqlQuery@@UAEPAXI@Z   00418590 f i TNetLib:SqlQuery.obj
 0001:00017670       ?AllocStatement@CSqlQuery@@UAEHXZ 00418670 f   TNetLib:SqlQuery.obj
 0001:00017790       ?BindParameters@CSqlQuery@@UAEFH@Z 00418790 f   TNetLib:SqlQuery.obj
 0001:000177a0       ?ResetKey@CSqlQuery@@QAEXXZ 004187a0 f   TNetLib:SqlQuery.obj
 0001:000177c0       ??0CSession@@QAE@XZ        004187c0 f   TNetLib:Session.obj
 0001:00017970       ??1?$queue@PAVCPacket@@V?$deque@PAVCPacket@@V?$allocator@PAVCPacket@@@std@@@std@@@std@@QAE@XZ 00418970 f i TNetLib:Session.obj
 0001:00017980       ??1CSession@@UAE@XZ        00418980 f   TNetLib:Session.obj
 0001:00017ab0       ??_GCSession@@UAEPAXI@Z    00418ab0 f i TNetLib:Session.obj
 0001:00017ab0       ??_ECSession@@UAEPAXI@Z    00418ab0 f i TNetLib:Session.obj
 0001:00017c00       ?CheckMessage@CSession@@QAEHXZ 00418c00 f   TNetLib:Session.obj
 0001:00017e20       ?Close@CSession@@UAEXXZ    00418e20 f   TNetLib:Session.obj
 0001:00017ee0       ?CloseSession@CSession@@QAEHXZ 00418ee0 f   TNetLib:Session.obj
 0001:00017f30       ?CreateSocket@CSession@@SAHAAI@Z 00418f30 f   TNetLib:Session.obj
 0001:00018000       ?Flush@CSession@@QAEXXZ    00419000 f   TNetLib:Session.obj
 0001:00018070       ?Listen@CSession@@QAEHG@Z  00419070 f   TNetLib:Session.obj
 0001:00018110       ?OnInvalidSession@CSession@@QAEHXZ 00419110 f   TNetLib:Session.obj
 0001:00018190       ?Open@CSession@@UAEHIAAVCPacket@@@Z 00419190 f   TNetLib:Session.obj
 0001:000181d0       ?Post@CSession@@QAEHXZ     004191d0 f   TNetLib:Session.obj
 0001:00018370       ?Read@CSession@@QAEHK@Z    00419370 f   TNetLib:Session.obj
 0001:00018400       ?Say@CSession@@UAEHPAVCPacket@@@Z 00419400 f   TNetLib:Session.obj
 0001:00018580       ?SendComplete@CSession@@QAEHK@Z 00419580 f   TNetLib:Session.obj
 0001:00018680       ?WaitForMessage@CSession@@QAEHXZ 00419680 f   TNetLib:Session.obj
 0001:000187a0       ??0?$CStringT@DV?$StrTraitATL@DV?$ChTraitsCRT@D@ATL@@@ATL@@@ATL@@QAE@XZ 004197a0 f i TNetLib:CryptographyExt.obj
 0001:000188b0       ?EncryptBuffer@@YAHIPAEAAK0K0K@Z 004198b0 f   TNetLib:CryptographyExt.obj
 0001:00018a60       ?TraceLastError@@YAXPBD0K@Z 00419a60 f   TNetLib:CryptographyExt.obj
 0001:00018b15       ??0CAtlBaseModule@ATL@@QAE@XZ 00419b15 f   atls:atlbase.obj
 0001:00018b68       ??0_ATL_BASE_MODULE70@ATL@@QAE@XZ 00419b68 f i atls:atlbase.obj
 0001:00018b8b       ??1CAtlBaseModule@ATL@@QAE@XZ 00419b8b f   atls:atlbase.obj
 0001:00018ba1       ??A?$CSimpleArray@PAUHINSTANCE__@@V?$CSimpleArrayEqualHelper@PAUHINSTANCE__@@@ATL@@@ATL@@QAEAAPAUHINSTANCE__@@H@Z 00419ba1 f i atls:atlbase.obj
 0001:00018bc6       ?GetHInstanceAt@CAtlBaseModule@ATL@@QAEPAUHINSTANCE__@@H@Z 00419bc6 f   atls:atlbase.obj
 0001:00018c0b       ?Init@CComCriticalSection@ATL@@QAEJXZ 00419c0b f i atls:atlbase.obj
 0001:00018c36       ?RemoveAll@?$CSimpleArray@PAUHINSTANCE__@@V?$CSimpleArrayEqualHelper@PAUHINSTANCE__@@@ATL@@@ATL@@QAEXXZ 00419c36 f i atls:atlbase.obj
 0001:00018c53       ??0bad_alloc@std@@QAE@ABV01@@Z 00419c53 f i libcpmt:xthrow.obj
 0001:00018c6e       ??0bad_alloc@std@@QAE@XZ   00419c6e f i libcpmt:xthrow.obj
 0001:00018c86       ??0invalid_argument@std@@QAE@ABV01@@Z 00419c86 f i libcpmt:xthrow.obj
 0001:00018ca1       ??0invalid_argument@std@@QAE@PBD@Z 00419ca1 f i libcpmt:xthrow.obj
 0001:00018cc0       ??0length_error@std@@QAE@ABV01@@Z 00419cc0 f i libcpmt:xthrow.obj
 0001:00018cdb       ??0length_error@std@@QAE@PBD@Z 00419cdb f i libcpmt:xthrow.obj
 0001:00018cfa       ??0logic_error@std@@QAE@ABV01@@Z 00419cfa f i libcpmt:xthrow.obj
 0001:00018d15       ??0out_of_range@std@@QAE@ABV01@@Z 00419d15 f i libcpmt:xthrow.obj
 0001:00018d30       ??0out_of_range@std@@QAE@PBD@Z 00419d30 f i libcpmt:xthrow.obj
 0001:00018d4f       ??_Elogic_error@std@@UAEPAXI@Z 00419d4f f i libcpmt:xthrow.obj
 0001:00018d4f       ??_Einvalid_argument@std@@UAEPAXI@Z 00419d4f f i libcpmt:xthrow.obj
 0001:00018d4f       ??_Elength_error@std@@UAEPAXI@Z 00419d4f f i libcpmt:xthrow.obj
 0001:00018d4f       ??_Eout_of_range@std@@UAEPAXI@Z 00419d4f f i libcpmt:xthrow.obj
 0001:00018d4f       ??_Glogic_error@std@@UAEPAXI@Z 00419d4f f i libcpmt:xthrow.obj
 0001:00018d4f       ??_Ginvalid_argument@std@@UAEPAXI@Z 00419d4f f i libcpmt:xthrow.obj
 0001:00018d4f       ??_Gbad_array_new_length@std@@UAEPAXI@Z 00419d4f f i LIBCMT:throw_bad_alloc.obj
 0001:00018d4f       ??_Ebad_array_new_length@std@@UAEPAXI@Z 00419d4f f i LIBCMT:throw_bad_alloc.obj
 0001:00018d4f       ??_Gbad_alloc@std@@UAEPAXI@Z 00419d4f f i libcpmt:xthrow.obj
 0001:00018d4f       ??_Glength_error@std@@UAEPAXI@Z 00419d4f f i libcpmt:xthrow.obj
 0001:00018d4f       ??_Gout_of_range@std@@UAEPAXI@Z 00419d4f f i libcpmt:xthrow.obj
 0001:00018d4f       ??_Ebad_exception@std@@UAEPAXI@Z 00419d4f f i libvcruntime:frame.obj
 0001:00018d4f       ??_Ebad_alloc@std@@UAEPAXI@Z 00419d4f f i libcpmt:xthrow.obj
 0001:00018d4f       ??_Gbad_exception@std@@UAEPAXI@Z 00419d4f f i libvcruntime:frame.obj
 0001:00018d7c       ?_Xinvalid_argument@std@@YAXPBD@Z 00419d7c f   libcpmt:xthrow.obj
 0001:00018d9c       ?_Xlength_error@std@@YAXPBD@Z 00419d9c f   libcpmt:xthrow.obj
 0001:00018dbc       ?_Xout_of_range@std@@YAXPBD@Z 00419dbc f   libcpmt:xthrow.obj
 0001:00018ddc       ??0_Init_locks@std@@QAE@XZ 00419ddc f   libcpmt:xlock.obj
 0001:00018e09       ??0_Lockit@std@@QAE@H@Z    00419e09 f   libcpmt:xlock.obj
 0001:00018e3a       ??1_Init_locks@std@@QAE@XZ 00419e3a f   libcpmt:xlock.obj
 0001:00018e61       ??1_Lockit@std@@QAE@XZ     00419e61 f   libcpmt:xlock.obj
 0001:00018e80       ?uncaught_exception@std@@YA_NXZ 00419e80 f   libcpmt:uncaught_exception.obj
 0001:00018e85       __Getctype                 00419e85 f   libcpmt:_tolower.obj
 0001:00018eed       __Tolower                  00419eed f   libcpmt:_tolower.obj
 0001:00018feb       __Toupper                  00419feb f   libcpmt:_toupper.obj
 0001:000190e9       ??0_Locimp@locale@std@@AAE@_N@Z 0041a0e9 f i libcpmt:locale0.obj
 0001:0001912a       ??1_Fac_node@std@@QAE@XZ   0041a12a f i libcpmt:locale0.obj
 0001:00019189       ??1_Fac_tidy_reg_t@std@@QAE@XZ 0041a189 f i libcpmt:locale0.obj
 0001:000191b0       ??1_Locimp@locale@std@@MAE@XZ 0041a1b0 f i libcpmt:locale0.obj
 0001:00019209       ??4?$_Yarn@D@std@@QAEAAV01@PBD@Z 0041a209 f i libcpmt:locale0.obj
 0001:0001925d       ??_E_Locimp@locale@std@@MAEPAXI@Z 0041a25d f i libcpmt:locale0.obj
 0001:0001925d       ??_G_Locimp@locale@std@@MAEPAXI@Z 0041a25d f i libcpmt:locale0.obj
 0001:0001927f       ?_Facet_Register@std@@YAXPAV_Facet_base@1@@Z 0041a27f f   libcpmt:locale0.obj
 0001:000192ab       ?_Getgloballocale@locale@std@@CAPAV_Locimp@12@XZ 0041a2ab f   libcpmt:locale0.obj
 0001:000192b1       ?_Init@locale@std@@CAPAV_Locimp@12@_N@Z 0041a2b1 f   libcpmt:locale0.obj
 0001:00019341       ?_Locimp_dtor@_Locimp@locale@std@@CAXPAV123@@Z 0041a341 f   libcpmt:locale0.obj
 0001:000193b8       ?_Locinfo_ctor@_Locinfo@std@@SAXPAV12@PBD@Z 0041a3b8 f   libcpmt:locale0.obj
 0001:00019403       ?_Locinfo_dtor@_Locinfo@std@@SAXPAV12@@Z 0041a403 f   libcpmt:locale0.obj
 0001:0001941d       ?_New_Locimp@_Locimp@locale@std@@CAPAV123@_N@Z 0041a41d f   libcpmt:locale0.obj
 0001:00019440       ?_Setgloballocale@locale@std@@CAXPAX@Z 0041a440 f   libcpmt:locale0.obj
 0001:00019468       __Deletegloballocale       0041a468 f   libcpmt:locale0.obj
 0001:000194cd       ?_Execute_once@std@@YAHAAUonce_flag@1@P6GHPAX1PAPAX@Z1@Z 0041a4cd f   libcpmt:xonce.obj
 0001:000194e5       ?_Syserror_map@std@@YAPBDH@Z 0041a4e5 f   libcpmt:syserror.obj
 0001:0001950a       ?_Addstd@ios_base@std@@SAXPAV12@@Z 0041a50a f   libcpmt:ios.obj
 0001:00019556       ?_Callfns@ios_base@std@@AAEXW4event@12@@Z 0041a556 f i libcpmt:ios.obj
 0001:00019589       ?_Ios_base_dtor@ios_base@std@@CAXPAV12@@Z 0041a589 f   libcpmt:ios.obj
 0001:000195c9       ?_Tidy@ios_base@std@@AAEXXZ 0041a5c9 f i libcpmt:ios.obj
 0001:00019611       ?_Random_device@std@@YAIXZ 0041a611 f   libcpmt:xrngdev.obj
 0001:00019633       ??_D?$basic_istream@DU?$char_traits@D@std@@@std@@QAEXXZ 0041a633 f i libcpmt:cin.obj
 0001:00019691       ??0_Init_cout@std@@QAE@XZ  0041a691 f i libcpmt:cout.obj
 0001:000196ea       __Mtxdst                   0041a6ea f   libcpmt:xmtx.obj
 0001:000196f8       __Mtxinit                  0041a6f8 f   libcpmt:xmtx.obj
 0001:0001970f       __Mtxlock                  0041a70f f   libcpmt:xmtx.obj
 0001:0001971d       __Mtxunlock                0041a71d f   libcpmt:xmtx.obj
 0001:0001972b       ___crtLCMapStringA         0041a72b f   libcpmt:StlLCMapStringA.obj
 0001:00019900       __freea_crt                0041a900 f i libcpmt:StlLCMapStringA.obj
 0001:0001991e       ??1_Init_atexit@@QAE@XZ    0041a91e f i libcpmt:iosptrs.obj
 0001:00019981       ?_Atexit@@YAXP6AXXZ@Z      0041a981 f   libcpmt:iosptrs.obj
 0001:00019d59       ___crtInitOnceExecuteOnce  0041ad59 f   libcpmt:winapisupp.obj
 0001:00019de7       ___crtInitializeCriticalSectionEx 0041ade7 f   libcpmt:winapisupp.obj
 0001:00019e20       _GetTableIndexFromLocaleName 0041ae20 f   libcpmt:winapinls.obj
 0001:00019e6e       ___crtDownlevelLocaleNameToLCID 0041ae6e f   libcpmt:winapinls.obj
 0001:00019e98       ___crtLCMapStringEx        0041ae98 f   libcpmt:winapinls.obj
 0001:00019eef       ___wcsnicmp_ascii          0041aeef f   libcpmt:winapinls.obj
 0001:00019f57       ??2@YAPAXI@Z               0041af57 f   LIBCMT:new_scalar.obj
 0001:00019f87       ??3@YAXPAXI@Z              0041af87 f   LIBCMT:delete_scalar_size.obj
 0001:00019f95       ??$__crt_fast_encode_pointer@P6GXPAU_RTL_CONDITION_VARIABLE@@@Z@@YAP6GXPAU_RTL_CONDITION_VARIABLE@@@ZQ6GX0@Z@Z 0041af95 f i LIBCMT:thread_safe_statics.obj
 0001:00019f95       ??$__crt_fast_encode_pointer@PAX@@YAPAXQAX@Z 0041af95 f i libvcruntime:winapi_downlevel.obj
 0001:00019f95       ??$__crt_fast_encode_pointer@P6GHPAU_RTL_CONDITION_VARIABLE@@PAU_RTL_CRITICAL_SECTION@@K@Z@@YAP6GHPAU_RTL_CONDITION_VARIABLE@@PAU_RTL_CRITICAL_SECTION@@K@ZQ6GH01K@Z@Z 0041af95 f i LIBCMT:thread_safe_statics.obj
 0001:00019f95       ??$__crt_fast_encode_pointer@PAP6AXXZ@@YAPAP6AXXZQAP6AXXZ@Z 0041af95 f i LIBCMT:utility.obj
 0001:00019ff6       ___scrt_acquire_startup_lock 0041aff6 f   LIBCMT:utility.obj
 0001:0001a028       ___scrt_initialize_crt     0041b028 f   LIBCMT:utility.obj
 0001:0001a061       ___scrt_initialize_onexit_tables 0041b061 f   LIBCMT:utility.obj
 0001:0001a106       ___scrt_is_nonwritable_in_current_image 0041b106 f   LIBCMT:utility.obj
 0001:0001a19a       ___scrt_release_startup_lock 0041b19a f   LIBCMT:utility.obj
 0001:0001a1b7       ___scrt_uninitialize_crt   0041b1b7 f   LIBCMT:utility.obj
 0001:0001a1df       __onexit                   0041b1df f   LIBCMT:utility.obj
 0001:0001a21a       _atexit                    0041b21a f   LIBCMT:utility.obj
 0001:0001a361       __Init_thread_abort        0041b361 f   LIBCMT:thread_safe_statics.obj
 0001:0001a385       __Init_thread_footer       0041b385 f   LIBCMT:thread_safe_statics.obj
 0001:0001a3cf       __Init_thread_header       0041b3cf f   LIBCMT:thread_safe_statics.obj
 0001:0001a421       __Init_thread_notify       0041b421 f   LIBCMT:thread_safe_statics.obj
 0001:0001a463       __Init_thread_wait         0041b463 f   LIBCMT:thread_safe_statics.obj
 0001:0001a4c3       @__security_check_cookie@4 0041b4c3 f   LIBCMT:secchk.obj
 0001:0001a4e0       __alldiv                   0041b4e0 f   LIBCMT:lldiv.obj
 0001:0001a590       __allrem                   0041b590 f   LIBCMT:llrem.obj
 0001:0001a642       ??_Etype_info@@UAEPAXI@Z   0041b642 f i LIBCMT:std_type_info_static.obj
 0001:0001a642       ??_Gtype_info@@UAEPAXI@Z   0041b642 f i LIBCMT:std_type_info_static.obj
 0001:0001a665       ??3@YAXPAX@Z               0041b665 f   LIBCMT:delete_scalar.obj
 0001:0001a66a       ??_V@YAXPAX@Z              0041b66a f   LIBCMT:delete_array.obj
 0001:0001a66f       ___raise_securityfailure   0041b66f f   LIBCMT:gs_report.obj
 0001:0001a697       ___report_gsfailure        0041b697 f   LIBCMT:gs_report.obj
 0001:0001a790       ___report_rangecheckfailure 0041b790 f   LIBCMT:gs_report.obj
 0001:0001a79c       ___report_securityfailure  0041b79c f   LIBCMT:gs_report.obj
 0001:0001aab1       _mainCRTStartup            0041bab1 f   LIBCMT:exe_main.obj
 0001:0001aabb       ??_U@YAPAXI@Z              0041babb f   LIBCMT:new_array.obj
 0001:0001aad0       __chkstk                   0041bad0 f   LIBCMT:chkstk.obj
 0001:0001aad0       __alloca_probe             0041bad0 f   LIBCMT:chkstk.obj
 0001:0001aafd       __EH_epilog3               0041bafd f   LIBCMT:ehprolg3.obj
 0001:0001ab12       __EH_prolog3               0041bb12 f   LIBCMT:ehprolg3.obj
 0001:0001ab46       __EH_prolog3_catch         0041bb46 f   LIBCMT:ehprolg3.obj
 0001:0001ab80       __alloca_probe_16          0041bb80 f   LIBCMT:alloca16.obj
 0001:0001ab96       __alloca_probe_8           0041bb96     LIBCMT:alloca16.obj
 0001:0001abb0       __allmul                   0041bbb0 f   LIBCMT:llmul.obj
 0001:0001abf0       __aulldiv                  0041bbf0 f   LIBCMT:ulldiv.obj
 0001:0001ac58       ??0bad_array_new_length@std@@QAE@ABV01@@Z 0041bc58 f i LIBCMT:throw_bad_alloc.obj
 0001:0001ac73       ??0bad_array_new_length@std@@QAE@XZ 0041bc73 f i LIBCMT:throw_bad_alloc.obj
 0001:0001ac8b       ?__scrt_throw_std_bad_alloc@@YAXXZ 0041bc8b f   LIBCMT:throw_bad_alloc.obj
 0001:0001aca8       ?__scrt_throw_std_bad_array_new_length@@YAXXZ 0041bca8 f   LIBCMT:throw_bad_alloc.obj
 0001:0001acc5       ___isa_available_init      0041bcc5 f   LIBCMT:cpu_disp.obj
 0001:0001ae5c       __get_startup_argv_mode    0041be5c f   LIBCMT:argv_mode.obj
 0001:0001ae60       ___scrt_is_ucrt_dll_in_use 0041be60 f   LIBCMT:ucrt_detection.obj
 0001:0001ae6c       ___scrt_fastfail           0041be6c f   LIBCMT:utility_desktop.obj
 0001:0001af86       ___scrt_initialize_mta     0041bf86 f   LIBCMT:utility_desktop.obj
 0001:0001af8b       ___scrt_is_managed_app     0041bf8b f   LIBCMT:utility_desktop.obj
 0001:0001afce       ___scrt_set_unhandled_exception_filter 0041bfce f   LIBCMT:utility_desktop.obj
 0001:0001afda       ___scrt_unhandled_exception_filter@4 0041bfda f   LIBCMT:utility_desktop.obj
 0001:0001b01b       __crt_debugger_hook        0041c01b f   LIBCMT:utility_desktop.obj
 0001:0001b030       __SEH_prolog4              0041c030 f   LIBCMT:sehprolg4.obj
 0001:0001b076       __SEH_epilog4              0041c076 f   LIBCMT:sehprolg4.obj
 0001:0001b0d8       ___security_init_cookie    0041c0d8 f   LIBCMT:gs_support.obj
 0001:0001b123       __get_startup_file_mode    0041c123 f   LIBCMT:file_mode.obj
 0001:0001b129       ?__scrt_initialize_type_info@@YAXXZ 0041c129 f   LIBCMT:tncleanup.obj
 0001:0001b135       __initialize_default_precision 0041c135 f   LIBCMT:default_precision.obj
 0001:0001b156       ___local_stdio_scanf_options 0041c156 f i LIBCMT:default_local_stdio_options.obj
 0001:0001b15c       ___scrt_initialize_default_local_stdio_options 0041c15c f   LIBCMT:default_local_stdio_options.obj
 0001:0001b179       ___scrt_is_user_matherr_present 0041c179 f   LIBCMT:matherr_detection.obj
 0001:0001b185       ___scrt_get_dyn_tls_init_callback 0041c185 f   LIBCMT:dyn_tls_init.obj
 0001:0001b18b       ___scrt_get_dyn_tls_dtor_callback 0041c18b f   LIBCMT:dyn_tls_dtor.obj
 0001:0001b191       __RTC_Initialize           0041c191 f   LIBCMT:initsect.obj
 0001:0001b1bd       __RTC_Terminate            0041c1bd f   LIBCMT:initsect.obj
 0001:0001b1e9       ___DestructExceptionObject 0041c1e9 f   libvcruntime:ehhelpers.obj
 0001:0001b289       ?_CallMemberFunction0@@YGXQAX0@Z 0041c289 f i libvcruntime:ehhelpers.obj
 0001:0001b296       __IsExceptionObjectToBeDestroyed 0041c296 f   libvcruntime:ehhelpers.obj
 0001:0001b2bc       ___AdjustPointer           0041c2bc f   libvcruntime:ehhelpers.obj
 0001:0001b2e1       ___FrameUnwindFilter       0041c2e1 f   libvcruntime:ehhelpers.obj
 0001:0001b326       ___std_terminate           0041c326 f   libvcruntime:ehhelpers.obj
 0001:0001b32b       __CxxThrowException@8      0041c32b f   libvcruntime:throw.obj
 0001:0001b398       ?GetRangeOfTrysToCheck@__FrameHandler3@@SA?AU?$pair@Viterator@TryBlockMap@__FrameHandler3@@V123@@std@@AAVTryBlockMap@1@HH@Z 0041c398 f   libvcruntime:trnsctrl.obj
 0001:0001b41a       ?_CallCatchBlock2@@YAPAXPAUEHRegistrationNode@@PBU_s_FuncInfo@@PAXHK@Z 0041c41a f   libvcruntime:trnsctrl.obj
 0001:0001b478       ?_CallSETranslator@@YAHPAUEHExceptionRecord@@PAUEHRegistrationNode@@PAX2PBU_s_FuncInfo@@H1@Z 0041c478 f   libvcruntime:trnsctrl.obj
 0001:0001b553       ?_JumpToContinuation@@YGXPAXPAUEHRegistrationNode@@@Z 0041c553 f   libvcruntime:trnsctrl.obj
 0001:0001b583       ?_UnwindNestedFrames@@YGXPAUEHRegistrationNode@@PAUEHExceptionRecord@@@Z 0041c583 f   libvcruntime:trnsctrl.obj
 0001:0001b5d6       __CatchGuardHandler        0041c5d6 f   libvcruntime:trnsctrl.obj
 0001:0001b607       __CreateFrameInfo          0041c607 f   libvcruntime:trnsctrl.obj
 0001:0001b62b       __FindAndUnlinkFrame       0041c62b f   libvcruntime:trnsctrl.obj
 0001:0001b670       __TranslatorGuardHandler   0041c670 f   libvcruntime:trnsctrl.obj
 0001:0001b70d       ___CxxFrameHandler3        0041c70d f   libvcruntime:trnsctrl.obj
 0001:0001b750       _memcpy                    0041c750 f   libvcruntime:memcpy.obj
 0001:0001bcd0       _memmove                   0041ccd0 f   libvcruntime:memmove.obj
 0001:0001c250       _memset                    0041d250 f   libvcruntime:memset.obj
 0001:0001c3aa       __get_purecall_handler     0041d3aa f   libvcruntime:purevirt.obj
 0001:0001c3bf       __purecall                 0041d3bf f   libvcruntime:purevirt.obj
 0001:0001c3db       ___std_exception_copy      0041d3db f   libvcruntime:std_exception.obj
 0001:0001c43e       ___std_exception_destroy   0041d43e f   libvcruntime:std_exception.obj
 0001:0001c460       _memchr                    0041d460 f   libvcruntime:memchr.obj
 0001:0001c510       _strrchr                   0041d510 f   libvcruntime:strrchr.obj
 0001:0001c647       ___uncaught_exception      0041d647 f   libvcruntime:uncaught_exception.obj
 0001:0001c65b       _memcmp                    0041d65b f   libvcruntime:memcmp.obj
 0001:0001d5ff       ___vcrt_initialize         0041e5ff f   libvcruntime:initialization.obj
 0001:0001d628       ___vcrt_uninitialize       0041e628 f   libvcruntime:initialization.obj
 0001:0001d690       __except_handler4          0041e690 f   libvcruntime:chandler4.obj
 0001:0001d7e7       ___std_type_info_compare   0041e7e7 f   libvcruntime:std_type_info.obj
 0001:0001d823       ___vcrt_freefls@4          0041e823 f   libvcruntime:per_thread_data.obj
 0001:0001d83f       ___vcrt_getptd             0041e83f f   libvcruntime:per_thread_data.obj
 0001:0001d84d       ___vcrt_getptd_noexit      0041e84d f   libvcruntime:per_thread_data.obj
 0001:0001d8df       ___vcrt_getptd_noinit      0041e8df f   libvcruntime:per_thread_data.obj
 0001:0001d916       ___vcrt_initialize_ptd     0041e916 f   libvcruntime:per_thread_data.obj
 0001:0001d949       ___vcrt_uninitialize_ptd   0041e949 f   libvcruntime:per_thread_data.obj
 0001:0001e05b       ??$TypeMatchHelper@V__FrameHandler3@@@@YAHPBU_s_HandlerType@@PBU_s_CatchableType@@PBU_s_ThrowInfo@@@Z 0041f05b f i libvcruntime:frame.obj
 0001:0001e0e9       ??$__InternalCxxFrameHandler@V__FrameHandler3@@@@YA?AW4_EXCEPTION_DISPOSITION@@PAUEHExceptionRecord@@PAUEHRegistrationNode@@PAU_CONTEXT@@PAXPBU_s_FuncInfo@@H1E@Z 0041f0e9 f i libvcruntime:frame.obj
 0001:0001e1eb       ??0bad_exception@std@@QAE@ABV01@@Z 0041f1eb f i libvcruntime:frame.obj
 0001:0001e206       ??0bad_exception@std@@QAE@XZ 0041f206 f i libvcruntime:frame.obj
 0001:0001e21e       ??8type_info@@QBE_NABV0@@Z 0041f21e f i libvcruntime:frame.obj
 0001:0001e485       ?FrameUnwindToEmptyState@__FrameHandler3@@SAXPAUEHRegistrationNode@@PAXPBU_s_FuncInfo@@@Z 0041f485 f   libvcruntime:frame.obj
 0001:0001e49d       ?FrameUnwindToState@__FrameHandler3@@SAXPAUEHRegistrationNode@@PAXPBU_s_FuncInfo@@H@Z 0041f49d f   libvcruntime:frame.obj
 0001:0001e61f       ?_CallMemberFunction1@@YGXQAX00@Z 0041f61f f i libvcruntime:frame.obj
 0001:0001e62f       ?_CallMemberFunction2@@YGXQAX00H@Z 0041f62f f i libvcruntime:frame.obj
 0001:0001e642       ?getESTypes@__FrameHandler3@@SAPBU_s_ESTypeList@@PBU_s_FuncInfo@@@Z 0041f642 f i libvcruntime:frame.obj
 0001:0001e650       __CallSettingFrame@12      0041f650 f   libvcruntime:lowhelpr.obj
 0001:0001e677       __NLG_Return               0041f677     libvcruntime:lowhelpr.obj
 0001:0001e69c       ___except_validate_context_record 0041f69c f   libvcruntime:jbcxrval.obj
 0001:0001e6cc       ___except_validate_jump_buffer 0041f6cc f   libvcruntime:jbcxrval.obj
 0001:0001e6f9       ___vcrt_initialize_pure_virtual_call_handler 0041f6f9 f   libvcruntime:purevirt_data.obj
 0001:0001e704       ___vcrt_initialize_locks   0041f704 f   libvcruntime:locks.obj
 0001:0001e740       ___vcrt_uninitialize_locks 0041f740 f   libvcruntime:locks.obj
 0001:0001e8a2       ___vcrt_FlsAlloc           0041f8a2 f   libvcruntime:winapi_downlevel.obj
 0001:0001e8dd       ___vcrt_FlsFree            0041f8dd f   libvcruntime:winapi_downlevel.obj
 0001:0001e918       ___vcrt_FlsGetValue        0041f918 f   libvcruntime:winapi_downlevel.obj
 0001:0001e953       ___vcrt_FlsSetValue        0041f953 f   libvcruntime:winapi_downlevel.obj
 0001:0001e991       ___vcrt_InitializeCriticalSectionEx 0041f991 f   libvcruntime:winapi_downlevel.obj
 0001:0001e9d8       ___vcrt_initialize_winapi_thunks 0041f9d8 f   libvcruntime:winapi_downlevel.obj
 0001:0001ea01       ___vcrt_uninitialize_winapi_thunks 0041fa01 f   libvcruntime:winapi_downlevel.obj
 0001:0001ea40       __local_unwind4            0041fa40 f   libvcruntime:exsup4.obj
 0001:0001eb18       __seh_longjmp_unwind4@4    0041fb18 f   libvcruntime:exsup4.obj
 0001:0001eb40       @_EH4_CallFilterFunc@8     0041fb40 f   libvcruntime:exsup4.obj
 0001:0001eb58       @_EH4_TransferToHandler@8  0041fb58 f   libvcruntime:exsup4.obj
 0001:0001eb74       @_EH4_GlobalUnwind2@8      0041fb74 f   libvcruntime:exsup4.obj
 0001:0001eb90       @_EH4_LocalUnwind@16       0041fb90 f   libvcruntime:exsup4.obj
 0001:0001eba7       _unexpected                0041fba7 f   libvcruntime:unexpected.obj
 0001:0001ebc4       ?GetCurrentState@__FrameHandler3@@SAHPAUEHRegistrationNode@@PAXPBU_s_FuncInfo@@@Z 0041fbc4 f   libvcruntime:ehstate.obj
 0001:0001ebe1       ?SetState@__FrameHandler3@@SAXPAUEHRegistrationNode@@PBU_s_FuncInfo@@H@Z 0041fbe1 f   libvcruntime:ehstate.obj
 0001:0001ebf0       __global_unwind2           0041fbf0 f   libvcruntime:exsup.obj
 0001:0001ec56       __local_unwind2            0041fc56 f   libvcruntime:exsup.obj
 0001:0001ecda       __abnormal_termination     0041fcda f   libvcruntime:exsup.obj
 0001:0001ed00       __NLG_Notify1              0041fd00 f   libvcruntime:exsup.obj
 0001:0001ed0c       __NLG_Notify               0041fd0c f   libvcruntime:exsup.obj
 0001:0001ed23       __NLG_Dispatch             0041fd23     libvcruntime:exsup.obj
 0001:0001ed23       __NLG_Dispatch2            0041fd23     libvcruntime:exsup.obj
 0001:0001ed2b       __NLG_Call                 0041fd2b f   libvcruntime:exsup.obj
 0001:0001ed2d       __NLG_Return2              0041fd2d     libvcruntime:exsup.obj
 0001:0001ed2e       ??0__crt_cached_ptd_host@@QAE@QAU__crt_locale_pointers@@@Z 0041fd2e f i libucrt:invalid_parameter.obj
 0001:0001ed76       ??1__crt_cached_ptd_host@@QAE@XZ 0041fd76 f i libucrt:invalid_parameter.obj
 0001:0001edb2       ?check_synchronize_global_state_index@__crt_cached_ptd_host@@AAEIXZ 0041fdb2 f i libucrt:invalid_parameter.obj
 0001:0001eddb       ?force_synchronize_per_thread_data@__crt_cached_ptd_host@@AAEPAU__acrt_ptd@@XZ 0041fddb f i libucrt:invalid_parameter.obj
 0001:0001ee21       ?get_raw_ptd@__crt_cached_ptd_host@@QAEPAU__acrt_ptd@@XZ 0041fe21 f i libucrt:invalid_parameter.obj
 0001:0001ee3e       ___acrt_call_reportfault   0041fe3e f   libucrt:invalid_parameter.obj
 0001:0001ef77       ___acrt_initialize_invalid_parameter_handler 0041ff77 f   libucrt:invalid_parameter.obj
 0001:0001ef86       __invalid_parameter        0041ff86 f   libucrt:invalid_parameter.obj
 0001:0001efbd       __invalid_parameter_internal 0041ffbd f   libucrt:invalid_parameter.obj
 0001:0001f03a       __invalid_parameter_noinfo 0042003a f   libucrt:invalid_parameter.obj
 0001:0001f04a       __invalid_parameter_noinfo_noreturn 0042004a f   libucrt:invalid_parameter.obj
 0001:0001f067       __invoke_watson            00420067 f   libucrt:invalid_parameter.obj
 0001:0001f09b       ___acrt_errno_from_os_error 0042009b f   libucrt:errno.obj
 0001:0001f0de       ___acrt_errno_map_os_error 004200de f   libucrt:errno.obj
 0001:0001f101       ___acrt_errno_map_os_error_ptd 00420101 f   libucrt:errno.obj
 0001:0001f125       ___doserrno                00420125 f   libucrt:errno.obj
 0001:0001f138       __errno                    00420138 f   libucrt:errno.obj
 0001:0001f14b       _free                      0042014b f   libucrt:free.obj
 0001:0001f166       _rand                      00420166 f   libucrt:rand.obj
 0001:0001f187       _srand                     00420187 f   libucrt:rand.obj
 0001:0001f199       ??0_LocaleUpdate@@QAE@QAU__crt_locale_pointers@@@Z 00420199 f i libucrt:mbscmp.obj
 0001:0001f21b       __mbscmp                   0042021b f   libucrt:mbscmp.obj
 0001:0001f232       __mbscmp_l                 00420232 f   libucrt:mbscmp.obj
 0001:0001f317       __mbsupr_s                 00420317 f   libucrt:mbsupr.obj
 0001:0001f32e       __mbsupr_s_l               0042032e f   libucrt:mbsupr.obj
 0001:0001f437       __time64                   00420437 f   libucrt:time.obj
 0001:0001f927       ??$count@D@formatting_buffer@__crt_stdio_output@@QBEIXZ 00420927 f i libucrt:output.obj
 0001:0001f93f       ??$ensure_buffer_is_big_enough@D@formatting_buffer@__crt_stdio_output@@QAE_NIAAV__crt_cached_ptd_host@@@Z 0042093f f i libucrt:output.obj
 0001:0001f9c0       ??$is_overflow_condition@K@__crt_strtox@@YA_NIK@Z 004209c0 f i libucrt:output.obj
 0001:0001f9f4       ??$is_wide_character_specifier@D@__crt_stdio_output@@YA_N_KDW4length_modifier@0@@Z 004209f4 f i libucrt:output.obj
 0001:0001fa25       ??$make_c_string_character_source@DPAPAD@__crt_strtox@@YA?AV?$c_string_character_source@D@0@QBDQAPAD@Z 00420a25 f i libucrt:output.obj
 0001:0001fa25       ??$make_c_string_character_source@_WPAPA_W@__crt_strtox@@YA?AV?$c_string_character_source@_W@0@QB_WQAPA_W@Z 00420a25 f i libucrt:output.obj
 0001:0001fa40       ??$parse_integer@KV?$c_string_character_source@D@__crt_strtox@@$0A@@__crt_strtox@@YAKAAV__crt_cached_ptd_host@@V?$c_string_character_source@D@0@H_N@Z 00420a40 f i libucrt:output.obj
 0001:0001fc4f       ??$scratch_data@D@formatting_buffer@__crt_stdio_output@@QAEPADXZ 00420c4f f i libucrt:output.obj
 0001:0001fc6d       ??$type_case_integer@$07@?$output_processor@DV?$string_output_adapter@D@__crt_stdio_output@@V?$standard_base@DV?$string_output_adapter@D@__crt_stdio_output@@@2@@__crt_stdio_output@@AAE_N_N@Z 00420c6d f i libucrt:output.obj
 0001:0001fc6d       ??$type_case_integer@$07@?$output_processor@DV?$string_output_adapter@D@__crt_stdio_output@@V?$format_validation_base@DV?$string_output_adapter@D@__crt_stdio_output@@@2@@__crt_stdio_output@@AAE_N_N@Z 00420c6d f i libucrt:output.obj
 0001:0001fdfa       ??$type_case_integer@$09@?$output_processor@DV?$string_output_adapter@D@__crt_stdio_output@@V?$format_validation_base@DV?$string_output_adapter@D@__crt_stdio_output@@@2@@__crt_stdio_output@@AAE_N_N@Z 00420dfa f i libucrt:output.obj
 0001:0001fdfa       ??$type_case_integer@$09@?$output_processor@DV?$string_output_adapter@D@__crt_stdio_output@@V?$standard_base@DV?$string_output_adapter@D@__crt_stdio_output@@@2@@__crt_stdio_output@@AAE_N_N@Z 00420dfa f i libucrt:output.obj
 0001:0001ff87       ??$type_case_integer@$0BA@@?$output_processor@DV?$string_output_adapter@D@__crt_stdio_output@@V?$standard_base@DV?$string_output_adapter@D@__crt_stdio_output@@@2@@__crt_stdio_output@@AAE_N_N@Z 00420f87 f i libucrt:output.obj
 0001:0001ff87       ??$type_case_integer@$0BA@@?$output_processor@DV?$string_output_adapter@D@__crt_stdio_output@@V?$format_validation_base@DV?$string_output_adapter@D@__crt_stdio_output@@@2@@__crt_stdio_output@@AAE_N_N@Z 00420f87 f i libucrt:output.obj
 0001:00020114       ??$type_case_integer_parse_into_buffer@I$07@?$output_processor@DV?$string_output_adapter@D@__crt_stdio_output@@V?$standard_base@DV?$string_output_adapter@D@__crt_stdio_output@@@2@@__crt_stdio_output@@AAEXI_N@Z 00421114 f i libucrt:output.obj
 0001:00020114       ??$type_case_integer_parse_into_buffer@I$07@?$output_processor@DV?$string_output_adapter@D@__crt_stdio_output@@V?$format_validation_base@DV?$string_output_adapter@D@__crt_stdio_output@@@2@@__crt_stdio_output@@AAEXI_N@Z 00421114 f i libucrt:output.obj
 0001:00020177       ??$type_case_integer_parse_into_buffer@I$09@?$output_processor@DV?$string_output_adapter@D@__crt_stdio_output@@V?$standard_base@DV?$string_output_adapter@D@__crt_stdio_output@@@2@@__crt_stdio_output@@AAEXI_N@Z 00421177 f i libucrt:output.obj
 0001:00020177       ??$type_case_integer_parse_into_buffer@I$09@?$output_processor@DV?$string_output_adapter@D@__crt_stdio_output@@V?$format_validation_base@DV?$string_output_adapter@D@__crt_stdio_output@@@2@@__crt_stdio_output@@AAEXI_N@Z 00421177 f i libucrt:output.obj
 0001:000201fe       ??$type_case_integer_parse_into_buffer@I$0BA@@?$output_processor@DV?$string_output_adapter@D@__crt_stdio_output@@V?$format_validation_base@DV?$string_output_adapter@D@__crt_stdio_output@@@2@@__crt_stdio_output@@AAEXI_N@Z 004211fe f i libucrt:output.obj
 0001:000201fe       ??$type_case_integer_parse_into_buffer@I$0BA@@?$output_processor@DV?$string_output_adapter@D@__crt_stdio_output@@V?$standard_base@DV?$string_output_adapter@D@__crt_stdio_output@@@2@@__crt_stdio_output@@AAEXI_N@Z 004211fe f i libucrt:output.obj
 0001:0002027b       ??$type_case_integer_parse_into_buffer@_K$07@?$output_processor@DV?$string_output_adapter@D@__crt_stdio_output@@V?$format_validation_base@DV?$string_output_adapter@D@__crt_stdio_output@@@2@@__crt_stdio_output@@AAEX_K_N@Z 0042127b f i libucrt:output.obj
 0001:0002027b       ??$type_case_integer_parse_into_buffer@_K$07@?$output_processor@DV?$string_output_adapter@D@__crt_stdio_output@@V?$standard_base@DV?$string_output_adapter@D@__crt_stdio_output@@@2@@__crt_stdio_output@@AAEX_K_N@Z 0042127b f i libucrt:output.obj
 0001:000202f3       ??$type_case_integer_parse_into_buffer@_K$09@?$output_processor@DV?$string_output_adapter@D@__crt_stdio_output@@V?$standard_base@DV?$string_output_adapter@D@__crt_stdio_output@@@2@@__crt_stdio_output@@AAEX_K_N@Z 004212f3 f i libucrt:output.obj
 0001:000202f3       ??$type_case_integer_parse_into_buffer@_K$09@?$output_processor@DV?$string_output_adapter@D@__crt_stdio_output@@V?$format_validation_base@DV?$string_output_adapter@D@__crt_stdio_output@@@2@@__crt_stdio_output@@AAEX_K_N@Z 004212f3 f i libucrt:output.obj
 0001:0002039a       ??$type_case_integer_parse_into_buffer@_K$0BA@@?$output_processor@DV?$string_output_adapter@D@__crt_stdio_output@@V?$format_validation_base@DV?$string_output_adapter@D@__crt_stdio_output@@@2@@__crt_stdio_output@@AAEX_K_N@Z 0042139a f i libucrt:output.obj
 0001:0002039a       ??$type_case_integer_parse_into_buffer@_K$0BA@@?$output_processor@DV?$string_output_adapter@D@__crt_stdio_output@@V?$standard_base@DV?$string_output_adapter@D@__crt_stdio_output@@@2@@__crt_stdio_output@@AAEX_K_N@Z 0042139a f i libucrt:output.obj
 0001:00020424       ??0?$output_adapter_data@DV?$string_output_adapter@D@__crt_stdio_output@@@__crt_stdio_output@@IAE@ABV?$string_output_adapter@D@1@_KQBDAAV__crt_cached_ptd_host@@QAD@Z 00421424 f i libucrt:output.obj
 0001:0002048b       ??1formatting_buffer@__crt_stdio_output@@QAE@XZ 0042148b f i libucrt:output.obj
 0001:000204a5       ??4?$__crt_unique_heap_ptr@DU__crt_internal_free_policy@@@@QAEAAV0@$$QAV0@@Z 004214a5 f i libucrt:output.obj
 0001:000204c9       ?crop_zeroes@__crt_stdio_output@@YAXPADQAU__crt_locale_pointers@@@Z 004214c9 f i libucrt:output.obj
 0001:00020529       ?find_next_state@?$output_processor@DV?$string_output_adapter@D@__crt_stdio_output@@V?$format_validation_base@DV?$string_output_adapter@D@__crt_stdio_output@@@2@@__crt_stdio_output@@ABE?AW4state@2@DW432@@Z 00421529 f i libucrt:output.obj
 0001:00020566       ?find_next_state@?$output_processor@DV?$string_output_adapter@D@__crt_stdio_output@@V?$standard_base@DV?$string_output_adapter@D@__crt_stdio_output@@@2@@__crt_stdio_output@@ABE?AW4state@2@DW432@@Z 00421566 f i libucrt:output.obj
 0001:000205a1       ?force_decimal_point@__crt_stdio_output@@YAXPADQAU__crt_locale_pointers@@@Z 004215a1 f i libucrt:output.obj
 0001:000205fd       ?parse_int_from_format_string@?$output_processor@DV?$string_output_adapter@D@__crt_stdio_output@@V?$standard_base@DV?$string_output_adapter@D@__crt_stdio_output@@@2@@__crt_stdio_output@@AAE_NQAH@Z 004215fd f i libucrt:output.obj
 0001:000205fd       ?parse_int_from_format_string@?$output_processor@DV?$string_output_adapter@D@__crt_stdio_output@@V?$format_validation_base@DV?$string_output_adapter@D@__crt_stdio_output@@@2@@__crt_stdio_output@@AAE_NQAH@Z 004215fd f i libucrt:output.obj
 0001:00020675       ?process@?$output_processor@DV?$string_output_adapter@D@__crt_stdio_output@@V?$format_validation_base@DV?$string_output_adapter@D@__crt_stdio_output@@@2@@__crt_stdio_output@@QAEHXZ 00421675 f i libucrt:output.obj
 0001:00020959       ?process@?$output_processor@DV?$string_output_adapter@D@__crt_stdio_output@@V?$standard_base@DV?$string_output_adapter@D@__crt_stdio_output@@@2@@__crt_stdio_output@@QAEHXZ 00421959 f i libucrt:output.obj
 0001:00020c2d       ?state_case_size@?$output_processor@DV?$string_output_adapter@D@__crt_stdio_output@@V?$standard_base@DV?$string_output_adapter@D@__crt_stdio_output@@@2@@__crt_stdio_output@@AAE_NXZ 00421c2d f i libucrt:output.obj
 0001:00020c2d       ?state_case_size@?$output_processor@DV?$string_output_adapter@D@__crt_stdio_output@@V?$format_validation_base@DV?$string_output_adapter@D@__crt_stdio_output@@@2@@__crt_stdio_output@@AAE_NXZ 00421c2d f i libucrt:output.obj
 0001:00020d86       ?state_case_type@?$output_processor@DV?$string_output_adapter@D@__crt_stdio_output@@V?$standard_base@DV?$string_output_adapter@D@__crt_stdio_output@@@2@@__crt_stdio_output@@AAE_NXZ 00421d86 f i libucrt:output.obj
 0001:00020d86       ?state_case_type@?$output_processor@DV?$string_output_adapter@D@__crt_stdio_output@@V?$format_validation_base@DV?$string_output_adapter@D@__crt_stdio_output@@@2@@__crt_stdio_output@@AAE_NXZ 00421d86 f i libucrt:output.obj
 0001:000210e5       ?to_integer_size@__crt_stdio_output@@YAIW4length_modifier@1@@Z 004220e5 f i libucrt:output.obj
 0001:00021139       ?type_case_Z@?$output_processor@DV?$string_output_adapter@D@__crt_stdio_output@@V?$format_validation_base@DV?$string_output_adapter@D@__crt_stdio_output@@@2@@__crt_stdio_output@@AAE_NXZ 00422139 f i libucrt:output.obj
 0001:00021139       ?type_case_Z@?$output_processor@DV?$string_output_adapter@D@__crt_stdio_output@@V?$standard_base@DV?$string_output_adapter@D@__crt_stdio_output@@@2@@__crt_stdio_output@@AAE_NXZ 00422139 f i libucrt:output.obj
 0001:0002119c       ?type_case_a@?$output_processor@DV?$string_output_adapter@D@__crt_stdio_output@@V?$format_validation_base@DV?$string_output_adapter@D@__crt_stdio_output@@@2@@__crt_stdio_output@@AAE_NXZ 0042219c f i libucrt:output.obj
 0001:0002119c       ?type_case_a@?$output_processor@DV?$string_output_adapter@D@__crt_stdio_output@@V?$standard_base@DV?$string_output_adapter@D@__crt_stdio_output@@@2@@__crt_stdio_output@@AAE_NXZ 0042219c f i libucrt:output.obj
 0001:0002132d       ?type_case_c_tchar@?$output_processor@DV?$string_output_adapter@D@__crt_stdio_output@@V?$standard_base@DV?$string_output_adapter@D@__crt_stdio_output@@@2@@__crt_stdio_output@@AAE_ND@Z 0042232d f i libucrt:output.obj
 0001:0002132d       ?type_case_c_tchar@?$output_processor@DV?$string_output_adapter@D@__crt_stdio_output@@V?$format_validation_base@DV?$string_output_adapter@D@__crt_stdio_output@@@2@@__crt_stdio_output@@AAE_ND@Z 0042232d f i libucrt:output.obj
 0001:000213c2       ?type_case_n@?$output_processor@DV?$string_output_adapter@D@__crt_stdio_output@@V?$standard_base@DV?$string_output_adapter@D@__crt_stdio_output@@@2@@__crt_stdio_output@@AAE_NXZ 004223c2 f i libucrt:output.obj
 0001:000213c2       ?type_case_n@?$output_processor@DV?$string_output_adapter@D@__crt_stdio_output@@V?$format_validation_base@DV?$string_output_adapter@D@__crt_stdio_output@@@2@@__crt_stdio_output@@AAE_NXZ 004223c2 f i libucrt:output.obj
 0001:00021447       ?type_case_o@?$output_processor@DV?$string_output_adapter@D@__crt_stdio_output@@V?$format_validation_base@DV?$string_output_adapter@D@__crt_stdio_output@@@2@@__crt_stdio_output@@AAE_NXZ 00422447 f i libucrt:output.obj
 0001:00021447       ?type_case_o@?$output_processor@DV?$string_output_adapter@D@__crt_stdio_output@@V?$standard_base@DV?$string_output_adapter@D@__crt_stdio_output@@@2@@__crt_stdio_output@@AAE_NXZ 00422447 f i libucrt:output.obj
 0001:00021464       ?type_case_p@?$output_processor@DV?$string_output_adapter@D@__crt_stdio_output@@V?$format_validation_base@DV?$string_output_adapter@D@__crt_stdio_output@@@2@@__crt_stdio_output@@AAE_NXZ 00422464 f i libucrt:output.obj
 0001:00021464       ?type_case_p@?$output_processor@DV?$string_output_adapter@D@__crt_stdio_output@@V?$standard_base@DV?$string_output_adapter@D@__crt_stdio_output@@@2@@__crt_stdio_output@@AAE_NXZ 00422464 f i libucrt:output.obj
 0001:0002147a       ?type_case_s@?$output_processor@DV?$string_output_adapter@D@__crt_stdio_output@@V?$format_validation_base@DV?$string_output_adapter@D@__crt_stdio_output@@@2@@__crt_stdio_output@@AAE_NXZ 0042247a f i libucrt:output.obj
 0001:0002147a       ?type_case_s@?$output_processor@DV?$string_output_adapter@D@__crt_stdio_output@@V?$standard_base@DV?$string_output_adapter@D@__crt_stdio_output@@@2@@__crt_stdio_output@@AAE_NXZ 0042247a f i libucrt:output.obj
 0001:000214ec       ?unget@?$c_string_character_source@D@__crt_strtox@@QAEXD@Z 004224ec f i libucrt:output.obj
 0001:00021515       ?unget@?$c_string_character_source@_W@__crt_strtox@@QAEX_W@Z 00422515 f i libucrt:output.obj
 0001:00021550       ?update_locale_slow@__crt_cached_ptd_host@@AAEXXZ 00422550 f i libucrt:output.obj
 0001:000215ab       ?validate@?$c_string_character_source@D@__crt_strtox@@QBE_NXZ 004225ab f i libucrt:output.obj
 0001:000215ab       ?validate@?$c_string_character_source@_W@__crt_strtox@@QBE_NXZ 004225ab f i libucrt:output.obj
 0001:000215c6       ?validate@?$string_output_adapter@D@__crt_stdio_output@@QBE_NAAV__crt_cached_ptd_host@@@Z 004225c6 f i libucrt:output.obj
 0001:000215f7       ?write_string@?$string_output_adapter@D@__crt_stdio_output@@QBEXQBDHQAHAAV__crt_cached_ptd_host@@@Z 004225f7 f i libucrt:output.obj
 0001:0002165e       ___acrt_locale_get_ctype_array_value 0042265e f i libucrt:output.obj
 0001:00021680       ___stdio_common_vsnprintf_s 00422680 f   libucrt:output.obj
 0001:000216c4       ___stdio_common_vsprintf   004226c4 f   libucrt:output.obj
 0001:00021705       ___stdio_common_vsprintf_s 00422705 f   libucrt:output.obj
 0001:00021746       _strnlen                   00422746 f   libucrt:strnlen.obj
 0001:00021868       _wcsnlen                   00422868 f   libucrt:strnlen.obj
 0001:00021a18       ___acrt_initialize_stdio   00422a18 f   libucrt:_file.obj
 0001:00021ae0       ___acrt_iob_func           00422ae0 f   libucrt:_file.obj
 0001:00021af0       ___acrt_uninitialize_stdio 00422af0 f   libucrt:_file.obj
 0001:00021b3c       __get_stream_buffer_pointers 00422b3c f   libucrt:_file.obj
 0001:00021b82       __lock_file                00422b82 f   libucrt:_file.obj
 0001:00021b96       __unlock_file              00422b96 f   libucrt:_file.obj
 0001:00021ccf       _fclose                    00422ccf f   libucrt:fclose.obj
 0001:00021f38       ___acrt_stdio_flush_nolock 00422f38 f   libucrt:fflush.obj
 0001:00021fa1       __fflush_nolock            00422fa1 f   libucrt:fflush.obj
 0001:00022006       __flushall                 00423006 f   libucrt:fflush.obj
 0001:0002200f       _fflush                    0042300f f   libucrt:fflush.obj
 0001:00022062       __fgetc_nolock             00423062 f   libucrt:fgetc.obj
 0001:0002209e       _fgetc                     0042309e f   libucrt:fgetc.obj
 0001:000221b7       _fgetpos                   004231b7 f   libucrt:fgetpos.obj
 0001:00022346       __fputc_nolock_internal    00423346 f   libucrt:fputc.obj
 0001:00022373       _fputc                     00423373 f   libucrt:fputc.obj
 0001:000223a7       __fread_nolock_s           004233a7 f   libucrt:fread.obj
 0001:00022580       _fread                     00423580 f   libucrt:fread.obj
 0001:0002259d       _fread_s                   0042359d f   libucrt:fread.obj
 0001:000226bb       _fsetpos                   004236bb f   libucrt:fsetpos.obj
 0001:000226f6       ?LongLongSub@@YAJ_J0PA_J@Z 004236f6 f i libucrt:fseek.obj
 0001:000229df       __fseeki64                 004239df f   libucrt:fseek.obj
 0001:00022a19       _fseek                     00423a19 f   libucrt:fseek.obj
 0001:00022afa       __fwrite_internal          00423afa f   libucrt:fwrite.obj
 0001:00022b71       __fwrite_nolock_internal   00423b71 f   libucrt:fwrite.obj
 0001:00022d18       _fwrite                    00423d18 f   libucrt:fwrite.obj
 0001:00022f16       _setvbuf                   00423f16 f   libucrt:setvbuf.obj
 0001:00022f50       __ungetc_nolock            00423f50 f   libucrt:ungetc.obj
 0001:00023044       _ungetc                    00424044 f   libucrt:ungetc.obj
 0001:000230b7       _terminate                 004240b7 f   libucrt:terminate.obj
 0001:000230f3       __toupper_l                004240f3 f   libucrt:tolower_toupper.obj
 0001:000231f1       _toupper                   004241f1 f   libucrt:tolower_toupper.obj
 0001:000234b2       __localtime64              004244b2 f   libucrt:localtime.obj
 0001:000234d9       __localtime64_s            004244d9 f   libucrt:localtime.obj
 0001:000234e4       ??$__acrt_convert_wcs_mbs_cp@D_WV<lambda_62f6974d9771e494a5ea317cc32e971c>@@U__crt_win32_buffer_internal_dynamic_resizing@@@@YAHQBDAAV?$__crt_win32_buffer@_WU__crt_win32_buffer_internal_dynamic_resizing@@@@ABV<lambda_62f6974d9771e494a5ea317cc32e971c>@@I@Z 004244e4 f i libucrt:strftime.obj
 0001:00023596       ??$__acrt_convert_wcs_mbs_cp@_WDV<lambda_0fec1a7b3f42a53036604e18c2d5e07e>@@U__crt_win32_buffer_no_resizing@@@@YAHQB_WAAV?$__crt_win32_buffer@DU__crt_win32_buffer_no_resizing@@@@ABV<lambda_0fec1a7b3f42a53036604e18c2d5e07e>@@I@Z 00424596 f i libucrt:strftime.obj
 0001:00023658       ??$__acrt_mbs_to_wcs_cp@U__crt_win32_buffer_internal_dynamic_resizing@@@@YAHQBDAAV?$__crt_win32_buffer@_WU__crt_win32_buffer_internal_dynamic_resizing@@@@I@Z 00424658 f i libucrt:strftime.obj
 0001:00023675       ??$__acrt_wcs_to_mbs_cp@U__crt_win32_buffer_no_resizing@@@@YAHQB_WAAV?$__crt_win32_buffer@DU__crt_win32_buffer_no_resizing@@@@I@Z 00424675 f i libucrt:strftime.obj
 0001:00023692       ??R<lambda_0fec1a7b3f42a53036604e18c2d5e07e>@@QBE@IQB_WQADI@Z 00424692 f i libucrt:strftime.obj
 0001:00023692       ??R<lambda_28bda7af82a03b66c1cb3803a755f95d>@@QBE@IQB_WQADI@Z 00424692 f i libucrt:argv_wildcards.obj
 0001:000236b6       ?_deallocate@?$__crt_win32_buffer@DU__crt_win32_buffer_internal_dynamic_resizing@@@@AAEXXZ 004246b6 f i libucrt:argv_wildcards.obj
 0001:000236b6       ?_deallocate@?$__crt_win32_buffer@_WU__crt_win32_buffer_internal_dynamic_resizing@@@@AAEXXZ 004246b6 f i libucrt:strftime.obj
 0001:000236d0       ?allocate@?$__crt_win32_buffer@DU__crt_win32_buffer_no_resizing@@@@QAEHI@Z 004246d0 f i libucrt:strftime.obj
 0001:000236f7       ?allocate@?$__crt_win32_buffer@_WU__crt_win32_buffer_internal_dynamic_resizing@@@@QAEHI@Z 004246f7 f i libucrt:strftime.obj
 0001:00023736       ?allocate@__crt_win32_buffer_internal_dynamic_resizing@@SAHQAPAXIABV__crt_win32_buffer_empty_debug_info@@@Z 00424736 f i libucrt:strftime.obj
 0001:00023755       ?set_to_nullptr@?$__crt_win32_buffer@DU__crt_win32_buffer_no_resizing@@@@QAEXXZ 00424755 f i libucrt:strftime.obj
 0001:00023769       __Strftime_l               00424769 f   libucrt:strftime.obj
 0001:00023864       _strftime                  00424864 f   libucrt:strftime.obj
 0001:00023a5f       _puts                      00424a5f f   libucrt:puts.obj
 0001:00023b46       _fopen                     00424b46 f   libucrt:fopen.obj
 0001:00023b5d       _fopen_s                   00424b5d f   libucrt:fopen.obj
 0001:00024250       __ftelli64                 00425250 f   libucrt:ftell.obj
 0001:00024286       __ftelli64_nolock_internal 00425286 f   libucrt:ftell.obj
 0001:00024291       _ftell                     00425291 f   libucrt:ftell.obj
 0001:000242c1       _calloc                    004252c1 f   libucrt:calloc.obj
 0001:000242cc       ___ascii_wcsicmp           004252cc f   libucrt:wcsicmp.obj
 0001:00024309       __towlower_internal        00425309 f i libucrt:wcsicmp.obj
 0001:00024348       __wcsicmp                  00425348 f   libucrt:wcsicmp.obj
 0001:00024391       __wcsicmp_l                00425391 f   libucrt:wcsicmp.obj
 0001:00024450       _strcspn                   00425450 f   libucrt:strcspn.obj
 0001:00024496       ??$parse_integer@KV?$c_string_character_source@D@__crt_strtox@@$00@__crt_strtox@@YAKAAV__crt_cached_ptd_host@@V?$c_string_character_source@D@0@H_N@Z 00425496 f i libucrt:strtox.obj
 0001:000246dd       ??$parse_integer@KV?$c_string_character_source@_W@__crt_strtox@@$00@__crt_strtox@@YAKAAV__crt_cached_ptd_host@@V?$c_string_character_source@_W@0@H_N@Z 004256dd f i libucrt:strtox.obj
 0001:00024ceb       __ischartype_l             00425ceb f i libucrt:strtox.obj
 0001:00024d42       _strtol                    00425d42 f   libucrt:strtox.obj
 0001:00024d88       _wcstol                    00425d88 f   libucrt:strtox.obj
 0001:00024dce       __mbsicmp                  00425dce f   libucrt:mbsicmp.obj
 0001:00024de5       __mbsicmp_l                00425de5 f   libucrt:mbsicmp.obj
 0001:00024f87       __recalloc_base            00425f87 f   libucrt:recalloc.obj
 0001:00024ff4       ___acrt_initialize_locks   00425ff4 f   libucrt:locks.obj
 0001:00025035       ___acrt_lock               00426035 f   libucrt:locks.obj
 0001:0002504c       ___acrt_uninitialize_locks 0042604c f   libucrt:locks.obj
 0001:0002507d       ___acrt_unlock             0042607d f   libucrt:locks.obj
 0001:00025094       __lock_locales             00426094 f   libucrt:locks.obj
 0001:000250a2       __unlock_locales           004260a2 f   libucrt:locks.obj
 0001:000250ab       ___pctype_func             004260ab f   libucrt:ctype.obj
 0001:000250d0       _islower                   004260d0 f   libucrt:_ctype.obj
 0001:00025160       _isupper                   00426160 f   libucrt:_ctype.obj
 0001:000251e4       __wcsdup                   004261e4 f   libucrt:wcsdup.obj
 0001:00025243       ____lc_codepage_func       00426243 f   libucrt:initctype.obj
 0001:00025268       ____lc_locale_name_func    00426268 f   libucrt:initctype.obj
 0001:0002528f       ___acrt_locale_initialize_ctype 0042628f f   libucrt:initctype.obj
 0001:000256ec       _malloc                    004266ec f   libucrt:malloc.obj
 0001:0002594c       _setlocale                 0042694c f   libucrt:setlocale.obj
 0001:00025984       _rand_s                    00426984 f   libucrt:rand_s.obj
 0001:000259cc       ___strncnt                 004269cc f   libucrt:strncnt.obj
 0001:000259f0       ?divide@__crt_strtox@@YA_KAAUbig_integer@1@ABU21@@Z 004269f0 f i libucrt:strtod.obj
 0001:00025ea0       __CIpow                    00426ea0 f   libucrt:pow_impl.obj
 0001:00025edb       __CIpow_default            00426edb f   libucrt:pow_impl.obj
 0001:00025ef4       __pow_default              00426ef4     libucrt:pow_impl.obj
 0001:000260e9       _abort                     004270e9 f   libucrt:abort.obj
 0001:0002612d       _wcscpy_s                  0042712d f   libucrt:wcscpy_s.obj
 0001:00026191       ??$__crt_time_is_leap_year@H@@YA_NH@Z 00427191 f i libucrt:wcsftime.obj
 0001:0002722f       __Wcsftime_l               0042822f f   libucrt:wcsftime.obj
 0001:0002738f       ??$__crt_fast_decode_pointer@P6AXH@Z@@YAP6AXH@ZQ6AXH@Z@Z 0042838f f i libucrt:signal.obj
 0001:0002738f       ??$__crt_fast_decode_pointer@P6AHI@Z@@YAP6AHI@ZQ6AHI@Z@Z 0042838f f i libucrt:new_handler.obj
 0001:0002738f       ??$__crt_fast_decode_pointer@P6GXPAXK0@Z@@YAP6GXPAXK0@ZQ6GX0K0@Z@Z 0042838f f i libucrt:exit.obj
 0001:000273aa       ___acrt_initialize_new_handler 004283aa f   libucrt:new_handler.obj
 0001:000273b9       __callnewh                 004283b9 f   libucrt:new_handler.obj
 0001:000273e5       __query_new_handler        004283e5 f   libucrt:new_handler.obj
 0001:0002743c       __seh_filter_exe           0042843c f   libucrt:exception_filter.obj
 0001:000275cf       ??$__crt_fast_encode_pointer@P6GHPA_WKJ@Z@@YAP6GHPA_WKJ@ZQ6GH0KJ@Z@Z 004285cf f i libucrt:winapi_thunks.obj
 0001:000275cf       ??$__crt_fast_encode_pointer@P6AHXZ@@YAP6AHXZQ6AHXZ@Z 004285cf f i libucrt:onexit.obj
 0001:000275cf       ??$__crt_fast_encode_pointer@P6AHPAU_exception@@@Z@@YAP6AHPAU_exception@@@ZQ6AH0@Z@Z 004285cf f i libucrt:matherr.obj
 0001:000275cf       ??$__crt_fast_encode_pointer@P6GXPAXK0@Z@@YAP6GXPAXK0@ZQ6GX0K0@Z@Z 004285cf f i libucrt:exit.obj
 0001:0002787b       ___acrt_initialize_thread_local_exit_callback 0042887b f   libucrt:exit.obj
 0001:0002788a       __c_exit                   0042888a f   libucrt:exit.obj
 0001:00027899       __cexit                    00428899 f   libucrt:exit.obj
 0001:000278a8       __exit                     004288a8 f   libucrt:exit.obj
 0001:000278be       __register_thread_local_exe_atexit_callback 004288be f   libucrt:exit.obj
 0001:000278e4       _exit                      004288e4 f   libucrt:exit.obj
 0001:00027bab       ___acrt_allocate_buffer_for_argv 00428bab f   libucrt:argv_parsing.obj
 0001:00027bfa       __configure_narrow_argv    00428bfa f   libucrt:argv_parsing.obj
 0001:00028075       ___dcrt_get_or_create_narrow_environment_nolock 00429075 f   libucrt:environment_initialization.obj
 0001:0002807a       ___dcrt_get_or_create_wide_environment_nolock 0042907a f   libucrt:environment_initialization.obj
 0001:0002807f       ___dcrt_uninitialize_environments_nolock 0042907f f   libucrt:environment_initialization.obj
 0001:000280d0       __get_initial_narrow_environment 004290d0 f   libucrt:environment_initialization.obj
 0001:000280e4       __initialize_narrow_environment 004290e4 f   libucrt:environment_initialization.obj
 0001:0002837b       __crt_atexit               0042937b f   libucrt:onexit.obj
 0001:00028391       __execute_onexit_table     00429391 f   libucrt:onexit.obj
 0001:000283cf       __initialize_onexit_table  004293cf f   libucrt:onexit.obj
 0001:000283f8       __register_onexit_function 004293f8 f   libucrt:onexit.obj
 0001:00028526       ___acrt_initialize         00429526 f   libucrt:initialization.obj
 0001:00028538       ___acrt_uninitialize       00429538 f   libucrt:initialization.obj
 0001:00028568       __query_app_type           00429568 f   libucrt:report_runtime_error.obj
 0001:0002856e       __set_app_type             0042956e f   libucrt:report_runtime_error.obj
 0001:0002857d       ___acrt_has_user_matherr   0042957d f   libucrt:matherr.obj
 0001:0002859a       ___acrt_initialize_user_matherr 0042959a f   libucrt:matherr.obj
 0001:000285a9       ___acrt_invoke_user_matherr 004295a9 f   libucrt:matherr.obj
 0001:000285df       ___setusermatherr          004295df f   libucrt:matherr.obj
 0001:000285f4       __initterm                 004295f4 f   libucrt:initterm.obj
 0001:0002861f       __initterm_e               0042961f f   libucrt:initterm.obj
 0001:0002864d       __get_fmode                0042964d f   libucrt:setmode.obj
 0001:0002867a       __set_fmode                0042967a f   libucrt:setmode.obj
 0001:000286b7       __setmode_nolock           004296b7 f   libucrt:setmode.obj
 0001:00028786       ___acrt_initialize_command_line 00429786 f   libucrt:argv_data.obj
 0001:0002879f       ___p___argc                0042979f f   libucrt:argv_data.obj
 0001:000287a5       ___p___argv                004297a5 f   libucrt:argv_data.obj
 0001:000288ab       ??0_expandlocale_locale_name_cache@@QAE@QA_WIQAU__crt_qualified_locale_data@@@Z 004298ab f i libucrt:wsetlocale.obj
 0001:000288f5       ??1_expandlocale_locale_name_cache@@QAE@XZ 004298f5 f i libucrt:wsetlocale.obj
 0001:00028a8d       ?commit_locale_name@_expandlocale_locale_name_cache@@QAEXQB_WI@Z 00429a8d f i libucrt:wsetlocale.obj
 0001:00028ad1       ?commit_locale_name_cache_already_updated@_expandlocale_locale_name_cache@@QAEXQB_WI@Z 00429ad1 f i libucrt:wsetlocale.obj
 0001:00028b06       ___acrt_copy_locale_name   00429b06 f   libucrt:wsetlocale.obj
 0001:00028b66       ___acrt_set_locale_changed 00429b66 f   libucrt:wsetlocale.obj
 0001:00028b71       ___acrt_uninitialize_locale 00429b71 f   libucrt:wsetlocale.obj
 0001:00028b98       ___lc_lctowcs              00429b98 f   libucrt:wsetlocale.obj
 0001:00028c08       ___lc_wcstolc              00429c08 f   libucrt:wsetlocale.obj
 0001:00028d45       __configthreadlocale       00429d45 f   libucrt:wsetlocale.obj
 0001:0002919c       __wcscats                  0042a19c f   libucrt:wsetlocale.obj
 0001:000291dd       __wsetlocale               0042a1dd f   libucrt:wsetlocale.obj
 0001:00029ed2       __query_new_mode           0042aed2 f   libucrt:new_mode.obj
 0001:00029ed9       __set_new_mode             0042aed9 f   libucrt:new_mode.obj
 0001:00029f08       ___p__commode              0042af08 f   libucrt:ncommode.obj
 0001:00029f0e       __controlfp_s              0042af0e f   libucrt:contrlfp.obj
 0001:00029f6d       _strcpy_s                  0042af6d f   libucrt:strcpy_s.obj
 0001:00029fc7       _wcsncmp                   0042afc7 f   libucrt:wcsncmp.obj
 0001:0002a001       __wtol                     0042b001 f   libucrt:atox.obj
 0001:0002a040       _strncmp                   0042b040 f   libucrt:strncmp.obj
 0001:0002a3f6       ___acrt_getptd             0042b3f6 f   libucrt:per_thread_data.obj
 0001:0002a4b1       ___acrt_getptd_head        0042b4b1 f   libucrt:per_thread_data.obj
 0001:0002a547       ___acrt_getptd_noexit      0042b547 f   libucrt:per_thread_data.obj
 0001:0002a5f8       ___acrt_getptd_noexit_explicit 0042b5f8 f   libucrt:per_thread_data.obj
 0001:0002a69b       ___acrt_initialize_ptd     0042b69b f   libucrt:per_thread_data.obj
 0001:0002a6c7       ___acrt_uninitialize_ptd   0042b6c7 f   libucrt:per_thread_data.obj
 0001:0002a6e1       __free_base                0042b6e1 f   libucrt:free_base.obj
 0001:0002a71b       ___acrt_update_locale_info 0042b71b f   libucrt:locale_update.obj
 0001:0002a748       ___acrt_update_locale_info_explicit 0042b748 f   libucrt:locale_update.obj
 0001:0002a779       ___acrt_update_multibyte_info 0042b779 f   libucrt:locale_update.obj
 0001:0002a7a6       ___acrt_update_multibyte_info_explicit 0042b7a6 f   libucrt:locale_update.obj
 0001:0002a9c6       ___acrt_LCMapStringA       0042b9c6 f   libucrt:lcmapstringa.obj
 0001:0002ad39       ___acrt_AppPolicyGetProcessTerminationMethodInternal@4 0042bd39 f   libucrt:winapi_thunks.obj
 0001:0002ad79       ___acrt_AreFileApisANSI@0  0042bd79 f   libucrt:winapi_thunks.obj
 0001:0002ad98       ___acrt_CompareStringEx@36 0042bd98 f   libucrt:winapi_thunks.obj
 0001:0002adf5       ___acrt_EnumSystemLocalesEx@16 0042bdf5 f   libucrt:winapi_thunks.obj
 0001:0002ae49       ___acrt_FlsAlloc@4         0042be49 f   libucrt:winapi_thunks.obj
 0001:0002ae88       ___acrt_FlsFree@4          0042be88 f   libucrt:winapi_thunks.obj
 0001:0002aec7       ___acrt_FlsGetValue@4      0042bec7 f   libucrt:winapi_thunks.obj
 0001:0002af06       ___acrt_FlsSetValue@8      0042bf06 f   libucrt:winapi_thunks.obj
 0001:0002af48       ___acrt_GetDateFormatEx@28 0042bf48 f   libucrt:winapi_thunks.obj
 0001:0002af9f       ___acrt_GetLocaleInfoEx@16 0042bf9f f   libucrt:winapi_thunks.obj
 0001:0002afde       ___acrt_GetTimeFormatEx@24 0042bfde f   libucrt:winapi_thunks.obj
 0001:0002b023       ___acrt_GetUserDefaultLocaleName@8 0042c023 f   libucrt:winapi_thunks.obj
 0001:0002b05f       ___acrt_InitializeCriticalSectionEx@12 0042c05f f   libucrt:winapi_thunks.obj
 0001:0002b0aa       ___acrt_IsValidLocaleName@4 0042c0aa f   libucrt:winapi_thunks.obj
 0001:0002b0e2       ___acrt_LCIDToLocaleName@16 0042c0e2 f   libucrt:winapi_thunks.obj
 0001:0002b121       ___acrt_LCMapStringEx@36   0042c121 f   libucrt:winapi_thunks.obj
 0001:0002b17e       ___acrt_LocaleNameToLCID@8 0042c17e f   libucrt:winapi_thunks.obj
 0001:0002b1af       ___acrt_RtlGenRandom@8     0042c1af f   libucrt:winapi_thunks.obj
 0001:0002b1ef       ___acrt_can_use_vista_locale_apis 0042c1ef f   libucrt:winapi_thunks.obj
 0001:0002b1fa       ___acrt_eagerly_load_locale_apis 0042c1fa f   libucrt:winapi_thunks.obj
 0001:0002b231       ___acrt_initialize_winapi_thunks 0042c231 f   libucrt:winapi_thunks.obj
 0001:0002b245       ___acrt_uninitialize_winapi_thunks 0042c245 f   libucrt:winapi_thunks.obj
 0001:0002b27b       __malloc_base              0042c27b f   libucrt:malloc_base.obj
 0001:0002b2c9       ?__acrt_fp_classify@@YA?AW4__acrt_fp_class@@ABN@Z 0042c2c9 f i libucrt:cvt.obj
 0001:0002bca1       ___acrt_fp_format          0042cca1 f   libucrt:cvt.obj
 0001:0002be22       __wctomb_internal          0042ce22 f   libucrt:wctomb.obj
 0001:0002bf8c       __mbtowc_internal          0042cf8c f   libucrt:mbtowc.obj
 0001:0002c0bf       __fileno                   0042d0bf f   libucrt:fileno.obj
 0001:0002c0e6       __get_printf_count_output  0042d0e6 f   libucrt:printf_count_output.obj
 0001:0002c0fb       ___acrt_should_use_temporary_buffer 0042d0fb f   libucrt:_sftbuf.obj
 0001:0002c139       ___acrt_stdio_begin_temporary_buffering_nolock 0042d139 f   libucrt:_sftbuf.obj
 0001:0002c1e4       ___acrt_stdio_end_temporary_buffering_nolock 0042d1e4 f   libucrt:_sftbuf.obj
 0001:0002c388       ___acrt_initialize_lowio   0042d388 f   libucrt:ioinit.obj
 0001:0002c3e8       ___acrt_uninitialize_lowio 0042d3e8 f   libucrt:ioinit.obj
 0001:0002c414       __calloc_base              0042d414 f   libucrt:calloc_base.obj
 0001:0002c471       __fcloseall                0042d471 f   libucrt:closeall.obj
 0001:0002c51c       ___acrt_stdio_free_buffer_nolock 0042d51c f   libucrt:_freebuf.obj
 0001:0002c5ed       __close_internal           0042d5ed f   libucrt:close.obj
 0001:0002c690       __close_nolock             0042d690 f   libucrt:close.obj
 0001:0002c6c0       __close_nolock_internal    0042d6c0 f   libucrt:close.obj
 0001:0002c760       ?__acrt_stdio_allocate_stream@@YA?AV__crt_stdio_stream@@XZ 0042d760 f   libucrt:stream.obj
 0001:0002c7c9       ?__acrt_stdio_free_stream@@YAXV__crt_stdio_stream@@@Z 0042d7c9 f   libucrt:stream.obj
 0001:0002c968       __commit                   0042d968 f   libucrt:commit.obj
 0001:0002d187       __write                    0042e187 f   libucrt:write.obj
 0001:0002d1be       __write_internal           0042e1be f   libucrt:write.obj
 0001:0002d2cf       __write_nolock             0042e2cf f   libucrt:write.obj
 0001:0002d67a       ___acrt_stdio_refill_and_read_narrow_nolock 0042e67a f   libucrt:_filbuf.obj
 0001:0002d8d2       ___acrt_stdio_flush_and_write_narrow_nolock 0042e8d2 f   libucrt:_flsbuf.obj
 0001:0002ddb9       __read                     0042edb9 f   libucrt:read.obj
 0001:0002ded2       __read_nolock              0042eed2 f   libucrt:read.obj
 0001:0002e405       __lseeki64                 0042f405 f   libucrt:lseek.obj
 0001:0002e445       __lseeki64_internal        0042f445 f   libucrt:lseek.obj
 0001:0002e463       __lseeki64_nolock          0042f463 f   libucrt:lseek.obj
 0001:0002e4a3       __lseeki64_nolock_internal 0042f4a3 f   libucrt:lseek.obj
 0001:0002e4c1       ___acrt_stdio_allocate_buffer_nolock 0042f4c1 f   libucrt:_getbuf.obj
 0001:0002e51d       ___acrt_initialize_timeset 0042f51d f   libucrt:timeset.obj
 0001:0002e552       ___daylight                0042f552 f   libucrt:timeset.obj
 0001:0002e558       ___dstbias                 0042f558 f   libucrt:timeset.obj
 0001:0002e55e       ___timezone                0042f55e f   libucrt:timeset.obj
 0001:0002e564       ___tzname                  0042f564 f   libucrt:timeset.obj
 0001:0002e56a       ___wide_tzname             0042f56a f   libucrt:timeset.obj
 0001:0002e570       __get_daylight             0042f570 f   libucrt:timeset.obj
 0001:0002e59c       __get_dstbias              0042f59c f   libucrt:timeset.obj
 0001:0002e5c8       __get_timezone             0042f5c8 f   libucrt:timeset.obj
 0001:0002e5f4       ??$__crt_time_elapsed_leap_years@H@@YAHH@Z 0042f5f4 f i libucrt:gmtime.obj
 0001:0002e831       ___getgmtimebuf            0042f831 f   libucrt:gmtime.obj
 0001:0002e86f       __gmtime64_s               0042f86f f   libucrt:gmtime.obj
 0001:0002e87a       ?__acrt_get_utf8_acp_compatibility_codepage@@YAIXZ 0042f87a f i libucrt:tzset.obj
 0001:0002f178       ___tzset                   00430178 f   libucrt:tzset.obj
 0001:0002f1d5       __isindst                  004301d5 f   libucrt:tzset.obj
 0001:0002f2c1       ___acrt_MultiByteToWideChar 004302c1 f   libucrt:multibytetowidechar.obj
 0001:0002f37b       ___acrt_WideCharToMultiByte 0043037b f   libucrt:widechartomultibyte.obj
 0001:0002f3e7       ??$__acrt_stdio_parse_mode@D@@YA?AU__acrt_stdio_stream_mode@@QBD@Z 004303e7 f i libucrt:openfile.obj
 0001:0002f694       ?__acrt_stdio_parse_mode_D@@YA_NAAU__acrt_stdio_stream_mode@@@Z 00430694 f i libucrt:openfile.obj
 0001:0002f6af       ?__acrt_stdio_parse_mode_T@@YA_NAAU__acrt_stdio_stream_mode@@@Z 004306af f i libucrt:openfile.obj
 0001:0002f6ce       ?__acrt_stdio_parse_mode_b@@YA_NAAU__acrt_stdio_stream_mode@@@Z 004306ce f i libucrt:openfile.obj
 0001:0002f6ee       ?__acrt_stdio_parse_mode_c@@YA_NAAU__acrt_stdio_stream_mode@@AA_N@Z 004306ee f i libucrt:openfile.obj
 0001:0002f710       ?__acrt_stdio_parse_mode_n@@YA_NAAU__acrt_stdio_stream_mode@@AA_N@Z 00430710 f i libucrt:openfile.obj
 0001:0002f732       ?__acrt_stdio_parse_mode_plus@@YA_NAAU__acrt_stdio_stream_mode@@AA_N@Z 00430732 f i libucrt:openfile.obj
 0001:0002f768       ?__acrt_stdio_parse_mode_t@@YA_NAAU__acrt_stdio_stream_mode@@@Z 00430768 f i libucrt:openfile.obj
 0001:0002f788       ?__acrt_stdio_parse_mode_x@@YA_NAAU__acrt_stdio_stream_mode@@@Z 00430788 f i libucrt:openfile.obj
 0001:0002f7a8       __openfile                 004307a8 f   libucrt:openfile.obj
 0001:0002f7b3       __towlower_l               004307b3 f   libucrt:towlower.obj
 0001:0002f887       _iswctype                  00430887 f   libucrt:iswctype.obj
 0001:0002f8f0       __isctype_l                004308f0 f   libucrt:isctype.obj
 0001:0002f9bb       __errcode                  004309bb f   libucrt:fpexcept.obj
 0001:0002f9ef       __except1                  004309ef f   libucrt:fpexcept.obj
 0001:0002fabd       __handle_exc               00430abd f   libucrt:fpexcept.obj
 0001:0002fd3d       __raise_exc                00430d3d f   libucrt:fpexcept.obj
 0001:0002fd60       __raise_exc_ex             00430d60 f   libucrt:fpexcept.obj
 0001:00030051       __set_errno_from_matherr   00431051 f   libucrt:fpexcept.obj
 0001:00030082       __umatherr                 00431082 f   libucrt:fpexcept.obj
 0001:00030122       __decomp                   00431122 f   libucrt:util.obj
 0001:000301f4       __set_exp                  004311f4 f   libucrt:util.obj
 0001:00030221       __sptype                   00431221 f   libucrt:util.obj
 0001:00030284       ___set_fpsr_sse2           00431284 f   libucrt:fpctrl.obj
 0001:00030304       __clrfp                    00431304 f   libucrt:fpctrl.obj
 0001:00030315       __ctrlfp                   00431315 f   libucrt:fpctrl.obj
 0001:0003033f       __set_statfp               0043133f f   libucrt:fpctrl.obj
 0001:00030398       __statfp                   00431398 f   libucrt:fpctrl.obj
 0001:000303a8       __stricmp_l                004313a8 f   libucrt:stricmp.obj
 0001:00030438       __msize_base               00431438 f   libucrt:msize.obj
 0001:0003046b       __realloc_base             0043146b f   libucrt:realloc_base.obj
 0001:000305b3       ___acrt_GetLocaleInfoA     004315b3 f   libucrt:getlocaleinfoa.obj
 0001:00030763       ___acrt_GetStringTypeA     00431763 f   libucrt:getstringtypea.obj
 0001:00030b07       _mbstowcs_s                00431b07 f   libucrt:mbstowcs.obj
 0001:00030ec0       __wcstombs_s_l             00431ec0 f   libucrt:wcstombs.obj
 0001:00030efe       _fegetround                00431efe f   libucrt:fegetround.obj
 0001:00030f0b       __fpclass                  00431f0b f   libucrt:ieeemisc.obj
 0001:00030faf       ___acrt_initialize_sse2    00431faf f   libucrt:mathfcns.obj
 0001:00030fc0       __CIpow_pentium4           00431fc0 f   libucrt:pow_pentium4.obj
 0001:00030fd9       __pow_pentium4             00431fd9     libucrt:pow_pentium4.obj
 0001:00031b00       __fFEXP                    00432b00 f   libucrt:87tran.obj
 0001:00031b57       __rtinfpopse               00432b57     libucrt:87tran.obj
 0001:00031b59       __rtinfnpopse              00432b59     libucrt:87tran.obj
 0001:00031b69       __fFLN                     00432b69     libucrt:87tran.obj
 0001:00031c1e       __rtinfpop                 00432c1e     libucrt:87tran.obj
 0001:00031c20       __rtinfnpop                00432c20     libucrt:87tran.obj
 0001:00031c30       __rtforexpinf              00432c30 f   libucrt:87tran.obj
 0001:00031c3d       __ffexpm1                  00432c3d     libucrt:87tran.obj
 0001:00031cf0       __trandisp1                00432cf0 f   libucrt:87disp.obj
 0001:00031d65       __trandisp2                00432d65 f   libucrt:87disp.obj
 0001:00031dff       __rttospopde               00432dff     libucrt:87disp.obj
 0001:00031e04       __rttospop                 00432e04     libucrt:87disp.obj
 0001:00031e10       __rtnospop                 00432e10 f   libucrt:87disp.obj
 0001:00031e20       __rttosnpop                00432e20 f   libucrt:87disp.obj
 0001:00031e21       __rtnospopde               00432e21     libucrt:87disp.obj
 0001:00031e28       __rtzeropop                00432e28     libucrt:87disp.obj
 0001:00031e2a       __rtzeronpop               00432e2a     libucrt:87disp.obj
 0001:00031e30       __rtzerospop               00432e30 f   libucrt:87disp.obj
 0001:00031e3d       __rtonepop                 00432e3d     libucrt:87disp.obj
 0001:00031e40       __rtonenpop                00432e40 f   libucrt:87disp.obj
 0001:00031e50       __tosnan1                  00432e50 f   libucrt:87disp.obj
 0001:00031e80       __nosnan2                  00432e80 f   libucrt:87disp.obj
 0001:00031e90       __tosnan2                  00432e90 f   libucrt:87disp.obj
 0001:00031ec0       __nan2                     00432ec0 f   libucrt:87disp.obj
 0001:00031f00       __rtindfpop                00432f00 f   libucrt:87disp.obj
 0001:00031f02       __rtindfnpop               00432f02     libucrt:87disp.obj
 0001:00031f13       __rttosnpopde              00432f13     libucrt:87disp.obj
 0001:00031f20       __rtatan2inf               00432f20 f   libucrt:87disp.obj
 0001:00031f3d       __rtchsifneg               00432f3d     libucrt:87disp.obj
 0001:00031f50       __startTwoArgErrorHandling 00432f50 f   libucrt:genexcep.obj
 0001:00031f67       __startOneArgErrorHandling 00432f67 f   libucrt:genexcep.obj
 0001:00031fb0       __twoToTOS                 00432fb0 f   libucrt:common.obj
 0001:00031fc5       __load_CW                  00432fc5 f   libucrt:common.obj
 0001:00031fdc       __convertTOStoQNaN         00432fdc f   libucrt:common.obj
 0001:00031ff5       __fload_withFB             00432ff5 f   libucrt:common.obj
 0001:00032038       __checkTOS_withFB          00433038 f   libucrt:common.obj
 0001:0003204e       __fast_exit                0043304e f   libucrt:common.obj
 0001:0003205b       __math_exit                0043305b f   libucrt:common.obj
 0001:00032085       __check_overflow_exit      00433085 f   libucrt:common.obj
 0001:00032099       __check_range_exit         00433099 f   libucrt:common.obj
 0001:0003213c       __d_inttype                0043313c f   libucrt:powhlp.obj
 0001:000321a4       __powhlp                   004331a4 f   libucrt:powhlp.obj
 0001:000323a1       ___acrt_get_sigabrt_handler 004333a1 f   libucrt:signal.obj
 0001:000323c8       ___acrt_initialize_signal_handlers 004333c8 f   libucrt:signal.obj
 0001:000323e6       _raise                     004333e6 f   libucrt:signal.obj
 0001:000325d8       ___acrt_app_verifier_enabled 004335d8 f   libucrt:peb_access.obj
 0001:000325ea       ___acrt_is_secure_process  004335ea f   libucrt:peb_access.obj
 0001:000325fd       ___acrt_get_process_end_policy 004335fd f   libucrt:win_policies.obj
 0001:0003263c       ??$__acrt_convert_wcs_mbs_cp@_WDV<lambda_28bda7af82a03b66c1cb3803a755f95d>@@U__crt_win32_buffer_internal_dynamic_resizing@@@@YAHQB_WAAV?$__crt_win32_buffer@DU__crt_win32_buffer_internal_dynamic_resizing@@@@ABV<lambda_28bda7af82a03b66c1cb3803a755f95d>@@I@Z 0043363c f i libucrt:argv_wildcards.obj
 0001:00032bda       ?allocate@?$__crt_win32_buffer@DU__crt_win32_buffer_internal_dynamic_resizing@@@@QAEHI@Z 00433bda f i libucrt:argv_wildcards.obj
 0001:00032c9d       ___acrt_expand_narrow_argv_wildcards 00433c9d f   libucrt:argv_wildcards.obj
 0001:00032ca8       ___acrt_GetModuleFileNameA 00433ca8 f   libucrt:getmodulefilenamea.obj
 0001:000332c5       ___acrt_initialize_multibyte 004342c5 f   libucrt:mbctype.obj
 0001:0003330d       ___acrt_update_thread_multibyte_data 0043430d f   libucrt:mbctype.obj
 0001:00033320       __setmbcp_nolock           00434320 f   libucrt:mbctype.obj
 0001:00033575       __ismbblead                00434575 f   libucrt:ismbbyte.obj
 0001:000335c4       ___dcrt_get_narrow_environment_from_os 004345c4 f   libucrt:get_environment_from_os.obj
 0001:00033664       ___dcrt_get_wide_environment_from_os 00434664 f   libucrt:get_environment_from_os.obj
 0001:00033dec       ___dcrt_set_variable_in_narrow_environment_nolock 00434dec f   libucrt:setenv.obj
 0001:00033df7       ___dcrt_set_variable_in_wide_environment_nolock 00434df7 f   libucrt:setenv.obj
 0001:00033e02       ___acrt_initialize_heap    00434e02 f   libucrt:heap_handle.obj
 0001:00033e13       ___acrt_uninitialize_heap  00434e13 f   libucrt:heap_handle.obj
 0001:00033e1d       ___acrt_execute_initializers 00434e1d f   libucrt:shared_initialization.obj
 0001:00033e85       ___acrt_execute_uninitializers 00434e85 f   libucrt:shared_initialization.obj
 0001:00033eb6       _wcscat_s                  00434eb6 f   libucrt:wcscat_s.obj
 0001:00033ff3       _wcsncpy_s                 00434ff3 f   libucrt:wcsncpy_s.obj
 0001:00033ffe       ___acrt_lowio_create_handle_array 00434ffe f   libucrt:osfinfo.obj
 0001:00034079       ___acrt_lowio_destroy_handle_array 00435079 f   libucrt:osfinfo.obj
 0001:000340ae       ___acrt_lowio_ensure_fh_exists 004350ae f   libucrt:osfinfo.obj
 0001:0003414c       ___acrt_lowio_lock_fh      0043514c f   libucrt:osfinfo.obj
 0001:0003416f       ___acrt_lowio_set_os_handle 0043516f f   libucrt:osfinfo.obj
 0001:00034201       ___acrt_lowio_unlock_fh    00435201 f   libucrt:osfinfo.obj
 0001:00034224       __alloc_osfhnd             00435224 f   libucrt:osfinfo.obj
 0001:00034337       __free_osfhnd              00435337 f   libucrt:osfinfo.obj
 0001:000343c8       __get_osfhandle            004353c8 f   libucrt:osfinfo.obj
 0001:00034432       ___acrt_initialize_fmode   00435432 f   libucrt:txtmode.obj
 0001:00034448       ___acrt_locale_free_monetary 00435448 f   libucrt:initmon.obj
 0001:00034546       ___acrt_locale_initialize_monetary 00435546 f   libucrt:initmon.obj
 0001:000348a7       ___acrt_locale_free_numeric 004358a7 f   libucrt:initnum.obj
 0001:00034910       ___acrt_locale_initialize_numeric 00435910 f   libucrt:initnum.obj
 0001:00034dce       ___acrt_locale_free_time   00435dce f   libucrt:inittime.obj
 0001:00034eb2       ___acrt_locale_initialize_time 00435eb2 f   libucrt:inittime.obj
 0001:00035015       _wcsncat_s                 00436015 f   libucrt:wcsncat_s.obj
 0001:00035020       _wcscspn                   00436020 f   libucrt:wcscspn.obj
 0001:00035079       _wcspbrk                   00436079 f   libucrt:wcspbrk.obj
 0001:000350c7       ___acrt_add_locale_ref     004360c7 f   libucrt:locale_refcounting.obj
 0001:00035144       ___acrt_free_locale        00436144 f   libucrt:locale_refcounting.obj
 0001:0003528c       ___acrt_locale_add_lc_time_reference 0043628c f   libucrt:locale_refcounting.obj
 0001:000352b5       ___acrt_locale_free_lc_time_if_unreferenced 004362b5 f   libucrt:locale_refcounting.obj
 0001:000352e6       ___acrt_locale_release_lc_time_reference 004362e6 f   libucrt:locale_refcounting.obj
 0001:0003530f       ___acrt_release_locale_ref 0043630f f   libucrt:locale_refcounting.obj
 0001:00035390       ___acrt_update_thread_locale_data 00436390 f   libucrt:locale_refcounting.obj
 0001:00035411       __updatetlocinfoEx_nolock  00436411 f   libucrt:locale_refcounting.obj
 0001:00035b58       ___acrt_get_qualified_locale 00436b58 f   libucrt:get_qualified_locale.obj
 0001:000364cd       ___acrt_get_qualified_locale_downlevel 004374cd f   libucrt:getqloc_downlevel.obj
 0001:00036764       __clearfp                  00437764 f   libucrt:ieee87.obj
 0001:00036842       __control87                00437842 f   libucrt:ieee87.obj
 0001:00036c31       ___acrt_DownlevelLCIDToLocaleName 00437c31 f   libucrt:lcidtoname_downlevel.obj
 0001:00036cd4       ___acrt_DownlevelLocaleNameToLCID 00437cd4 f   libucrt:lcidtoname_downlevel.obj
 0001:00036db1       ___acrt_fp_strflt_to_string 00437db1 f   libucrt:_fptostr.obj
 0001:00036eab       ___acrt_fltout             00437eab f   libucrt:cfout.obj
 0001:00038493       ?__c32rtomb_utf8@__crt_mbstring@@YAIPAD_UPAU_Mbstatet@@AAV__crt_cached_ptd_host@@@Z 00439493 f   libucrt:c32rtomb.obj
 0001:0003856f       ?__mbrtowc_utf8@__crt_mbstring@@YAIPA_WPBDIPAU_Mbstatet@@AAV__crt_cached_ptd_host@@@Z 0043956f f   libucrt:mbrtowc.obj
 0001:000385b2       ?__mbsrtowcs_utf8@__crt_mbstring@@YAIPA_WPAPBDIPAU_Mbstatet@@AAV__crt_cached_ptd_host@@@Z 004395b2 f   libucrt:mbrtowc.obj
 0001:000386ba       __isatty                   004396ba f   libucrt:isatty.obj
 0001:00038710       __putwch_nolock            00439710 f   libucrt:putwch.obj
 0001:000388d3       __wgetenv_s                004398d3 f   libucrt:getenv.obj
 0001:000388de       ___ascii_wcsnicmp          004398de f   libucrt:wcsnicmp.obj
 0001:0003892d       __wcsnicmp                 0043992d f   libucrt:wcsnicmp.obj
 0001:00038979       __wcsnicmp_l               00439979 f   libucrt:wcsnicmp.obj
 0001:00038a4c       __strnicmp                 00439a4c f   libucrt:strnicmp.obj
 0001:00038ab9       __strnicmp_l               00439ab9 f   libucrt:strnicmp.obj
 0001:0003916e       __sopen_nolock             0043a16e f   libucrt:open.obj
 0001:000391dc       __sopen_s                  0043a1dc f   libucrt:open.obj
 0001:000391fc       __wsopen_nolock            0043a1fc f   libucrt:open.obj
 0001:00039526       ___acrt_LCMapStringW       0043a526 f   libucrt:lcmapstringw.obj
 0001:00039564       ___acrt_GetStringTypeW     0043a564 f   libucrt:getstringtypew.obj
 0001:00039634       _strncpy_s                 0043a634 f   libucrt:strncpy_s.obj
 0001:0003963f       ?__wcsrtombs_utf8@__crt_mbstring@@YAIPADPAPB_WIPAU_Mbstatet@@AAV__crt_cached_ptd_host@@@Z 0043a63f f   libucrt:wcrtomb.obj
 0001:00039a17       ___acrt_fenv_get_common_round_control 0043aa17 f   libucrt:_fenvutils.obj
 0001:00039a39       ___acrt_fenv_get_control   0043aa39 f   libucrt:_fenvutils.obj
 0001:00039ab9       ___acrt_fenv_get_status    0043aab9 f   libucrt:_fenvutils.obj
 0001:00039b63       ___acrt_fenv_set_control   0043ab63 f   libucrt:_fenvutils.obj
 0001:00039bde       ___acrt_fenv_set_status    0043abde f   libucrt:_fenvutils.obj
 0001:00039cda       ___libm_error_support      0043acda f   libucrt:libm_error.obj
 0001:00039ece       __87except                 0043aece f   libucrt:87except.obj
 0001:00039fde       __frnd                     0043afde f   libucrt:frnd.obj
 0001:0003a000       _qsort                     0043b000 f   libucrt:qsort.obj
 0001:0003a4f0       _strpbrk                   0043b4f0 f   libucrt:strpbrk.obj
 0001:0003a530       __mbsdec                   0043b530 f   libucrt:mbsdec.obj
 0001:0003a547       __mbsdec_l                 0043b547 f   libucrt:mbsdec.obj
 0001:0003a5e3       __wcsnicoll                0043b5e3 f   libucrt:wcsnicol.obj
 0001:0003a650       __wcsnicoll_l              0043b650 f   libucrt:wcsnicol.obj
 0001:0003a710       __strnicoll                0043b710 f   libucrt:strnicol.obj
 0001:0003a739       __strnicoll_l              0043b739 f   libucrt:strnicol.obj
 0001:0003a801       ___acrt_SetEnvironmentVariableA 0043b801 f   libucrt:setenvironmentvariablea.obj
 0001:0003a9c4       __itow_s                   0043b9c4 f   libucrt:xtoa.obj
 0001:0003a9f7       _fegetenv                  0043b9f7 f   libucrt:fegetenv.obj
 0001:0003aa14       _fesetenv                  0043ba14 f   libucrt:fesetenv.obj
 0001:0003aa60       _feholdexcept              0043ba60 f   libucrt:feholdexcept.obj
 0001:0003aab0       __CIlog10                  0043bab0 f   libucrt:log10_impl.obj
 0001:0003aaeb       __CIlog10_default          0043baeb f   libucrt:log10_impl.obj
 0001:0003aaff       __log10_default            0043baff     libucrt:log10_impl.obj
 0001:0003abc0       _ceil                      0043bbc0 f   libucrt:ceil_pentium4.obj
 0001:0003ac00       __ceil_pentium4            0043bc00 f   libucrt:ceil_pentium4.obj
 0001:0003acdd       ?reset_and_return@__crt_mbstring@@YAIIPAU_Mbstatet@@@Z 0043bcdd f   libucrt:common_utf8.obj
 0001:0003acf1       ?return_illegal_sequence@__crt_mbstring@@YAIPAU_Mbstatet@@AAV__crt_cached_ptd_host@@@Z 0043bcf1 f   libucrt:common_utf8.obj
 0001:0003ad13       ?__mbrtoc32_utf8@__crt_mbstring@@YAIPA_UPBDIPAU_Mbstatet@@AAV__crt_cached_ptd_host@@@Z 0043bd13 f   libucrt:mbrtoc32.obj
 0001:0003aee3       ___dcrt_lowio_ensure_console_output_initialized 0043bee3 f   libucrt:initcon.obj
 0001:0003af02       ___dcrt_terminate_console_output 0043bf02 f   libucrt:initcon.obj
 0001:0003af19       ___dcrt_write_console      0043bf19 f   libucrt:initcon.obj
 0001:0003af70       ___ascii_strnicmp          0043bf70 f   libucrt:_strnicm.obj
 0001:0003afd1       ??0__crt_seek_guard@@QAE@H_J@Z 0043bfd1 f i libucrt:chsize.obj
 0001:0003b01e       __chsize_nolock            0043c01e f   libucrt:chsize.obj
 0001:0003b055       __chsize_nolock_internal   0043c055 f   libucrt:chsize.obj
 0001:0003b1ec       ?__c16rtomb_utf8@__crt_mbstring@@YAIPAD_SPAU_Mbstatet@@AAV__crt_cached_ptd_host@@@Z 0043c1ec f   libucrt:c16rtomb.obj
 0001:0003b296       ___acrt_CompareStringW     0043c296 f   libucrt:comparestringw.obj
 0001:0003b59a       ___acrt_CompareStringA     0043c59a f   libucrt:comparestringa.obj
 0001:0003b5e0       __CIlog10_pentium4         0043c5e0 f   libucrt:log10_pentium4.obj
 0001:0003b5f8       __log10_pentium4           0043c5f8     libucrt:log10_pentium4.obj
 0001:0003b870       __ceil_default             0043c870 f   libucrt:ceil.obj
 0001:0003b92e       _SQLAllocHandle@12         0043c92e f   odbc32:ODBC32.dll
 0001:0003b934       _SQLConnect@28             0043c934 f   odbc32:ODBC32.dll
 0001:0003b93a       _SQLDisconnect@4           0043c93a f   odbc32:ODBC32.dll
 0001:0003b940       _SQLFreeHandle@8           0043c940 f   odbc32:ODBC32.dll
 0001:0003b946       _SQLSetEnvAttr@16          0043c946 f   odbc32:ODBC32.dll
 0001:0003b94c       _SQLBindCol@24             0043c94c f   odbc32:ODBC32.dll
 0001:0003b952       _SQLCloseCursor@4          0043c952 f   odbc32:ODBC32.dll
 0001:0003b958       _SQLExecute@4              0043c958 f   odbc32:ODBC32.dll
 0001:0003b95e       _SQLFetch@4                0043c95e f   odbc32:ODBC32.dll
 0001:0003b964       _SQLGetDiagRec@32          0043c964 f   odbc32:ODBC32.dll
 0001:0003b96a       _SQLPrepare@12             0043c96a f   odbc32:ODBC32.dll
 0001:0003b970       _SQLMoreResults@4          0043c970 f   odbc32:ODBC32.dll
 0001:0003b976       _SQLBindParameter@40       0043c976 f   odbc32:ODBC32.dll
 0001:0003b97c       _IsProcessorFeaturePresent@4 0043c97c f   kernel32:KERNEL32.dll
 0001:0003b990       __FindPESection            0043c990 f   LIBCMT:pesect.obj
 0001:0003b9e0       __IsNonwritableInCurrentImage 0043c9e0 f   LIBCMT:pesect.obj
 0001:0003baa0       __ValidateImageBase        0043caa0 f   LIBCMT:pesect.obj
 0001:0003bae0       __aulldvrm                 0043cae0 f   LIBCMT:ulldvrm.obj
 0001:0003bb80       __aullrem                  0043cb80 f   LIBCMT:ullrem.obj
 0001:0003bc00       __allshl                   0043cc00 f   LIBCMT:llshl.obj
 0001:0003bc20       __aullshr                  0043cc20 f   LIBCMT:ullshr.obj
 0001:0003bc40       __ftol2_sse                0043cc40 f   LIBCMT:ftol2.obj
 0001:0003bc49       __ftol2_pentium4           0043cc49 f   LIBCMT:ftol2.obj
 0001:0003bc5c       __ftol2_sse_excpt          0043cc5c f   LIBCMT:ftol2.obj
 0001:0003bc80       __ftol2                    0043cc80 f   LIBCMT:ftol2.obj
 0001:0003bd00       _strchr                    0043cd00 f   libvcruntime:strchr.obj
 0001:0003bd6e       ___from_strstr_to_strchr   0043cd6e     libvcruntime:strchr.obj
 0001:0003be2b       _wcschr                    0043ce2b f   libvcruntime:wcschr.obj
 0001:0003d870       ??__FstrHeap@?1??GetInstance@CAtlStringMgr@ATL@@SAPAUIAtlStringMgr@2@XZ@YAXXZ 0043e870 f i CSHandler.obj
 0001:0003d8a0       ??__FstrMgr@?1??GetInstance@CAtlStringMgr@ATL@@SAPAUIAtlStringMgr@2@XZ@YAXXZ 0043e8a0 f i CSHandler.obj
 0002:00000000       __imp__CryptAcquireContextA@20 0043f000     advapi32:ADVAPI32.dll
 0002:00000004       __imp__CryptDestroyHash@4  0043f004     advapi32:ADVAPI32.dll
 0002:00000008       __imp__CryptHashData@16    0043f008     advapi32:ADVAPI32.dll
 0002:0000000c       __imp__CryptCreateHash@20  0043f00c     advapi32:ADVAPI32.dll
 0002:00000010       __imp__CryptEncrypt@28     0043f010     advapi32:ADVAPI32.dll
 0002:00000014       __imp__CryptDestroyKey@4   0043f014     advapi32:ADVAPI32.dll
 0002:00000018       __imp__CryptDeriveKey@20   0043f018     advapi32:ADVAPI32.dll
 0002:0000001c       __imp__CryptReleaseContext@8 0043f01c     advapi32:ADVAPI32.dll
 0002:00000020       __imp__ReportEventA@36     0043f020     advapi32:ADVAPI32.dll
 0002:00000024       __imp__RegisterEventSourceA@8 0043f024     advapi32:ADVAPI32.dll
 0002:00000028       __imp__DeregisterEventSource@4 0043f028     advapi32:ADVAPI32.dll
 0002:0000002c       \177ADVAPI32_NULL_THUNK_DATA 0043f02c     advapi32:ADVAPI32.dll
 0002:00000030       __imp__GetTimeZoneInformation@4 0043f030     kernel32:KERNEL32.dll
 0002:00000034       __imp__ExitProcess@4       0043f034     kernel32:KERNEL32.dll
 0002:00000038       __imp__LoadLibraryExW@12   0043f038     kernel32:KERNEL32.dll
 0002:0000003c       __imp__DecodePointer@4     0043f03c     kernel32:KERNEL32.dll
 0002:00000040       __imp__RaiseException@16   0043f040     kernel32:KERNEL32.dll
 0002:00000044       __imp__GetLastError@0      0043f044     kernel32:KERNEL32.dll
 0002:00000048       __imp__HeapDestroy@4       0043f048     kernel32:KERNEL32.dll
 0002:0000004c       __imp__HeapAlloc@12        0043f04c     kernel32:KERNEL32.dll
 0002:00000050       __imp__HeapReAlloc@16      0043f050     kernel32:KERNEL32.dll
 0002:00000054       __imp__HeapFree@12         0043f054     kernel32:KERNEL32.dll
 0002:00000058       __imp__HeapSize@12         0043f058     kernel32:KERNEL32.dll
 0002:0000005c       __imp__GetProcessHeap@0    0043f05c     kernel32:KERNEL32.dll
 0002:00000060       __imp__EnterCriticalSection@4 0043f060     kernel32:KERNEL32.dll
 0002:00000064       __imp__LeaveCriticalSection@4 0043f064     kernel32:KERNEL32.dll
 0002:00000068       __imp__InitializeCriticalSectionEx@12 0043f068     kernel32:KERNEL32.dll
 0002:0000006c       __imp__DeleteCriticalSection@4 0043f06c     kernel32:KERNEL32.dll
 0002:00000070       __imp__GetTickCount@0      0043f070     kernel32:KERNEL32.dll
 0002:00000074       __imp__FindResourceExW@16  0043f074     kernel32:KERNEL32.dll
 0002:00000078       __imp__LoadResource@8      0043f078     kernel32:KERNEL32.dll
 0002:0000007c       __imp__LockResource@4      0043f07c     kernel32:KERNEL32.dll
 0002:00000080       __imp__SizeofResource@8    0043f080     kernel32:KERNEL32.dll
 0002:00000084       __imp__FindResourceW@12    0043f084     kernel32:KERNEL32.dll
 0002:00000088       __imp__lstrcpyA@8          0043f088     kernel32:KERNEL32.dll
 0002:0000008c       __imp__WideCharToMultiByte@32 0043f08c     kernel32:KERNEL32.dll
 0002:00000090       __imp__InitializeCriticalSection@4 0043f090     kernel32:KERNEL32.dll
 0002:00000094       __imp__CreateFileA@28      0043f094     kernel32:KERNEL32.dll
 0002:00000098       __imp__GetFileSize@8       0043f098     kernel32:KERNEL32.dll
 0002:0000009c       __imp__ReadFile@20         0043f09c     kernel32:KERNEL32.dll
 0002:000000a0       __imp__IsDebuggerPresent@0 0043f0a0     kernel32:KERNEL32.dll
 0002:000000a4       __imp__CloseHandle@4       0043f0a4     kernel32:KERNEL32.dll
 0002:000000a8       __imp__CreateIoCompletionPort@16 0043f0a8     kernel32:KERNEL32.dll
 0002:000000ac       __imp__GetQueuedCompletionStatus@20 0043f0ac     kernel32:KERNEL32.dll
 0002:000000b0       __imp__PostQueuedCompletionStatus@16 0043f0b0     kernel32:KERNEL32.dll
 0002:000000b4       __imp__InitializeCriticalSectionAndSpinCount@8 0043f0b4     kernel32:KERNEL32.dll
 0002:000000b8       __imp__WaitForSingleObject@8 0043f0b8     kernel32:KERNEL32.dll
 0002:000000bc       __imp__WaitForMultipleObjects@16 0043f0bc     kernel32:KERNEL32.dll
 0002:000000c0       __imp__CreateThread@24     0043f0c0     kernel32:KERNEL32.dll
 0002:000000c4       __imp__GetCurrentThreadId@0 0043f0c4     kernel32:KERNEL32.dll
 0002:000000c8       __imp__ResumeThread@4      0043f0c8     kernel32:KERNEL32.dll
 0002:000000cc       __imp__GetSystemInfo@4     0043f0cc     kernel32:KERNEL32.dll
 0002:000000d0       __imp__GetModuleFileNameA@12 0043f0d0     kernel32:KERNEL32.dll
 0002:000000d4       __imp__lstrlenA@4          0043f0d4     kernel32:KERNEL32.dll
 0002:000000d8       __imp__OutputDebugStringA@4 0043f0d8     kernel32:KERNEL32.dll
 0002:000000dc       __imp__LocalFree@4         0043f0dc     kernel32:KERNEL32.dll
 0002:000000e0       __imp__FormatMessageA@28   0043f0e0     kernel32:KERNEL32.dll
 0002:000000e4       __imp__SetConsoleTextAttribute@8 0043f0e4     kernel32:KERNEL32.dll
 0002:000000e8       __imp__SetConsoleTitleA@4  0043f0e8     kernel32:KERNEL32.dll
 0002:000000ec       __imp__GetStdHandle@4      0043f0ec     kernel32:KERNEL32.dll
 0002:000000f0       __imp__FreeLibrary@4       0043f0f0     kernel32:KERNEL32.dll
 0002:000000f4       __imp__ReadConsoleW@20     0043f0f4     kernel32:KERNEL32.dll
 0002:000000f8       __imp__SetFilePointerEx@20 0043f0f8     kernel32:KERNEL32.dll
 0002:000000fc       __imp__GetFileSizeEx@8     0043f0fc     kernel32:KERNEL32.dll
 0002:00000100       __imp__GetConsoleMode@8    0043f100     kernel32:KERNEL32.dll
 0002:00000104       __imp__FindClose@4         0043f104     kernel32:KERNEL32.dll
 0002:00000108       __imp__FindFirstFileExW@24 0043f108     kernel32:KERNEL32.dll
 0002:0000010c       __imp__FindNextFileW@8     0043f10c     kernel32:KERNEL32.dll
 0002:00000110       __imp__IsValidCodePage@4   0043f110     kernel32:KERNEL32.dll
 0002:00000114       __imp__SetEndOfFile@4      0043f114     kernel32:KERNEL32.dll
 0002:00000118       __imp__GetACP@0            0043f118     kernel32:KERNEL32.dll
 0002:0000011c       __imp__GetOEMCP@0          0043f11c     kernel32:KERNEL32.dll
 0002:00000120       __imp__GetEnvironmentStringsW@0 0043f120     kernel32:KERNEL32.dll
 0002:00000124       __imp__FreeEnvironmentStringsW@4 0043f124     kernel32:KERNEL32.dll
 0002:00000128       __imp__SetEnvironmentVariableW@8 0043f128     kernel32:KERNEL32.dll
 0002:0000012c       __imp__SetStdHandle@8      0043f12c     kernel32:KERNEL32.dll
 0002:00000130       __imp__CreateFileW@28      0043f130     kernel32:KERNEL32.dll
 0002:00000134       __imp__WriteConsoleW@20    0043f134     kernel32:KERNEL32.dll
 0002:00000138       __imp__GetConsoleOutputCP@0 0043f138     kernel32:KERNEL32.dll
 0002:0000013c       __imp__FlushFileBuffers@4  0043f13c     kernel32:KERNEL32.dll
 0002:00000140       __imp__GetFileType@4       0043f140     kernel32:KERNEL32.dll
 0002:00000144       __imp__EnumSystemLocalesW@8 0043f144     kernel32:KERNEL32.dll
 0002:00000148       __imp__RtlUnwind@16        0043f148     kernel32:KERNEL32.dll
 0002:0000014c       __imp__InitializeSListHead@4 0043f14c     kernel32:KERNEL32.dll
 0002:00000150       __imp__GetCurrentProcessId@0 0043f150     kernel32:KERNEL32.dll
 0002:00000154       __imp__QueryPerformanceCounter@4 0043f154     kernel32:KERNEL32.dll
 0002:00000158       __imp__GetStartupInfoW@4   0043f158     kernel32:KERNEL32.dll
 0002:0000015c       __imp__IsProcessorFeaturePresent@4 0043f15c     kernel32:KERNEL32.dll
 0002:00000160       __imp__TerminateProcess@8  0043f160     kernel32:KERNEL32.dll
 0002:00000164       __imp__GetCurrentProcess@0 0043f164     kernel32:KERNEL32.dll
 0002:00000168       __imp__SetUnhandledExceptionFilter@4 0043f168     kernel32:KERNEL32.dll
 0002:0000016c       __imp__UnhandledExceptionFilter@4 0043f16c     kernel32:KERNEL32.dll
 0002:00000170       __imp__WaitForSingleObjectEx@12 0043f170     kernel32:KERNEL32.dll
 0002:00000174       __imp__GetUserDefaultLCID@0 0043f174     kernel32:KERNEL32.dll
 0002:00000178       __imp__IsValidLocale@8     0043f178     kernel32:KERNEL32.dll
 0002:0000017c       __imp__GetTimeFormatW@24   0043f17c     kernel32:KERNEL32.dll
 0002:00000180       __imp__GetDateFormatW@24   0043f180     kernel32:KERNEL32.dll
 0002:00000184       __imp__GetCommandLineW@0   0043f184     kernel32:KERNEL32.dll
 0002:00000188       __imp__GetCommandLineA@0   0043f188     kernel32:KERNEL32.dll
 0002:0000018c       __imp__WriteFile@20        0043f18c     kernel32:KERNEL32.dll
 0002:00000190       __imp__GetModuleFileNameW@12 0043f190     kernel32:KERNEL32.dll
 0002:00000194       __imp__OutputDebugStringW@4 0043f194     kernel32:KERNEL32.dll
 0002:00000198       __imp__MultiByteToWideChar@24 0043f198     kernel32:KERNEL32.dll
 0002:0000019c       __imp__EncodePointer@4     0043f19c     kernel32:KERNEL32.dll
 0002:000001a0       __imp__SetLastError@4      0043f1a0     kernel32:KERNEL32.dll
 0002:000001a4       __imp__CreateEventW@16     0043f1a4     kernel32:KERNEL32.dll
 0002:000001a8       __imp__SwitchToThread@0    0043f1a8     kernel32:KERNEL32.dll
 0002:000001ac       __imp__TlsAlloc@0          0043f1ac     kernel32:KERNEL32.dll
 0002:000001b0       __imp__TlsGetValue@4       0043f1b0     kernel32:KERNEL32.dll
 0002:000001b4       __imp__TlsSetValue@8       0043f1b4     kernel32:KERNEL32.dll
 0002:000001b8       __imp__TlsFree@4           0043f1b8     kernel32:KERNEL32.dll
 0002:000001bc       __imp__GetSystemTimeAsFileTime@4 0043f1bc     kernel32:KERNEL32.dll
 0002:000001c0       __imp__GetModuleHandleW@4  0043f1c0     kernel32:KERNEL32.dll
 0002:000001c4       __imp__GetProcAddress@8    0043f1c4     kernel32:KERNEL32.dll
 0002:000001c8       __imp__CompareStringW@24   0043f1c8     kernel32:KERNEL32.dll
 0002:000001cc       __imp__LCMapStringW@24     0043f1cc     kernel32:KERNEL32.dll
 0002:000001d0       __imp__GetLocaleInfoW@16   0043f1d0     kernel32:KERNEL32.dll
 0002:000001d4       __imp__GetStringTypeW@16   0043f1d4     kernel32:KERNEL32.dll
 0002:000001d8       __imp__GetCPInfo@8         0043f1d8     kernel32:KERNEL32.dll
 0002:000001dc       __imp__SetEvent@4          0043f1dc     kernel32:KERNEL32.dll
 0002:000001e0       __imp__ResetEvent@4        0043f1e0     kernel32:KERNEL32.dll
 0002:000001e4       __imp__GetModuleHandleExW@12 0043f1e4     kernel32:KERNEL32.dll
 0002:000001e8       \177KERNEL32_NULL_THUNK_DATA 0043f1e8     kernel32:KERNEL32.dll
 0002:000001ec       __imp__AcceptEx@32         0043f1ec     mswsock:MSWSOCK.dll
 0002:000001f0       \177MSWSOCK_NULL_THUNK_DATA 0043f1f0     mswsock:MSWSOCK.dll
 0002:000001f4       __imp__SQLFetch@4          0043f1f4     odbc32:ODBC32.dll
 0002:000001f8       __imp__SQLExecute@4        0043f1f8     odbc32:ODBC32.dll
 0002:000001fc       __imp__SQLCloseCursor@4    0043f1fc     odbc32:ODBC32.dll
 0002:00000200       __imp__SQLBindCol@24       0043f200     odbc32:ODBC32.dll
 0002:00000204       __imp__SQLPrepare@12       0043f204     odbc32:ODBC32.dll
 0002:00000208       __imp__SQLFreeHandle@8     0043f208     odbc32:ODBC32.dll
 0002:0000020c       __imp__SQLDisconnect@4     0043f20c     odbc32:ODBC32.dll
 0002:00000210       __imp__SQLConnect@28       0043f210     odbc32:ODBC32.dll
 0002:00000214       __imp__SQLAllocHandle@12   0043f214     odbc32:ODBC32.dll
 0002:00000218       __imp__SQLMoreResults@4    0043f218     odbc32:ODBC32.dll
 0002:0000021c       __imp__SQLGetDiagRec@32    0043f21c     odbc32:ODBC32.dll
 0002:00000220       __imp__SQLSetEnvAttr@16    0043f220     odbc32:ODBC32.dll
 0002:00000224       __imp__SQLBindParameter@40 0043f224     odbc32:ODBC32.dll
 0002:00000228       \177ODBC32_NULL_THUNK_DATA 0043f228     odbc32:ODBC32.dll
 0002:0000022c       __imp__LoadStringA@16      0043f22c     user32:USER32.dll
 0002:00000230       __imp__PostThreadMessageA@16 0043f230     user32:USER32.dll
 0002:00000234       \177USER32_NULL_THUNK_DATA 0043f234     user32:USER32.dll
 0002:00000238       __imp__listen@8            0043f238     ws2_32:WS2_32.dll
 0002:0000023c       __imp__ioctlsocket@12      0043f23c     ws2_32:WS2_32.dll
 0002:00000240       __imp__bind@12             0043f240     ws2_32:WS2_32.dll
 0002:00000244       __imp__setsockopt@20       0043f244     ws2_32:WS2_32.dll
 0002:00000248       __imp__inet_ntoa@4         0043f248     ws2_32:WS2_32.dll
 0002:0000024c       __imp__closesocket@4       0043f24c     ws2_32:WS2_32.dll
 0002:00000250       __imp__connect@12          0043f250     ws2_32:WS2_32.dll
 0002:00000254       __imp__htons@4             0043f254     ws2_32:WS2_32.dll
 0002:00000258       __imp__WSARecv@28          0043f258     ws2_32:WS2_32.dll
 0002:0000025c       __imp__WSASend@28          0043f25c     ws2_32:WS2_32.dll
 0002:00000260       __imp__WSASocketA@24       0043f260     ws2_32:WS2_32.dll
 0002:00000264       __imp__send@16             0043f264     ws2_32:WS2_32.dll
 0002:00000268       __imp__WSAGetLastError@0   0043f268     ws2_32:WS2_32.dll
 0002:0000026c       __imp__WSACleanup@0        0043f26c     ws2_32:WS2_32.dll
 0002:00000270       __imp__WSAStartup@8        0043f270     ws2_32:WS2_32.dll
 0002:00000274       __imp__socket@12           0043f274     ws2_32:WS2_32.dll
 0002:00000278       __imp__inet_addr@4         0043f278     ws2_32:WS2_32.dll
 0002:0000027c       \177WS2_32_NULL_THUNK_DATA 0043f27c     ws2_32:WS2_32.dll
 0002:00000280       __imp__CoCreateInstance@20 0043f280     ole32:ole32.dll
 0002:00000284       __imp__CoReleaseServerProcess@0 0043f284     ole32:ole32.dll
 0002:00000288       __imp__CoAddRefServerProcess@0 0043f288     ole32:ole32.dll
 0002:0000028c       \177ole32_NULL_THUNK_DATA  0043f28c     ole32:ole32.dll
 0002:00000290       ___guard_check_icall_fptr  0043f290     LIBCMT:guard_support.obj
 0002:00000294       ___xc_a                    0043f294     LIBCMT:initializers.obj
 0002:000002dc       ___xc_z                    0043f2dc     LIBCMT:initializers.obj
 0002:000002e0       ___xi_a                    0043f2e0     LIBCMT:initializers.obj
 0002:000002f4       ___acrt_stdio_initializer  0043f2f4     libucrt:stdio_initializer.obj
 0002:000002f8       ___acrt_timeset_initializer 0043f2f8     libucrt:timeset_initializer.obj
 0002:000002fc       ___acrt_tran_sse2_initializer 0043f2fc     libucrt:sse2_initializer.obj
 0002:00000300       ___acrt_multibyte_initializer 0043f300     libucrt:multibyte_initializer.obj
 0002:00000304       ___acrt_fmode_initializer  0043f304     libucrt:fmode_initializer.obj
 0002:00000308       ___xi_z                    0043f308     LIBCMT:initializers.obj
 0002:0000030c       ___xl_a                    0043f30c     LIBCMT:tlssup.obj
 0002:00000310       ___xl_z                    0043f310     LIBCMT:tlssup.obj
 0002:00000314       ___xp_a                    0043f314     LIBCMT:initializers.obj
 0002:00000318       ___acrt_locale_terminator  0043f318     libucrt:locale_initializer.obj
 0002:0000031c       ___dcrt_console_output_terminator 0043f31c     libucrt:console_output_initializer.obj
 0002:00000320       ___acrt_stdio_terminator   0043f320     libucrt:stdio_initializer.obj
 0002:00000324       ___xp_z                    0043f324     LIBCMT:initializers.obj
 0002:00000328       ___xt_a                    0043f328     LIBCMT:initializers.obj
 0002:0000032c       ___xt_z                    0043f32c     LIBCMT:initializers.obj
 0002:00000334       ??_7CWin32Heap@ATL@@6B@    0043f334     CSHandler.obj
 0002:0000034c       ??_7CAtlStringMgr@ATL@@6B@ 0043f34c     CSHandler.obj
 0002:00000368       ??_7CCSLock@@6B@           0043f368     CSHandler.obj
 0002:0000036c       ??_C@_0L@ELJEICCB@CSPCheckIP@ 0043f36c     CSHandler.obj
 0002:00000378       ??_C@_0L@GFPDFJMC@CSPLoginJP@ 0043f378     CSHandler.obj
 0002:00000384       ??_C@_08HPOEJKLG@CSPLogin@ 0043f384     CSHandler.obj
 0002:00000390       ??_C@_0CG@OGEAGJ@User?3?5?$CFs?5logged?5in?5using?5passwo@ 0043f390     CSHandler.obj
 0002:000003b8       ??_C@_0N@CGBFMCOF@CSPTestLogin@ 0043f3b8     CSHandler.obj
 0002:000003c8       ??_C@_0O@COGHLFI@CTBLGroupList@ 0043f3c8     CSHandler.obj
 0002:000003d8       ??_C@_0M@PBFKKLH@CTBLChannel@ 0043f3d8     CSHandler.obj
 0002:000003e4       ??_C@_0BB@DPKDPKJN@CSPFindBOWPlayer@ 0043f3e4     CSHandler.obj
 0002:000003f8       ??_C@_0BA@IENEOIFH@CSPFindBRPlayer@ 0043f3f8     CSHandler.obj
 0002:00000408       ??_C@_08DBFGMAPO@CTBLChar@ 0043f408     CSHandler.obj
 0002:00000414       ??_C@_08KLHKJGDK@CTBLItem@ 0043f414     CSHandler.obj
 0002:00000420       ??_C@_0BA@GEEJCOBC@CSPGetGuildInfo@ 0043f420     CSHandler.obj
 0002:00000430       ??_C@_0O@NJMHDGOD@CSPCreateChar@ 0043f430     CSHandler.obj
 0002:00000440       ??_C@_0P@KEKLJILN@CSPCheckPasswd@ 0043f440     CSHandler.obj
 0002:00000450       ??_C@_0O@BNGHABFA@CSPDeleteChar@ 0043f450     CSHandler.obj
 0002:00000460       ??_C@_0BA@NAMCOCHJ@CSPFindServerID@ 0043f460     CSHandler.obj
 0002:00000470       ??_C@_08ELCCIPKB@CSPRoute@ 0043f470     CSHandler.obj
 0002:0000047c       ??_C@_0N@IBGPBEGA@CSPAgreement@ 0043f47c     CSHandler.obj
 0002:0000048c       ??_C@_0BN@PCPGEAB@SecurityCode?5Empty?4?5?$CFs?5?$CFs?5?$CFd@ 0043f48c     CSHandler.obj
 0002:000004ac       ??_C@_0BE@GKOILAPC@CSPAddNewMACAddress@ 0043f4ac     CSHandler.obj
 0002:000004c0       ??_C@_0BC@KBDMBKEH@deque?$DMT?$DO?5too?5long@ 0043f4c0     CSHandler.obj
 0002:000004d8       ??_7CSPLogin@@6B@          0043f4d8     DBAccess.obj
 0002:000004f0       ??_C@_0CM@HKEMIMCP@?$HL?5?$DP?5?$DN?5CALL?5TLogin?$CI?$DP?0?$DP?0?$DP?0?$DP?0?$DP?0?$DP?0?$DP@ 0043f4f0     DBAccess.obj
 0002:00000520       ??_7CSPLoginJP@@6B@        0043f520     DBAccess.obj
 0002:00000538       ??_C@_0CO@KCOCOIDI@?$HL?5?$DP?5?$DN?5CALL?5TLogin?$CI?$DP?0?$DP?0?$DP?0?$DP?0?$DP?0?$DP?0?$DP@ 0043f538     DBAccess.obj
 0002:0000056c       ??_7CSPCheckForbiddenHWID@@6B@ 0043f56c     DBAccess.obj
 0002:00000584       ??_C@_0BK@ENJNIMDF@?$HL?5?$DP?5?$DN?5CALL?5TCheckHWID?$CI?$DP?$CJ?$HN@ 0043f584     DBAccess.obj
 0002:000005a4       ??_7CSPCheckIP@@6B@        0043f5a4     DBAccess.obj
 0002:000005bc       ??_C@_0BI@KADAHKPB@?$HL?5?$DP?5?$DN?5CALL?5TCheckIP?$CI?$DP?$CJ?$HN@ 0043f5bc     DBAccess.obj
 0002:000005d8       ??_7CSPLogout@@6B@         0043f5d8     DBAccess.obj
 0002:000005f0       ??_C@_0BN@FJCFHOJC@?$HL?5?$DP?5?$DN?5CALL?5TLogout?$CI?$DP?0?$DP?0?$DP?0?$DP?$CJ?$HN@ 0043f5f0     DBAccess.obj
 0002:00000614       ??_7CSPCheckPasswd@@6B@    0043f614     DBAccess.obj
 0002:0000062c       ??_C@_0BO@PGJGNOEF@?$HL?5?$DP?5?$DN?5CALL?5TCheckPasswd?$CI?$DP?0?$DP?$CJ?$HN@ 0043f62c     DBAccess.obj
 0002:00000650       ??_7CSPRoute@@6B@          0043f650     DBAccess.obj
 0002:00000668       ??_C@_0BO@LDFDEPKD@?$HL?5?$DP?5?$DN?5CALL?5TRoute?$CI?$DP?0?$DP?0?$DP?0?$DP?0?$DP?$CJ?$HN@ 0043f668     DBAccess.obj
 0002:0000068c       ??_7CSPVeteran@@6B@        0043f68c     DBAccess.obj
 0002:000006a4       ??_C@_0BN@PGGHNJHH@?$HL?5?$DP?5?$DN?5CALL?5TCheckVeteran?$CI?$DP?$CJ?$HN@ 0043f6a4     DBAccess.obj
 0002:000006c8       ??_7CTBLGroup@@6B@         0043f6c8     DBAccess.obj
 0002:000006e0       ??_C@_0GB@MBMNLBIP@SELECT?5?7bGroupID?0?5?7bType?0?5?7szNA@ 0043f6e0     DBAccess.obj
 0002:00000748       ??_7CTBLVeteranChart@@6B@  0043f748     DBAccess.obj
 0002:00000760       ??_C@_0CJ@EBJGPABB@SELECT?5?7bID?0?5?7bLevel?5?7FROM?5TVET@ 0043f760     DBAccess.obj
 0002:00000790       ??_7CTBLChannel@@6B@       0043f790     DBAccess.obj
 0002:000007a8       ??_C@_0BKB@KHNGDDLC@SELECT?5?7TCHANNEL?4bChannel?0?5?7TCH@ 0043f7a8     DBAccess.obj
 0002:00000950       ??_7CTBLGroupList@@6B@     0043f950     DBAccess.obj
 0002:00000968       ??_C@_0CFG@KLCBDFHC@SELECT?5?7TGROUP?4bGroupID?0?5?7TGROU@ 0043f968     DBAccess.obj
 0002:00000bc4       ??_7CTBLUserCount@@6B@     0043fbc4     DBAccess.obj
 0002:00000be0       ??_C@_0FD@OPEJJGMC@SELECT?5?7bWorldID?0?5?7COUNT?$CIDISTIN@ 0043fbe0     DBAccess.obj
 0002:00000c38       ??_7CSPTestLogin@@6B@      0043fc38     DBAccess.obj
 0002:00000c50       ??_C@_0CG@NPOGDAIJ@?$HL?5?$DP?5?$DN?5CALL?5TTestLogin?$CI?$DP?0?$DP?0?$DP?0?$DP?0?$DP@ 0043fc50     DBAccess.obj
 0002:00000c7c       ??_7CSPCreateChar@@6B@     0043fc7c     DBAccess.obj
 0002:00000c94       ??_C@_0DL@DGLOIGPO@?$HL?5?$DP?5?$DN?5CALL?5TCreateChar?$CI?$DP?0?$DP?0?$DP?0?$DP?0@ 0043fc94     DBAccess.obj
 0002:00000cd4       ??_7CSPDeleteChar@@6B@     0043fcd4     DBAccess.obj
 0002:00000cec       ??_C@_0CB@JNHKKEIK@?$HL?5?$DP?5?$DN?5CALL?5TDeleteChar?$CI?$DP?0?$DP?0?$DP?0?$DP?$CJ@ 0043fcec     DBAccess.obj
 0002:00000d14       ??_7CSPFindServerID@@6B@   0043fd14     DBAccess.obj
 0002:00000d2c       ??_C@_0CB@OFIMHJGF@?$HL?5?$DP?5?$DN?5CALL?5TFindServerID?$CI?$DP?0?$DP?0?$DP?$CJ@ 0043fd2c     DBAccess.obj
 0002:00000d54       ??_7CSPAddNewMACAddress@@6B@ 0043fd54     DBAccess.obj
 0002:00000d6c       ??_C@_0BL@LPEECDDN@?$HLCALL?5TAddMacAddress?$CI?$DP?0?$DP?$CJ?$HN@ 0043fd6c     DBAccess.obj
 0002:00000d8c       ??_7CSPGetClientSha@@6B@   0043fd8c     DBAccess.obj
 0002:00000da4       ??_C@_0BK@BFELDFPI@?$HLCALL?5TGetClientSha?$CI?$DP?0?$DP?$CJ?$HN@ 0043fda4     DBAccess.obj
 0002:00000dc4       ??_7CTBLChar@@6B@          0043fdc4     DBAccess.obj
 0002:00000de0       ??_C@_0PJ@ICMMEIP@SELECT?5TOP?56?5?7szNAME?0?5?7dwCharID@ 0043fde0     DBAccess.obj
 0002:00000ee0       ??_7CTBLItem@@6B@          0043fee0     DBAccess.obj
 0002:00000ef8       ??_C@_0LL@JBCCJAKJ@SELECT?5?7bItemID?0?5?7wItemID?0?5?7bLe@ 0043fef8     DBAccess.obj
 0002:00000fb8       ??_7CSPLoadService@@6B@    0043ffb8     DBAccess.obj
 0002:00000fd0       ??_C@_0BN@FKLLIGDD@?$HLCALL?5TLoadService?$CI?$DP?0?$DP?0?$DP?0?$DP?$CJ?$HN@ 0043ffd0     DBAccess.obj
 0002:00000ff4       ??_7CSPAgreement@@6B@      0043fff4     DBAccess.obj
 0002:0000100c       ??_C@_0BF@EOHCNCGK@?$HLCALL?5TAgreement?$CI?$DP?$CJ?$HN@ 0044000c     DBAccess.obj
 0002:00001028       ??_7CSPFindBOWPlayer@@6B@  00440028     DBAccess.obj
 0002:00001040       ??_C@_0BL@IBDGEAJI@?$HLCALL?5TFindBOWPlayer?$CI?$DP?0?$DP?$CJ?$HN@ 00440040     DBAccess.obj
 0002:00001060       ??_7CSPFindBRPlayer@@6B@   00440060     DBAccess.obj
 0002:00001078       ??_C@_0BK@OCHLLKJI@?$HLCALL?5TFindBRPlayer?$CI?$DP?0?$DP?$CJ?$HN@ 00440078     DBAccess.obj
 0002:00001098       ??_7CSPClearLoginUser@@6B@ 00440098     DBAccess.obj
 0002:000010b0       ??_C@_0BO@FHFPIHDG@?$HLCALL?5TClearLoginCurrentUser?$HN@ 004400b0     DBAccess.obj
 0002:000010d4       ??_7CSPGetNation@@6B@      004400d4     DBAccess.obj
 0002:000010ec       ??_C@_0BF@MGHBOKLC@?$HLCALL?5TGetNation?$CI?$DP?$CJ?$HN@ 004400ec     DBAccess.obj
 0002:00001108       ??_7CSPGetGuildInfo@@6B@   00440108     DBAccess.obj
 0002:00001120       ??_C@_0BO@CHEFPEBD@?$HLCALL?5TGetGuildInfo?$CI?$DP?0?$DP?0?$DP?0?$DP?$CJ?$HN@ 00440120     DBAccess.obj
 0002:00001144       ??_7CSPGetBanReason@@6B@   00440144     DBAccess.obj
 0002:0000115c       ??_C@_0CA@POFFGIBH@?$HLCALL?5TGetBanReason?$CI?$DP?0?$DP?0?$DP?0?$DP?0?$DP?$CJ?$HN@ 0044015c     DBAccess.obj
 0002:0000117c       ??_C@_09CBFKFMKO@CTBLGroup@ 0044017c     DBAccess.obj
 0002:00001188       ??_C@_0BB@OLJBKNDK@CTBLVeteranChart@ 00440188     DBAccess.obj
 0002:0000119c       ??_C@_09FMDGFNJM@CSPLogout@ 0044019c     DBAccess.obj
 0002:000011a8       ??_C@_0L@DFIOMAA@CSPVeteran@ 004401a8     DBAccess.obj
 0002:000011b4       ??_C@_0P@EOMPGPJC@CSPLoadService@ 004401b4     DBAccess.obj
 0002:000011c4       ??_C@_0O@GIBPOEFL@CTBLUserCount@ 004401c4     DBAccess.obj
 0002:000011d4       ??_C@_0BC@EJDOGFFC@CSPClearLoginUser@ 004401d4     DBAccess.obj
 0002:000011e8       ??_C@_0N@KEAKLAPB@CSPGetNation@ 004401e8     DBAccess.obj
 0002:000011f8       ??_C@_0BG@LGJDLMDK@CSPCheckForbiddenHWID@ 004401f8     DBAccess.obj
 0002:00001210       ??_C@_0BA@PIBBDNB@CSPGetBanReason@ 00440210     DBAccess.obj
 0002:00001220       ??_C@_0BA@JGCPEADI@CSPGetClientSha@ 00440220     DBAccess.obj
 0002:00001230       ??_C@_0BC@BKNNLKLD@TLOGIN?5is?5online?$CB@ 00440230     DebugSocket.obj
 0002:00001248       ??_7exception@std@@6B@     00440248     mailer.obj
 0002:00001254       ??_7runtime_error@std@@6B@ 00440254     mailer.obj
 0002:00001260       ??_7_Facet_base@std@@6B@   00440260     mailer.obj
 0002:00001270       ??_7?$ctype@D@std@@6B@     00440270     mailer.obj
 0002:000012a0       ??_7_System_error@std@@6B@ 004402a0     mailer.obj
 0002:000012ac       ??_7system_error@std@@6B@  004402ac     mailer.obj
 0002:000012b8       ??_7_Iostream_error_category@std@@6B@ 004402b8     mailer.obj
 0002:000012d4       ??_7failure@ios_base@std@@6B@ 004402d4     mailer.obj
 0002:000012e0       ??_7ios_base@std@@6B@      004402e0     mailer.obj
 0002:000012e8       ??_7?$basic_ios@DU?$char_traits@D@std@@@std@@6B@ 004402e8     mailer.obj
 0002:000012f0       ??_7?$basic_istream@DU?$char_traits@D@std@@@std@@6B@ 004402f0     mailer.obj
 0002:000012f4       ??_8?$basic_istream@DU?$char_traits@D@std@@@std@@7B@ 004402f4     mailer.obj
 0002:00001300       ??_7?$basic_streambuf@DU?$char_traits@D@std@@@std@@6B@ 00440300     mailer.obj
 0002:00001340       ??_7?$basic_filebuf@DU?$char_traits@D@std@@@std@@6B@ 00440340     mailer.obj
 0002:0000137c       ??_C@_02BAABKJLB@?9?9@     0044037c     mailer.obj
 0002:00001384       ??_7?$codecvt@DDU_Mbstatet@@@std@@6B@ 00440384     mailer.obj
 0002:000013b0       ??_7CTLoginSession@@6B@    004403b0     TLoginSession.obj
 0002:000013c0       __GUID_00000146_0000_0000_c000_000000000046 004403c0     TLoginSvr.obj
 0002:000013d4       ??_7CTLoginSvrModule@@6B?$CAtlServiceModuleT@VCTLoginSvrModule@@$0GE@@ATL@@@ 004403d4     TLoginSvr.obj
 0002:000013f4       ??_7CTLoginSvrModule@@6BTServerSystem@@@ 004403f4     TLoginSvr.obj
 0002:00001400       ??_C@_1EO@FMKJBPHL@?$AA?$HL?$AAA?$AA9?$AAC?$AA0?$AAC?$AAF?$AA5?$AA3?$AA?9?$AA7?$AAD?$AA5?$AA4?$AA?9@ 00440400     TLoginSvr.obj
 0002:00001450       ??_C@_1M@PPPPCDEP@?$AAA?$AAP?$AAP?$AAI?$AAD@ 00440450     TLoginSvr.obj
 0002:0000145c       ??_C@_05ELMLNFKM@?1exit@   0044045c     TLoginSvr.obj
 0002:00001464       ??_C@_05FKOINJOM@1?41?40@  00440464     TLoginSvr.obj
 0002:0000146c       ??_C@_06MMHILOJC@TLogin@   0044046c     TLoginSvr.obj
 0002:00001474       ??_C@_0BG@PNNBJHKC@Load?5configuration?4?4?4@ 00440474     TLoginSvr.obj
 0002:0000148c       ??_C@_0BL@DNIIBJED@Database?5initialization?4?4?4@ 0044048c     TLoginSvr.obj
 0002:000014a8       ??_C@_0BA@GBBNPNIN@Loading?5data?4?4?4@ 004404a8     TLoginSvr.obj
 0002:000014b8       ??_C@_0BC@ILOOIJMF@Create?5threads?4?4?4@ 004404b8     TLoginSvr.obj
 0002:000014cc       ??_C@_0BA@JNICLIJA@Init?5network?4?4?4@ 004404cc     TLoginSvr.obj
 0002:000014dc       ??_C@_0BE@EHNAFGCP@Clear?5login?5data?4?4?4@ 004404dc     TLoginSvr.obj
 0002:000014f0       ??_C@_06EJEJDOGD@Ready?$CB@ 004404f0     TLoginSvr.obj
 0002:000014f8       ??_C@_0M@FIBGPLBO@TGLOBAL_GSP@ 004404f8     TLoginSvr.obj
 0002:00001504       ??_C@_03MKMNBNOL@DSN@      00440504     TLoginSvr.obj
 0002:00001508       ??_C@_02CKOPKKAC@sa@       00440508     TLoginSvr.obj
 0002:0000150c       ??_C@_06EKCLIHPK@DBUser@   0044050c     TLoginSvr.obj
 0002:00001514       ??_C@_04GCLJABMA@1234@     00440514     TLoginSvr.obj
 0002:0000151c       ??_C@_08IGJKAMJJ@DBPasswd@ 0044051c     TLoginSvr.obj
 0002:00001528       ??_C@_09KKKHNIDO@LoginPort@ 00440528     TLoginSvr.obj
 0002:00001534       ??_C@_08BHBELLIH@ServerID@ 00440534     TLoginSvr.obj
 0002:00001540       ??_C@_09PFCHIMEP@127?40?40?41@ 00440540     TLoginSvr.obj
 0002:0000154c       ??_C@_05EOMEFAHG@LogIP@    0044054c     TLoginSvr.obj
 0002:00001554       ??_C@_07MLJANMII@LogPort@  00440554     TLoginSvr.obj
 0002:0000155c       ??_C@_0N@MLCHBMIF@?2TClient?4exe@ 0044055c     TLoginSvr.obj
 0002:0000156c       ??_C@_0CI@CGEKHJBI@DebugSocket?5could?5not?5be?5initia@ 0044056c     TLoginSvr.obj
 0002:00001594       ??_C@_0BM@OGIEIGJP@Socket?5creation?5has?5failed?$CB@ 00440594     TLoginSvr.obj
 0002:000015b0       ??_C@_0BN@MMOPPEAI@Socket?5acception?5has?5failed?$CB@ 004405b0     TLoginSvr.obj
 0002:000015d0       ??_C@_0BH@LNCFKLMM@WaitForConnect?5?3?5Error@ 004405d0     TLoginSvr.obj
 0002:000015e8       ??_C@_0P@LDKKAPGC@Accept?5?3?5Error@ 004405e8     TLoginSvr.obj
 0002:000015f8       ??_C@_0BI@LNOFAED@Game?5ODBC?5Connect?5Error@ 004405f8     TLoginSvr.obj
 0002:00001610       ??_C@_0BE@LACGIMFL@Overflow?5Message?5?$CFd@ 00440610     TLoginSvr.obj
 0002:00001624       ??_C@_0N@DJALIBDO@LoginSvr?4log@ 00440624     TLoginSvr.obj
 0002:00001634       ??_C@_02DPNLHKJD@a?$CL@    00440634     TLoginSvr.obj
 0002:00001638       ??_C@_02CHHAKFFB@w?$CL@    00440638     TLoginSvr.obj
 0002:0000163c       ??_C@_02HAOIJKIC@?$CFc@    0044063c     TLoginSvr.obj
 0002:00001640       ??_C@_0BL@FBCAECIP@?$CFs?7USER_ID?$DN?$CFd?$CI?$CFs?$CJ?7CODE?$DN?$CFd?6@ 00440640     TLoginSvr.obj
 0002:0000165c       _LIBID_TLoginSvrLib        0044065c     TLoginSvr_i.obj
 0002:00001670       ??_7CTUser@@6B@            00440670     TUser.obj
 0002:00001684       ??_7CSqlDatabase@@6B@      00440684     TNetLib:SqlDatabase.obj
 0002:0000168c       ??_7CSqlBase@@6B@          0044068c     TNetLib:SqlBase.obj
 0002:0000169c       ??_C@_0BC@JGIPNMAF@C?3?24s?2dberror?4log@ 0044069c     TNetLib:SqlBase.obj
 0002:000016b0       ??_C@_09GPBPOFIE@?$CFs?5?$CFs?5?$CFs?6@ 004406b0     TNetLib:SqlBase.obj
 0002:000016bc       ??_C@_0BN@KJHFPFCF@C?3?2TServices_GSP?2dberror?4log@ 004406bc     TNetLib:SqlBase.obj
 0002:000016dc       ??_C@_06IINFAHFO@?$CFs?5?$CFs?6@ 004406dc     TNetLib:SqlBase.obj
 0002:000016e8       ??_7COverlappedEx@@6B@     004406e8     TNetLib:Packet.obj
 0002:000016f0       ??_7CPacket@@6B@           004406f0     TNetLib:Packet.obj
 0002:000016f8       ??_7CSqlQuery@@6B@         004406f8     TNetLib:SqlQuery.obj
 0002:00001710       ??_C@_0CI@PBLHHFBO@A5$$8AFS13A1?3?3?911?$CD?$CB?4?4?8?$KH19716AC?$CG@ 00440710     TNetLib:Session.obj
 0002:0000173c       ??_7CSession@@6B@          0044073c     TNetLib:Session.obj
 0002:0000174c       ??_C@_0N@EADOKCK@?$FL?$CFs?$FN?5?$CFs?3?5?$CFs?6@ 0044074c     TNetLib:CryptographyExt.obj
 0002:0000175c       ??_C@_0N@FIMHCOJK@CryptEncrypt@ 0044075c     TNetLib:CryptographyExt.obj
 0002:0000176c       ??_C@_05ENHGKOIF@Crypt@    0044076c     TNetLib:CryptographyExt.obj
 0002:00001774       ??_C@_0P@KONILCFO@CryptDeriveKey@ 00440774     TNetLib:CryptographyExt.obj
 0002:00001784       ??_C@_0O@DAIMODJH@CryptHashData@ 00440784     TNetLib:CryptographyExt.obj
 0002:00001794       ??_C@_0BA@IEJOIHIJ@CryptCreateHash@ 00440794     TNetLib:CryptographyExt.obj
 0002:000017a4       ??_C@_0BE@FGGGKAFM@CryptAcquireContext@ 004407a4     TNetLib:CryptographyExt.obj
 0002:000017b8       _CLSID_StdGlobalInterfaceTable 004407b8     uuid:cguid_i.obj
 0002:000017c8       _GUID_ATLVer110            004407c8     atls:atlbase.obj
 0002:000017d8       ??_C@_1IC@ONKHOIDK@?$AAE?$AAR?$AAR?$AAO?$AAR?$AA?5?$AA?3?$AA?5?$AAU?$AAn?$AAa?$AAb?$AAl?$AAe?$AA?5@ 004407d8     atls:atlbase.obj
 0002:00001860       ??_7bad_alloc@std@@6B@     00440860     libcpmt:xthrow.obj
 0002:00001868       ??_C@_0P@GHFPNOJB@bad?5allocation@ 00440868     libcpmt:xthrow.obj
 0002:0000187c       ??_7logic_error@std@@6B@   0044087c     libcpmt:xthrow.obj
 0002:00001888       ??_7invalid_argument@std@@6B@ 00440888     libcpmt:xthrow.obj
 0002:00001894       ??_7length_error@std@@6B@  00440894     libcpmt:xthrow.obj
 0002:000018a0       ??_7out_of_range@std@@6B@  004408a0     libcpmt:xthrow.obj
 0002:000018ac       ??_7_Locimp@locale@std@@6B@ 004408ac     libcpmt:locale0.obj
 0002:000018b8       ??_C@_01NBENCBCI@?$CK@     004408b8     libcpmt:locale0.obj
 0002:000018bc       ??_C@_01GFHCPBMG@C@        004408bc     libcpmt:locale0.obj
 0002:000018c0       ??_C@_0O@BFJCFAAK@unknown?5error@ 004408c0     libcpmt:xonce.obj
 0002:00001da8       ??_C@_0BN@LKKBCCDB@address?5family?5not?5supported@ 00440da8     libcpmt:syserror.obj
 0002:00001dc8       ??_C@_0P@LDMLAFHI@address?5in?5use@ 00440dc8     libcpmt:syserror.obj
 0002:00001dd8       ??_C@_0BG@DHPCNBJB@address?5not?5available@ 00440dd8     libcpmt:syserror.obj
 0002:00001df0       ??_C@_0BC@DFIBIBIL@already?5connected@ 00440df0     libcpmt:syserror.obj
 0002:00001e04       ??_C@_0BH@CAKOHOMI@argument?5list?5too?5long@ 00440e04     libcpmt:syserror.obj
 0002:00001e1c       ??_C@_0BH@CGIMPKIM@argument?5out?5of?5domain@ 00440e1c     libcpmt:syserror.obj
 0002:00001e34       ??_C@_0M@KGHGGJGL@bad?5address@ 00440e34     libcpmt:syserror.obj
 0002:00001e40       ??_C@_0BE@MPJPGCEO@bad?5file?5descriptor@ 00440e40     libcpmt:syserror.obj
 0002:00001e54       ??_C@_0M@PMMIEFCP@bad?5message@ 00440e54     libcpmt:syserror.obj
 0002:00001e60       ??_C@_0M@KPHOFDBE@broken?5pipe@ 00440e60     libcpmt:syserror.obj
 0002:00001e6c       ??_C@_0BD@MGNDDEGM@connection?5aborted@ 00440e6c     libcpmt:syserror.obj
 0002:00001e80       ??_C@_0BP@KAIHPOGN@connection?5already?5in?5progress@ 00440e80     libcpmt:syserror.obj
 0002:00001ea0       ??_C@_0BD@PJLIIJEL@connection?5refused@ 00440ea0     libcpmt:syserror.obj
 0002:00001eb4       ??_C@_0BB@IECNJNOI@connection?5reset@ 00440eb4     libcpmt:syserror.obj
 0002:00001ec8       ??_C@_0BC@PPHBOELF@cross?5device?5link@ 00440ec8     libcpmt:syserror.obj
 0002:00001edc       ??_C@_0BN@KDMIFEIP@destination?5address?5required@ 00440edc     libcpmt:syserror.obj
 0002:00001efc       ??_C@_0BI@NGCEHDD@device?5or?5resource?5busy@ 00440efc     libcpmt:syserror.obj
 0002:00001f14       ??_C@_0BE@JIDOCPHM@directory?5not?5empty@ 00440f14     libcpmt:syserror.obj
 0002:00001f28       ??_C@_0BI@BNCLIGPB@executable?5format?5error@ 00440f28     libcpmt:syserror.obj
 0002:00001f40       ??_C@_0M@MIDIAGJP@file?5exists@ 00440f40     libcpmt:syserror.obj
 0002:00001f4c       ??_C@_0P@DNAJLBJK@file?5too?5large@ 00440f4c     libcpmt:syserror.obj
 0002:00001f5c       ??_C@_0BC@EJHOMAAK@filename?5too?5long@ 00440f5c     libcpmt:syserror.obj
 0002:00001f70       ??_C@_0BH@KEFGLDAF@function?5not?5supported@ 00440f70     libcpmt:syserror.obj
 0002:00001f88       ??_C@_0BB@DHFDFGDM@host?5unreachable@ 00440f88     libcpmt:syserror.obj
 0002:00001f9c       ??_C@_0BD@JPHBMONG@identifier?5removed@ 00440f9c     libcpmt:syserror.obj
 0002:00001fb0       ??_C@_0BG@CDNPAGJK@illegal?5byte?5sequence@ 00440fb0     libcpmt:syserror.obj
 0002:00001fc8       ??_C@_0CD@BNPLBMNA@inappropriate?5io?5control?5operat@ 00440fc8     libcpmt:syserror.obj
 0002:00001fec       ??_C@_0M@EGEKIIMP@interrupted@ 00440fec     libcpmt:syserror.obj
 0002:00001ff8       ??_C@_0BB@FCMFBGOM@invalid?5argument@ 00440ff8     libcpmt:syserror.obj
 0002:0000200c       ??_C@_0N@OHAFKDEK@invalid?5seek@ 0044100c     libcpmt:syserror.obj
 0002:0000201c       ??_C@_08GLNPIFBN@io?5error@ 0044101c     libcpmt:syserror.obj
 0002:00002028       ??_C@_0P@FLLDBIDK@is?5a?5directory@ 00441028     libcpmt:syserror.obj
 0002:00002038       ??_C@_0N@IFLPBIOP@message?5size@ 00441038     libcpmt:syserror.obj
 0002:00002048       ??_C@_0N@KIIEAAIO@network?5down@ 00441048     libcpmt:syserror.obj
 0002:00002058       ??_C@_0O@FNPDBHEE@network?5reset@ 00441058     libcpmt:syserror.obj
 0002:00002068       ??_C@_0BE@IFNCKGE@network?5unreachable@ 00441068     libcpmt:syserror.obj
 0002:0000207c       ??_C@_0BA@PFFCAOFK@no?5buffer?5space@ 0044107c     libcpmt:syserror.obj
 0002:0000208c       ??_C@_0BB@IEPBLJHK@no?5child?5process@ 0044108c     libcpmt:syserror.obj
 0002:000020a0       ??_C@_07PLECNNKG@no?5link@ 004410a0     libcpmt:syserror.obj
 0002:000020a8       ??_C@_0BC@NJECKMKE@no?5lock?5available@ 004410a8     libcpmt:syserror.obj
 0002:000020bc       ??_C@_0BF@PBGGPKKE@no?5message?5available@ 004410bc     libcpmt:syserror.obj
 0002:000020d4       ??_C@_0L@EDOLMPAK@no?5message@ 004410d4     libcpmt:syserror.obj
 0002:000020e0       ??_C@_0BD@EAMBFIDF@no?5protocol?5option@ 004410e0     libcpmt:syserror.obj
 0002:000020f4       ??_C@_0BD@IJDJKDEA@no?5space?5on?5device@ 004410f4     libcpmt:syserror.obj
 0002:00002108       ??_C@_0BE@MKFDAFMP@no?5stream?5resources@ 00441108     libcpmt:syserror.obj
 0002:0000211c       ??_C@_0BK@IMCPHCBI@no?5such?5device?5or?5address@ 0044111c     libcpmt:syserror.obj
 0002:00002138       ??_C@_0P@FDINDDOK@no?5such?5device@ 00441138     libcpmt:syserror.obj
 0002:00002148       ??_C@_0BK@NDOCBPGE@no?5such?5file?5or?5directory@ 00441148     libcpmt:syserror.obj
 0002:00002164       ??_C@_0BA@ENLPPKBN@no?5such?5process@ 00441164     libcpmt:syserror.obj
 0002:00002174       ??_C@_0BA@DOCPFFJG@not?5a?5directory@ 00441174     libcpmt:syserror.obj
 0002:00002184       ??_C@_0N@POEIPGGF@not?5a?5socket@ 00441184     libcpmt:syserror.obj
 0002:00002194       ??_C@_0N@LGAPMMPI@not?5a?5stream@ 00441194     libcpmt:syserror.obj
 0002:000021a4       ??_C@_0O@GLMIBBEG@not?5connected@ 004411a4     libcpmt:syserror.obj
 0002:000021b4       ??_C@_0BC@ENOOLCNF@not?5enough?5memory@ 004411b4     libcpmt:syserror.obj
 0002:000021c8       ??_C@_0O@NHEDABJP@not?5supported@ 004411c8     libcpmt:syserror.obj
 0002:000021d8       ??_C@_0BD@MOLBPMEA@operation?5canceled@ 004411d8     libcpmt:syserror.obj
 0002:000021ec       ??_C@_0BG@KDKHOPCO@operation?5in?5progress@ 004411ec     libcpmt:syserror.obj
 0002:00002204       ??_C@_0BI@OHIEJAAB@operation?5not?5permitted@ 00441204     libcpmt:syserror.obj
 0002:0000221c       ??_C@_0BI@LNEGIFLN@operation?5not?5supported@ 0044121c     libcpmt:syserror.obj
 0002:00002234       ??_C@_0BG@OEMDKMEE@operation?5would?5block@ 00441234     libcpmt:syserror.obj
 0002:0000224c       ??_C@_0L@BLPOFLNJ@owner?5dead@ 0044124c     libcpmt:syserror.obj
 0002:00002258       ??_C@_0BC@CIJDGCDI@permission?5denied@ 00441258     libcpmt:syserror.obj
 0002:0000226c       ??_C@_0P@FNPOCJBE@protocol?5error@ 0044126c     libcpmt:syserror.obj
 0002:0000227c       ??_C@_0BH@JPPPLHJB@protocol?5not?5supported@ 0044127c     libcpmt:syserror.obj
 0002:00002294       ??_C@_0BG@EICBIHDP@read?5only?5file?5system@ 00441294     libcpmt:syserror.obj
 0002:000022ac       ??_C@_0BO@BJBOMOEJ@resource?5deadlock?5would?5occur@ 004412ac     libcpmt:syserror.obj
 0002:000022cc       ??_C@_0BP@LKNGHENJ@resource?5unavailable?5try?5again@ 004412cc     libcpmt:syserror.obj
 0002:000022ec       ??_C@_0BE@GOIPJJHG@result?5out?5of?5range@ 004412ec     libcpmt:syserror.obj
 0002:00002300       ??_C@_0BG@MPLKFPAE@state?5not?5recoverable@ 00441300     libcpmt:syserror.obj
 0002:00002318       ??_C@_0P@DIIFGFCG@stream?5timeout@ 00441318     libcpmt:syserror.obj
 0002:00002328       ??_C@_0P@IPFDMIFL@text?5file?5busy@ 00441328     libcpmt:syserror.obj
 0002:00002338       ??_C@_09KJPPMAOI@timed?5out@ 00441338     libcpmt:syserror.obj
 0002:00002344       ??_C@_0BO@HACHBEKI@too?5many?5files?5open?5in?5system@ 00441344     libcpmt:syserror.obj
 0002:00002364       ??_C@_0BE@GHAFMPAH@too?5many?5files?5open@ 00441364     libcpmt:syserror.obj
 0002:00002378       ??_C@_0P@HCOMKFCC@too?5many?5links@ 00441378     libcpmt:syserror.obj
 0002:00002388       ??_C@_0BO@EFGOJEF@too?5many?5symbolic?5link?5levels@ 00441388     libcpmt:syserror.obj
 0002:000023a8       ??_C@_0BA@KGKGOOJA@value?5too?5large@ 004413a8     libcpmt:syserror.obj
 0002:000023b8       ??_C@_0BE@MIEJDDNH@wrong?5protocol?5type@ 004413b8     libcpmt:syserror.obj
 0002:000023d0       ?_BADOFF@std@@3_JB         004413d0     libcpmt:ios.obj
 0002:000023d8       ??_C@_0BM@EEBBMCOD@invalid?5random_device?5value@ 004413d8     libcpmt:xrngdev.obj
 0002:000023f8       ??_7?$basic_ostream@DU?$char_traits@D@std@@@std@@6B@ 004413f8     libcpmt:cout.obj
 0002:000023fc       ??_C@_1BK@MGMFAEKH@?$AAk?$AAe?$AAr?$AAn?$AAe?$AAl?$AA3?$AA2?$AA?4?$AAd?$AAl?$AAl@ 004413fc     libcpmt:winapisupp.obj
 0002:00002418       ??_C@_08KNHFBNJ@FlsAlloc@  00441418     libcpmt:winapisupp.obj
 0002:00002424       ??_C@_07PEJMOBNF@FlsFree@  00441424     libcpmt:winapisupp.obj
 0002:0000242c       ??_C@_0M@GDNOONDI@FlsGetValue@ 0044142c     libcpmt:winapisupp.obj
 0002:00002438       ??_C@_0M@JCPCPOEF@FlsSetValue@ 00441438     libcpmt:winapisupp.obj
 0002:00002444       ??_C@_0BM@HCFOFFN@InitializeCriticalSectionEx@ 00441444     libcpmt:winapisupp.obj
 0002:00002460       ??_C@_0BE@GPLMMCMH@InitOnceExecuteOnce@ 00441460     libcpmt:winapisupp.obj
 0002:00002474       ??_C@_0P@DLHPPCNH@CreateEventExW@ 00441474     libcpmt:winapisupp.obj
 0002:00002484       ??_C@_0BB@MEFPJLHN@CreateSemaphoreW@ 00441484     libcpmt:winapisupp.obj
 0002:00002498       ??_C@_0BD@KIEEOEEH@CreateSemaphoreExW@ 00441498     libcpmt:winapisupp.obj
 0002:000024ac       ??_C@_0BG@OGFAJCKC@CreateThreadpoolTimer@ 004414ac     libcpmt:winapisupp.obj
 0002:000024c4       ??_C@_0BD@LPLEMMDI@SetThreadpoolTimer@ 004414c4     libcpmt:winapisupp.obj
 0002:000024d8       ??_C@_0CA@FMNJENH@WaitForThreadpoolTimerCallbacks@ 004414d8     libcpmt:winapisupp.obj
 0002:000024f8       ??_C@_0BF@DCFCCNOC@CloseThreadpoolTimer@ 004414f8     libcpmt:winapisupp.obj
 0002:00002510       ??_C@_0BF@FLABGKKM@CreateThreadpoolWait@ 00441510     libcpmt:winapisupp.obj
 0002:00002528       ??_C@_0BC@MGCOHNA@SetThreadpoolWait@ 00441528     libcpmt:winapisupp.obj
 0002:0000253c       ??_C@_0BE@OCIOMIMP@CloseThreadpoolWait@ 0044153c     libcpmt:winapisupp.obj
 0002:00002550       ??_C@_0BJ@LKGHFHBO@FlushProcessWriteBuffers@ 00441550     libcpmt:winapisupp.obj
 0002:0000256c       ??_C@_0BP@KALKKPMO@FreeLibraryWhenCallbackReturns@ 0044156c     libcpmt:winapisupp.obj
 0002:0000258c       ??_C@_0BK@DFNBACLA@GetCurrentProcessorNumber@ 0044158c     libcpmt:winapisupp.obj
 0002:000025a8       ??_C@_0BE@FKKLLFLM@CreateSymbolicLinkW@ 004415a8     libcpmt:winapisupp.obj
 0002:000025bc       ??_C@_0BE@JOGNEJCI@GetCurrentPackageId@ 004415bc     libcpmt:winapisupp.obj
 0002:000025d0       ??_C@_0P@CDHHOHKP@GetTickCount64@ 004415d0     libcpmt:winapisupp.obj
 0002:000025e0       ??_C@_0BN@NEEHBBPO@GetFileInformationByHandleEx@ 004415e0     libcpmt:winapisupp.obj
 0002:00002600       ??_C@_0BL@KBBHGKCM@SetFileInformationByHandle@ 00441600     libcpmt:winapisupp.obj
 0002:0000261c       ??_C@_0BP@FPNJPEJC@GetSystemTimePreciseAsFileTime@ 0044161c     libcpmt:winapisupp.obj
 0002:0000263c       ??_C@_0BM@HLJJNPAH@InitializeConditionVariable@ 0044163c     libcpmt:winapisupp.obj
 0002:00002658       ??_C@_0BG@BFNILBLN@WakeConditionVariable@ 00441658     libcpmt:winapisupp.obj
 0002:00002670       ??_C@_0BJ@PGPPEPCC@WakeAllConditionVariable@ 00441670     libcpmt:winapisupp.obj
 0002:0000268c       ??_C@_0BJ@JEBJOJFJ@SleepConditionVariableCS@ 0044168c     libcpmt:winapisupp.obj
 0002:000026a8       ??_C@_0BC@MMLHEBPB@InitializeSRWLock@ 004416a8     libcpmt:winapisupp.obj
 0002:000026bc       ??_C@_0BI@OMNLIJDB@AcquireSRWLockExclusive@ 004416bc     libcpmt:winapisupp.obj
 0002:000026d4       ??_C@_0BL@OGHFEMNA@TryAcquireSRWLockExclusive@ 004416d4     libcpmt:winapisupp.obj
 0002:000026f0       ??_C@_0BI@HMIEPCNJ@ReleaseSRWLockExclusive@ 004416f0     libcpmt:winapisupp.obj
 0002:00002708       ??_C@_0BK@LGACAGIC@SleepConditionVariableSRW@ 00441708     libcpmt:winapisupp.obj
 0002:00002724       ??_C@_0BF@GGPHFPJA@CreateThreadpoolWork@ 00441724     libcpmt:winapisupp.obj
 0002:0000273c       ??_C@_0BF@NHDAIMMO@SubmitThreadpoolWork@ 0044173c     libcpmt:winapisupp.obj
 0002:00002754       ??_C@_0BE@NPHIPNPD@CloseThreadpoolWork@ 00441754     libcpmt:winapisupp.obj
 0002:00002768       ??_C@_0BA@IHGNDAEB@CompareStringEx@ 00441768     libcpmt:winapisupp.obj
 0002:00002778       ??_C@_0BA@ONOKGCMP@GetLocaleInfoEx@ 00441778     libcpmt:winapisupp.obj
 0002:00002788       ??_C@_0O@KKBNKAPF@LCMapStringEx@ 00441788     libcpmt:winapisupp.obj
 0002:000035d8       ??_C@_15EMKDOKLE@?$AAa?$AAr@ 004425d8     libcpmt:winapinls.obj
 0002:000035e0       ??_C@_15KNPADPLH@?$AAb?$AAg@ 004425e0     libcpmt:winapinls.obj
 0002:000035e8       ??_C@_15EDMHLDMO@?$AAc?$AAa@ 004425e8     libcpmt:winapinls.obj
 0002:000035f0       ??_C@_1O@BPEAJADD@?$AAz?$AAh?$AA?9?$AAC?$AAH?$AAS@ 004425f0     libcpmt:winapinls.obj
 0002:00003600       ??_C@_15LJNHCMNK@?$AAc?$AAs@ 00442600     libcpmt:winapinls.obj
 0002:00003608       ??_C@_15FOMCIDHG@?$AAd?$AAa@ 00442608     libcpmt:winapinls.obj
 0002:00003610       ??_C@_15NBKABECB@?$AAd?$AAe@ 00442610     libcpmt:winapinls.obj
 0002:00003618       ??_C@_15GHPEIIAO@?$AAe?$AAl@ 00442618     libcpmt:winapinls.obj
 0002:00003620       ??_C@_15MNPNEAIF@?$AAe?$AAn@ 00442620     libcpmt:winapinls.obj
 0002:00003628       ??_C@_15GPIOMPMH@?$AAe?$AAs@ 00442628     libcpmt:winapinls.obj
 0002:00003630       ??_C@_15NGLOAKJC@?$AAf?$AAi@ 00442630     libcpmt:winapinls.obj
 0002:00003638       ??_C@_15FBKGNKAM@?$AAf?$AAr@ 00442638     libcpmt:winapinls.obj
 0002:00003640       ??_C@_15KGGCNEFK@?$AAh?$AAe@ 00442640     libcpmt:winapinls.obj
 0002:00003648       ??_C@_15PGHLIDMF@?$AAh?$AAu@ 00442648     libcpmt:winapinls.obj
 0002:00003650       ??_C@_15BIEMAPLM@?$AAi?$AAs@ 00442650     libcpmt:winapinls.obj
 0002:00003658       ??_C@_15IFJLDHAF@?$AAi?$AAt@ 00442658     libcpmt:winapinls.obj
 0002:00003660       ??_C@_15GEMIOCAG@?$AAj?$AAa@ 00442660     libcpmt:winapinls.obj
 0002:00003668       ??_C@_15EPELEGJA@?$AAk?$AAo@ 00442668     libcpmt:winapinls.obj
 0002:00003670       ??_C@_15NDDHIMN@?$AAn?$AAl@ 00442670     libcpmt:winapinls.obj
 0002:00003678       ??_C@_15BPIGNHCD@?$AAn?$AAo@ 00442678     libcpmt:winapinls.obj
 0002:00003680       ??_C@_15DEOPBLCG@?$AAp?$AAl@ 00442680     libcpmt:winapinls.obj
 0002:00003688       ??_C@_15KBECGEFG@?$AAp?$AAt@ 00442688     libcpmt:winapinls.obj
 0002:00003690       ??_C@_15GLJCBFMD@?$AAr?$AAo@ 00442690     libcpmt:winapinls.obj
 0002:00003698       ??_C@_15FEDGKCDI@?$AAr?$AAu@ 00442698     libcpmt:winapinls.obj
 0002:000036a0       ??_C@_15GLKMLLHM@?$AAh?$AAr@ 004426a0     libcpmt:winapinls.obj
 0002:000036a8       ??_C@_15CPKMFBDB@?$AAs?$AAk@ 004426a8     libcpmt:winapinls.obj
 0002:000036b0       ??_C@_15BAAIOGMK@?$AAs?$AAq@ 004426b0     libcpmt:winapinls.obj
 0002:000036b8       ??_C@_15INNPNOHD@?$AAs?$AAv@ 004426b8     libcpmt:winapinls.obj
 0002:000036c0       ??_C@_15CABMMOGH@?$AAt?$AAh@ 004426c0     libcpmt:winapinls.obj
 0002:000036c8       ??_C@_15BPLIHJJM@?$AAt?$AAr@ 004426c8     libcpmt:winapinls.obj
 0002:000036d0       ??_C@_15NEOEKKDJ@?$AAu?$AAr@ 004426d0     libcpmt:winapinls.obj
 0002:000036d8       ??_C@_15NFICGAJK@?$AAi?$AAd@ 004426d8     libcpmt:winapinls.obj
 0002:000036e0       ??_C@_15PJPFLCCM@?$AAu?$AAk@ 004426e0     libcpmt:winapinls.obj
 0002:000036e8       ??_C@_15HPJPHDM@?$AAb?$AAe@ 004426e8     libcpmt:winapinls.obj
 0002:000036f0       ??_C@_15LCHLGJII@?$AAs?$AAl@ 004426f0     libcpmt:winapinls.obj
 0002:000036f8       ??_C@_15PCFJPHHO@?$AAe?$AAt@ 004426f8     libcpmt:winapinls.obj
 0002:00003700       ??_C@_15HPFPGODN@?$AAl?$AAv@ 00442700     libcpmt:winapinls.obj
 0002:00003708       ??_C@_15NFFGKGLG@?$AAl?$AAt@ 00442708     libcpmt:winapinls.obj
 0002:00003710       ??_C@_15BDAKCCHN@?$AAf?$AAa@ 00442710     libcpmt:winapinls.obj
 0002:00003718       ??_C@_15NFGIAIAJ@?$AAv?$AAi@ 00442718     libcpmt:winapinls.obj
 0002:00003720       ??_C@_15LMKNDMHN@?$AAh?$AAy@ 00442720     libcpmt:winapinls.obj
 0002:00003728       ??_C@_15IJBHMCFL@?$AAa?$AAz@ 00442728     libcpmt:winapinls.obj
 0002:00003730       ??_C@_15EKOFJABL@?$AAe?$AAu@ 00442730     libcpmt:winapinls.obj
 0002:00003738       ??_C@_15BGHADCNK@?$AAm?$AAk@ 00442738     libcpmt:winapinls.obj
 0002:00003740       ??_C@_15JDNICKHM@?$AAa?$AAf@ 00442740     libcpmt:winapinls.obj
 0002:00003748       ??_C@_15KPJEDBKD@?$AAk?$AAa@ 00442748     libcpmt:winapinls.obj
 0002:00003750       ??_C@_15PDNFFFEO@?$AAf?$AAo@ 00442750     libcpmt:winapinls.obj
 0002:00003758       ??_C@_15OMLEGLOC@?$AAh?$AAi@ 00442758     libcpmt:winapinls.obj
 0002:00003760       ??_C@_15IDNNENKK@?$AAm?$AAs@ 00442760     libcpmt:winapinls.obj
 0002:00003768       ??_C@_15MACJNBMH@?$AAk?$AAk@ 00442768     libcpmt:winapinls.obj
 0002:00003770       ??_C@_15DKDJEOND@?$AAk?$AAy@ 00442770     libcpmt:winapinls.obj
 0002:00003778       ??_C@_15DFGDLJBG@?$AAs?$AAw@ 00442778     libcpmt:winapinls.obj
 0002:00003780       ??_C@_15BBFAICNG@?$AAu?$AAz@ 00442780     libcpmt:winapinls.obj
 0002:00003788       ??_C@_15DKNDCGEA@?$AAt?$AAt@ 00442788     libcpmt:winapinls.obj
 0002:00003790       ??_C@_15MGIFMDPL@?$AAp?$AAa@ 00442790     libcpmt:winapinls.obj
 0002:00003798       ??_C@_15HCNDBBA@?$AAg?$AAu@ 00442798     libcpmt:winapinls.obj
 0002:000037a0       ??_C@_15FNBEIBON@?$AAt?$AAa@ 004427a0     libcpmt:winapinls.obj
 0002:000037a8       ??_C@_15NCHGBGLK@?$AAt?$AAe@ 004427a8     libcpmt:winapinls.obj
 0002:000037b0       ??_C@_15PHPHCBPF@?$AAk?$AAn@ 004427b0     libcpmt:winapinls.obj
 0002:000037b8       ??_C@_15DLGBCKMP@?$AAm?$AAr@ 004427b8     libcpmt:winapinls.obj
 0002:000037c0       ??_C@_15EABBLBFF@?$AAs?$AAa@ 004427c0     libcpmt:winapinls.obj
 0002:000037c8       ??_C@_15CBKOMCOI@?$AAm?$AAn@ 004427c8     libcpmt:winapinls.obj
 0002:000037d0       ??_C@_15CKDMCJAF@?$AAg?$AAl@ 004427d0     libcpmt:winapinls.obj
 0002:000037d8       ??_C@_17CNJFBPG@?$AAk?$AAo?$AAk@ 004427d8     libcpmt:winapinls.obj
 0002:000037e0       ??_C@_17FFBJICPL@?$AAs?$AAy?$AAr@ 004427e0     libcpmt:winapinls.obj
 0002:000037e8       ??_C@_17KPNDCPAF@?$AAd?$AAi?$AAv@ 004427e8     libcpmt:winapinls.obj
 0002:000037f0       ??_C@_11LOCGONAA@@         004427f0     libcpmt:winapinls.obj
 0002:000037f4       ??_C@_1M@OKAHONE@?$AAa?$AAr?$AA?9?$AAS?$AAA@ 004427f4     libcpmt:winapinls.obj
 0002:00003800       ??_C@_1M@FFFIGIGK@?$AAb?$AAg?$AA?9?$AAB?$AAG@ 00442800     libcpmt:winapinls.obj
 0002:0000380c       ??_C@_1M@BJNKEDC@?$AAc?$AAa?$AA?9?$AAE?$AAS@ 0044280c     libcpmt:winapinls.obj
 0002:00003818       ??_C@_1M@CLNBBOPM@?$AAz?$AAh?$AA?9?$AAT?$AAW@ 00442818     libcpmt:winapinls.obj
 0002:00003824       ??_C@_1M@IJJHFJHA@?$AAc?$AAs?$AA?9?$AAC?$AAZ@ 00442824     libcpmt:winapinls.obj
 0002:00003830       ??_C@_1M@CLPEOBGI@?$AAd?$AAa?$AA?9?$AAD?$AAK@ 00442830     libcpmt:winapinls.obj
 0002:0000383c       ??_C@_1M@MCMADGCB@?$AAd?$AAe?$AA?9?$AAD?$AAE@ 0044283c     libcpmt:winapinls.obj
 0002:00003848       ??_C@_1M@OOCKEMAM@?$AAe?$AAl?$AA?9?$AAG?$AAR@ 00442848     libcpmt:winapinls.obj
 0002:00003854       ??_C@_1M@BMHNFIME@?$AAe?$AAn?$AA?9?$AAU?$AAS@ 00442854     libcpmt:winapinls.obj
 0002:00003860       ??_C@_1M@DDNJFGID@?$AAf?$AAi?$AA?9?$AAF?$AAI@ 00442860     libcpmt:winapinls.obj
 0002:0000386c       ??_C@_1M@GLIPPMAC@?$AAf?$AAr?$AA?9?$AAF?$AAR@ 0044286c     libcpmt:winapinls.obj
 0002:00003878       ??_C@_1M@GFMCHPE@?$AAh?$AAe?$AA?9?$AAI?$AAL@ 00442878     libcpmt:winapinls.obj
 0002:00003884       ??_C@_1M@MHLPGNKM@?$AAh?$AAu?$AA?9?$AAH?$AAU@ 00442884     libcpmt:winapinls.obj
 0002:00003890       ??_C@_1M@LPDDNNPN@?$AAi?$AAs?$AA?9?$AAI?$AAS@ 00442890     libcpmt:winapinls.obj
 0002:0000389c       ??_C@_1M@MADIPODN@?$AAi?$AAt?$AA?9?$AAI?$AAT@ 0044289c     libcpmt:winapinls.obj
 0002:000038a8       ??_C@_1M@HPNHIDJI@?$AAj?$AAa?$AA?9?$AAJ?$AAP@ 004428a8     libcpmt:winapinls.obj
 0002:000038b4       ??_C@_1M@JLOOOEGK@?$AAk?$AAo?$AA?9?$AAK?$AAR@ 004428b4     libcpmt:winapinls.obj
 0002:000038c0       ??_C@_1M@IHBJJGG@?$AAn?$AAl?$AA?9?$AAN?$AAL@ 004428c0     libcpmt:winapinls.obj
 0002:000038cc       ??_C@_1M@EANAGDL@?$AAn?$AAb?$AA?9?$AAN?$AAO@ 004428cc     libcpmt:winapinls.obj
 0002:000038d8       ??_C@_1M@NEIEMEGP@?$AAp?$AAl?$AA?9?$AAP?$AAL@ 004428d8     libcpmt:winapinls.obj
 0002:000038e4       ??_C@_1M@BOCFIGEP@?$AAp?$AAt?$AA?9?$AAB?$AAR@ 004428e4     libcpmt:winapinls.obj
 0002:000038f0       ??_C@_1M@IMPFOPBG@?$AAr?$AAo?$AA?9?$AAR?$AAO@ 004428f0     libcpmt:winapinls.obj
 0002:000038fc       ??_C@_1M@IDNNEJMM@?$AAr?$AAu?$AA?9?$AAR?$AAU@ 004428fc     libcpmt:winapinls.obj
 0002:00003908       ??_C@_1M@LILEEOGM@?$AAh?$AAr?$AA?9?$AAH?$AAR@ 00442908     libcpmt:winapinls.obj
 0002:00003914       ??_C@_1M@FKIFEHPB@?$AAs?$AAk?$AA?9?$AAS?$AAK@ 00442914     libcpmt:winapinls.obj
 0002:00003920       ??_C@_1M@LJMAMNPJ@?$AAs?$AAq?$AA?9?$AAA?$AAL@ 00442920     libcpmt:winapinls.obj
 0002:0000392c       ??_C@_1M@GIAKDKJK@?$AAs?$AAv?$AA?9?$AAS?$AAE@ 0044292c     libcpmt:winapinls.obj
 0002:00003938       ??_C@_1M@MKJKIKCL@?$AAt?$AAh?$AA?9?$AAT?$AAH@ 00442938     libcpmt:winapinls.obj
 0002:00003944       ??_C@_1M@MFLCCMPB@?$AAt?$AAr?$AA?9?$AAT?$AAR@ 00442944     libcpmt:winapinls.obj
 0002:00003950       ??_C@_1M@OIJHDKJN@?$AAu?$AAr?$AA?9?$AAP?$AAK@ 00442950     libcpmt:winapinls.obj
 0002:0000395c       ??_C@_1M@LHIPCIEK@?$AAi?$AAd?$AA?9?$AAI?$AAD@ 0044295c     libcpmt:winapinls.obj
 0002:00003968       ??_C@_1M@MFMOBGI@?$AAu?$AAk?$AA?9?$AAU?$AAA@ 00442968     libcpmt:winapinls.obj
 0002:00003974       ??_C@_1M@OBGLJIPL@?$AAb?$AAe?$AA?9?$AAB?$AAY@ 00442974     libcpmt:winapinls.obj
 0002:00003980       ??_C@_1M@BCFAJEAD@?$AAs?$AAl?$AA?9?$AAS?$AAI@ 00442980     libcpmt:winapinls.obj
 0002:0000398c       ??_C@_1M@FKFFEDDN@?$AAe?$AAt?$AA?9?$AAE?$AAE@ 0044298c     libcpmt:winapinls.obj
 0002:00003998       ??_C@_1M@KGKKAACI@?$AAl?$AAv?$AA?9?$AAL?$AAV@ 00442998     libcpmt:winapinls.obj
 0002:000039a4       ??_C@_1M@IFGBIJO@?$AAl?$AAt?$AA?9?$AAL?$AAT@ 004429a4     libcpmt:winapinls.obj
 0002:000039b0       ??_C@_1M@FGEAHEDM@?$AAf?$AAa?$AA?9?$AAI?$AAR@ 004429b0     libcpmt:winapinls.obj
 0002:000039bc       ??_C@_1M@KBMAIBFN@?$AAv?$AAi?$AA?9?$AAV?$AAN@ 004429bc     libcpmt:winapinls.obj
 0002:000039c8       ??_C@_1M@GPCBKDJK@?$AAh?$AAy?$AA?9?$AAA?$AAM@ 004429c8     libcpmt:winapinls.obj
 0002:000039d4       ??_C@_1BG@BECMDDJB@?$AAa?$AAz?$AA?9?$AAA?$AAZ?$AA?9?$AAL?$AAa?$AAt?$AAn@ 004429d4     libcpmt:winapinls.obj
 0002:000039ec       ??_C@_1M@MAOFCAEA@?$AAe?$AAu?$AA?9?$AAE?$AAS@ 004429ec     libcpmt:winapinls.obj
 0002:000039f8       ??_C@_1M@IGHABKPI@?$AAm?$AAk?$AA?9?$AAM?$AAK@ 004429f8     libcpmt:winapinls.obj
 0002:00003a04       ??_C@_1M@IAIGNEJG@?$AAt?$AAn?$AA?9?$AAZ?$AAA@ 00442a04     libcpmt:winapinls.obj
 0002:00003a10       ??_C@_1M@IIJCOJFA@?$AAx?$AAh?$AA?9?$AAZ?$AAA@ 00442a10     libcpmt:winapinls.obj
 0002:00003a1c       ??_C@_1M@LGPJHNJH@?$AAz?$AAu?$AA?9?$AAZ?$AAA@ 00442a1c     libcpmt:winapinls.obj
 0002:00003a28       ??_C@_1M@HOKAOIO@?$AAa?$AAf?$AA?9?$AAZ?$AAA@ 00442a28     libcpmt:winapinls.obj
 0002:00003a34       ??_C@_1M@DPCLHLIE@?$AAk?$AAa?$AA?9?$AAG?$AAE@ 00442a34     libcpmt:winapinls.obj
 0002:00003a40       ??_C@_1M@BLKMHJBI@?$AAf?$AAo?$AA?9?$AAF?$AAO@ 00442a40     libcpmt:winapinls.obj
 0002:00003a4c       ??_C@_1M@LGGJAPPB@?$AAh?$AAi?$AA?9?$AAI?$AAN@ 00442a4c     libcpmt:winapinls.obj
 0002:00003a58       ??_C@_1M@FIKPIHFE@?$AAm?$AAt?$AA?9?$AAM?$AAT@ 00442a58     libcpmt:winapinls.obj
 0002:00003a64       ??_C@_1M@HEGGPBFA@?$AAs?$AAe?$AA?9?$AAN?$AAO@ 00442a64     libcpmt:winapinls.obj
 0002:00003a70       ??_C@_1M@EIBJEEPA@?$AAm?$AAs?$AA?9?$AAM?$AAY@ 00442a70     libcpmt:winapinls.obj
 0002:00003a7c       ??_C@_1M@FHLBGMPP@?$AAk?$AAk?$AA?9?$AAK?$AAZ@ 00442a7c     libcpmt:winapinls.obj
 0002:00003a88       ??_C@_1M@NGJJLCGI@?$AAk?$AAy?$AA?9?$AAK?$AAG@ 00442a88     libcpmt:winapinls.obj
 0002:00003a94       ??_C@_1M@GIENNBFC@?$AAs?$AAw?$AA?9?$AAK?$AAE@ 00442a94     libcpmt:winapinls.obj
 0002:00003aa0       ??_C@_1BG@NDGMJIMJ@?$AAu?$AAz?$AA?9?$AAU?$AAZ?$AA?9?$AAL?$AAa?$AAt?$AAn@ 00442aa0     libcpmt:winapinls.obj
 0002:00003ab8       ??_C@_1M@IDCCIHBC@?$AAt?$AAt?$AA?9?$AAR?$AAU@ 00442ab8     libcpmt:winapinls.obj
 0002:00003ac4       ??_C@_1M@LOICPMOJ@?$AAb?$AAn?$AA?9?$AAI?$AAN@ 00442ac4     libcpmt:winapinls.obj
 0002:00003ad0       ??_C@_1M@KPKKNEAH@?$AAp?$AAa?$AA?9?$AAI?$AAN@ 00442ad0     libcpmt:winapinls.obj
 0002:00003adc       ??_C@_1M@PJGPPBOG@?$AAg?$AAu?$AA?9?$AAI?$AAN@ 00442adc     libcpmt:winapinls.obj
 0002:00003ae8       ??_C@_1M@KMKMOPHI@?$AAt?$AAa?$AA?9?$AAI?$AAN@ 00442ae8     libcpmt:winapinls.obj
 0002:00003af4       ??_C@_1M@KFEHEPAC@?$AAt?$AAe?$AA?9?$AAI?$AAN@ 00442af4     libcpmt:winapinls.obj
 0002:00003b00       ??_C@_1M@CDCLMGHI@?$AAk?$AAn?$AA?9?$AAI?$AAN@ 00442b00     libcpmt:winapinls.obj
 0002:00003b0c       ??_C@_1M@MIODLDKF@?$AAm?$AAl?$AA?9?$AAI?$AAN@ 00442b0c     libcpmt:winapinls.obj
 0002:00003b18       ??_C@_1M@PBIEACPO@?$AAm?$AAr?$AA?9?$AAI?$AAN@ 00442b18     libcpmt:winapinls.obj
 0002:00003b24       ??_C@_1M@NIDEAGPH@?$AAs?$AAa?$AA?9?$AAI?$AAN@ 00442b24     libcpmt:winapinls.obj
 0002:00003b30       ??_C@_1M@FHIHCBIO@?$AAm?$AAn?$AA?9?$AAM?$AAN@ 00442b30     libcpmt:winapinls.obj
 0002:00003b3c       ??_C@_1M@JAIJPENP@?$AAc?$AAy?$AA?9?$AAG?$AAB@ 00442b3c     libcpmt:winapinls.obj
 0002:00003b48       ??_C@_1M@PHGFBEPN@?$AAg?$AAl?$AA?9?$AAE?$AAS@ 00442b48     libcpmt:winapinls.obj
 0002:00003b54       ??_C@_1O@KPIPDNCP@?$AAk?$AAo?$AAk?$AA?9?$AAI?$AAN@ 00442b54     libcpmt:winapinls.obj
 0002:00003b64       ??_C@_1O@KNHJLDJA@?$AAs?$AAy?$AAr?$AA?9?$AAS?$AAY@ 00442b64     libcpmt:winapinls.obj
 0002:00003b74       ??_C@_1O@MKEKBLAH@?$AAd?$AAi?$AAv?$AA?9?$AAM?$AAV@ 00442b74     libcpmt:winapinls.obj
 0002:00003b84       ??_C@_1O@OHDCKDDF@?$AAq?$AAu?$AAz?$AA?9?$AAB?$AAO@ 00442b84     libcpmt:winapinls.obj
 0002:00003b94       ??_C@_1M@LEPJNLFD@?$AAn?$AAs?$AA?9?$AAZ?$AAA@ 00442b94     libcpmt:winapinls.obj
 0002:00003ba0       ??_C@_1M@OMLEIIJB@?$AAm?$AAi?$AA?9?$AAN?$AAZ@ 00442ba0     libcpmt:winapinls.obj
 0002:00003bac       ??_C@_1M@PMPEAILG@?$AAa?$AAr?$AA?9?$AAI?$AAQ@ 00442bac     libcpmt:winapinls.obj
 0002:00003bb8       ??_C@_1M@BIBDDEMK@?$AAz?$AAh?$AA?9?$AAC?$AAN@ 00442bb8     libcpmt:winapinls.obj
 0002:00003bc4       ??_C@_1M@CNKPNOEE@?$AAd?$AAe?$AA?9?$AAC?$AAH@ 00442bc4     libcpmt:winapinls.obj
 0002:00003bd0       ??_C@_1M@LKMGMLKO@?$AAe?$AAn?$AA?9?$AAG?$AAB@ 00442bd0     libcpmt:winapinls.obj
 0002:00003bdc       ??_C@_1M@PGKJFFGL@?$AAe?$AAs?$AA?9?$AAM?$AAX@ 00442bdc     libcpmt:winapinls.obj
 0002:00003be8       ??_C@_1M@DNNANBDC@?$AAf?$AAr?$AA?9?$AAB?$AAE@ 00442be8     libcpmt:winapinls.obj
 0002:00003bf4       ??_C@_1M@HLGMDFHM@?$AAi?$AAt?$AA?9?$AAC?$AAH@ 00442bf4     libcpmt:winapinls.obj
 0002:00003c00       ??_C@_1M@CLLBGJH@?$AAn?$AAl?$AA?9?$AAB?$AAE@ 00442c00     libcpmt:winapinls.obj
 0002:00003c0c       ??_C@_1M@BODBOGLF@?$AAn?$AAn?$AA?9?$AAN?$AAO@ 00442c0c     libcpmt:winapinls.obj
 0002:00003c18       ??_C@_1M@HFFAHKAD@?$AAp?$AAt?$AA?9?$AAP?$AAT@ 00442c18     libcpmt:winapinls.obj
 0002:00003c24       ??_C@_1BG@LNOAKHIE@?$AAs?$AAr?$AA?9?$AAS?$AAP?$AA?9?$AAL?$AAa?$AAt?$AAn@ 00442c24     libcpmt:winapinls.obj
 0002:00003c3c       ??_C@_1M@HBMHBGAK@?$AAs?$AAv?$AA?9?$AAF?$AAI@ 00442c3c     libcpmt:winapinls.obj
 0002:00003c48       ??_C@_1BG@DGCJGJBE@?$AAa?$AAz?$AA?9?$AAA?$AAZ?$AA?9?$AAC?$AAy?$AAr?$AAl@ 00442c48     libcpmt:winapinls.obj
 0002:00003c60       ??_C@_1M@KEJDAAHB@?$AAs?$AAe?$AA?9?$AAS?$AAE@ 00442c60     libcpmt:winapinls.obj
 0002:00003c6c       ??_C@_1M@HEIBJJAD@?$AAm?$AAs?$AA?9?$AAB?$AAN@ 00442c6c     libcpmt:winapinls.obj
 0002:00003c78       ??_C@_1BG@PBGJMCEM@?$AAu?$AAz?$AA?9?$AAU?$AAZ?$AA?9?$AAC?$AAy?$AAr?$AAl@ 00442c78     libcpmt:winapinls.obj
 0002:00003c90       ??_C@_1O@LAOBCMDF@?$AAq?$AAu?$AAz?$AA?9?$AAE?$AAC@ 00442c90     libcpmt:winapinls.obj
 0002:00003ca0       ??_C@_1M@POEEMAIO@?$AAa?$AAr?$AA?9?$AAE?$AAG@ 00442ca0     libcpmt:winapinls.obj
 0002:00003cac       ??_C@_1M@EFAKDEDL@?$AAz?$AAh?$AA?9?$AAH?$AAK@ 00442cac     libcpmt:winapinls.obj
 0002:00003cb8       ??_C@_1M@HKKIJHGI@?$AAd?$AAe?$AA?9?$AAA?$AAT@ 00442cb8     libcpmt:winapinls.obj
 0002:00003cc4       ??_C@_1M@KBFBEHJF@?$AAe?$AAn?$AA?9?$AAA?$AAU@ 00442cc4     libcpmt:winapinls.obj
 0002:00003cd0       ??_C@_1M@MNPLFAAH@?$AAe?$AAs?$AA?9?$AAE?$AAS@ 00442cd0     libcpmt:winapinls.obj
 0002:00003cdc       ??_C@_1M@HJOOJFMA@?$AAf?$AAr?$AA?9?$AAC?$AAA@ 00442cdc     libcpmt:winapinls.obj
 0002:00003ce8       ??_C@_1BG@JPOFPNAB@?$AAs?$AAr?$AA?9?$AAS?$AAP?$AA?9?$AAC?$AAy?$AAr?$AAl@ 00442ce8     libcpmt:winapinls.obj
 0002:00003d00       ??_C@_1M@LNFOCMOB@?$AAs?$AAe?$AA?9?$AAF?$AAI@ 00442d00     libcpmt:winapinls.obj
 0002:00003d0c       ??_C@_1O@MGJBOAMB@?$AAq?$AAu?$AAz?$AA?9?$AAP?$AAE@ 00442d0c     libcpmt:winapinls.obj
 0002:00003d1c       ??_C@_1M@GJINLBOK@?$AAa?$AAr?$AA?9?$AAL?$AAY@ 00442d1c     libcpmt:winapinls.obj
 0002:00003d28       ??_C@_1M@GGMNHJNL@?$AAz?$AAh?$AA?9?$AAS?$AAG@ 00442d28     libcpmt:winapinls.obj
 0002:00003d34       ??_C@_1M@HOIKODND@?$AAd?$AAe?$AA?9?$AAL?$AAU@ 00442d34     libcpmt:winapinls.obj
 0002:00003d40       ??_C@_1M@DDOCCGFG@?$AAe?$AAn?$AA?9?$AAC?$AAA@ 00442d40     libcpmt:winapinls.obj
 0002:00003d4c       ??_C@_1M@BNOEMJLF@?$AAe?$AAs?$AA?9?$AAG?$AAT@ 00442d4c     libcpmt:winapinls.obj
 0002:00003d58       ??_C@_1M@EOGNKEK@?$AAf?$AAr?$AA?9?$AAC?$AAH@ 00442d58     libcpmt:winapinls.obj
 0002:00003d64       ??_C@_1M@FLIDJFHL@?$AAh?$AAr?$AA?9?$AAB?$AAA@ 00442d64     libcpmt:winapinls.obj
 0002:00003d70       ??_C@_1O@FMCELNAJ@?$AAs?$AAm?$AAj?$AA?9?$AAN?$AAO@ 00442d70     libcpmt:winapinls.obj
 0002:00003d80       ??_C@_1M@JHGLJMGJ@?$AAa?$AAr?$AA?9?$AAD?$AAZ@ 00442d80     libcpmt:winapinls.obj
 0002:00003d8c       ??_C@_1M@JKKFDCNP@?$AAz?$AAh?$AA?9?$AAM?$AAO@ 00442d8c     libcpmt:winapinls.obj
 0002:00003d98       ??_C@_1M@GEEFALPE@?$AAd?$AAe?$AA?9?$AAL?$AAI@ 00442d98     libcpmt:winapinls.obj
 0002:00003da4       ??_C@_1M@IGEOFBG@?$AAe?$AAn?$AA?9?$AAN?$AAZ@ 00442da4     libcpmt:winapinls.obj
 0002:00003db0       ??_C@_1M@KDBONEHP@?$AAe?$AAs?$AA?9?$AAC?$AAR@ 00442db0     libcpmt:winapinls.obj
 0002:00003dbc       ??_C@_1M@FHMDOHNN@?$AAf?$AAr?$AA?9?$AAL?$AAU@ 00442dbc     libcpmt:winapinls.obj
 0002:00003dc8       ??_C@_1BG@NFKKMAFG@?$AAb?$AAs?$AA?9?$AAB?$AAA?$AA?9?$AAL?$AAa?$AAt?$AAn@ 00442dc8     libcpmt:winapinls.obj
 0002:00003de0       ??_C@_1O@IMNBEMCI@?$AAs?$AAm?$AAj?$AA?9?$AAS?$AAE@ 00442de0     libcpmt:winapinls.obj
 0002:00003df0       ??_C@_1M@DHHMBNDP@?$AAa?$AAr?$AA?9?$AAM?$AAA@ 00442df0     libcpmt:winapinls.obj
 0002:00003dfc       ??_C@_1M@BNBLJCGH@?$AAe?$AAn?$AA?9?$AAI?$AAE@ 00442dfc     libcpmt:winapinls.obj
 0002:00003e08       ??_C@_1M@GEPAFMDL@?$AAe?$AAs?$AA?9?$AAP?$AAA@ 00442e08     libcpmt:winapinls.obj
 0002:00003e14       ??_C@_1M@OJONDMDL@?$AAf?$AAr?$AA?9?$AAM?$AAC@ 00442e14     libcpmt:winapinls.obj
 0002:00003e20       ??_C@_1BG@OBCNFJB@?$AAs?$AAr?$AA?9?$AAB?$AAA?$AA?9?$AAL?$AAa?$AAt?$AAn@ 00442e20     libcpmt:winapinls.obj
 0002:00003e38       ??_C@_1O@KEMEEGPO@?$AAs?$AAm?$AAa?$AA?9?$AAN?$AAO@ 00442e38     libcpmt:winapinls.obj
 0002:00003e48       ??_C@_1M@ELMGFODK@?$AAa?$AAr?$AA?9?$AAT?$AAN@ 00442e48     libcpmt:winapinls.obj
 0002:00003e54       ??_C@_1M@BHDLHFAF@?$AAe?$AAn?$AA?9?$AAZ?$AAA@ 00442e54     libcpmt:winapinls.obj
 0002:00003e60       ??_C@_1M@BMGIGLIF@?$AAe?$AAs?$AA?9?$AAD?$AAO@ 00442e60     libcpmt:winapinls.obj
 0002:00003e6c       ??_C@_1BG@CMBHIPBE@?$AAs?$AAr?$AA?9?$AAB?$AAA?$AA?9?$AAC?$AAy?$AAr?$AAl@ 00442e6c     libcpmt:winapinls.obj
 0002:00003e84       ??_C@_1O@HEDBLHNP@?$AAs?$AAm?$AAa?$AA?9?$AAS?$AAE@ 00442e84     libcpmt:winapinls.obj
 0002:00003e94       ??_C@_1M@DAGCADIM@?$AAa?$AAr?$AA?9?$AAO?$AAM@ 00442e94     libcpmt:winapinls.obj
 0002:00003ea0       ??_C@_1M@FODLMICG@?$AAe?$AAn?$AA?9?$AAJ?$AAM@ 00442ea0     libcpmt:winapinls.obj
 0002:00003eac       ??_C@_1M@DNMLCIHB@?$AAe?$AAs?$AA?9?$AAV?$AAE@ 00442eac     libcpmt:winapinls.obj
 0002:00003eb8       ??_C@_1O@EOKHMKJK@?$AAs?$AAm?$AAs?$AA?9?$AAF?$AAI@ 00442eb8     libcpmt:winapinls.obj
 0002:00003ec8       ??_C@_1M@CAFJMKOF@?$AAa?$AAr?$AA?9?$AAY?$AAE@ 00442ec8     libcpmt:winapinls.obj
 0002:00003ed4       ??_C@_1M@CBFHIJLI@?$AAe?$AAn?$AA?9?$AAC?$AAB@ 00442ed4     libcpmt:winapinls.obj
 0002:00003ee0       ??_C@_1M@BGNFLDN@?$AAe?$AAs?$AA?9?$AAC?$AAO@ 00442ee0     libcpmt:winapinls.obj
 0002:00003eec       ??_C@_1O@JMPHMAMC@?$AAs?$AAm?$AAn?$AA?9?$AAF?$AAI@ 00442eec     libcpmt:winapinls.obj
 0002:00003efc       ??_C@_1M@JLANABKE@?$AAa?$AAr?$AA?9?$AAS?$AAY@ 00442efc     libcpmt:winapinls.obj
 0002:00003f08       ??_C@_1M@HPKGCFGN@?$AAe?$AAn?$AA?9?$AAB?$AAZ@ 00442f08     libcpmt:winapinls.obj
 0002:00003f14       ??_C@_1M@OLJCMLGM@?$AAe?$AAs?$AA?9?$AAP?$AAE@ 00442f14     libcpmt:winapinls.obj
 0002:00003f20       ??_C@_1M@MKKGFKLE@?$AAa?$AAr?$AA?9?$AAJ?$AAO@ 00442f20     libcpmt:winapinls.obj
 0002:00003f2c       ??_C@_1M@EKPGLDNI@?$AAe?$AAn?$AA?9?$AAT?$AAT@ 00442f2c     libcpmt:winapinls.obj
 0002:00003f38       ??_C@_1M@OONGHFHE@?$AAe?$AAs?$AA?9?$AAA?$AAR@ 00442f38     libcpmt:winapinls.obj
 0002:00003f44       ??_C@_1M@OOJFGBHE@?$AAa?$AAr?$AA?9?$AAL?$AAB@ 00442f44     libcpmt:winapinls.obj
 0002:00003f50       ??_C@_1M@GCEJHNEG@?$AAe?$AAn?$AA?9?$AAZ?$AAW@ 00442f50     libcpmt:winapinls.obj
 0002:00003f5c       ??_C@_1M@JNOCAHJI@?$AAe?$AAs?$AA?9?$AAE?$AAC@ 00442f5c     libcpmt:winapinls.obj
 0002:00003f68       ??_C@_1M@JEFHPGGB@?$AAa?$AAr?$AA?9?$AAK?$AAW@ 00442f68     libcpmt:winapinls.obj
 0002:00003f74       ??_C@_1M@MLKIBJOJ@?$AAe?$AAn?$AA?9?$AAP?$AAH@ 00442f74     libcpmt:winapinls.obj
 0002:00003f80       ??_C@_1M@BDNIPEND@?$AAe?$AAs?$AA?9?$AAC?$AAL@ 00442f80     libcpmt:winapinls.obj
 0002:00003f8c       ??_C@_1M@MPNMEKBD@?$AAa?$AAr?$AA?9?$AAA?$AAE@ 00442f8c     libcpmt:winapinls.obj
 0002:00003f98       ??_C@_1M@KBJALCPI@?$AAe?$AAs?$AA?9?$AAU?$AAY@ 00442f98     libcpmt:winapinls.obj
 0002:00003fa4       ??_C@_1M@LLCCOAGA@?$AAa?$AAr?$AA?9?$AAB?$AAH@ 00442fa4     libcpmt:winapinls.obj
 0002:00003fb0       ??_C@_1M@PBFNCDEL@?$AAe?$AAs?$AA?9?$AAP?$AAY@ 00442fb0     libcpmt:winapinls.obj
 0002:00003fbc       ??_C@_1M@EDGINPNP@?$AAa?$AAr?$AA?9?$AAQ?$AAA@ 00442fbc     libcpmt:winapinls.obj
 0002:00003fc8       ??_C@_1M@MKDBIIJI@?$AAe?$AAs?$AA?9?$AAB?$AAO@ 00442fc8     libcpmt:winapinls.obj
 0002:00003fd4       ??_C@_1M@CPKKEBLD@?$AAe?$AAs?$AA?9?$AAS?$AAV@ 00442fd4     libcpmt:winapinls.obj
 0002:00003fe0       ??_C@_1M@NDBGMMJL@?$AAe?$AAs?$AA?9?$AAH?$AAN@ 00442fe0     libcpmt:winapinls.obj
 0002:00003fec       ??_C@_1M@JIJIBHDP@?$AAe?$AAs?$AA?9?$AAN?$AAI@ 00442fec     libcpmt:winapinls.obj
 0002:00003ff8       ??_C@_1M@CGFMKEEK@?$AAe?$AAs?$AA?9?$AAP?$AAR@ 00442ff8     libcpmt:winapinls.obj
 0002:00004004       ??_C@_1O@ICJHKIIK@?$AAz?$AAh?$AA?9?$AAC?$AAH?$AAT@ 00443004     libcpmt:winapinls.obj
 0002:00004014       ??_C@_15CLNEJCE@?$AAs?$AAr@ 00443014     libcpmt:winapinls.obj
 0002:0000401c       ??_C@_1M@KAHEKEIG@?$AAa?$AAf?$AA?9?$AAz?$AAa@ 0044301c     libcpmt:winapinls.obj
 0002:00004028       ??_C@_1M@GIECOABL@?$AAa?$AAr?$AA?9?$AAa?$AAe@ 00443028     libcpmt:winapinls.obj
 0002:00004034       ??_C@_1M@BMLMEKGI@?$AAa?$AAr?$AA?9?$AAb?$AAh@ 00443034     libcpmt:winapinls.obj
 0002:00004040       ??_C@_1M@DAPFDGGB@?$AAa?$AAr?$AA?9?$AAd?$AAz@ 00443040     libcpmt:winapinls.obj
 0002:0000404c       ??_C@_1M@FJNKGKIG@?$AAa?$AAr?$AA?9?$AAe?$AAg@ 0044304c     libcpmt:winapinls.obj
 0002:00004058       ??_C@_1M@FLGKKCLO@?$AAa?$AAr?$AA?9?$AAi?$AAq@ 00443058     libcpmt:winapinls.obj
 0002:00004064       ??_C@_1M@GNDIPALM@?$AAa?$AAr?$AA?9?$AAj?$AAo@ 00443064     libcpmt:winapinls.obj
 0002:00004070       ??_C@_1M@DDMJFMGJ@?$AAa?$AAr?$AA?9?$AAk?$AAw@ 00443070     libcpmt:winapinls.obj
 0002:0000407c       ??_C@_1M@EJALMLHM@?$AAa?$AAr?$AA?9?$AAl?$AAb@ 0044307c     libcpmt:winapinls.obj
 0002:00004088       ??_C@_1M@MOBDBLOC@?$AAa?$AAr?$AA?9?$AAl?$AAy@ 00443088     libcpmt:winapinls.obj
 0002:00004094       ??_C@_1M@JAOCLHDH@?$AAa?$AAr?$AA?9?$AAm?$AAa@ 00443094     libcpmt:winapinls.obj
 0002:000040a0       ??_C@_1M@JHPMKJIE@?$AAa?$AAr?$AA?9?$AAo?$AAm@ 004430a0     libcpmt:winapinls.obj
 0002:000040ac       ??_C@_1M@OEPGHFNH@?$AAa?$AAr?$AA?9?$AAq?$AAa@ 004430ac     libcpmt:winapinls.obj
 0002:000040b8       ??_C@_1M@KJDONENM@?$AAa?$AAr?$AA?9?$AAs?$AAa@ 004430b8     libcpmt:winapinls.obj
 0002:000040c4       ??_C@_1M@DMJDKLKM@?$AAa?$AAr?$AA?9?$AAs?$AAy@ 004430c4     libcpmt:winapinls.obj
 0002:000040d0       ??_C@_1M@OMFIPEDC@?$AAa?$AAr?$AA?9?$AAt?$AAn@ 004430d0     libcpmt:winapinls.obj
 0002:000040dc       ??_C@_1M@IHMHGAON@?$AAa?$AAr?$AA?9?$AAy?$AAe@ 004430dc     libcpmt:winapinls.obj
 0002:000040e8       ??_C@_1BG@KDCPGJGB@?$AAa?$AAz?$AA?9?$AAa?$AAz?$AA?9?$AAc?$AAy?$AAr?$AAl@ 004430e8     libcpmt:winapinls.obj
 0002:00004100       ??_C@_1BG@IBCKDDOE@?$AAa?$AAz?$AA?9?$AAa?$AAz?$AA?9?$AAl?$AAa?$AAt?$AAn@ 00443100     libcpmt:winapinls.obj
 0002:00004118       ??_C@_1M@EGPFDCPD@?$AAb?$AAe?$AA?9?$AAb?$AAy@ 00443118     libcpmt:winapinls.obj
 0002:00004124       ??_C@_1M@PCMGMCGC@?$AAb?$AAg?$AA?9?$AAb?$AAg@ 00443124     libcpmt:winapinls.obj
 0002:00004130       ??_C@_1M@BJBMFGOB@?$AAb?$AAn?$AA?9?$AAi?$AAn@ 00443130     libcpmt:winapinls.obj
 0002:0000413c       ??_C@_1BG@EAKMMACD@?$AAb?$AAs?$AA?9?$AAb?$AAa?$AA?9?$AAl?$AAa?$AAt?$AAn@ 0044313c     libcpmt:winapinls.obj
 0002:00004154       ??_C@_1M@KGADAODK@?$AAc?$AAa?$AA?9?$AAe?$AAs@ 00443154     libcpmt:winapinls.obj
 0002:00004160       ??_C@_1M@COAJPDHI@?$AAc?$AAs?$AA?9?$AAc?$AAz@ 00443160     libcpmt:winapinls.obj
 0002:0000416c       ??_C@_1M@DHBHFONH@?$AAc?$AAy?$AA?9?$AAg?$AAb@ 0044316c     libcpmt:winapinls.obj
 0002:00004178       ??_C@_1M@IMGKELGA@?$AAd?$AAa?$AA?9?$AAd?$AAk@ 00443178     libcpmt:winapinls.obj
 0002:00004184       ??_C@_1M@NNDGDNGA@?$AAd?$AAe?$AA?9?$AAa?$AAt@ 00443184     libcpmt:winapinls.obj
 0002:00004190       ??_C@_1M@IKDBHEEM@?$AAd?$AAe?$AA?9?$AAc?$AAh@ 00443190     libcpmt:winapinls.obj
 0002:0000419c       ??_C@_1M@GFFOJMCJ@?$AAd?$AAe?$AA?9?$AAd?$AAe@ 0044319c     libcpmt:winapinls.obj
 0002:000041a8       ??_C@_1M@MDNLKBPM@?$AAd?$AAe?$AA?9?$AAl?$AAi@ 004431a8     libcpmt:winapinls.obj
 0002:000041b4       ??_C@_1M@NJBEEJNL@?$AAd?$AAe?$AA?9?$AAl?$AAu@ 004431b4     libcpmt:winapinls.obj
 0002:000041c0       ??_C@_1O@GNNELBAP@?$AAd?$AAi?$AAv?$AA?9?$AAm?$AAv@ 004431c0     libcpmt:winapinls.obj
 0002:000041d0       ??_C@_1M@EJLEOGAE@?$AAe?$AAl?$AA?9?$AAg?$AAr@ 004431d0     libcpmt:winapinls.obj
 0002:000041dc       ??_C@_1M@GMPONJN@?$AAe?$AAn?$AA?9?$AAa?$AAu@ 004431dc     libcpmt:winapinls.obj
 0002:000041e8       ??_C@_1M@NIDIIPGF@?$AAe?$AAn?$AA?9?$AAb?$AAz@ 004431e8     libcpmt:winapinls.obj
 0002:000041f4       ??_C@_1M@JEHMIMFO@?$AAe?$AAn?$AA?9?$AAc?$AAa@ 004431f4     libcpmt:winapinls.obj
 0002:00004200       ??_C@_1M@IGMJCDLA@?$AAe?$AAn?$AA?9?$AAc?$AAb@ 00443200     libcpmt:winapinls.obj
 0002:0000420c       ??_C@_1M@BNFIGBKG@?$AAe?$AAn?$AA?9?$AAg?$AAb@ 0044320c     libcpmt:winapinls.obj
 0002:00004218       ??_C@_1M@LKIFDIGP@?$AAe?$AAn?$AA?9?$AAi?$AAe@ 00443218     libcpmt:winapinls.obj
 0002:00004224       ??_C@_1M@PJKFGCCO@?$AAe?$AAn?$AA?9?$AAj?$AAm@ 00443224     libcpmt:winapinls.obj
 0002:00004230       ??_C@_1M@KPPKEPBO@?$AAe?$AAn?$AA?9?$AAn?$AAz@ 00443230     libcpmt:winapinls.obj
 0002:0000423c       ??_C@_1M@GMDGLDOB@?$AAe?$AAn?$AA?9?$AAp?$AAh@ 0044323c     libcpmt:winapinls.obj
 0002:00004248       ??_C@_1M@ONGIBJNA@?$AAe?$AAn?$AA?9?$AAt?$AAt@ 00443248     libcpmt:winapinls.obj
 0002:00004254       ??_C@_1M@LLODPCMM@?$AAe?$AAn?$AA?9?$AAu?$AAs@ 00443254     libcpmt:winapinls.obj
 0002:00004260       ??_C@_1M@LAKFNPAN@?$AAe?$AAn?$AA?9?$AAz?$AAa@ 00443260     libcpmt:winapinls.obj
 0002:0000426c       ??_C@_1M@MFNHNHEO@?$AAe?$AAn?$AA?9?$AAz?$AAw@ 0044326c     libcpmt:winapinls.obj
 0002:00004278       ??_C@_1M@EJEINPHM@?$AAe?$AAs?$AA?9?$AAa?$AAr@ 00443278     libcpmt:winapinls.obj
 0002:00004284       ??_C@_1M@GNKPCCJA@?$AAe?$AAs?$AA?9?$AAb?$AAo@ 00443284     libcpmt:winapinls.obj
 0002:00004290       ??_C@_1M@LEEGFONL@?$AAe?$AAs?$AA?9?$AAc?$AAl@ 00443290     libcpmt:winapinls.obj
 0002:0000429c       ??_C@_1M@KGPDPBDF@?$AAe?$AAs?$AA?9?$AAc?$AAo@ 0044329c     libcpmt:winapinls.obj
 0002:000042a8       ??_C@_1M@EIAHOHH@?$AAe?$AAs?$AA?9?$AAc?$AAr@ 004432a8     libcpmt:winapinls.obj
 0002:000042b4       ??_C@_1M@LLPGMBIN@?$AAe?$AAs?$AA?9?$AAd?$AAo@ 004432b4     libcpmt:winapinls.obj
 0002:000042c0       ??_C@_1M@DKHMKNJA@?$AAe?$AAs?$AA?9?$AAe?$AAc@ 004432c0     libcpmt:winapinls.obj
 0002:000042cc       ??_C@_1M@GKGFPKAP@?$AAe?$AAs?$AA?9?$AAe?$AAs@ 004432cc     libcpmt:winapinls.obj
 0002:000042d8       ??_C@_1M@LKHKGDLN@?$AAe?$AAs?$AA?9?$AAg?$AAt@ 004432d8     libcpmt:winapinls.obj
 0002:000042e4       ??_C@_1M@HEIIGGJD@?$AAe?$AAs?$AA?9?$AAh?$AAn@ 004432e4     libcpmt:winapinls.obj
 0002:000042f0       ??_C@_1M@FBDHPPGD@?$AAe?$AAs?$AA?9?$AAm?$AAx@ 004432f0     libcpmt:winapinls.obj
 0002:000042fc       ??_C@_1M@DPAGLNDH@?$AAe?$AAs?$AA?9?$AAn?$AAi@ 004432fc     libcpmt:winapinls.obj
 0002:00004308       ??_C@_1M@MDGOPGDD@?$AAe?$AAs?$AA?9?$AAp?$AAa@ 00443308     libcpmt:winapinls.obj
 0002:00004314       ??_C@_1M@EMAMGBGE@?$AAe?$AAs?$AA?9?$AAp?$AAe@ 00443314     libcpmt:winapinls.obj
 0002:00004320       ??_C@_1M@IBMCAOEC@?$AAe?$AAs?$AA?9?$AAp?$AAr@ 00443320     libcpmt:winapinls.obj
 0002:0000432c       ??_C@_1M@FGMDIJED@?$AAe?$AAs?$AA?9?$AAp?$AAy@ 0044332c     libcpmt:winapinls.obj
 0002:00004338       ??_C@_1M@IIDEOLLL@?$AAe?$AAs?$AA?9?$AAs?$AAv@ 00443338     libcpmt:winapinls.obj
 0002:00004344       ??_C@_1M@GAOBIPA@?$AAe?$AAs?$AA?9?$AAu?$AAy@ 00443344     libcpmt:winapinls.obj
 0002:00004350       ??_C@_1M@JKFFICHJ@?$AAe?$AAs?$AA?9?$AAv?$AAe@ 00443350     libcpmt:winapinls.obj
 0002:0000435c       ??_C@_1M@PNMLOJDF@?$AAe?$AAt?$AA?9?$AAe?$AAe@ 0044335c     libcpmt:winapinls.obj
 0002:00004368       ??_C@_1M@GHHLIKEI@?$AAe?$AAu?$AA?9?$AAe?$AAs@ 00443368     libcpmt:winapinls.obj
 0002:00004374       ??_C@_1M@PBNONODE@?$AAf?$AAa?$AA?9?$AAi?$AAr@ 00443374     libcpmt:winapinls.obj
 0002:00004380       ??_C@_1M@JEEHPMIL@?$AAf?$AAi?$AA?9?$AAf?$AAi@ 00443380     libcpmt:winapinls.obj
 0002:0000438c       ??_C@_1M@LMDCNDBA@?$AAf?$AAo?$AA?9?$AAf?$AAo@ 0044338c     libcpmt:winapinls.obj
 0002:00004398       ??_C@_1M@JKEOHLDK@?$AAf?$AAr?$AA?9?$AAb?$AAe@ 00443398     libcpmt:winapinls.obj
 0002:000043a4       ??_C@_1M@NOHADPMI@?$AAf?$AAr?$AA?9?$AAc?$AAa@ 004433a4     libcpmt:winapinls.obj
 0002:000043b0       ??_C@_1M@KDHIHAEC@?$AAf?$AAr?$AA?9?$AAc?$AAh@ 004433b0     libcpmt:winapinls.obj
 0002:000043bc       ??_C@_1M@MMBBFGAK@?$AAf?$AAr?$AA?9?$AAf?$AAr@ 004433bc     libcpmt:winapinls.obj
 0002:000043c8       ??_C@_1M@PAFNENNF@?$AAf?$AAr?$AA?9?$AAl?$AAu@ 004433c8     libcpmt:winapinls.obj
 0002:000043d4       ??_C@_1M@EOHDJGDD@?$AAf?$AAr?$AA?9?$AAm?$AAc@ 004433d4     libcpmt:winapinls.obj
 0002:000043e0       ??_C@_1M@FAPLLOPF@?$AAg?$AAl?$AA?9?$AAe?$AAs@ 004433e0     libcpmt:winapinls.obj
 0002:000043ec       ??_C@_1M@FOPBFLOO@?$AAg?$AAu?$AA?9?$AAi?$AAn@ 004433ec     libcpmt:winapinls.obj
 0002:000043f8       ??_C@_1M@KBMCINPM@?$AAh?$AAe?$AA?9?$AAi?$AAl@ 004433f8     libcpmt:winapinls.obj
 0002:00004404       ??_C@_1M@BBPHKFPJ@?$AAh?$AAi?$AA?9?$AAi?$AAn@ 00443404     libcpmt:winapinls.obj
 0002:00004410       ??_C@_1M@PMBNDPHD@?$AAh?$AAr?$AA?9?$AAb?$AAa@ 00443410     libcpmt:winapinls.obj
 0002:0000441c       ??_C@_1M@BPCKOEGE@?$AAh?$AAr?$AA?9?$AAh?$AAr@ 0044341c     libcpmt:winapinls.obj
 0002:00004428       ??_C@_1M@GACBMHKE@?$AAh?$AAu?$AA?9?$AAh?$AAu@ 00443428     libcpmt:winapinls.obj
 0002:00004434       ??_C@_1M@MILPAJJC@?$AAh?$AAy?$AA?9?$AAa?$AAm@ 00443434     libcpmt:winapinls.obj
 0002:00004440       ??_C@_1M@BABBICEC@?$AAi?$AAd?$AA?9?$AAi?$AAd@ 00443440     libcpmt:winapinls.obj
 0002:0000444c       ??_C@_1M@BIKNHHPF@?$AAi?$AAs?$AA?9?$AAi?$AAs@ 0044344c     libcpmt:winapinls.obj
 0002:00004458       ??_C@_1M@NMPCJPHE@?$AAi?$AAt?$AA?9?$AAc?$AAh@ 00443458     libcpmt:winapinls.obj
 0002:00004464       ??_C@_1M@GHKGFEDF@?$AAi?$AAt?$AA?9?$AAi?$AAt@ 00443464     libcpmt:winapinls.obj
 0002:00004470       ??_C@_1M@NIEJCJJA@?$AAj?$AAa?$AA?9?$AAj?$AAp@ 00443470     libcpmt:winapinls.obj
 0002:0000447c       ??_C@_1M@JILFNBIM@?$AAk?$AAa?$AA?9?$AAg?$AAe@ 0044347c     libcpmt:winapinls.obj
 0002:00004488       ??_C@_1M@PACPMGPH@?$AAk?$AAk?$AA?9?$AAk?$AAz@ 00443488     libcpmt:winapinls.obj
 0002:00004494       ??_C@_1M@IELFGMHA@?$AAk?$AAn?$AA?9?$AAi?$AAn@ 00443494     libcpmt:winapinls.obj
 0002:000044a0       ??_C@_1M@DMHAEOGC@?$AAk?$AAo?$AA?9?$AAk?$AAr@ 004434a0     libcpmt:winapinls.obj
 0002:000044ac       ??_C@_1O@IBBJHCH@?$AAk?$AAo?$AAk?$AA?9?$AAi?$AAn@ 004434ac     libcpmt:winapinls.obj
 0002:000044bc       ??_C@_1M@HBAHBIGA@?$AAk?$AAy?$AA?9?$AAk?$AAg@ 004434bc     libcpmt:winapinls.obj
 0002:000044c8       ??_C@_1M@KPMILCJG@?$AAl?$AAt?$AA?9?$AAl?$AAt@ 004434c8     libcpmt:winapinls.obj
 0002:000044d4       ??_C@_1M@BDEKKCA@?$AAl?$AAv?$AA?9?$AAl?$AAv@ 004434d4     libcpmt:winapinls.obj
 0002:000044e0       ??_C@_1M@ELCKCCJJ@?$AAm?$AAi?$AA?9?$AAn?$AAz@ 004434e0     libcpmt:winapinls.obj
 0002:000044ec       ??_C@_1M@CBOOLAPA@?$AAm?$AAk?$AA?9?$AAm?$AAk@ 004434ec     libcpmt:winapinls.obj
 0002:000044f8       ??_C@_1M@GPHNBJKN@?$AAm?$AAl?$AA?9?$AAi?$AAn@ 004434f8     libcpmt:winapinls.obj
 0002:00004504       ??_C@_1M@PABJILIG@?$AAm?$AAn?$AA?9?$AAm?$AAn@ 00443504     libcpmt:winapinls.obj
 0002:00004510       ??_C@_1M@FGBKKIPG@?$AAm?$AAr?$AA?9?$AAi?$AAn@ 00443510     libcpmt:winapinls.obj
 0002:0000451c       ??_C@_1M@NDBPDDAL@?$AAm?$AAs?$AA?9?$AAb?$AAn@ 0044351c     libcpmt:winapinls.obj
 0002:00004528       ??_C@_1M@OPIHOOPI@?$AAm?$AAs?$AA?9?$AAm?$AAy@ 00443528     libcpmt:winapinls.obj
 0002:00004534       ??_C@_1M@PPDBCNFM@?$AAm?$AAt?$AA?9?$AAm?$AAt@ 00443534     libcpmt:winapinls.obj
 0002:00004540       ??_C@_1M@KDJDKMDD@?$AAn?$AAb?$AA?9?$AAn?$AAo@ 00443540     libcpmt:winapinls.obj
 0002:0000454c       ??_C@_1M@KFCFLMJP@?$AAn?$AAl?$AA?9?$AAb?$AAe@ 0044354c     libcpmt:winapinls.obj
 0002:00004558       ??_C@_1M@KPOPDDGO@?$AAn?$AAl?$AA?9?$AAn?$AAl@ 00443558     libcpmt:winapinls.obj
 0002:00004564       ??_C@_1M@LJKPEMLN@?$AAn?$AAn?$AA?9?$AAn?$AAo@ 00443564     libcpmt:winapinls.obj
 0002:00004570       ??_C@_1M@BDGHHBFL@?$AAn?$AAs?$AA?9?$AAz?$AAa@ 00443570     libcpmt:winapinls.obj
 0002:0000457c       ??_C@_1M@IDEHOAP@?$AAp?$AAa?$AA?9?$AAi?$AAn@ 0044357c     libcpmt:winapinls.obj
 0002:00004588       ??_C@_1M@HDBKGOGH@?$AAp?$AAl?$AA?9?$AAp?$AAl@ 00443588     libcpmt:winapinls.obj
 0002:00004594       ??_C@_1M@LJLLCMEH@?$AAp?$AAt?$AA?9?$AAb?$AAr@ 00443594     libcpmt:winapinls.obj
 0002:000045a0       ??_C@_1M@NCMONAAL@?$AAp?$AAt?$AA?9?$AAp?$AAt@ 004435a0     libcpmt:winapinls.obj
 0002:000045ac       ??_C@_1O@EAKMAJDN@?$AAq?$AAu?$AAz?$AA?9?$AAb?$AAo@ 004435ac     libcpmt:winapinls.obj
 0002:000045bc       ??_C@_1O@BHHPIGDN@?$AAq?$AAu?$AAz?$AA?9?$AAe?$AAc@ 004435bc     libcpmt:winapinls.obj
 0002:000045cc       ??_C@_1O@GBAPEKMJ@?$AAq?$AAu?$AAz?$AA?9?$AAp?$AAe@ 004435cc     libcpmt:winapinls.obj
 0002:000045dc       ??_C@_1M@CLGLEFBO@?$AAr?$AAo?$AA?9?$AAr?$AAo@ 004435dc     libcpmt:winapinls.obj
 0002:000045e8       ??_C@_1M@CEEDODME@?$AAr?$AAu?$AA?9?$AAr?$AAu@ 004435e8     libcpmt:winapinls.obj
 0002:000045f4       ??_C@_1M@HPKKKMPP@?$AAs?$AAa?$AA?9?$AAi?$AAn@ 004435f4     libcpmt:winapinls.obj
 0002:00004600       ??_C@_1M@BKMAIGOJ@?$AAs?$AAe?$AA?9?$AAf?$AAi@ 00443600     libcpmt:winapinls.obj
 0002:0000460c       ??_C@_1M@NDPIFLFI@?$AAs?$AAe?$AA?9?$AAn?$AAo@ 0044360c     libcpmt:winapinls.obj
 0002:00004618       ??_C@_1M@DANKKHJ@?$AAs?$AAe?$AA?9?$AAs?$AAe@ 00443618     libcpmt:winapinls.obj
 0002:00004624       ??_C@_1M@PNBLONPJ@?$AAs?$AAk?$AA?9?$AAs?$AAk@ 00443624     libcpmt:winapinls.obj
 0002:00004630       ??_C@_1M@LFMODOAL@?$AAs?$AAl?$AA?9?$AAs?$AAi@ 00443630     libcpmt:winapinls.obj
 0002:0000463c       ??_C@_1O@DFKOMPG@?$AAs?$AAm?$AAa?$AA?9?$AAn?$AAo@ 0044363c     libcpmt:winapinls.obj
 0002:0000464c       ??_C@_1O@NDKPBNNH@?$AAs?$AAm?$AAa?$AA?9?$AAs?$AAe@ 0044364c     libcpmt:winapinls.obj
 0002:0000465c       ??_C@_1O@PLLKBHAB@?$AAs?$AAm?$AAj?$AA?9?$AAn?$AAo@ 0044365c     libcpmt:winapinls.obj
 0002:0000466c       ??_C@_1O@CLEPOGCA@?$AAs?$AAm?$AAj?$AA?9?$AAs?$AAe@ 0044366c     libcpmt:winapinls.obj
 0002:0000467c       ??_C@_1O@DLGJGKMK@?$AAs?$AAm?$AAn?$AA?9?$AAf?$AAi@ 0044367c     libcpmt:winapinls.obj
 0002:0000468c       ??_C@_1O@OJDJGAJC@?$AAs?$AAm?$AAs?$AA?9?$AAf?$AAi@ 0044368c     libcpmt:winapinls.obj
 0002:0000469c       ??_C@_1M@BOFOGHPB@?$AAs?$AAq?$AA?9?$AAa?$AAl@ 0044369c     libcpmt:winapinls.obj
 0002:000046a8       ??_C@_1BG@LJBBIPGB@?$AAs?$AAr?$AA?9?$AAb?$AAa?$AA?9?$AAc?$AAy?$AAr?$AAl@ 004436a8     libcpmt:winapinls.obj
 0002:000046c0       ??_C@_1BG@JLBENFOE@?$AAs?$AAr?$AA?9?$AAb?$AAa?$AA?9?$AAl?$AAa?$AAt?$AAn@ 004436c0     libcpmt:winapinls.obj
 0002:000046d8       ??_C@_1BG@KODPNHE@?$AAs?$AAr?$AA?9?$AAs?$AAp?$AA?9?$AAc?$AAy?$AAr?$AAl@ 004436d8     libcpmt:winapinls.obj
 0002:000046f0       ??_C@_1BG@CIOGKHPB@?$AAs?$AAr?$AA?9?$AAs?$AAp?$AA?9?$AAl?$AAa?$AAt?$AAn@ 004436f0     libcpmt:winapinls.obj
 0002:00004708       ??_C@_1M@NGFJLMAC@?$AAs?$AAv?$AA?9?$AAf?$AAi@ 00443708     libcpmt:winapinls.obj
 0002:00004714       ??_C@_1M@MPJEJAJC@?$AAs?$AAv?$AA?9?$AAs?$AAe@ 00443714     libcpmt:winapinls.obj
 0002:00004720       ??_C@_1M@MPNDHLFK@?$AAs?$AAw?$AA?9?$AAk?$AAe@ 00443720     libcpmt:winapinls.obj
 0002:0000472c       ??_C@_1O@KOHBJJI@?$AAs?$AAy?$AAr?$AA?9?$AAs?$AAy@ 0044372c     libcpmt:winapinls.obj
 0002:0000473c       ??_C@_1M@LDCEFHA@?$AAt?$AAa?$AA?9?$AAi?$AAn@ 0044373c     libcpmt:winapinls.obj
 0002:00004748       ??_C@_1M@CNJOFAK@?$AAt?$AAe?$AA?9?$AAi?$AAn@ 00443748     libcpmt:winapinls.obj
 0002:00004754       ??_C@_1M@GNAECACD@?$AAt?$AAh?$AA?9?$AAt?$AAh@ 00443754     libcpmt:winapinls.obj
 0002:00004760       ??_C@_1M@CHBIHOJO@?$AAt?$AAn?$AA?9?$AAz?$AAa@ 00443760     libcpmt:winapinls.obj
 0002:0000476c       ??_C@_1M@GCCMIGPJ@?$AAt?$AAr?$AA?9?$AAt?$AAr@ 0044376c     libcpmt:winapinls.obj
 0002:00004778       ??_C@_1M@CELMCNBK@?$AAt?$AAt?$AA?9?$AAr?$AAu@ 00443778     libcpmt:winapinls.obj
 0002:00004784       ??_C@_1M@KLMCELGA@?$AAu?$AAk?$AA?9?$AAu?$AAa@ 00443784     libcpmt:winapinls.obj
 0002:00004790       ??_C@_1M@EPAJJAJF@?$AAu?$AAr?$AA?9?$AAp?$AAk@ 00443790     libcpmt:winapinls.obj
 0002:0000479c       ??_C@_1BG@GEGPMCDJ@?$AAu?$AAz?$AA?9?$AAu?$AAz?$AA?9?$AAc?$AAy?$AAr?$AAl@ 0044379c     libcpmt:winapinls.obj
 0002:000047b4       ??_C@_1BG@EGGKJILM@?$AAu?$AAz?$AA?9?$AAu?$AAz?$AA?9?$AAl?$AAa?$AAt?$AAn@ 004437b4     libcpmt:winapinls.obj
 0002:000047cc       ??_C@_1M@GFOCLFF@?$AAv?$AAi?$AA?9?$AAv?$AAn@ 004437cc     libcpmt:winapinls.obj
 0002:000047d8       ??_C@_1M@CPAMEDFI@?$AAx?$AAh?$AA?9?$AAz?$AAa@ 004437d8     libcpmt:winapinls.obj
 0002:000047e4       ??_C@_1O@EBKIFIGN@?$AAz?$AAh?$AA?9?$AAc?$AAh?$AAs@ 004437e4     libcpmt:winapinls.obj
 0002:000047f4       ??_C@_1O@NMHPGANE@?$AAz?$AAh?$AA?9?$AAc?$AAh?$AAt@ 004437f4     libcpmt:winapinls.obj
 0002:00004804       ??_C@_1M@LPINJOMC@?$AAz?$AAh?$AA?9?$AAc?$AAn@ 00443804     libcpmt:winapinls.obj
 0002:00004810       ??_C@_1M@OCJEJODD@?$AAz?$AAh?$AA?9?$AAh?$AAk@ 00443810     libcpmt:winapinls.obj
 0002:0000481c       ??_C@_1M@DNDLJINH@?$AAz?$AAh?$AA?9?$AAm?$AAo@ 0044381c     libcpmt:winapinls.obj
 0002:00004828       ??_C@_1M@MBFDNDND@?$AAz?$AAh?$AA?9?$AAs?$AAg@ 00443828     libcpmt:winapinls.obj
 0002:00004834       ??_C@_1M@IMEPLEPE@?$AAz?$AAh?$AA?9?$AAt?$AAw@ 00443834     libcpmt:winapinls.obj
 0002:00004840       ??_C@_1M@BBGHNHJP@?$AAz?$AAu?$AA?9?$AAz?$AAa@ 00443840     libcpmt:winapinls.obj
 0002:0000484c       ??_C@_13IMODFHAA@?$AA?9@   0044384c     libcpmt:wlocale.obj
 0002:00004850       ??_C@_01JOAMLHOP@?9@       00443850     libcpmt:wlocale.obj
 0002:000048f8       ??_C@_1EC@JIJBPKFM@?$AAa?$AAp?$AAi?$AA?9?$AAm?$AAs?$AA?9?$AAw?$AAi?$AAn?$AA?9?$AAc?$AAo?$AAr?$AAe@ 004438f8     LIBCMT:thread_safe_statics.obj
 0002:00004940       ??_7type_info@@6B@         00443940     LIBCMT:std_type_info_static.obj
 0002:00004950       ??_7bad_array_new_length@std@@6B@ 00443950     LIBCMT:throw_bad_alloc.obj
 0002:00004958       ??_C@_0BF@KINCDENJ@bad?5array?5new?5length@ 00443958     LIBCMT:throw_bad_alloc.obj
 0002:00004970       __pDestructExceptionObject 00443970     libvcruntime:ehhelpers.obj
 0002:00004998       ??_7bad_exception@std@@6B@ 00443998     libvcruntime:frame.obj
 0002:000049a0       ??_C@_0O@DPKOEFFH@bad?5exception@ 004439a0     libvcruntime:frame.obj
 0002:000049bc       ??_C@_1DM@KHCHBNEB@?$AAa?$AAp?$AAi?$AA?9?$AAm?$AAs?$AA?9?$AAw?$AAi?$AAn?$AA?9?$AAc?$AAo?$AAr?$AAe@ 004439bc     libvcruntime:winapi_downlevel.obj
 0002:000049f8       ??_C@_1DK@LPPGFMPP@?$AAa?$AAp?$AAi?$AA?9?$AAm?$AAs?$AA?9?$AAw?$AAi?$AAn?$AA?9?$AAc?$AAo?$AAr?$AAe@ 004439f8     libvcruntime:winapi_downlevel.obj
 0002:00004a34       ??_C@_1BC@GDMECMAK@?$AAk?$AAe?$AAr?$AAn?$AAe?$AAl?$AA3?$AA2@ 00443a34     libvcruntime:winapi_downlevel.obj
 0002:00004a48       ??_C@_1BA@PFFKHIOG@?$AAa?$AAp?$AAi?$AA?9?$AAm?$AAs?$AA?9@ 00443a48     libvcruntime:winapi_downlevel.obj
 0002:00004a58       ??_C@_1BA@IAIFMGEF@?$AAe?$AAx?$AAt?$AA?9?$AAm?$AAs?$AA?9@ 00443a58     libvcruntime:winapi_downlevel.obj
 0002:00004c2c       ??_C@_08EHJDFFNH@__based?$CI@ 00443c2c     libvcruntime:undname.obj
 0002:00004c38       ??_C@_07KOLFKCDI@__cdecl@  00443c38     libvcruntime:undname.obj
 0002:00004c40       ??_C@_08GHMPAG@__pascal@   00443c40     libvcruntime:undname.obj
 0002:00004c4c       ??_C@_09IFJBGAPI@__stdcall@ 00443c4c     libvcruntime:undname.obj
 0002:00004c58       ??_C@_0L@NPHFGOKO@__thiscall@ 00443c58     libvcruntime:undname.obj
 0002:00004c64       ??_C@_0L@JMKHOMEK@__fastcall@ 00443c64     libvcruntime:undname.obj
 0002:00004c70       ??_C@_0N@BCKKPABJ@__vectorcall@ 00443c70     libvcruntime:undname.obj
 0002:00004c80       ??_C@_09HIJEGCPM@__clrcall@ 00443c80     libvcruntime:undname.obj
 0002:00004c8c       ??_C@_06GHPCKEAG@__eabi@   00443c8c     libvcruntime:undname.obj
 0002:00004c94       ??_C@_09IOPIDJLG@__swift_1@ 00443c94     libvcruntime:undname.obj
 0002:00004ca0       ??_C@_09KFNFGKHF@__swift_2@ 00443ca0     libvcruntime:undname.obj
 0002:00004cac       ??_C@_07JOMMBBKO@__ptr64@  00443cac     libvcruntime:undname.obj
 0002:00004cb4       ??_C@_0L@PILCLIHE@__restrict@ 00443cb4     libvcruntime:undname.obj
 0002:00004cc0       ??_C@_0M@GFIIJFMG@__unaligned@ 00443cc0     libvcruntime:undname.obj
 0002:00004ccc       ??_C@_09DHDLOLLB@restrict?$CI@ 00443ccc     libvcruntime:undname.obj
 0002:00004cd8       ??_C@_04NIHEBCM@?5new@     00443cd8     libvcruntime:undname.obj
 0002:00004ce0       ??_C@_07FPCDHGMM@?5delete@ 00443ce0     libvcruntime:undname.obj
 0002:00004ce8       ??_C@_01NEMOKFLO@?$DN@     00443ce8     libvcruntime:undname.obj
 0002:00004cec       ??_C@_02GPIOPFAK@?$DO?$DO@ 00443cec     libvcruntime:undname.obj
 0002:00004cf0       ??_C@_02FODMEDOG@?$DM?$DM@ 00443cf0     libvcruntime:undname.obj
 0002:00004cf4       ??_C@_01DCLJPIOD@?$CB@     00443cf4     libvcruntime:undname.obj
 0002:00004cf8       ??_C@_02EGOFBIJA@?$DN?$DN@ 00443cf8     libvcruntime:undname.obj
 0002:00004cfc       ??_C@_02FDNJECIE@?$CB?$DN@ 00443cfc     libvcruntime:undname.obj
 0002:00004d00       ??_C@_02GPECMEKF@?$FL?$FN@ 00443d00     libvcruntime:undname.obj
 0002:00004d04       ??_C@_08LHJFAFGD@operator@ 00443d04     libvcruntime:undname.obj
 0002:00004d10       ??_C@_02HBOOOICD@?9?$DO@   00443d10     libvcruntime:undname.obj
 0002:00004d14       ??_C@_02ECNGHCIF@?$CL?$CL@ 00443d14     libvcruntime:undname.obj
 0002:00004d18       ??_C@_01MIFGBAGJ@?$CL@     00443d18     libvcruntime:undname.obj
 0002:00004d1c       ??_C@_01HNPIGOCE@?$CG@     00443d1c     libvcruntime:undname.obj
 0002:00004d20       ??_C@_03MNHNFDLC@?9?$DO?$CK@ 00443d20     libvcruntime:undname.obj
 0002:00004d24       ??_C@_01KMDKNFGN@?1@       00443d24     libvcruntime:undname.obj
 0002:00004d28       ??_C@_01FGNFDNOH@?$CF@     00443d28     libvcruntime:undname.obj
 0002:00004d2c       ??_C@_01MNNFJEPP@?$DM@     00443d2c     libvcruntime:undname.obj
 0002:00004d30       ??_C@_02EHCHHCKH@?$DM?$DN@ 00443d30     libvcruntime:undname.obj
 0002:00004d34       ??_C@_01PPODPGHN@?$DO@     00443d34     libvcruntime:undname.obj
 0002:00004d38       ??_C@_02EEKDKGMJ@?$DO?$DN@ 00443d38     libvcruntime:undname.obj
 0002:00004d3c       ??_C@_01IHBHIGKO@?0@       00443d3c     libvcruntime:undname.obj
 0002:00004d40       ??_C@_02HCKGKOFO@?$CI?$CJ@ 00443d40     libvcruntime:undname.obj
 0002:00004d44       ??_C@_01PJKLJHI@?$HO@      00443d44     libvcruntime:undname.obj
 0002:00004d48       ??_C@_01JKBOJNNK@?$FO@     00443d48     libvcruntime:undname.obj
 0002:00004d4c       ??_C@_01DNKMNLPK@?$HM@     00443d4c     libvcruntime:undname.obj
 0002:00004d50       ??_C@_02PPKAJPJL@?$CG?$CG@ 00443d50     libvcruntime:undname.obj
 0002:00004d54       ??_C@_02NONPIBCD@?$HM?$HM@ 00443d54     libvcruntime:undname.obj
 0002:00004d58       ??_C@_02FPIMKNGF@?$CK?$DN@ 00443d58     libvcruntime:undname.obj
 0002:00004d5c       ??_C@_02FOEOMHFC@?$CL?$DN@ 00443d5c     libvcruntime:undname.obj
 0002:00004d60       ??_C@_02FKMDLLOA@?9?$DN@   00443d60     libvcruntime:undname.obj
 0002:00004d64       ??_C@_02FJEHGPIO@?1?$DN@   00443d64     libvcruntime:undname.obj
 0002:00004d68       ??_C@_02FENAOKFI@?$CF?$DN@ 00443d68     libvcruntime:undname.obj
 0002:00004d6c       ??_C@_03IKFCCPFF@?$DO?$DO?$DN@ 00443d6c     libvcruntime:undname.obj
 0002:00004d70       ??_C@_03CDNPDDLA@?$DM?$DM?$DN@ 00443d70     libvcruntime:undname.obj
 0002:00004d74       ??_C@_02FGJGFEAB@?$CG?$DN@ 00443d74     libvcruntime:undname.obj
 0002:00004d78       ??_C@_02DHLNPPGH@?$HM?$DN@ 00443d78     libvcruntime:undname.obj
 0002:00004d7c       ??_C@_02MHEGNOJ@?$FO?$DN@  00443d7c     libvcruntime:undname.obj
 0002:00004d80       ??_C@_09IFPLHPGF@?$GAvftable?8@ 00443d80     libvcruntime:undname.obj
 0002:00004d8c       ??_C@_09BLBHBJP@?$GAvbtable?8@ 00443d8c     libvcruntime:undname.obj
 0002:00004d98       ??_C@_07FEEIOKP@?$GAvcall?8@ 00443d98     libvcruntime:undname.obj
 0002:00004da0       ??_C@_08LLFFHHDJ@?$GAtypeof?8@ 00443da0     libvcruntime:undname.obj
 0002:00004dac       ??_C@_0BF@KDPPACIK@?$GAlocal?5static?5guard?8@ 00443dac     libvcruntime:undname.obj
 0002:00004dc4       ??_C@_08OBABFOLI@?$GAstring?8@ 00443dc4     libvcruntime:undname.obj
 0002:00004dd0       ??_C@_0BD@JDLKDPAB@?$GAvbase?5destructor?8@ 00443dd0     libvcruntime:undname.obj
 0002:00004de4       ??_C@_0BN@DEGPLNFK@?$GAvector?5deleting?5destructor?8@ 00443de4     libvcruntime:undname.obj
 0002:00004e04       ??_C@_0BO@OBMKPJIG@?$GAdefault?5constructor?5closure?8@ 00443e04     libvcruntime:undname.obj
 0002:00004e24       ??_C@_0BN@IMDCHIKM@?$GAscalar?5deleting?5destructor?8@ 00443e24     libvcruntime:undname.obj
 0002:00004e44       ??_C@_0BO@PFGOCPJJ@?$GAvector?5constructor?5iterator?8@ 00443e44     libvcruntime:undname.obj
 0002:00004e64       ??_C@_0BN@LFPFMEDL@?$GAvector?5destructor?5iterator?8@ 00443e64     libvcruntime:undname.obj
 0002:00004e84       ??_C@_0CE@IKBNEHA@?$GAvector?5vbase?5constructor?5itera@ 00443e84     libvcruntime:undname.obj
 0002:00004ea8       ??_C@_0BL@NILFHHPC@?$GAvirtual?5displacement?5map?8@ 00443ea8     libvcruntime:undname.obj
 0002:00004ec4       ??_C@_0CB@JONCMFFK@?$GAeh?5vector?5constructor?5iterator@ 00443ec4     libvcruntime:undname.obj
 0002:00004ee8       ??_C@_0CA@GCEOPDGL@?$GAeh?5vector?5destructor?5iterator?8@ 00443ee8     libvcruntime:undname.obj
 0002:00004f08       ??_C@_0CH@OOJPLCPH@?$GAeh?5vector?5vbase?5constructor?5it@ 00443f08     libvcruntime:undname.obj
 0002:00004f30       ??_C@_0BL@LLKPOHJI@?$GAcopy?5constructor?5closure?8@ 00443f30     libvcruntime:undname.obj
 0002:00004f4c       ??_C@_0BA@KBCDOMBN@?$GAudt?5returning?8@ 00443f4c     libvcruntime:undname.obj
 0002:00004f5c       ??_C@_03KLGMFNMG@?$GAEH@   00443f5c     libvcruntime:undname.obj
 0002:00004f60       ??_C@_05KHLCHHI@?$GARTTI@  00443f60     libvcruntime:undname.obj
 0002:00004f68       ??_C@_0BA@KKLDJDLB@?$GAlocal?5vftable?8@ 00443f68     libvcruntime:undname.obj
 0002:00004f78       ??_C@_0CE@IIHCMGGL@?$GAlocal?5vftable?5constructor?5clos@ 00443f78     libvcruntime:undname.obj
 0002:00004f9c       ??_C@_06FHBGPFGH@?5new?$FL?$FN@ 00443f9c     libvcruntime:undname.obj
 0002:00004fa4       ??_C@_09LBNFPBCA@?5delete?$FL?$FN@ 00443fa4     libvcruntime:undname.obj
 0002:00004fb0       ??_C@_0P@HJKNJFNN@?$GAomni?5callsig?8@ 00443fb0     libvcruntime:undname.obj
 0002:00004fc0       ??_C@_0BL@CNOONJFP@?$GAplacement?5delete?5closure?8@ 00443fc0     libvcruntime:undname.obj
 0002:00004fdc       ??_C@_0BN@CKNJLHMB@?$GAplacement?5delete?$FL?$FN?5closure?8@ 00443fdc     libvcruntime:undname.obj
 0002:00004ffc       ??_C@_0CG@CFDHKGGD@?$GAmanaged?5vector?5constructor?5ite@ 00443ffc     libvcruntime:undname.obj
 0002:00005024       ??_C@_0CF@IMGKMJNO@?$GAmanaged?5vector?5destructor?5iter@ 00444024     libvcruntime:undname.obj
 0002:0000504c       ??_C@_0CG@HLDDJMAG@?$GAeh?5vector?5copy?5constructor?5ite@ 0044404c     libvcruntime:undname.obj
 0002:00005074       ??_C@_0CM@FCBBDIGB@?$GAeh?5vector?5vbase?5copy?5construct@ 00444074     libvcruntime:undname.obj
 0002:000050a0       ??_C@_0BL@CLIPGLGB@?$GAdynamic?5initializer?5for?5?8@ 004440a0     libvcruntime:undname.obj
 0002:000050bc       ??_C@_0CB@PDBIFEP@?$GAdynamic?5atexit?5destructor?5for?5@ 004440bc     libvcruntime:undname.obj
 0002:000050e0       ??_C@_0CD@CGAJBKEJ@?$GAvector?5copy?5constructor?5iterat@ 004440e0     libvcruntime:undname.obj
 0002:00005104       ??_C@_0CJ@GJELGAMM@?$GAvector?5vbase?5copy?5constructor?5@ 00444104     libvcruntime:undname.obj
 0002:00005130       ??_C@_0CL@FGIJHLCE@?$GAmanaged?5vector?5copy?5constructo@ 00444130     libvcruntime:undname.obj
 0002:0000515c       ??_C@_0BM@PMGGMLDN@?$GAlocal?5static?5thread?5guard?8@ 0044415c     libvcruntime:undname.obj
 0002:00005178       ??_C@_0N@BDNMDMOL@operator?5?$CC?$CC?5@ 00444178     libvcruntime:undname.obj
 0002:00005188       ??_C@_0BC@GGEBGALA@operator?5co_await@ 00444188     libvcruntime:undname.obj
 0002:0000519c       ??_C@_0BC@DAFEJGAK@?5Type?5Descriptor?8@ 0044419c     libvcruntime:undname.obj
 0002:000051b0       ??_C@_0BM@LDKODKLH@?5Base?5Class?5Descriptor?5at?5?$CI@ 004441b0     libvcruntime:undname.obj
 0002:000051cc       ??_C@_0BD@LGICGFMM@?5Base?5Class?5Array?8@ 004441cc     libvcruntime:undname.obj
 0002:000051e0       ??_C@_0BN@MECKDCOJ@?5Class?5Hierarchy?5Descriptor?8@ 004441e0     libvcruntime:undname.obj
 0002:00005200       ??_C@_0BK@CFCOFLF@?5Complete?5Object?5Locator?8@ 00444200     libvcruntime:undname.obj
 0002:00005388       ?standard_lookup_table_spectre@__crt_stdio_output@@3V?$spectre_mitigated_lookup_table@Ustate_transition_pair@__crt_stdio_output@@$0IA@@1@B 00444388     libucrt:output.obj
 0002:00005488       ?format_validation_lookup_table_spectre@__crt_stdio_output@@3V?$spectre_mitigated_lookup_table@Ustate_transition_pair@__crt_stdio_output@@$0IA@@1@B 00444488     libucrt:output.obj
 0002:00005588       ??_C@_1O@CEDCILHN@?$AA?$CI?$AAn?$AAu?$AAl?$AAl?$AA?$CJ@ 00444588     libucrt:output.obj
 0002:00005598       ??_C@_06OJHGLDPL@?$CInull?$CJ@ 00444598     libucrt:output.obj
 0002:000055a0       __real@3ff0000000000000    004445a0     libucrt:frexp.obj
 0002:000055a8       ___newctype                004445a8     libucrt:ctype.obj
 0002:000058a8       ___newclmap                004448a8     libucrt:ctype.obj
 0002:00005a28       ___newcumap                00444a28     libucrt:ctype.obj
 0002:00005ba8       __wctype                   00444ba8     libucrt:ctype.obj
 0002:00005db0       ?large_power_data@?1??multiply_by_power_of_ten@__crt_strtox@@YA_NAAUbig_integer@2@I@Z@4QBIB 00444db0     libucrt:strtod.obj
 0002:000066b8       ?large_power_indices@?1??multiply_by_power_of_ten@__crt_strtox@@YA_NAAUbig_integer@2@I@Z@4QBUunpack_index@?1??12@YA_N0I@Z@B 004456b8     libucrt:strtod.obj
 0002:00006750       ?small_powers_of_ten@?1??multiply_by_power_of_ten@__crt_strtox@@YA_NAAUbig_integer@2@I@Z@4QBIB 00445750     libucrt:strtod.obj
 0002:00006784       __half                     00445784     libucrt:pow_impl.obj
 0002:0000678c       ??_C@_1M@PBPMMENC@?$AAa?$AAm?$AA?1?$AAp?$AAm@ 0044578c     libucrt:wcsftime.obj
 0002:00006798       ??_C@_17BLFJJHMM@?$AAa?$AA?1?$AAp@ 00445798     libucrt:wcsftime.obj
 0002:000067a0       ??_C@_13HOIJIPNN@?$AA?5@   004457a0     libucrt:wcsftime.obj
 0002:000067a4       ??_C@_13CGOKJPIL@?$AA?1@   004457a4     libucrt:wcsftime.obj
 0002:000067a8       ??_C@_13LBAGMAIH@?$AA?6@   004457a8     libucrt:wcsftime.obj
 0002:000067ac       ??_C@_13EBCNDICG@?$AA?3@   004457ac     libucrt:wcsftime.obj
 0002:000067b0       ??_C@_13KDLDGPGJ@?$AA?7@   004457b0     libucrt:wcsftime.obj
 0002:000067b4       ??_C@_13KJIIAINM@?$AA?$CL@ 004457b4     libucrt:wcsftime.obj
 0002:000067b8       ??_C@_13EJFHHPOP@?$AA?$CF@ 004457b8     libucrt:wcsftime.obj
 0002:000067c0       ___acrt_exception_action_table 004457c0     libucrt:exception_filter.obj
 0002:00006850       ___acrt_signal_action_table_count 00445850     libucrt:exception_filter.obj
 0002:00006854       ___acrt_signal_action_first_fpe_index 00445854     libucrt:exception_filter.obj
 0002:00006858       ___acrt_signal_action_fpe_count 00445858     libucrt:exception_filter.obj
 0002:0000685c       ??_C@_1BI@BGOHAHKC@?$AAm?$AAs?$AAc?$AAo?$AAr?$AAe?$AAe?$AA?4?$AAd?$AAl?$AAl@ 0044585c     libucrt:exit.obj
 0002:00006874       ??_C@_0P@MIGLKIOC@CorExitProcess@ 00445874     libucrt:exit.obj
 0002:00006988       ___lc_category             00445988     libucrt:wsetlocale.obj
 0002:000069d0       ??_C@_1O@GIFLHMA@?$AAL?$AAC?$AA_?$AAA?$AAL?$AAL@ 004459d0     libucrt:wsetlocale.obj
 0002:000069e0       ??_C@_1BG@PPOMIBNJ@?$AAL?$AAC?$AA_?$AAC?$AAO?$AAL?$AAL?$AAA?$AAT?$AAE@ 004459e0     libucrt:wsetlocale.obj
 0002:000069f8       ??_C@_1BC@FFJGAPJM@?$AAL?$AAC?$AA_?$AAC?$AAT?$AAY?$AAP?$AAE@ 004459f8     libucrt:wsetlocale.obj
 0002:00006a0c       ??_C@_1BI@PCKFNJFB@?$AAL?$AAC?$AA_?$AAM?$AAO?$AAN?$AAE?$AAT?$AAA?$AAR?$AAY@ 00445a0c     libucrt:wsetlocale.obj
 0002:00006a24       ??_C@_1BG@ENIEDKID@?$AAL?$AAC?$AA_?$AAN?$AAU?$AAM?$AAE?$AAR?$AAI?$AAC@ 00445a24     libucrt:wsetlocale.obj
 0002:00006a3c       ??_C@_1BA@HAAOMIIG@?$AAL?$AAC?$AA_?$AAT?$AAI?$AAM?$AAE@ 00445a3c     libucrt:wsetlocale.obj
 0002:00006a4c       ??_C@_15NBPDDFIP@?$AA?$DN?$AA?$DL@ 00445a4c     libucrt:wsetlocale.obj
 0002:00006a54       ??_C@_13PJJBFPED@?$AA?$DL@ 00445a54     libucrt:wsetlocale.obj
 0002:00006a58       ??_C@_13NMPKAAJP@?$AA?$DN@ 00445a58     libucrt:wsetlocale.obj
 0002:00006a5c       ??_C@_17EFJLDFDO@?$AA?9?$AA_?$AA?4@ 00445a5c     libucrt:wsetlocale.obj
 0002:00006a64       ??_C@_13FHBKNHDA@?$AAC@    00445a64     libucrt:wsetlocale.obj
 0002:00006a68       ??_C@_17MBJJLFDM@?$AA_?$AA?4?$AA?0@ 00445a68     libucrt:wsetlocale.obj
 0002:00006a70       ??_C@_13ENNFDPBH@?$AA_@    00445a70     libucrt:wsetlocale.obj
 0002:00006a74       ??_C@_13JOFGPIOO@?$AA?4@   00445a74     libucrt:wsetlocale.obj
 0002:00006a78       ___lc_time_c               00445a78     libucrt:nlsdata.obj
 0002:00006bdc       ??_C@_03KOEHGMDN@Sun@      00445bdc     libucrt:nlsdata.obj
 0002:00006be0       ??_C@_03PDAGKDH@Mon@       00445be0     libucrt:nlsdata.obj
 0002:00006be4       ??_C@_03NAGEINEP@Tue@      00445be4     libucrt:nlsdata.obj
 0002:00006be8       ??_C@_03MHOMLAJA@Wed@      00445be8     libucrt:nlsdata.obj
 0002:00006bec       ??_C@_03IOFIKPDN@Thu@      00445bec     libucrt:nlsdata.obj
 0002:00006bf0       ??_C@_03IDIOELNC@Fri@      00445bf0     libucrt:nlsdata.obj
 0002:00006bf4       ??_C@_03FEFJNEK@Sat@       00445bf4     libucrt:nlsdata.obj
 0002:00006bf8       ??_C@_06OOPIFAJ@Sunday@    00445bf8     libucrt:nlsdata.obj
 0002:00006c00       ??_C@_06JLEDEDGH@Monday@   00445c00     libucrt:nlsdata.obj
 0002:00006c08       ??_C@_07BAAGCFCM@Tuesday@  00445c08     libucrt:nlsdata.obj
 0002:00006c10       ??_C@_09DLIGFAKA@Wednesday@ 00445c10     libucrt:nlsdata.obj
 0002:00006c1c       ??_C@_08HACCIKIA@Thursday@ 00445c1c     libucrt:nlsdata.obj
 0002:00006c28       ??_C@_06JECMNKMI@Friday@   00445c28     libucrt:nlsdata.obj
 0002:00006c30       ??_C@_08INBOOONO@Saturday@ 00445c30     libucrt:nlsdata.obj
 0002:00006c3c       ??_C@_03JIHJHPIE@Jan@      00445c3c     libucrt:nlsdata.obj
 0002:00006c40       ??_C@_03HJBDCHOM@Feb@      00445c40     libucrt:nlsdata.obj
 0002:00006c44       ??_C@_03ODNJBKGA@Mar@      00445c44     libucrt:nlsdata.obj
 0002:00006c48       ??_C@_03LEOLGMJP@Apr@      00445c48     libucrt:nlsdata.obj
 0002:00006c4c       ??_C@_03CNMDKL@May@        00445c4c     libucrt:nlsdata.obj
 0002:00006c50       ??_C@_03IDFGHECI@Jun@      00445c50     libucrt:nlsdata.obj
 0002:00006c54       ??_C@_03LBGABGKK@Jul@      00445c54     libucrt:nlsdata.obj
 0002:00006c58       ??_C@_03IFJFEIGA@Aug@      00445c58     libucrt:nlsdata.obj
 0002:00006c5c       ??_C@_03GGCAPAJC@Sep@      00445c5c     libucrt:nlsdata.obj
 0002:00006c60       ??_C@_03BMAOKBAD@Oct@      00445c60     libucrt:nlsdata.obj
 0002:00006c64       ??_C@_03JPJOFNIA@Nov@      00445c64     libucrt:nlsdata.obj
 0002:00006c68       ??_C@_03MKABNOCG@Dec@      00445c68     libucrt:nlsdata.obj
 0002:00006c6c       ??_C@_07CGJPFGJA@January@  00445c6c     libucrt:nlsdata.obj
 0002:00006c74       ??_C@_08GNJGEPFN@February@ 00445c74     libucrt:nlsdata.obj
 0002:00006c80       ??_C@_05HPCKOFNC@March@    00445c80     libucrt:nlsdata.obj
 0002:00006c88       ??_C@_05DMJDNLEJ@April@    00445c88     libucrt:nlsdata.obj
 0002:00006c90       ??_C@_04CNLMGBGM@June@     00445c90     libucrt:nlsdata.obj
 0002:00006c98       ??_C@_04MIEPOIFP@July@     00445c98     libucrt:nlsdata.obj
 0002:00006ca0       ??_C@_06LBBHFDDG@August@   00445ca0     libucrt:nlsdata.obj
 0002:00006ca8       ??_C@_09BHHEALKD@September@ 00445ca8     libucrt:nlsdata.obj
 0002:00006cb4       ??_C@_07JJNFCEND@October@  00445cb4     libucrt:nlsdata.obj
 0002:00006cbc       ??_C@_08HCHEGEOA@November@ 00445cbc     libucrt:nlsdata.obj
 0002:00006cc8       ??_C@_08EDHMEBNP@December@ 00445cc8     libucrt:nlsdata.obj
 0002:00006cd4       ??_C@_02DEDBPAFC@AM@       00445cd4     libucrt:nlsdata.obj
 0002:00006cd8       ??_C@_02CJNFDJBF@PM@       00445cd8     libucrt:nlsdata.obj
 0002:00006cdc       ??_C@_08BPBNCDIB@MM?1dd?1yy@ 00445cdc     libucrt:nlsdata.obj
 0002:00006ce8       ??_C@_0BE@CKGJFCPC@dddd?0?5MMMM?5dd?0?5yyyy@ 00445ce8     libucrt:nlsdata.obj
 0002:00006cfc       ??_C@_08JCCMCCIL@HH?3mm?3ss@ 00445cfc     libucrt:nlsdata.obj
 0002:00006d08       ??_C@_17MBGCMIPB@?$AAS?$AAu?$AAn@ 00445d08     libucrt:nlsdata.obj
 0002:00006d10       ??_C@_17KBOMKBF@?$AAM?$AAo?$AAn@ 00445d10     libucrt:nlsdata.obj
 0002:00006d18       ??_C@_17BMKGEGOJ@?$AAT?$AAu?$AAe@ 00445d18     libucrt:nlsdata.obj
 0002:00006d20       ??_C@_17CJEDCEPE@?$AAW?$AAe?$AAd@ 00445d20     libucrt:nlsdata.obj
 0002:00006d28       ??_C@_17PDPHAADD@?$AAT?$AAh?$AAu@ 00445d28     libucrt:nlsdata.obj
 0002:00006d30       ??_C@_17HFOLPPLP@?$AAF?$AAr?$AAi@ 00445d30     libucrt:nlsdata.obj
 0002:00006d38       ??_C@_17GGIBDPIH@?$AAS?$AAa?$AAt@ 00445d38     libucrt:nlsdata.obj
 0002:00006d40       ??_C@_1O@IHNHDHPB@?$AAS?$AAu?$AAn?$AAd?$AAa?$AAy@ 00445d40     libucrt:nlsdata.obj
 0002:00006d50       ??_C@_1O@MMNBFLIA@?$AAM?$AAo?$AAn?$AAd?$AAa?$AAy@ 00445d50     libucrt:nlsdata.obj
 0002:00006d60       ??_C@_1BA@ENFBFFEK@?$AAT?$AAu?$AAe?$AAs?$AAd?$AAa?$AAy@ 00445d60     libucrt:nlsdata.obj
 0002:00006d70       ??_C@_1BE@EBOGMDOH@?$AAW?$AAe?$AAd?$AAn?$AAe?$AAs?$AAd?$AAa?$AAy@ 00445d70     libucrt:nlsdata.obj
 0002:00006d84       ??_C@_1BC@HHMNLIHE@?$AAT?$AAh?$AAu?$AAr?$AAs?$AAd?$AAa?$AAy@ 00445d84     libucrt:nlsdata.obj
 0002:00006d98       ??_C@_1O@PDICJHAG@?$AAF?$AAr?$AAi?$AAd?$AAa?$AAy@ 00445d98     libucrt:nlsdata.obj
 0002:00006da8       ??_C@_1BC@ENMNNPAJ@?$AAS?$AAa?$AAt?$AAu?$AAr?$AAd?$AAa?$AAy@ 00445da8     libucrt:nlsdata.obj
 0002:00006dbc       ??_C@_17DKNBKCHM@?$AAJ?$AAa?$AAn@ 00445dbc     libucrt:nlsdata.obj
 0002:00006dc4       ??_C@_17LMDJEKJN@?$AAF?$AAe?$AAb@ 00445dc4     libucrt:nlsdata.obj
 0002:00006dcc       ??_C@_17CKNLEDEC@?$AAM?$AAa?$AAr@ 00445dcc     libucrt:nlsdata.obj
 0002:00006dd4       ??_C@_17LFPOIHDD@?$AAA?$AAp?$AAr@ 00445dd4     libucrt:nlsdata.obj
 0002:00006ddc       ??_C@_17PNNKMEED@?$AAM?$AAa?$AAy@ 00445ddc     libucrt:nlsdata.obj
 0002:00006de4       ??_C@_17KCJGOCPB@?$AAJ?$AAu?$AAn@ 00445de4     libucrt:nlsdata.obj
 0002:00006dec       ??_C@_17IJPCKHK@?$AAJ?$AAu?$AAl@ 00445dec     libucrt:nlsdata.obj
 0002:00006df4       ??_C@_17ICPELBCN@?$AAA?$AAu?$AAg@ 00445df4     libucrt:nlsdata.obj
 0002:00006dfc       ??_C@_17HCHCOKMG@?$AAS?$AAe?$AAp@ 00445dfc     libucrt:nlsdata.obj
 0002:00006e04       ??_C@_17FNLKOI@?$AAO?$AAc?$AAt@ 00445e04     libucrt:nlsdata.obj
 0002:00006e0c       ??_C@_17BBDMLCIG@?$AAN?$AAo?$AAv@ 00445e0c     libucrt:nlsdata.obj
 0002:00006e14       ??_C@_17EGKACKIF@?$AAD?$AAe?$AAc@ 00445e14     libucrt:nlsdata.obj
 0002:00006e1c       ??_C@_1BA@EFMEIEBA@?$AAJ?$AAa?$AAn?$AAu?$AAa?$AAr?$AAy@ 00445e1c     libucrt:nlsdata.obj
 0002:00006e2c       ??_C@_1BC@JGDDFFAM@?$AAF?$AAe?$AAb?$AAr?$AAu?$AAa?$AAr?$AAy@ 00445e2c     libucrt:nlsdata.obj
 0002:00006e40       ??_C@_1M@IKEENEDF@?$AAM?$AAa?$AAr?$AAc?$AAh@ 00445e40     libucrt:nlsdata.obj
 0002:00006e4c       ??_C@_1M@GJNLMHFD@?$AAA?$AAp?$AAr?$AAi?$AAl@ 00445e4c     libucrt:nlsdata.obj
 0002:00006e58       ??_C@_19EPFLPGAP@?$AAJ?$AAu?$AAn?$AAe@ 00445e58     libucrt:nlsdata.obj
 0002:00006e64       ??_C@_19BIFMLPCD@?$AAJ?$AAu?$AAl?$AAy@ 00445e64     libucrt:nlsdata.obj
 0002:00006e70       ??_C@_1O@PAHLKOAC@?$AAA?$AAu?$AAg?$AAu?$AAs?$AAt@ 00445e70     libucrt:nlsdata.obj
 0002:00006e80       ??_C@_1BE@DKAAMBJL@?$AAS?$AAe?$AAp?$AAt?$AAe?$AAm?$AAb?$AAe?$AAr@ 00445e80     libucrt:nlsdata.obj
 0002:00006e94       ??_C@_1BA@EPANDLNG@?$AAO?$AAc?$AAt?$AAo?$AAb?$AAe?$AAr@ 00445e94     libucrt:nlsdata.obj
 0002:00006ea4       ??_C@_1BC@BGLIFPF@?$AAN?$AAo?$AAv?$AAe?$AAm?$AAb?$AAe?$AAr@ 00445ea4     libucrt:nlsdata.obj
 0002:00006eb8       ??_C@_1BC@FEMKIFH@?$AAD?$AAe?$AAc?$AAe?$AAm?$AAb?$AAe?$AAr@ 00445eb8     libucrt:nlsdata.obj
 0002:00006ecc       ??_C@_15ODEHAHHF@?$AAA?$AAM@ 00445ecc     libucrt:nlsdata.obj
 0002:00006ed4       ??_C@_15CLMNNGEL@?$AAP?$AAM@ 00445ed4     libucrt:nlsdata.obj
 0002:00006edc       ??_C@_1BC@IEBCMHCM@?$AAM?$AAM?$AA?1?$AAd?$AAd?$AA?1?$AAy?$AAy@ 00445edc     libucrt:nlsdata.obj
 0002:00006ef0       ??_C@_1CI@KNAKOEBC@?$AAd?$AAd?$AAd?$AAd?$AA?0?$AA?5?$AAM?$AAM?$AAM?$AAM?$AA?5?$AAd?$AAd?$AA?0?$AA?5@ 00445ef0     libucrt:nlsdata.obj
 0002:00006f18       ??_C@_1BC@GDGBMEMK@?$AAH?$AAH?$AA?3?$AAm?$AAm?$AA?3?$AAs?$AAs@ 00445f18     libucrt:nlsdata.obj
 0002:00006f88       ??_C@_1EA@JGEFHKEI@?$AAa?$AAp?$AAi?$AA?9?$AAm?$AAs?$AA?9?$AAw?$AAi?$AAn?$AA?9?$AAc?$AAo?$AAr?$AAe@ 00445f88     libucrt:winapi_thunks.obj
 0002:00006fc8       ??_C@_1DI@KMEPCBPN@?$AAa?$AAp?$AAi?$AA?9?$AAm?$AAs?$AA?9?$AAw?$AAi?$AAn?$AA?9?$AAc?$AAo?$AAr?$AAe@ 00445fc8     libucrt:winapi_thunks.obj
 0002:00007000       ??_C@_1DI@IJCEHOCB@?$AAa?$AAp?$AAi?$AA?9?$AAm?$AAs?$AA?9?$AAw?$AAi?$AAn?$AA?9?$AAc?$AAo?$AAr?$AAe@ 00446000     libucrt:winapi_thunks.obj
 0002:00007038       ??_C@_1EI@MPIAOHOC@?$AAa?$AAp?$AAi?$AA?9?$AAm?$AAs?$AA?9?$AAw?$AAi?$AAn?$AA?9?$AAc?$AAo?$AAr?$AAe@ 00446038     libucrt:winapi_thunks.obj
 0002:00007080       ??_C@_1FK@FPHCKFIE@?$AAa?$AAp?$AAi?$AA?9?$AAm?$AAs?$AA?9?$AAw?$AAi?$AAn?$AA?9?$AAc?$AAo?$AAr?$AAe@ 00446080     libucrt:winapi_thunks.obj
 0002:000070e0       ??_C@_1EM@DILCGIIO@?$AAa?$AAp?$AAi?$AA?9?$AAm?$AAs?$AA?9?$AAw?$AAi?$AAn?$AA?9?$AAc?$AAo?$AAr?$AAe@ 004460e0     libucrt:winapi_thunks.obj
 0002:0000712c       ??_C@_1DM@LNCGDDPN@?$AAa?$AAp?$AAi?$AA?9?$AAm?$AAs?$AA?9?$AAw?$AAi?$AAn?$AA?9?$AAc?$AAo?$AAr?$AAe@ 0044612c     libucrt:winapi_thunks.obj
 0002:00007168       ??_C@_1DO@FPAPJEMD@?$AAa?$AAp?$AAi?$AA?9?$AAm?$AAs?$AA?9?$AAw?$AAi?$AAn?$AA?9?$AAc?$AAo?$AAr?$AAe@ 00446168     libucrt:winapi_thunks.obj
 0002:000071a8       ??_C@_1DK@NDHNAHIO@?$AAa?$AAp?$AAi?$AA?9?$AAm?$AAs?$AA?9?$AAw?$AAi?$AAn?$AA?9?$AAc?$AAo?$AAr?$AAe@ 004461a8     libucrt:winapi_thunks.obj
 0002:000071e4       ??_C@_1DM@KGHDGBCM@?$AAa?$AAp?$AAi?$AA?9?$AAm?$AAs?$AA?9?$AAw?$AAi?$AAn?$AA?9?$AAc?$AAo?$AAr?$AAe@ 004461e4     libucrt:winapi_thunks.obj
 0002:00007220       ??_C@_1EO@IJIOEFOH@?$AAa?$AAp?$AAi?$AA?9?$AAm?$AAs?$AA?9?$AAw?$AAi?$AAn?$AA?9?$AAr?$AAt?$AAc?$AAo@ 00446220     libucrt:winapi_thunks.obj
 0002:00007270       ??_C@_1FG@HHGEKANL@?$AAa?$AAp?$AAi?$AA?9?$AAm?$AAs?$AA?9?$AAw?$AAi?$AAn?$AA?9?$AAs?$AAe?$AAc?$AAu@ 00446270     libucrt:winapi_thunks.obj
 0002:000072c8       ??_C@_1EG@DBIOJECG@?$AAe?$AAx?$AAt?$AA?9?$AAm?$AAs?$AA?9?$AAw?$AAi?$AAn?$AA?9?$AAn?$AAt?$AAu?$AAs@ 004462c8     libucrt:winapi_thunks.obj
 0002:00007310       ??_C@_1EO@FIHMJCLF@?$AAe?$AAx?$AAt?$AA?9?$AAm?$AAs?$AA?9?$AAw?$AAi?$AAn?$AA?9?$AAn?$AAt?$AAu?$AAs@ 00446310     libucrt:winapi_thunks.obj
 0002:00007360       ??_C@_1BC@DNHGCMLG@?$AAa?$AAd?$AAv?$AAa?$AAp?$AAi?$AA3?$AA2@ 00446360     libucrt:winapi_thunks.obj
 0002:00007374       ??_C@_1BG@CJPGBMEF@?$AAk?$AAe?$AAr?$AAn?$AAe?$AAl?$AAb?$AAa?$AAs?$AAe@ 00446374     libucrt:winapi_thunks.obj
 0002:0000738c       ??_C@_1M@OAIMIKLP@?$AAn?$AAt?$AAd?$AAl?$AAl@ 0044638c     libucrt:winapi_thunks.obj
 0002:00007398       ??_C@_1EG@DPGNFKGC@?$AAa?$AAp?$AAi?$AA?9?$AAm?$AAs?$AA?9?$AAw?$AAi?$AAn?$AA?9?$AAa?$AAp?$AAp?$AAm@ 00446398     libucrt:winapi_thunks.obj
 0002:000073e0       ??_C@_1O@BCCLBEOE@?$AAu?$AAs?$AAe?$AAr?$AA3?$AA2@ 004463e0     libucrt:winapi_thunks.obj
 0002:000073f0       ??_C@_1DM@BPJLHKCE@?$AAa?$AAp?$AAi?$AA?9?$AAm?$AAs?$AA?9?$AAw?$AAi?$AAn?$AA?9?$AAc?$AAo?$AAr?$AAe@ 004463f0     libucrt:winapi_thunks.obj
 0002:00007430       ??_C@_0BA@FHFNEAED@AreFileApisANSI@ 00446430     libucrt:winapi_thunks.obj
 0002:00007450       ??_C@_0BE@LJANKFHF@EnumSystemLocalesEx@ 00446450     libucrt:winapi_thunks.obj
 0002:0000746c       ??_C@_0BA@EPCJIIPD@GetDateFormatEx@ 0044646c     libucrt:winapi_thunks.obj
 0002:0000748c       ??_C@_0BA@CIJJKCJJ@GetTimeFormatEx@ 0044648c     libucrt:winapi_thunks.obj
 0002:000074a4       ??_C@_0BJ@PBCCBIPI@GetUserDefaultLocaleName@ 004464a4     libucrt:winapi_thunks.obj
 0002:000074d0       ??_C@_0BC@CELBKLLA@IsValidLocaleName@ 004464d0     libucrt:winapi_thunks.obj
 0002:000074f4       ??_C@_0BB@CDHDDLLP@LCIDToLocaleName@ 004464f4     libucrt:winapi_thunks.obj
 0002:00007510       ??_C@_0BB@HBDEELFH@LocaleNameToLCID@ 00446510     libucrt:winapi_thunks.obj
 0002:00007528       ??_C@_0CF@OJOFEIGO@AppPolicyGetProcessTerminationM@ 00446528     libucrt:winapi_thunks.obj
 0002:00007558       ??_C@_0BC@JEAENNKH@SystemFunction036@ 00446558     libucrt:winapi_thunks.obj
 0002:000075d0       ??_C@_03OEIAHPBN@INF@      004465d0     libucrt:cvt.obj
 0002:000075d4       ??_C@_03OJHLLCGB@inf@      004465d4     libucrt:cvt.obj
 0002:000075d8       ??_C@_03LKNCIKJB@NAN@      004465d8     libucrt:cvt.obj
 0002:000075dc       ??_C@_03LHCJEHON@nan@      004465dc     libucrt:cvt.obj
 0002:000075e0       ??_C@_09OFJJIMPC@NAN?$CISNAN?$CJ@ 004465e0     libucrt:cvt.obj
 0002:000075ec       ??_C@_09IPFBKMDL@nan?$CIsnan?$CJ@ 004465ec     libucrt:cvt.obj
 0002:000075f8       ??_C@_08IKHNHAJ@NAN?$CIIND?$CJ@ 004465f8     libucrt:cvt.obj
 0002:00007604       ??_C@_08OFCDMILK@nan?$CIind?$CJ@ 00446604     libucrt:cvt.obj
 0002:00007610       ??_C@_05KLBDPFGC@e?$CL000@ 00446610     libucrt:cvt.obj
 0002:00007618       ??_C@_15HNJCPLHL@?$AAT?$AAZ@ 00446618     libucrt:tzset.obj
 0002:00007620       ?ccs@?1???$__acrt_stdio_parse_mode@D@@YA?AU__acrt_stdio_stream_mode@@QBD@Z@4QBDB 00446620     libucrt:openfile.obj
 0002:00007624       ?utf8_encoding@?1???$__acrt_stdio_parse_mode@D@@YA?AU__acrt_stdio_stream_mode@@QBD@Z@4QBDB 00446624     libucrt:openfile.obj
 0002:0000762c       ?utf16_encoding@?1???$__acrt_stdio_parse_mode@D@@YA?AU__acrt_stdio_stream_mode@@QBD@Z@4QBDB 0044662c     libucrt:openfile.obj
 0002:00007634       ?unicode_encoding@?1???$__acrt_stdio_parse_mode@D@@YA?AU__acrt_stdio_stream_mode@@QBD@Z@4QBDB 00446634     libucrt:openfile.obj
 0002:00007728       ??_C@_03KHJOGHMM@exp@      00446728     libucrt:fpexcept.obj
 0002:0000772c       ??_C@_03JGHBODFD@pow@      0044672c     libucrt:fpexcept.obj
 0002:00007730       ??_C@_03MGHMBJCF@log@      00446730     libucrt:fpexcept.obj
 0002:00007734       ??_C@_05HGHHAHAP@log10@    00446734     libucrt:fpexcept.obj
 0002:0000773c       ??_C@_04COOMCNPB@sinh@     0044673c     libucrt:fpexcept.obj
 0002:00007744       ??_C@_04HPJJNFIM@cosh@     00446744     libucrt:fpexcept.obj
 0002:0000774c       ??_C@_04FJHINJAO@tanh@     0044674c     libucrt:fpexcept.obj
 0002:00007754       ??_C@_04FIHNOPOL@asin@     00446754     libucrt:fpexcept.obj
 0002:0000775c       ??_C@_04PDIFKINK@acos@     0044675c     libucrt:fpexcept.obj
 0002:00007764       ??_C@_04MLLJIGOK@atan@     00446764     libucrt:fpexcept.obj
 0002:0000776c       ??_C@_05KNGEOGJB@atan2@    0044676c     libucrt:fpexcept.obj
 0002:00007774       ??_C@_04EIAKFFMI@sqrt@     00446774     libucrt:fpexcept.obj
 0002:0000777c       ??_C@_03BLEJJJBH@sin@      0044677c     libucrt:fpexcept.obj
 0002:00007780       ??_C@_03LALBNOCG@cos@      00446780     libucrt:fpexcept.obj
 0002:00007784       ??_C@_03IIINPABG@tan@      00446784     libucrt:fpexcept.obj
 0002:00007788       ??_C@_04GFPJNGEK@ceil@     00446788     libucrt:fpexcept.obj
 0002:00007790       ??_C@_05PBJFFIGL@floor@    00446790     libucrt:fpexcept.obj
 0002:00007798       ??_C@_04ODHECPBC@fabs@     00446798     libucrt:fpexcept.obj
 0002:000077a0       ??_C@_04EHEDPDJG@modf@     004467a0     libucrt:fpexcept.obj
 0002:000077a8       ??_C@_05CEJMAHNP@ldexp@    004467a8     libucrt:fpexcept.obj
 0002:000077b0       ??_C@_05KBKMEMPO@_cabs@    004467b0     libucrt:fpexcept.obj
 0002:000077b8       ??_C@_06MEIMCGCF@_hypot@   004467b8     libucrt:fpexcept.obj
 0002:000077c0       ??_C@_04KEPJIHGP@fmod@     004467c0     libucrt:fpexcept.obj
 0002:000077c8       ??_C@_05GKKHEGJL@frexp@    004467c8     libucrt:fpexcept.obj
 0002:000077d0       ??_C@_03MJLDFKDL@_y0@      004467d0     libucrt:fpexcept.obj
 0002:000077d4       ??_C@_03NAKIGLHK@_y1@      004467d4     libucrt:fpexcept.obj
 0002:000077d8       ??_C@_03ONILCKOB@_yn@      004467d8     libucrt:fpexcept.obj
 0002:000077dc       ??_C@_05JGDBENOH@_logb@    004467dc     libucrt:fpexcept.obj
 0002:000077e4       ??_C@_0L@KDOEJCKC@_nextafter@ 004467e4     libucrt:fpexcept.obj
 0002:000077f0       __d_inf                    004467f0     libucrt:util.obj
 0002:000077f8       __d_max                    004467f8     libucrt:util.obj
 0002:00007800       __d_mzero                  00446800     libucrt:util.obj
 0002:000078e0       __infinity                 004468e0     libucrt:87tran.obj
 0002:000078ea       __minfinity                004468ea     libucrt:87tran.obj
 0002:000078f4       __logemax                  004468f4     libucrt:87tran.obj
 0002:0000791a       __OP_EXPjmptab             0044691a     libucrt:87tran.obj
 0002:00007940       __indefinite               00446940     libucrt:87disp.obj
 0002:0000794a       __piby2                    0044694a     libucrt:87disp.obj
 0002:00007954       __piby4                    00446954     libucrt:87disp.obj
 0002:00007988       __DEFAULT_CW_in_mem        00446988     libucrt:common.obj
 0002:0000798a       __pi_by_2_to_61            0044698a     libucrt:common.obj
 0002:000079c8       __real@3fe0000000000000    004469c8     libucrt:powhlp.obj
 0002:000079e0       ___acrt_rg_language        004469e0     libucrt:get_qualified_locale.obj
 0002:00007cec       ___acrt_rg_language_count  00446cec     libucrt:get_qualified_locale.obj
 0002:00007cf0       ___acrt_rg_country         00446cf0     libucrt:get_qualified_locale.obj
 0002:00007e04       ___acrt_rg_country_count   00446e04     libucrt:get_qualified_locale.obj
 0002:00007e08       ??_C@_1BC@LLOKLNP@?$AAa?$AAm?$AAe?$AAr?$AAi?$AAc?$AAa?$AAn@ 00446e08     libucrt:get_qualified_locale.obj
 0002:00007e1c       ??_C@_1CC@HEIGCDGG@?$AAa?$AAm?$AAe?$AAr?$AAi?$AAc?$AAa?$AAn?$AA?5?$AAe?$AAn?$AAg?$AAl?$AAi?$AAs@ 00446e1c     libucrt:get_qualified_locale.obj
 0002:00007e40       ??_C@_1CC@IHCNOMIN@?$AAa?$AAm?$AAe?$AAr?$AAi?$AAc?$AAa?$AAn?$AA?9?$AAe?$AAn?$AAg?$AAl?$AAi?$AAs@ 00446e40     libucrt:get_qualified_locale.obj
 0002:00007e64       ??_C@_1BG@GKAGPCGG@?$AAa?$AAu?$AAs?$AAt?$AAr?$AAa?$AAl?$AAi?$AAa?$AAn@ 00446e64     libucrt:get_qualified_locale.obj
 0002:00007e7c       ??_C@_1BA@GMENCENF@?$AAb?$AAe?$AAl?$AAg?$AAi?$AAa?$AAn@ 00446e7c     libucrt:get_qualified_locale.obj
 0002:00007e8c       ??_C@_1BC@PJMIIAAN@?$AAc?$AAa?$AAn?$AAa?$AAd?$AAi?$AAa?$AAn@ 00446e8c     libucrt:get_qualified_locale.obj
 0002:00007ea0       ??_C@_17NOIMNFBF@?$AAc?$AAh?$AAh@ 00446ea0     libucrt:get_qualified_locale.obj
 0002:00007ea8       ??_C@_17GGDALCHA@?$AAc?$AAh?$AAi@ 00446ea8     libucrt:get_qualified_locale.obj
 0002:00007eb0       ??_C@_1BA@NPNJKIBL@?$AAc?$AAh?$AAi?$AAn?$AAe?$AAs?$AAe@ 00446eb0     libucrt:get_qualified_locale.obj
 0002:00007ec0       ??_C@_1CC@DINBAMMJ@?$AAc?$AAh?$AAi?$AAn?$AAe?$AAs?$AAe?$AA?9?$AAh?$AAo?$AAn?$AAg?$AAk?$AAo?$AAn@ 00446ec0     libucrt:get_qualified_locale.obj
 0002:00007ee4       ??_C@_1CG@IOBJPACO@?$AAc?$AAh?$AAi?$AAn?$AAe?$AAs?$AAe?$AA?9?$AAs?$AAi?$AAm?$AAp?$AAl?$AAi?$AAf@ 00446ee4     libucrt:get_qualified_locale.obj
 0002:00007f0c       ??_C@_1CE@GAJNDCKG@?$AAc?$AAh?$AAi?$AAn?$AAe?$AAs?$AAe?$AA?9?$AAs?$AAi?$AAn?$AAg?$AAa?$AAp?$AAo@ 00446f0c     libucrt:get_qualified_locale.obj
 0002:00007f30       ??_C@_1CI@PAJPIOOD@?$AAc?$AAh?$AAi?$AAn?$AAe?$AAs?$AAe?$AA?9?$AAt?$AAr?$AAa?$AAd?$AAi?$AAt?$AAi@ 00446f30     libucrt:get_qualified_locale.obj
 0002:00007f58       ??_C@_1BM@NILJBMMD@?$AAd?$AAu?$AAt?$AAc?$AAh?$AA?9?$AAb?$AAe?$AAl?$AAg?$AAi?$AAa?$AAn@ 00446f58     libucrt:get_qualified_locale.obj
 0002:00007f74       ??_C@_1CC@OOJPJNEJ@?$AAe?$AAn?$AAg?$AAl?$AAi?$AAs?$AAh?$AA?9?$AAa?$AAm?$AAe?$AAr?$AAi?$AAc?$AAa@ 00446f74     libucrt:get_qualified_locale.obj
 0002:00007f98       ??_C@_1BI@IOLFEEM@?$AAe?$AAn?$AAg?$AAl?$AAi?$AAs?$AAh?$AA?9?$AAa?$AAu?$AAs@ 00446f98     libucrt:get_qualified_locale.obj
 0002:00007fb0       ??_C@_1BO@HFFNLENJ@?$AAe?$AAn?$AAg?$AAl?$AAi?$AAs?$AAh?$AA?9?$AAb?$AAe?$AAl?$AAi?$AAz?$AAe@ 00446fb0     libucrt:get_qualified_locale.obj
 0002:00007fd0       ??_C@_1BI@HAPKJMPO@?$AAe?$AAn?$AAg?$AAl?$AAi?$AAs?$AAh?$AA?9?$AAc?$AAa?$AAn@ 00446fd0     libucrt:get_qualified_locale.obj
 0002:00007fe8       ??_C@_1CE@HLNDMIOJ@?$AAe?$AAn?$AAg?$AAl?$AAi?$AAs?$AAh?$AA?9?$AAc?$AAa?$AAr?$AAi?$AAb?$AAb?$AAe@ 00446fe8     libucrt:get_qualified_locale.obj
 0002:0000800c       ??_C@_1BI@LDHJHHAC@?$AAe?$AAn?$AAg?$AAl?$AAi?$AAs?$AAh?$AA?9?$AAi?$AAr?$AAe@ 0044700c     libucrt:get_qualified_locale.obj
 0002:00008024       ??_C@_1CA@NJMMCFOC@?$AAe?$AAn?$AAg?$AAl?$AAi?$AAs?$AAh?$AA?9?$AAj?$AAa?$AAm?$AAa?$AAi?$AAc?$AAa@ 00447024     libucrt:get_qualified_locale.obj
 0002:00008044       ??_C@_1BG@BHJEBBGG@?$AAe?$AAn?$AAg?$AAl?$AAi?$AAs?$AAh?$AA?9?$AAn?$AAz@ 00447044     libucrt:get_qualified_locale.obj
 0002:0000805c       ??_C@_1CK@FGOEJJCO@?$AAe?$AAn?$AAg?$AAl?$AAi?$AAs?$AAh?$AA?9?$AAs?$AAo?$AAu?$AAt?$AAh?$AA?5?$AAa@ 0044705c     libucrt:get_qualified_locale.obj
 0002:00008088       ??_C@_1DE@PDBJPCJ@?$AAe?$AAn?$AAg?$AAl?$AAi?$AAs?$AAh?$AA?9?$AAt?$AAr?$AAi?$AAn?$AAi?$AAd?$AAa@ 00447088     libucrt:get_qualified_locale.obj
 0002:000080bc       ??_C@_1BG@JGCANDME@?$AAe?$AAn?$AAg?$AAl?$AAi?$AAs?$AAh?$AA?9?$AAu?$AAk@ 004470bc     libucrt:get_qualified_locale.obj
 0002:000080d4       ??_C@_1BG@DINKMLE@?$AAe?$AAn?$AAg?$AAl?$AAi?$AAs?$AAh?$AA?9?$AAu?$AAs@ 004470d4     libucrt:get_qualified_locale.obj
 0002:000080ec       ??_C@_1BI@NMFDBHJE@?$AAe?$AAn?$AAg?$AAl?$AAi?$AAs?$AAh?$AA?9?$AAu?$AAs?$AAa@ 004470ec     libucrt:get_qualified_locale.obj
 0002:00008104       ??_C@_1BO@OIHKJKII@?$AAf?$AAr?$AAe?$AAn?$AAc?$AAh?$AA?9?$AAb?$AAe?$AAl?$AAg?$AAi?$AAa?$AAn@ 00447104     libucrt:get_qualified_locale.obj
 0002:00008124       ??_C@_1CA@NKAELJKI@?$AAf?$AAr?$AAe?$AAn?$AAc?$AAh?$AA?9?$AAc?$AAa?$AAn?$AAa?$AAd?$AAi?$AAa?$AAn@ 00447124     libucrt:get_qualified_locale.obj
 0002:00008144       ??_C@_1CE@MGKCNLGN@?$AAf?$AAr?$AAe?$AAn?$AAc?$AAh?$AA?9?$AAl?$AAu?$AAx?$AAe?$AAm?$AAb?$AAo?$AAu@ 00447144     libucrt:get_qualified_locale.obj
 0002:00008168       ??_C@_1BK@CEGEAILM@?$AAf?$AAr?$AAe?$AAn?$AAc?$AAh?$AA?9?$AAs?$AAw?$AAi?$AAs?$AAs@ 00447168     libucrt:get_qualified_locale.obj
 0002:00008184       ??_C@_1CA@PAFKEOCC@?$AAg?$AAe?$AAr?$AAm?$AAa?$AAn?$AA?9?$AAa?$AAu?$AAs?$AAt?$AAr?$AAi?$AAa?$AAn@ 00447184     libucrt:get_qualified_locale.obj
 0002:000081a4       ??_C@_1CI@HCFHGOFD@?$AAg?$AAe?$AAr?$AAm?$AAa?$AAn?$AA?9?$AAl?$AAi?$AAc?$AAh?$AAt?$AAe?$AAn?$AAs@ 004471a4     libucrt:get_qualified_locale.obj
 0002:000081cc       ??_C@_1CE@FEDDNPDG@?$AAg?$AAe?$AAr?$AAm?$AAa?$AAn?$AA?9?$AAl?$AAu?$AAx?$AAe?$AAm?$AAb?$AAo?$AAu@ 004471cc     libucrt:get_qualified_locale.obj
 0002:000081f0       ??_C@_1BK@LIMINNMN@?$AAg?$AAe?$AAr?$AAm?$AAa?$AAn?$AA?9?$AAs?$AAw?$AAi?$AAs?$AAs@ 004471f0     libucrt:get_qualified_locale.obj
 0002:0000820c       ??_C@_1BM@LGMDBEPD@?$AAi?$AAr?$AAi?$AAs?$AAh?$AA?9?$AAe?$AAn?$AAg?$AAl?$AAi?$AAs?$AAh@ 0044720c     libucrt:get_qualified_locale.obj
 0002:00008228       ??_C@_1BM@NNCFBAEE@?$AAi?$AAt?$AAa?$AAl?$AAi?$AAa?$AAn?$AA?9?$AAs?$AAw?$AAi?$AAs?$AAs@ 00447228     libucrt:get_qualified_locale.obj
 0002:00008244       ??_C@_1BE@FEDJNPIB@?$AAn?$AAo?$AAr?$AAw?$AAe?$AAg?$AAi?$AAa?$AAn@ 00447244     libucrt:get_qualified_locale.obj
 0002:00008258       ??_C@_1CC@CILKDEIE@?$AAn?$AAo?$AAr?$AAw?$AAe?$AAg?$AAi?$AAa?$AAn?$AA?9?$AAb?$AAo?$AAk?$AAm?$AAa@ 00447258     libucrt:get_qualified_locale.obj
 0002:0000827c       ??_C@_1CE@DHMMHEPL@?$AAn?$AAo?$AAr?$AAw?$AAe?$AAg?$AAi?$AAa?$AAn?$AA?9?$AAn?$AAy?$AAn?$AAo?$AAr@ 0044727c     libucrt:get_qualified_locale.obj
 0002:000082a0       ??_C@_1CK@OPNMHECD@?$AAp?$AAo?$AAr?$AAt?$AAu?$AAg?$AAu?$AAe?$AAs?$AAe?$AA?9?$AAb?$AAr?$AAa?$AAz@ 004472a0     libucrt:get_qualified_locale.obj
 0002:000082cc       ??_C@_1CE@KEEHCDB@?$AAs?$AAp?$AAa?$AAn?$AAi?$AAs?$AAh?$AA?9?$AAa?$AAr?$AAg?$AAe?$AAn?$AAt?$AAi@ 004472cc     libucrt:get_qualified_locale.obj
 0002:000082f0       ??_C@_1CA@GIAOLHJD@?$AAs?$AAp?$AAa?$AAn?$AAi?$AAs?$AAh?$AA?9?$AAb?$AAo?$AAl?$AAi?$AAv?$AAi?$AAa@ 004472f0     libucrt:get_qualified_locale.obj
 0002:00008310       ??_C@_1BM@OJNDFNPD@?$AAs?$AAp?$AAa?$AAn?$AAi?$AAs?$AAh?$AA?9?$AAc?$AAh?$AAi?$AAl?$AAe@ 00447310     libucrt:get_qualified_locale.obj
 0002:0000832c       ??_C@_1CC@OCOLPALL@?$AAs?$AAp?$AAa?$AAn?$AAi?$AAs?$AAh?$AA?9?$AAc?$AAo?$AAl?$AAo?$AAm?$AAb?$AAi@ 0044732c     libucrt:get_qualified_locale.obj
 0002:00008350       ??_C@_1CG@BPOFMKBB@?$AAs?$AAp?$AAa?$AAn?$AAi?$AAs?$AAh?$AA?9?$AAc?$AAo?$AAs?$AAt?$AAa?$AA?5?$AAr@ 00447350     libucrt:get_qualified_locale.obj
 0002:00008378       ??_C@_1DG@IGOBAPBB@?$AAs?$AAp?$AAa?$AAn?$AAi?$AAs?$AAh?$AA?9?$AAd?$AAo?$AAm?$AAi?$AAn?$AAi?$AAc@ 00447378     libucrt:get_qualified_locale.obj
 0002:000083b0       ??_C@_1CA@JHAPGEGI@?$AAs?$AAp?$AAa?$AAn?$AAi?$AAs?$AAh?$AA?9?$AAe?$AAc?$AAu?$AAa?$AAd?$AAo?$AAr@ 004473b0     libucrt:get_qualified_locale.obj
 0002:000083d0       ??_C@_1CI@LAPALJPP@?$AAs?$AAp?$AAa?$AAn?$AAi?$AAs?$AAh?$AA?9?$AAe?$AAl?$AA?5?$AAs?$AAa?$AAl?$AAv@ 004473d0     libucrt:get_qualified_locale.obj
 0002:000083f8       ??_C@_1CE@PDGBOFOM@?$AAs?$AAp?$AAa?$AAn?$AAi?$AAs?$AAh?$AA?9?$AAg?$AAu?$AAa?$AAt?$AAe?$AAm?$AAa@ 004473f8     libucrt:get_qualified_locale.obj
 0002:0000841c       ??_C@_1CC@NBEBAODI@?$AAs?$AAp?$AAa?$AAn?$AAi?$AAs?$AAh?$AA?9?$AAh?$AAo?$AAn?$AAd?$AAu?$AAr?$AAa@ 0044741c     libucrt:get_qualified_locale.obj
 0002:00008440       ??_C@_1CA@LLKGHBMF@?$AAs?$AAp?$AAa?$AAn?$AAi?$AAs?$AAh?$AA?9?$AAm?$AAe?$AAx?$AAi?$AAc?$AAa?$AAn@ 00447440     libucrt:get_qualified_locale.obj
 0002:00008460       ??_C@_1BO@LKNDOIGD@?$AAs?$AAp?$AAa?$AAn?$AAi?$AAs?$AAh?$AA?9?$AAm?$AAo?$AAd?$AAe?$AAr?$AAn@ 00447460     libucrt:get_qualified_locale.obj
 0002:00008480       ??_C@_1CE@NMDMOEEB@?$AAs?$AAp?$AAa?$AAn?$AAi?$AAs?$AAh?$AA?9?$AAn?$AAi?$AAc?$AAa?$AAr?$AAa?$AAg@ 00447480     libucrt:get_qualified_locale.obj
 0002:000084a4       ??_C@_1BO@LLCBEJGB@?$AAs?$AAp?$AAa?$AAn?$AAi?$AAs?$AAh?$AA?9?$AAp?$AAa?$AAn?$AAa?$AAm?$AAa@ 004474a4     libucrt:get_qualified_locale.obj
 0002:000084c4       ??_C@_1CC@FKPGGIHO@?$AAs?$AAp?$AAa?$AAn?$AAi?$AAs?$AAh?$AA?9?$AAp?$AAa?$AAr?$AAa?$AAg?$AAu?$AAa@ 004474c4     libucrt:get_qualified_locale.obj
 0002:000084e8       ??_C@_1BK@CDEIHOOP@?$AAs?$AAp?$AAa?$AAn?$AAi?$AAs?$AAh?$AA?9?$AAp?$AAe?$AAr?$AAu@ 004474e8     libucrt:get_qualified_locale.obj
 0002:00008504       ??_C@_1CI@GAHAKKGP@?$AAs?$AAp?$AAa?$AAn?$AAi?$AAs?$AAh?$AA?9?$AAp?$AAu?$AAe?$AAr?$AAt?$AAo?$AA?5@ 00447504     libucrt:get_qualified_locale.obj
 0002:0000852c       ??_C@_1CA@NKJBCAGP@?$AAs?$AAp?$AAa?$AAn?$AAi?$AAs?$AAh?$AA?9?$AAu?$AAr?$AAu?$AAg?$AAu?$AAa?$AAy@ 0044752c     libucrt:get_qualified_locale.obj
 0002:0000854c       ??_C@_1CE@ODILCONM@?$AAs?$AAp?$AAa?$AAn?$AAi?$AAs?$AAh?$AA?9?$AAv?$AAe?$AAn?$AAe?$AAz?$AAu?$AAe@ 0044754c     libucrt:get_qualified_locale.obj
 0002:00008570       ??_C@_1CA@OBNMCGFO@?$AAs?$AAw?$AAe?$AAd?$AAi?$AAs?$AAh?$AA?9?$AAf?$AAi?$AAn?$AAl?$AAa?$AAn?$AAd@ 00447570     libucrt:get_qualified_locale.obj
 0002:00008590       ??_C@_1M@PIPDDPPI@?$AAs?$AAw?$AAi?$AAs?$AAs@ 00447590     libucrt:get_qualified_locale.obj
 0002:0000859c       ??_C@_15GMFIMNFM@?$AAu?$AAs@ 0044759c     libucrt:get_qualified_locale.obj
 0002:000085a4       ??_C@_17HAEBFAGL@?$AAu?$AAs?$AAa@ 004475a4     libucrt:get_qualified_locale.obj
 0002:000085ac       ??_C@_1BA@DPFJEPHB@?$AAa?$AAm?$AAe?$AAr?$AAi?$AAc?$AAa@ 004475ac     libucrt:get_qualified_locale.obj
 0002:000085bc       ??_C@_1BA@ELOGGFK@?$AAb?$AAr?$AAi?$AAt?$AAa?$AAi?$AAn@ 004475bc     libucrt:get_qualified_locale.obj
 0002:000085cc       ??_C@_1M@GHBGIGDA@?$AAc?$AAh?$AAi?$AAn?$AAa@ 004475cc     libucrt:get_qualified_locale.obj
 0002:000085d8       ??_C@_1M@NCHEJOPO@?$AAc?$AAz?$AAe?$AAc?$AAh@ 004475d8     libucrt:get_qualified_locale.obj
 0002:000085e4       ??_C@_1BA@BKPAPBLA@?$AAe?$AAn?$AAg?$AAl?$AAa?$AAn?$AAd@ 004475e4     libucrt:get_qualified_locale.obj
 0002:000085f4       ??_C@_1BM@HKBCKIPC@?$AAg?$AAr?$AAe?$AAa?$AAt?$AA?5?$AAb?$AAr?$AAi?$AAt?$AAa?$AAi?$AAn@ 004475f4     libucrt:get_qualified_locale.obj
 0002:00008610       ??_C@_1BA@PPCHPGJB@?$AAh?$AAo?$AAl?$AAl?$AAa?$AAn?$AAd@ 00447610     libucrt:get_qualified_locale.obj
 0002:00008620       ??_C@_1BE@JBMPEGDG@?$AAh?$AAo?$AAn?$AAg?$AA?9?$AAk?$AAo?$AAn?$AAg@ 00447620     libucrt:get_qualified_locale.obj
 0002:00008634       ??_C@_1BI@KOELBBPJ@?$AAn?$AAe?$AAw?$AA?9?$AAz?$AAe?$AAa?$AAl?$AAa?$AAn?$AAd@ 00447634     libucrt:get_qualified_locale.obj
 0002:0000864c       ??_C@_15HIEBHAIO@?$AAn?$AAz@ 0044764c     libucrt:get_qualified_locale.obj
 0002:00008654       ??_C@_1BC@CHBCPFPI@?$AAp?$AAr?$AA?5?$AAc?$AAh?$AAi?$AAn?$AAa@ 00447654     libucrt:get_qualified_locale.obj
 0002:00008668       ??_C@_1BC@JAOIIFKD@?$AAp?$AAr?$AA?9?$AAc?$AAh?$AAi?$AAn?$AAa@ 00447668     libucrt:get_qualified_locale.obj
 0002:0000867c       ??_C@_1BI@BEHPPHKC@?$AAp?$AAu?$AAe?$AAr?$AAt?$AAo?$AA?9?$AAr?$AAi?$AAc?$AAo@ 0044767c     libucrt:get_qualified_locale.obj
 0002:00008694       ??_C@_1O@PAEOFKDI@?$AAs?$AAl?$AAo?$AAv?$AAa?$AAk@ 00447694     libucrt:get_qualified_locale.obj
 0002:000086a4       ??_C@_1BK@FIHMCKAM@?$AAs?$AAo?$AAu?$AAt?$AAh?$AA?5?$AAa?$AAf?$AAr?$AAi?$AAc?$AAa@ 004476a4     libucrt:get_qualified_locale.obj
 0002:000086c0       ??_C@_1BI@NAEOODKB@?$AAs?$AAo?$AAu?$AAt?$AAh?$AA?5?$AAk?$AAo?$AAr?$AAe?$AAa@ 004476c0     libucrt:get_qualified_locale.obj
 0002:000086d8       ??_C@_1BK@FBDGGIFF@?$AAs?$AAo?$AAu?$AAt?$AAh?$AA?9?$AAa?$AAf?$AAr?$AAi?$AAc?$AAa@ 004476d8     libucrt:get_qualified_locale.obj
 0002:000086f4       ??_C@_1BI@GHLEJDPK@?$AAs?$AAo?$AAu?$AAt?$AAh?$AA?9?$AAk?$AAo?$AAr?$AAe?$AAa@ 004476f4     libucrt:get_qualified_locale.obj
 0002:0000870c       ??_C@_1CE@PLHLOMJF@?$AAt?$AAr?$AAi?$AAn?$AAi?$AAd?$AAa?$AAd?$AA?5?$AA?$CG?$AA?5?$AAt?$AAo?$AAb?$AAa@ 0044770c     libucrt:get_qualified_locale.obj
 0002:00008730       ??_C@_1BO@MODIMHHI@?$AAu?$AAn?$AAi?$AAt?$AAe?$AAd?$AA?9?$AAk?$AAi?$AAn?$AAg?$AAd?$AAo?$AAm@ 00447730     libucrt:get_qualified_locale.obj
 0002:00008750       ??_C@_1BM@FFHJONBJ@?$AAu?$AAn?$AAi?$AAt?$AAe?$AAd?$AA?9?$AAs?$AAt?$AAa?$AAt?$AAe?$AAs@ 00447750     libucrt:get_qualified_locale.obj
 0002:0000876c       ??_C@_19MPDNHKDG@?$AAu?$AAt?$AAf?$AA8@ 0044776c     libucrt:get_qualified_locale.obj
 0002:00008778       ??_C@_17DNCLJFIF@?$AAA?$AAC?$AAP@ 00447778     libucrt:get_qualified_locale.obj
 0002:00008780       ??_C@_1M@FPEIIFAM@?$AAu?$AAt?$AAf?$AA?9?$AA8@ 00447780     libucrt:get_qualified_locale.obj
 0002:0000878c       ??_C@_17CIKBIHLH@?$AAO?$AAC?$AAP@ 0044778c     libucrt:get_qualified_locale.obj
 0002:00008794       ___rglangidNotDefault      00447794     libucrt:getqloc_downlevel.obj
 0002:000095e8       ??_C@_01GBGANLPD@0@        004485e8     libucrt:cfout.obj
 0002:000095ec       ??_C@_05DNEBIAHO@1?$CDINF@ 004485ec     libucrt:cfout.obj
 0002:000095f4       ??_C@_06IMKFLFPG@1?$CDQNAN@ 004485f4     libucrt:cfout.obj
 0002:000095fc       ??_C@_06PGGFOGJG@1?$CDSNAN@ 004485fc     libucrt:cfout.obj
 0002:00009604       ??_C@_05PHHOCPM@1?$CDIND@  00448604     libucrt:cfout.obj
 0002:0000960c       __days                     0044860c     libucrt:days.obj
 0002:00009640       __lpdays                   00448640     libucrt:days.obj
 0002:00009678       ___acrt_pow_rcp_t1         00448678     libucrt:pow_tables.obj
 0002:00009a90       ___acrt_pow_log2_t1        00448a90     libucrt:pow_tables.obj
 0002:0000a2a0       ___acrt_pow_rcp_t2         004492a0     libucrt:pow_tables.obj
 0002:0000a6b0       ___acrt_pow_log2_t2        004496b0     libucrt:pow_tables.obj
 0002:0000aec0       ___acrt_pow_rcp_t3         00449ec0     libucrt:pow_tables.obj
 0002:0000b6d0       ___acrt_pow_log2_t3        0044a6d0     libucrt:pow_tables.obj
 0002:0000c6e0       ___acrt_pow_clv            0044b6e0     libucrt:pow_tables.obj
 0002:0000c700       ___acrt_pow_exp2_tbl       0044b700     libucrt:pow_tables.obj
 0002:0000cf58       ??_C@_1BA@BALFACEM@?$AAC?$AAO?$AAN?$AAO?$AAU?$AAT?$AA$@ 0044bf58     libucrt:initcon.obj
 0002:0000d070       ___acrt_log10_table_t      0044c070     libucrt:log10_tables.obj
 0002:0000d480       ___acrt_log10_table_cb     0044c480     libucrt:log10_tables.obj
 0002:0000d890       ??_C@_0BC@EOODALEL@Unknown?5exception@ 0044c890     TServerSystem:TServerSystem.obj
 0002:0000d8a4       ??_C@_0BA@ELKIONDK@bad?5locale?5name@ 0044c8a4     TServerSystem:TServerSystem.obj
 0002:0000d8b4       ?empty@?1??LoadData@?$CSimpleIniTempl@DU?$SI_NoCase@D@@V?$SI_ConvertA@D@@@@QAE?AW4SI_Error@@PBDI@Z@4DB 0044c8b4     TServerSystem:TServerSystem.obj
 0002:0000d8b4       ??_C@_00CNPNBAHC@@         0044c8b4     TServerSystem:TServerSystem.obj
 0002:0000d8b8       ??_C@_02LMMGGCAJ@?3?5@     0044c8b8     TServerSystem:TServerSystem.obj
 0002:0000d8bc       ??_C@_08LLGCOLLL@iostream@ 0044c8bc     TServerSystem:TServerSystem.obj
 0002:0000d8c8       ??_C@_0BG@PADBLCHM@iostream?5stream?5error@ 0044c8c8     TServerSystem:TServerSystem.obj
 0002:0000d8e0       ??_C@_0BF@PHHKMMFD@ios_base?3?3badbit?5set@ 0044c8e0     TServerSystem:TServerSystem.obj
 0002:0000d8f8       ??_C@_0BG@FMKFHCIL@ios_base?3?3failbit?5set@ 0044c8f8     TServerSystem:TServerSystem.obj
 0002:0000d910       ??_C@_0BF@OOHOMBOF@ios_base?3?3eofbit?5set@ 0044c910     TServerSystem:TServerSystem.obj
 0002:0000d928       ??_C@_0BG@HGEDEDEC@invalid?5stoi?5argument@ 0044c928     TServerSystem:TServerSystem.obj
 0002:0000d940       ??_C@_0BL@MFFNMGGC@stoi?5argument?5out?5of?5range@ 0044c940     TServerSystem:TServerSystem.obj
 0002:0000d95c       ??_C@_07LHPMHBFD@?5Server@ 0044c95c     TServerSystem:TServerSystem.obj
 0002:0000d964       ??_C@_07EGIPICEA@Svr?4ini@ 0044c964     TServerSystem:TServerSystem.obj
 0002:0000d96c       ??_C@_0BC@FCEOMLFA@?4?2Configurations?2@ 0044c96c     TServerSystem:TServerSystem.obj
 0002:0000d980       ??_C@_01OHGJGJJP@?$FL@     0044c980     TServerSystem:TServerSystem.obj
 0002:0000d984       ??_C@_09MADNPIJ@VERSION?3?5@ 0044c984     TServerSystem:TServerSystem.obj
 0002:0000d990       ??_C@_08BAKGBNOL@SERVER?3?5@ 0044c990     TServerSystem:TServerSystem.obj
 0002:0000d99c       ??_C@_08OAHPJFNN@?$CFH?3?$CFM?3?$CFS@ 0044c99c     TServerSystem:TServerSystem.obj
 0002:0000d9a8       ??_C@_04OCBNEAJO@?$FN?5?$DO?5@ 0044c9a8     TServerSystem:TServerSystem.obj
 0002:0000d9b0       ??_C@_08FDDDBAGL@Svr?4ini?3@ 0044c9b0     TServerSystem:TServerSystem.obj
 0002:0000d9bc       ??_C@_0BL@JBFNMFAL@Loaded?5configuration?5from?5@ 0044c9bc     TServerSystem:TServerSystem.obj
 0002:0000d9d8       ??_C@_0CL@PCGIJOML@?$CD?$CD?$CD?$CD?$CD?$CD?$CD?$CD?$CD?$CD?$CD?$CD?$CD?$CD?$CD?$CD?$CD?$CD?$CD?$CD?$CD?$CD?$CD?$CD?$CD?$CD?$CD?$CD?$CD?$CD?$CD@ 0044c9d8     TServerSystem:TServerSystem.obj
 0002:0000da04       ??_C@_04LOBCHPKL@?$CD?5?$CL?5@ 0044ca04     TServerSystem:TServerSystem.obj
 0002:0000da0c       ??_C@_01CLKCMJKC@?5@       0044ca0c     TServerSystem:TServerSystem.obj
 0002:0000da10       ??_C@_06LLCHJONG@Config@   0044ca10     TServerSystem:TServerSystem.obj
 0002:0000da18       ??_C@_0BF@BFFFAOPI@Exiting?5application?$CB@ 0044ca18     TServerSystem:TServerSystem.obj
 0002:0000da30       ??_C@_0P@GGCAFAAI@Starting?5up?4?4?4@ 0044ca30     TServerSystem:TServerSystem.obj
 0002:0000da40       ??_C@_0P@GHOIKEEP@Starup?5error?3?5@ 0044ca40     TServerSystem:TServerSystem.obj
 0002:0000da50       ??_C@_0CA@JCHKBODK@Can?8t?5connect?5to?5the?5database?5?$CB@ 0044ca50     TServerSystem:TServerSystem.obj
 0002:0000da70       ??_C@_0CP@MMBNFKDI@1?$CJ?5Check?5ODBC?5x32?5or?5x64?0?5if?5al@ 0044ca70     TServerSystem:TServerSystem.obj
 0002:0000daa0       ??_C@_0DD@GDPGFAGD@2?$CJ?5Bad?5credentials?5in?5your?5?4ini@ 0044caa0     TServerSystem:TServerSystem.obj
 0002:0000dad4       ??_C@_0CI@CPLGHOJF@3?$CJ?5Check?5if?5you?5SQL?5Server?5is?5r@ 0044cad4     TServerSystem:TServerSystem.obj
 0002:0000dafc       ??_C@_0CB@FHJKNCEB@Can?8t?5connect?5to?5TWorld?5server?5@ 0044cafc     TServerSystem:TServerSystem.obj
 0002:0000db20       ??_C@_0CB@NMFLLJEC@1?$CJ?5Check?5if?5TWorldSvr?5is?5runnin@ 0044cb20     TServerSystem:TServerSystem.obj
 0002:0000db44       ??_C@_0CG@LIDEEFFF@2?$CJ?5Check?5your?5?4ini?5configuratio@ 0044cb44     TServerSystem:TServerSystem.obj
 0002:0000db6c       ??_C@_0BA@DCGJIEJC@Unknown?5error?5?$CB@ 0044cb6c     TServerSystem:TServerSystem.obj
 0002:0000db7c       ??_C@_0BK@LFHKNJDH@Can?8t?5start?5the?5server?4?4?4@ 0044cb7c     TServerSystem:TServerSystem.obj
 0002:0000db98       ??_C@_0BM@NMJKDPPO@invalid?5vector?$DMT?$DO?5subscript@ 0044cb98     TServerSystem:TServerSystem.obj
 0002:0000dbb4       ??_C@_0BD@OLBABOEK@vector?$DMT?$DO?5too?5long@ 0044cbb4     TServerSystem:TServerSystem.obj
 0002:0000dbc8       ??_C@_02JDPG@rb@           0044cbc8     TServerSystem:TServerSystem.obj
 0002:0000dbcc       ??_C@_0BA@JFNIOLAK@string?5too?5long@ 0044cbcc     TServerSystem:TServerSystem.obj
 0002:0000dbdc       ??_C@_0BB@MOGOBHAF@list?$DMT?$DO?5too?5long@ 0044cbdc     TServerSystem:TServerSystem.obj
 0002:0000dbf0       ??_C@_0BE@JONHPENG@map?1set?$DMT?$DO?5too?5long@ 0044cbf0     TServerSystem:TServerSystem.obj
 0002:0000dc08       ??_7TServerSystem@@6B@     0044cc08     TServerSystem:TServerSystem.obj
 0002:0000dc10       ??_8?$basic_ostream@DU?$char_traits@D@std@@@std@@7B@ 0044cc10     TServerSystem:TServerSystem.obj
 0002:0000dc78       __load_config_used         0044cc78     LIBCMT:loadcfg.obj
 0002:0000dd18       __tls_used                 0044cd18     LIBCMT:tlssup.obj
 0002:0000dd30       ??_R4CWin32Heap@ATL@@6B@   0044cd30     CSHandler.obj
 0002:0000dd44       ??_R3CWin32Heap@ATL@@8     0044cd44     CSHandler.obj
 0002:0000dd54       ??_R2CWin32Heap@ATL@@8     0044cd54     CSHandler.obj
 0002:0000dd60       ??_R1A@?0A@EA@CWin32Heap@ATL@@8 0044cd60     CSHandler.obj
 0002:0000dd7c       ??_R1A@?0A@EA@IAtlMemMgr@ATL@@8 0044cd7c     CSHandler.obj
 0002:0000dd98       ??_R3IAtlMemMgr@ATL@@8     0044cd98     CSHandler.obj
 0002:0000dda8       ??_R2IAtlMemMgr@ATL@@8     0044cda8     CSHandler.obj
 0002:0000ddb0       ??_R1A@?0A@EA@IAtlStringMgr@ATL@@8 0044cdb0     CSHandler.obj
 0002:0000ddcc       ??_R3IAtlStringMgr@ATL@@8  0044cdcc     CSHandler.obj
 0002:0000dddc       ??_R2IAtlStringMgr@ATL@@8  0044cddc     CSHandler.obj
 0002:0000dde4       ??_R4CAtlStringMgr@ATL@@6B@ 0044cde4     CSHandler.obj
 0002:0000ddf8       ??_R3CAtlStringMgr@ATL@@8  0044cdf8     CSHandler.obj
 0002:0000de08       ??_R2CAtlStringMgr@ATL@@8  0044ce08     CSHandler.obj
 0002:0000de14       ??_R1A@?0A@EA@CAtlStringMgr@ATL@@8 0044ce14     CSHandler.obj
 0002:0000de30       ??_R4CCSLock@@6B@          0044ce30     CSHandler.obj
 0002:0000de44       ??_R3CCSLock@@8            0044ce44     CSHandler.obj
 0002:0000de54       ??_R2CCSLock@@8            0044ce54     CSHandler.obj
 0002:0000de5c       ??_R1A@?0A@EA@CCSLock@@8   0044ce5c     CSHandler.obj
 0002:0000de78       ??_R4CSPLogin@@6B@         0044ce78     DBAccess.obj
 0002:0000de8c       ??_R3CSPLogin@@8           0044ce8c     DBAccess.obj
 0002:0000de9c       ??_R2CSPLogin@@8           0044ce9c     DBAccess.obj
 0002:0000deac       ??_R1A@?0A@EA@CSPLogin@@8  0044ceac     DBAccess.obj
 0002:0000dec8       ??_R1A@?0A@EA@CSqlQuery@@8 0044cec8     DBAccess.obj
 0002:0000dee4       ??_R3CSqlQuery@@8          0044cee4     DBAccess.obj
 0002:0000def4       ??_R2CSqlQuery@@8          0044cef4     DBAccess.obj
 0002:0000df00       ??_R1A@?0A@EA@CSqlBase@@8  0044cf00     DBAccess.obj
 0002:0000df1c       ??_R3CSqlBase@@8           0044cf1c     DBAccess.obj
 0002:0000df2c       ??_R2CSqlBase@@8           0044cf2c     DBAccess.obj
 0002:0000df34       ??_R4CSPLoginJP@@6B@       0044cf34     DBAccess.obj
 0002:0000df48       ??_R3CSPLoginJP@@8         0044cf48     DBAccess.obj
 0002:0000df58       ??_R2CSPLoginJP@@8         0044cf58     DBAccess.obj
 0002:0000df68       ??_R1A@?0A@EA@CSPLoginJP@@8 0044cf68     DBAccess.obj
 0002:0000df84       ??_R4CSPCheckForbiddenHWID@@6B@ 0044cf84     DBAccess.obj
 0002:0000df98       ??_R3CSPCheckForbiddenHWID@@8 0044cf98     DBAccess.obj
 0002:0000dfa8       ??_R2CSPCheckForbiddenHWID@@8 0044cfa8     DBAccess.obj
 0002:0000dfb8       ??_R1A@?0A@EA@CSPCheckForbiddenHWID@@8 0044cfb8     DBAccess.obj
 0002:0000dfd4       ??_R4CSPCheckIP@@6B@       0044cfd4     DBAccess.obj
 0002:0000dfe8       ??_R3CSPCheckIP@@8         0044cfe8     DBAccess.obj
 0002:0000dff8       ??_R2CSPCheckIP@@8         0044cff8     DBAccess.obj
 0002:0000e008       ??_R1A@?0A@EA@CSPCheckIP@@8 0044d008     DBAccess.obj
 0002:0000e024       ??_R4CSPLogout@@6B@        0044d024     DBAccess.obj
 0002:0000e038       ??_R3CSPLogout@@8          0044d038     DBAccess.obj
 0002:0000e048       ??_R2CSPLogout@@8          0044d048     DBAccess.obj
 0002:0000e058       ??_R1A@?0A@EA@CSPLogout@@8 0044d058     DBAccess.obj
 0002:0000e074       ??_R4CSPCheckPasswd@@6B@   0044d074     DBAccess.obj
 0002:0000e088       ??_R3CSPCheckPasswd@@8     0044d088     DBAccess.obj
 0002:0000e098       ??_R2CSPCheckPasswd@@8     0044d098     DBAccess.obj
 0002:0000e0a8       ??_R1A@?0A@EA@CSPCheckPasswd@@8 0044d0a8     DBAccess.obj
 0002:0000e0c4       ??_R4CSPRoute@@6B@         0044d0c4     DBAccess.obj
 0002:0000e0d8       ??_R3CSPRoute@@8           0044d0d8     DBAccess.obj
 0002:0000e0e8       ??_R2CSPRoute@@8           0044d0e8     DBAccess.obj
 0002:0000e0f8       ??_R1A@?0A@EA@CSPRoute@@8  0044d0f8     DBAccess.obj
 0002:0000e114       ??_R4CSPVeteran@@6B@       0044d114     DBAccess.obj
 0002:0000e128       ??_R3CSPVeteran@@8         0044d128     DBAccess.obj
 0002:0000e138       ??_R2CSPVeteran@@8         0044d138     DBAccess.obj
 0002:0000e148       ??_R1A@?0A@EA@CSPVeteran@@8 0044d148     DBAccess.obj
 0002:0000e164       ??_R4CTBLGroup@@6B@        0044d164     DBAccess.obj
 0002:0000e178       ??_R3CTBLGroup@@8          0044d178     DBAccess.obj
 0002:0000e188       ??_R2CTBLGroup@@8          0044d188     DBAccess.obj
 0002:0000e198       ??_R1A@?0A@EA@CTBLGroup@@8 0044d198     DBAccess.obj
 0002:0000e1b4       ??_R4CTBLVeteranChart@@6B@ 0044d1b4     DBAccess.obj
 0002:0000e1c8       ??_R3CTBLVeteranChart@@8   0044d1c8     DBAccess.obj
 0002:0000e1d8       ??_R2CTBLVeteranChart@@8   0044d1d8     DBAccess.obj
 0002:0000e1e8       ??_R1A@?0A@EA@CTBLVeteranChart@@8 0044d1e8     DBAccess.obj
 0002:0000e204       ??_R4CTBLChannel@@6B@      0044d204     DBAccess.obj
 0002:0000e218       ??_R3CTBLChannel@@8        0044d218     DBAccess.obj
 0002:0000e228       ??_R2CTBLChannel@@8        0044d228     DBAccess.obj
 0002:0000e238       ??_R1A@?0A@EA@CTBLChannel@@8 0044d238     DBAccess.obj
 0002:0000e254       ??_R4CTBLGroupList@@6B@    0044d254     DBAccess.obj
 0002:0000e268       ??_R3CTBLGroupList@@8      0044d268     DBAccess.obj
 0002:0000e278       ??_R2CTBLGroupList@@8      0044d278     DBAccess.obj
 0002:0000e288       ??_R1A@?0A@EA@CTBLGroupList@@8 0044d288     DBAccess.obj
 0002:0000e2a4       ??_R4CTBLUserCount@@6B@    0044d2a4     DBAccess.obj
 0002:0000e2b8       ??_R3CTBLUserCount@@8      0044d2b8     DBAccess.obj
 0002:0000e2c8       ??_R2CTBLUserCount@@8      0044d2c8     DBAccess.obj
 0002:0000e2d8       ??_R1A@?0A@EA@CTBLUserCount@@8 0044d2d8     DBAccess.obj
 0002:0000e2f4       ??_R4CSPTestLogin@@6B@     0044d2f4     DBAccess.obj
 0002:0000e308       ??_R3CSPTestLogin@@8       0044d308     DBAccess.obj
 0002:0000e318       ??_R2CSPTestLogin@@8       0044d318     DBAccess.obj
 0002:0000e328       ??_R1A@?0A@EA@CSPTestLogin@@8 0044d328     DBAccess.obj
 0002:0000e344       ??_R4CSPCreateChar@@6B@    0044d344     DBAccess.obj
 0002:0000e358       ??_R3CSPCreateChar@@8      0044d358     DBAccess.obj
 0002:0000e368       ??_R2CSPCreateChar@@8      0044d368     DBAccess.obj
 0002:0000e378       ??_R1A@?0A@EA@CSPCreateChar@@8 0044d378     DBAccess.obj
 0002:0000e394       ??_R4CSPDeleteChar@@6B@    0044d394     DBAccess.obj
 0002:0000e3a8       ??_R3CSPDeleteChar@@8      0044d3a8     DBAccess.obj
 0002:0000e3b8       ??_R2CSPDeleteChar@@8      0044d3b8     DBAccess.obj
 0002:0000e3c8       ??_R1A@?0A@EA@CSPDeleteChar@@8 0044d3c8     DBAccess.obj
 0002:0000e3e4       ??_R4CSPFindServerID@@6B@  0044d3e4     DBAccess.obj
 0002:0000e3f8       ??_R3CSPFindServerID@@8    0044d3f8     DBAccess.obj
 0002:0000e408       ??_R2CSPFindServerID@@8    0044d408     DBAccess.obj
 0002:0000e418       ??_R1A@?0A@EA@CSPFindServerID@@8 0044d418     DBAccess.obj
 0002:0000e434       ??_R4CSPAddNewMACAddress@@6B@ 0044d434     DBAccess.obj
 0002:0000e448       ??_R3CSPAddNewMACAddress@@8 0044d448     DBAccess.obj
 0002:0000e458       ??_R2CSPAddNewMACAddress@@8 0044d458     DBAccess.obj
 0002:0000e468       ??_R1A@?0A@EA@CSPAddNewMACAddress@@8 0044d468     DBAccess.obj
 0002:0000e484       ??_R4CSPGetClientSha@@6B@  0044d484     DBAccess.obj
 0002:0000e498       ??_R3CSPGetClientSha@@8    0044d498     DBAccess.obj
 0002:0000e4a8       ??_R2CSPGetClientSha@@8    0044d4a8     DBAccess.obj
 0002:0000e4b8       ??_R1A@?0A@EA@CSPGetClientSha@@8 0044d4b8     DBAccess.obj
 0002:0000e4d4       ??_R4CTBLChar@@6B@         0044d4d4     DBAccess.obj
 0002:0000e4e8       ??_R3CTBLChar@@8           0044d4e8     DBAccess.obj
 0002:0000e4f8       ??_R2CTBLChar@@8           0044d4f8     DBAccess.obj
 0002:0000e508       ??_R1A@?0A@EA@CTBLChar@@8  0044d508     DBAccess.obj
 0002:0000e524       ??_R4CTBLItem@@6B@         0044d524     DBAccess.obj
 0002:0000e538       ??_R3CTBLItem@@8           0044d538     DBAccess.obj
 0002:0000e548       ??_R2CTBLItem@@8           0044d548     DBAccess.obj
 0002:0000e558       ??_R1A@?0A@EA@CTBLItem@@8  0044d558     DBAccess.obj
 0002:0000e574       ??_R4CSPLoadService@@6B@   0044d574     DBAccess.obj
 0002:0000e588       ??_R3CSPLoadService@@8     0044d588     DBAccess.obj
 0002:0000e598       ??_R2CSPLoadService@@8     0044d598     DBAccess.obj
 0002:0000e5a8       ??_R1A@?0A@EA@CSPLoadService@@8 0044d5a8     DBAccess.obj
 0002:0000e5c4       ??_R4CSPAgreement@@6B@     0044d5c4     DBAccess.obj
 0002:0000e5d8       ??_R3CSPAgreement@@8       0044d5d8     DBAccess.obj
 0002:0000e5e8       ??_R2CSPAgreement@@8       0044d5e8     DBAccess.obj
 0002:0000e5f8       ??_R1A@?0A@EA@CSPAgreement@@8 0044d5f8     DBAccess.obj
 0002:0000e614       ??_R4CSPFindBOWPlayer@@6B@ 0044d614     DBAccess.obj
 0002:0000e628       ??_R3CSPFindBOWPlayer@@8   0044d628     DBAccess.obj
 0002:0000e638       ??_R2CSPFindBOWPlayer@@8   0044d638     DBAccess.obj
 0002:0000e648       ??_R1A@?0A@EA@CSPFindBOWPlayer@@8 0044d648     DBAccess.obj
 0002:0000e664       ??_R4CSPFindBRPlayer@@6B@  0044d664     DBAccess.obj
 0002:0000e678       ??_R3CSPFindBRPlayer@@8    0044d678     DBAccess.obj
 0002:0000e688       ??_R2CSPFindBRPlayer@@8    0044d688     DBAccess.obj
 0002:0000e698       ??_R1A@?0A@EA@CSPFindBRPlayer@@8 0044d698     DBAccess.obj
 0002:0000e6b4       ??_R4CSPClearLoginUser@@6B@ 0044d6b4     DBAccess.obj
 0002:0000e6c8       ??_R3CSPClearLoginUser@@8  0044d6c8     DBAccess.obj
 0002:0000e6d8       ??_R2CSPClearLoginUser@@8  0044d6d8     DBAccess.obj
 0002:0000e6e8       ??_R1A@?0A@EA@CSPClearLoginUser@@8 0044d6e8     DBAccess.obj
 0002:0000e704       ??_R4CSPGetNation@@6B@     0044d704     DBAccess.obj
 0002:0000e718       ??_R3CSPGetNation@@8       0044d718     DBAccess.obj
 0002:0000e728       ??_R2CSPGetNation@@8       0044d728     DBAccess.obj
 0002:0000e738       ??_R1A@?0A@EA@CSPGetNation@@8 0044d738     DBAccess.obj
 0002:0000e754       ??_R4CSPGetGuildInfo@@6B@  0044d754     DBAccess.obj
 0002:0000e768       ??_R3CSPGetGuildInfo@@8    0044d768     DBAccess.obj
 0002:0000e778       ??_R2CSPGetGuildInfo@@8    0044d778     DBAccess.obj
 0002:0000e788       ??_R1A@?0A@EA@CSPGetGuildInfo@@8 0044d788     DBAccess.obj
 0002:0000e7a4       ??_R4CSPGetBanReason@@6B@  0044d7a4     DBAccess.obj
 0002:0000e7b8       ??_R3CSPGetBanReason@@8    0044d7b8     DBAccess.obj
 0002:0000e7c8       ??_R2CSPGetBanReason@@8    0044d7c8     DBAccess.obj
 0002:0000e7d8       ??_R1A@?0A@EA@CSPGetBanReason@@8 0044d7d8     DBAccess.obj
 0002:0000e7f4       ??_R4?$basic_istream@DU?$char_traits@D@std@@@std@@6B@ 0044d7f4     mailer.obj
 0002:0000e808       ??_R3?$basic_istream@DU?$char_traits@D@std@@@std@@8 0044d808     mailer.obj
 0002:0000e818       ??_R2?$basic_istream@DU?$char_traits@D@std@@@std@@8 0044d818     mailer.obj
 0002:0000e82c       ??_R1A@?0A@EA@?$basic_istream@DU?$char_traits@D@std@@@std@@8 0044d82c     mailer.obj
 0002:0000e848       ??_R4CTLoginSession@@6B@   0044d848     TLoginSession.obj
 0002:0000e85c       ??_R3CTLoginSession@@8     0044d85c     TLoginSession.obj
 0002:0000e86c       ??_R2CTLoginSession@@8     0044d86c     TLoginSession.obj
 0002:0000e878       ??_R1A@?0A@EA@CTLoginSession@@8 0044d878     TLoginSession.obj
 0002:0000e894       ??_R1A@?0A@EA@CSession@@8  0044d894     TLoginSession.obj
 0002:0000e8b0       ??_R3CSession@@8           0044d8b0     TLoginSession.obj
 0002:0000e8c0       ??_R2CSession@@8           0044d8c0     TLoginSession.obj
 0002:0000e8c8       ??_R3CAtlModule@ATL@@8     0044d8c8     TLoginSvr.obj
 0002:0000e8d8       ??_R2CAtlModule@ATL@@8     0044d8d8     TLoginSvr.obj
 0002:0000e8e4       ??_R1A@?0A@EA@CAtlModule@ATL@@8 0044d8e4     TLoginSvr.obj
 0002:0000e900       ??_R13?0A@EA@_ATL_MODULE70@ATL@@8 0044d900     TLoginSvr.obj
 0002:0000e91c       ??_R3_ATL_MODULE70@ATL@@8  0044d91c     TLoginSvr.obj
 0002:0000e92c       ??_R2_ATL_MODULE70@ATL@@8  0044d92c     TLoginSvr.obj
 0002:0000e934       ??_R1A@?0A@EA@_ATL_MODULE70@ATL@@8 0044d934     TLoginSvr.obj
 0002:0000e950       ??_R4CTLoginSvrModule@@6B?$CAtlServiceModuleT@VCTLoginSvrModule@@$0GE@@ATL@@@ 0044d950     TLoginSvr.obj
 0002:0000e964       ??_R3CTLoginSvrModule@@8   0044d964     TLoginSvr.obj
 0002:0000e974       ??_R2CTLoginSvrModule@@8   0044d974     TLoginSvr.obj
 0002:0000e998       ??_R1A@?0A@EA@CTLoginSvrModule@@8 0044d998     TLoginSvr.obj
 0002:0000e9b4       ??_R1A@?0A@EA@?$CAtlServiceModuleT@VCTLoginSvrModule@@$0GE@@ATL@@8 0044d9b4     TLoginSvr.obj
 0002:0000e9d0       ??_R3?$CAtlServiceModuleT@VCTLoginSvrModule@@$0GE@@ATL@@8 0044d9d0     TLoginSvr.obj
 0002:0000e9e0       ??_R2?$CAtlServiceModuleT@VCTLoginSvrModule@@$0GE@@ATL@@8 0044d9e0     TLoginSvr.obj
 0002:0000e9fc       ??_R1A@?0A@EA@?$CAtlExeModuleT@VCTLoginSvrModule@@@ATL@@8 0044d9fc     TLoginSvr.obj
 0002:0000ea18       ??_R3?$CAtlExeModuleT@VCTLoginSvrModule@@@ATL@@8 0044da18     TLoginSvr.obj
 0002:0000ea28       ??_R2?$CAtlExeModuleT@VCTLoginSvrModule@@@ATL@@8 0044da28     TLoginSvr.obj
 0002:0000ea40       ??_R1A@?0A@EA@?$CAtlModuleT@VCTLoginSvrModule@@@ATL@@8 0044da40     TLoginSvr.obj
 0002:0000ea5c       ??_R3?$CAtlModuleT@VCTLoginSvrModule@@@ATL@@8 0044da5c     TLoginSvr.obj
 0002:0000ea6c       ??_R2?$CAtlModuleT@VCTLoginSvrModule@@@ATL@@8 0044da6c     TLoginSvr.obj
 0002:0000ea7c       ??_R1CM@?0A@EN@?$CAtlValidateModuleConfiguration@$0A@VCTLoginSvrModule@@@ATL@@8 0044da7c     TLoginSvr.obj
 0002:0000ea98       ??_R3?$CAtlValidateModuleConfiguration@$0A@VCTLoginSvrModule@@@ATL@@8 0044da98     TLoginSvr.obj
 0002:0000eaa8       ??_R2?$CAtlValidateModuleConfiguration@$0A@VCTLoginSvrModule@@@ATL@@8 0044daa8     TLoginSvr.obj
 0002:0000eab0       ??_R1A@?0A@EA@?$CAtlValidateModuleConfiguration@$0A@VCTLoginSvrModule@@@ATL@@8 0044dab0     TLoginSvr.obj
 0002:0000eacc       ??_R1BFE@?0A@EA@TServerSystem@@8 0044dacc     TLoginSvr.obj
 0002:0000eae8       ??_R4CTLoginSvrModule@@6BTServerSystem@@@ 0044dae8     TLoginSvr.obj
 0002:0000eafc       ??_R4CTUser@@6B@           0044dafc     TUser.obj
 0002:0000eb10       ??_R3CTUser@@8             0044db10     TUser.obj
 0002:0000eb20       ??_R2CTUser@@8             0044db20     TUser.obj
 0002:0000eb30       ??_R1A@?0A@EA@CTUser@@8    0044db30     TUser.obj
 0002:0000eb4c       ??_R4CSqlDatabase@@6B@     0044db4c     TNetLib:SqlDatabase.obj
 0002:0000eb60       ??_R3CSqlDatabase@@8       0044db60     TNetLib:SqlDatabase.obj
 0002:0000eb70       ??_R2CSqlDatabase@@8       0044db70     TNetLib:SqlDatabase.obj
 0002:0000eb78       ??_R1A@?0A@EA@CSqlDatabase@@8 0044db78     TNetLib:SqlDatabase.obj
 0002:0000eb94       ??_R4CSqlBase@@6B@         0044db94     TNetLib:SqlBase.obj
 0002:0000eba8       ??_R4COverlappedEx@@6B@    0044dba8     TNetLib:Packet.obj
 0002:0000ebbc       ??_R3COverlappedEx@@8      0044dbbc     TNetLib:Packet.obj
 0002:0000ebcc       ??_R2COverlappedEx@@8      0044dbcc     TNetLib:Packet.obj
 0002:0000ebd4       ??_R1A@?0A@EA@COverlappedEx@@8 0044dbd4     TNetLib:Packet.obj
 0002:0000ebf0       ??_R4CPacket@@6B@          0044dbf0     TNetLib:Packet.obj
 0002:0000ec04       ??_R3CPacket@@8            0044dc04     TNetLib:Packet.obj
 0002:0000ec14       ??_R2CPacket@@8            0044dc14     TNetLib:Packet.obj
 0002:0000ec1c       ??_R1A@?0A@EA@CPacket@@8   0044dc1c     TNetLib:Packet.obj
 0002:0000ec38       ??_R4CSqlQuery@@6B@        0044dc38     TNetLib:SqlQuery.obj
 0002:0000ec4c       ??_R4CSession@@6B@         0044dc4c     TNetLib:Session.obj
 0002:0000ec60       ??_R4bad_alloc@std@@6B@    0044dc60     libcpmt:xthrow.obj
 0002:0000ec74       ??_R3bad_alloc@std@@8      0044dc74     libcpmt:xthrow.obj
 0002:0000ec84       ??_R2bad_alloc@std@@8      0044dc84     libcpmt:xthrow.obj
 0002:0000ec90       ??_R1A@?0A@EA@bad_alloc@std@@8 0044dc90     libcpmt:xthrow.obj
 0002:0000ecac       ??_R4logic_error@std@@6B@  0044dcac     libcpmt:xthrow.obj
 0002:0000ecc0       ??_R3logic_error@std@@8    0044dcc0     libcpmt:xthrow.obj
 0002:0000ecd0       ??_R2logic_error@std@@8    0044dcd0     libcpmt:xthrow.obj
 0002:0000ecdc       ??_R1A@?0A@EA@logic_error@std@@8 0044dcdc     libcpmt:xthrow.obj
 0002:0000ecf8       ??_R4invalid_argument@std@@6B@ 0044dcf8     libcpmt:xthrow.obj
 0002:0000ed0c       ??_R3invalid_argument@std@@8 0044dd0c     libcpmt:xthrow.obj
 0002:0000ed1c       ??_R2invalid_argument@std@@8 0044dd1c     libcpmt:xthrow.obj
 0002:0000ed2c       ??_R1A@?0A@EA@invalid_argument@std@@8 0044dd2c     libcpmt:xthrow.obj
 0002:0000ed48       ??_R4length_error@std@@6B@ 0044dd48     libcpmt:xthrow.obj
 0002:0000ed5c       ??_R3length_error@std@@8   0044dd5c     libcpmt:xthrow.obj
 0002:0000ed6c       ??_R2length_error@std@@8   0044dd6c     libcpmt:xthrow.obj
 0002:0000ed7c       ??_R1A@?0A@EA@length_error@std@@8 0044dd7c     libcpmt:xthrow.obj
 0002:0000ed98       ??_R4out_of_range@std@@6B@ 0044dd98     libcpmt:xthrow.obj
 0002:0000edac       ??_R3out_of_range@std@@8   0044ddac     libcpmt:xthrow.obj
 0002:0000edbc       ??_R2out_of_range@std@@8   0044ddbc     libcpmt:xthrow.obj
 0002:0000edcc       ??_R1A@?0A@EA@out_of_range@std@@8 0044ddcc     libcpmt:xthrow.obj
 0002:0000ede8       ??_R4_Locimp@locale@std@@6B@ 0044dde8     libcpmt:locale0.obj
 0002:0000edfc       ??_R3_Locimp@locale@std@@8 0044ddfc     libcpmt:locale0.obj
 0002:0000ee0c       ??_R2_Locimp@locale@std@@8 0044de0c     libcpmt:locale0.obj
 0002:0000ee20       ??_R1A@?0A@EA@_Locimp@locale@std@@8 0044de20     libcpmt:locale0.obj
 0002:0000ee3c       ??_R4type_info@@6B@        0044de3c     LIBCMT:std_type_info_static.obj
 0002:0000ee50       ??_R3type_info@@8          0044de50     LIBCMT:std_type_info_static.obj
 0002:0000ee60       ??_R2type_info@@8          0044de60     LIBCMT:std_type_info_static.obj
 0002:0000ee68       ??_R1A@?0A@EA@type_info@@8 0044de68     LIBCMT:std_type_info_static.obj
 0002:0000ee84       ??_R4bad_array_new_length@std@@6B@ 0044de84     LIBCMT:throw_bad_alloc.obj
 0002:0000ee98       ??_R3bad_array_new_length@std@@8 0044de98     LIBCMT:throw_bad_alloc.obj
 0002:0000eea8       ??_R2bad_array_new_length@std@@8 0044dea8     LIBCMT:throw_bad_alloc.obj
 0002:0000eeb8       ??_R1A@?0A@EA@bad_array_new_length@std@@8 0044deb8     LIBCMT:throw_bad_alloc.obj
 0002:0000eed4       ??_R4bad_exception@std@@6B@ 0044ded4     libvcruntime:frame.obj
 0002:0000eee8       ??_R3bad_exception@std@@8  0044dee8     libvcruntime:frame.obj
 0002:0000eef8       ??_R2bad_exception@std@@8  0044def8     libvcruntime:frame.obj
 0002:0000ef04       ??_R1A@?0A@EA@bad_exception@std@@8 0044df04     libvcruntime:frame.obj
 0002:0000ef20       ??_R4exception@std@@6B@    0044df20     TServerSystem:TServerSystem.obj
 0002:0000ef34       ??_R2system_error@std@@8   0044df34     TServerSystem:TServerSystem.obj
 0002:0000ef48       ??_R1A@?0A@EA@system_error@std@@8 0044df48     TServerSystem:TServerSystem.obj
 0002:0000ef64       ??_R4?$basic_ostream@DU?$char_traits@D@std@@@std@@6B@ 0044df64     TServerSystem:TServerSystem.obj
 0002:0000ef78       ??_R3?$ctype@D@std@@8      0044df78     TServerSystem:TServerSystem.obj
 0002:0000ef88       ??_R3TServerSystem@@8      0044df88     TServerSystem:TServerSystem.obj
 0002:0000ef98       ??_R1A@?0A@EA@_Iostream_error_category@std@@8 0044df98     TServerSystem:TServerSystem.obj
 0002:0000efb4       ??_R4runtime_error@std@@6B@ 0044dfb4     TServerSystem:TServerSystem.obj
 0002:0000efc8       ??_R4_System_error@std@@6B@ 0044dfc8     TServerSystem:TServerSystem.obj
 0002:0000efdc       ??_R3_Facet_base@std@@8    0044dfdc     TServerSystem:TServerSystem.obj
 0002:0000efec       ??_R3_Crt_new_delete@std@@8 0044dfec     TServerSystem:TServerSystem.obj
 0002:0000effc       ??_R1A@?0A@EA@runtime_error@std@@8 0044dffc     TServerSystem:TServerSystem.obj
 0002:0000f018       ??_R2_System_error@std@@8  0044e018     TServerSystem:TServerSystem.obj
 0002:0000f028       ??_R2?$codecvt@DDU_Mbstatet@@@std@@8 0044e028     TServerSystem:TServerSystem.obj
 0002:0000f040       ??_R13?0A@EA@_Crt_new_delete@std@@8 0044e040     TServerSystem:TServerSystem.obj
 0002:0000f05c       ??_R2TServerSystem@@8      0044e05c     TServerSystem:TServerSystem.obj
 0002:0000f064       ??_R17A@3EA@?$_Iosb@H@std@@8 0044e064     TServerSystem:TServerSystem.obj
 0002:0000f080       ??_R1A@?0A@EA@exception@std@@8 0044e080     TServerSystem:TServerSystem.obj
 0002:0000f09c       ??_R4_Iostream_error_category@std@@6B@ 0044e09c     TServerSystem:TServerSystem.obj
 0002:0000f0b0       ??_R4ios_base@std@@6B@     0044e0b0     TServerSystem:TServerSystem.obj
 0002:0000f0c4       ??_R4system_error@std@@6B@ 0044e0c4     TServerSystem:TServerSystem.obj
 0002:0000f0d8       ??_R1A@?0A@EA@_Generic_error_category@std@@8 0044e0d8     TServerSystem:TServerSystem.obj
 0002:0000f0f4       ??_R1A@?0A@EA@?$basic_streambuf@DU?$char_traits@D@std@@@std@@8 0044e0f4     TServerSystem:TServerSystem.obj
 0002:0000f110       ??_R1A@?0A@EA@_Facet_base@std@@8 0044e110     TServerSystem:TServerSystem.obj
 0002:0000f12c       ??_R3_System_error@std@@8  0044e12c     TServerSystem:TServerSystem.obj
 0002:0000f13c       ??_R3_Iostream_error_category@std@@8 0044e13c     TServerSystem:TServerSystem.obj
 0002:0000f14c       ??_R4?$basic_ios@DU?$char_traits@D@std@@@std@@6B@ 0044e14c     TServerSystem:TServerSystem.obj
 0002:0000f160       ??_R2exception@std@@8      0044e160     TServerSystem:TServerSystem.obj
 0002:0000f168       ??_R4failure@ios_base@std@@6B@ 0044e168     TServerSystem:TServerSystem.obj
 0002:0000f17c       ??_R2?$basic_ostream@DU?$char_traits@D@std@@@std@@8 0044e17c     TServerSystem:TServerSystem.obj
 0002:0000f190       ??_R3?$basic_ios@DU?$char_traits@D@std@@@std@@8 0044e190     TServerSystem:TServerSystem.obj
 0002:0000f1a0       ??_R3_Generic_error_category@std@@8 0044e1a0     TServerSystem:TServerSystem.obj
 0002:0000f1b0       ??_R2_Iostream_error_category@std@@8 0044e1b0     TServerSystem:TServerSystem.obj
 0002:0000f1c0       ??_R2error_category@std@@8 0044e1c0     TServerSystem:TServerSystem.obj
 0002:0000f1c8       ??_R1A@?0A@EA@facet@locale@std@@8 0044e1c8     TServerSystem:TServerSystem.obj
 0002:0000f1e4       ??_R2failure@ios_base@std@@8 0044e1e4     TServerSystem:TServerSystem.obj
 0002:0000f1fc       ??_R3failure@ios_base@std@@8 0044e1fc     TServerSystem:TServerSystem.obj
 0002:0000f20c       ??_R4TServerSystem@@6B@    0044e20c     TServerSystem:TServerSystem.obj
 0002:0000f220       ??_R2codecvt_base@std@@8   0044e220     TServerSystem:TServerSystem.obj
 0002:0000f234       ??_R2?$ctype@D@std@@8      0044e234     TServerSystem:TServerSystem.obj
 0002:0000f24c       ??_R1A@?0A@EA@codecvt_base@std@@8 0044e24c     TServerSystem:TServerSystem.obj
 0002:0000f268       ??_R1A@?0A@EA@ios_base@std@@8 0044e268     TServerSystem:TServerSystem.obj
 0002:0000f284       ??_R3exception@std@@8      0044e284     TServerSystem:TServerSystem.obj
 0002:0000f294       ??_R1A@?0A@EA@?$basic_ostream@DU?$char_traits@D@std@@@std@@8 0044e294     TServerSystem:TServerSystem.obj
 0002:0000f2b0       ??_R3codecvt_base@std@@8   0044e2b0     TServerSystem:TServerSystem.obj
 0002:0000f2c0       ??_R4?$basic_filebuf@DU?$char_traits@D@std@@@std@@6B@ 0044e2c0     TServerSystem:TServerSystem.obj
 0002:0000f2d4       ??_R1A@?0A@EA@TServerSystem@@8 0044e2d4     TServerSystem:TServerSystem.obj
 0002:0000f2f0       ??_R1A@?0A@EA@failure@ios_base@std@@8 0044e2f0     TServerSystem:TServerSystem.obj
 0002:0000f30c       ??_R2?$basic_streambuf@DU?$char_traits@D@std@@@std@@8 0044e30c     TServerSystem:TServerSystem.obj
 0002:0000f314       ??_R1A@?0A@EA@?$_Iosb@H@std@@8 0044e314     TServerSystem:TServerSystem.obj
 0002:0000f330       ??_R3facet@locale@std@@8   0044e330     TServerSystem:TServerSystem.obj
 0002:0000f340       ??_R3ctype_base@std@@8     0044e340     TServerSystem:TServerSystem.obj
 0002:0000f350       ??_R2_Generic_error_category@std@@8 0044e350     TServerSystem:TServerSystem.obj
 0002:0000f35c       ??_R1A@?0A@EA@_System_error@std@@8 0044e35c     TServerSystem:TServerSystem.obj
 0002:0000f378       ??_R3error_category@std@@8 0044e378     TServerSystem:TServerSystem.obj
 0002:0000f388       ??_R1A@?0A@EA@_Crt_new_delete@std@@8 0044e388     TServerSystem:TServerSystem.obj
 0002:0000f3a4       ??_R3?$codecvt@DDU_Mbstatet@@@std@@8 0044e3a4     TServerSystem:TServerSystem.obj
 0002:0000f3b4       ??_R4_Facet_base@std@@6B@  0044e3b4     TServerSystem:TServerSystem.obj
 0002:0000f3c8       ??_R1A@?0A@EA@?$basic_filebuf@DU?$char_traits@D@std@@@std@@8 0044e3c8     TServerSystem:TServerSystem.obj
 0002:0000f3e4       ??_R2runtime_error@std@@8  0044e3e4     TServerSystem:TServerSystem.obj
 0002:0000f3f0       ??_R1A@A@3FA@?$basic_ios@DU?$char_traits@D@std@@@std@@8 0044e3f0     TServerSystem:TServerSystem.obj
 0002:0000f40c       ??_R3?$basic_filebuf@DU?$char_traits@D@std@@@std@@8 0044e40c     TServerSystem:TServerSystem.obj
 0002:0000f41c       ??_R4?$basic_streambuf@DU?$char_traits@D@std@@@std@@6B@ 0044e41c     TServerSystem:TServerSystem.obj
 0002:0000f430       ??_R2ios_base@std@@8       0044e430     TServerSystem:TServerSystem.obj
 0002:0000f43c       ??_R4?$codecvt@DDU_Mbstatet@@@std@@6B@ 0044e43c     TServerSystem:TServerSystem.obj
 0002:0000f450       ??_R3?$basic_ostream@DU?$char_traits@D@std@@@std@@8 0044e450     TServerSystem:TServerSystem.obj
 0002:0000f460       ??_R1A@?0A@EA@ctype_base@std@@8 0044e460     TServerSystem:TServerSystem.obj
 0002:0000f47c       ??_R2_Crt_new_delete@std@@8 0044e47c     TServerSystem:TServerSystem.obj
 0002:0000f484       ??_R1A@?0A@EA@?$ctype@D@std@@8 0044e484     TServerSystem:TServerSystem.obj
 0002:0000f4a0       ??_R3ios_base@std@@8       0044e4a0     TServerSystem:TServerSystem.obj
 0002:0000f4b0       ??_R2?$basic_filebuf@DU?$char_traits@D@std@@@std@@8 0044e4b0     TServerSystem:TServerSystem.obj
 0002:0000f4bc       ??_R3?$basic_streambuf@DU?$char_traits@D@std@@@std@@8 0044e4bc     TServerSystem:TServerSystem.obj
 0002:0000f4cc       ??_R2?$_Iosb@H@std@@8      0044e4cc     TServerSystem:TServerSystem.obj
 0002:0000f4d4       ??_R3system_error@std@@8   0044e4d4     TServerSystem:TServerSystem.obj
 0002:0000f4e4       ??_R1A@A@3EA@ios_base@std@@8 0044e4e4     TServerSystem:TServerSystem.obj
 0002:0000f500       ??_R1A@?0A@EA@?$basic_ios@DU?$char_traits@D@std@@@std@@8 0044e500     TServerSystem:TServerSystem.obj
 0002:0000f51c       ??_R3?$_Iosb@H@std@@8      0044e51c     TServerSystem:TServerSystem.obj
 0002:0000f52c       ??_R2_Facet_base@std@@8    0044e52c     TServerSystem:TServerSystem.obj
 0002:0000f534       ??_R2facet@locale@std@@8   0044e534     TServerSystem:TServerSystem.obj
 0002:0000f544       ??_R17?0A@EA@?$_Iosb@H@std@@8 0044e544     TServerSystem:TServerSystem.obj
 0002:0000f560       ??_R4?$ctype@D@std@@6B@    0044e560     TServerSystem:TServerSystem.obj
 0002:0000f574       ??_R3runtime_error@std@@8  0044e574     TServerSystem:TServerSystem.obj
 0002:0000f584       ??_R2?$basic_ios@DU?$char_traits@D@std@@@std@@8 0044e584     TServerSystem:TServerSystem.obj
 0002:0000f594       ??_R2ctype_base@std@@8     0044e594     TServerSystem:TServerSystem.obj
 0002:0000f5a8       ??_R1A@?0A@EA@?$codecvt@DDU_Mbstatet@@@std@@8 0044e5a8     TServerSystem:TServerSystem.obj
 0002:0000f5c4       ??_R1A@?0A@EA@error_category@std@@8 0044e5c4     TServerSystem:TServerSystem.obj
 0002:0000f5e0       ___safe_se_handler_table   0044e5e0     <linker-defined>
 0002:0000fbb4       ___rtc_iaa                 0044ebb4     LIBCMT:initsect.obj
 0002:0000fbb8       ___rtc_izz                 0044ebb8     LIBCMT:initsect.obj
 0002:0000fbbc       ___rtc_taa                 0044ebbc     LIBCMT:initsect.obj
 0002:0000fbc0       ___rtc_tzz                 0044ebc0     LIBCMT:initsect.obj
 0002:0000fbc4       __tls_start                0044ebc4     LIBCMT:tlssup.obj
 0002:0000fbc8       __Init_thread_epoch        0044ebc8     LIBCMT:thread_safe_statics.obj
 0002:0000fbcc       __tls_end                  0044ebcc     LIBCMT:tlssup.obj
 0002:000109f8       __TI1?AVCAtlException@ATL@@ 0044f9f8     CSHandler.obj
 0002:00010a08       __CTA1?AVCAtlException@ATL@@ 0044fa08     CSHandler.obj
 0002:00010a10       __CT??_R0?AVCAtlException@ATL@@@84 0044fa10     CSHandler.obj
 0002:00011498       __TI2?AVbad_alloc@std@@    00450498     libcpmt:xthrow.obj
 0002:000114a8       __CTA2?AVbad_alloc@std@@   004504a8     libcpmt:xthrow.obj
 0002:000114b4       __CT??_R0?AVbad_alloc@std@@@8??0bad_alloc@std@@QAE@ABV01@@Z12 004504b4     libcpmt:xthrow.obj
 0002:000114d0       __TI3?AVinvalid_argument@std@@ 004504d0     libcpmt:xthrow.obj
 0002:000114e0       __CTA3?AVinvalid_argument@std@@ 004504e0     libcpmt:xthrow.obj
 0002:000114f0       __CT??_R0?AVinvalid_argument@std@@@8??0invalid_argument@std@@QAE@ABV01@@Z12 004504f0     libcpmt:xthrow.obj
 0002:0001150c       __CT??_R0?AVlogic_error@std@@@8??0logic_error@std@@QAE@ABV01@@Z12 0045050c     libcpmt:xthrow.obj
 0002:00011528       __TI3?AVlength_error@std@@ 00450528     libcpmt:xthrow.obj
 0002:00011538       __CTA3?AVlength_error@std@@ 00450538     libcpmt:xthrow.obj
 0002:00011548       __CT??_R0?AVlength_error@std@@@8??0length_error@std@@QAE@ABV01@@Z12 00450548     libcpmt:xthrow.obj
 0002:00011564       __TI3?AVout_of_range@std@@ 00450564     libcpmt:xthrow.obj
 0002:00011574       __CTA3?AVout_of_range@std@@ 00450574     libcpmt:xthrow.obj
 0002:00011584       __CT??_R0?AVout_of_range@std@@@8??0out_of_range@std@@QAE@ABV01@@Z12 00450584     libcpmt:xthrow.obj
 0002:00011634       __TI3?AVbad_array_new_length@std@@ 00450634     LIBCMT:throw_bad_alloc.obj
 0002:00011644       __CTA3?AVbad_array_new_length@std@@ 00450644     LIBCMT:throw_bad_alloc.obj
 0002:00011654       __CT??_R0?AVbad_array_new_length@std@@@8??0bad_array_new_length@std@@QAE@ABV01@@Z12 00450654     LIBCMT:throw_bad_alloc.obj
 0002:00011774       __TI2?AVbad_exception@std@@ 00450774     libvcruntime:frame.obj
 0002:00011784       __CTA2?AVbad_exception@std@@ 00450784     libvcruntime:frame.obj
 0002:00011790       __CT??_R0?AVbad_exception@std@@@8??0bad_exception@std@@QAE@ABV01@@Z12 00450790     libvcruntime:frame.obj
 0002:00011e3c       __TI2?AVruntime_error@std@@ 00450e3c     TServerSystem:TServerSystem.obj
 0002:00011e4c       __CT??_R0?AVsystem_error@std@@@8??0system_error@std@@QAE@ABV01@@Z20 00450e4c     TServerSystem:TServerSystem.obj
 0002:00011e68       __CTA5?AVfailure@ios_base@std@@ 00450e68     TServerSystem:TServerSystem.obj
 0002:00011e80       __CT??_R0?AVruntime_error@std@@@8??0runtime_error@std@@QAE@ABV01@@Z12 00450e80     TServerSystem:TServerSystem.obj
 0002:00011e9c       __CT??_R0?AVexception@std@@@8??0exception@std@@QAE@ABV01@@Z12 00450e9c     TServerSystem:TServerSystem.obj
 0002:00011eb8       __CTA2?AVruntime_error@std@@ 00450eb8     TServerSystem:TServerSystem.obj
 0002:00011ec4       __TI5?AVfailure@ios_base@std@@ 00450ec4     TServerSystem:TServerSystem.obj
 0002:00011ed4       __CT??_R0?AV_System_error@std@@@8??0_System_error@std@@QAE@ABV01@@Z20 00450ed4     TServerSystem:TServerSystem.obj
 0002:00011ef0       __CT??_R0?AVfailure@ios_base@std@@@8??0failure@ios_base@std@@QAE@ABV012@@Z20 00450ef0     TServerSystem:TServerSystem.obj
 0002:00011f0c       __IMPORT_DESCRIPTOR_WS2_32 00450f0c     ws2_32:WS2_32.dll
 0002:00011f20       __IMPORT_DESCRIPTOR_MSWSOCK 00450f20     mswsock:MSWSOCK.dll
 0002:00011f34       __IMPORT_DESCRIPTOR_KERNEL32 00450f34     kernel32:KERNEL32.dll
 0002:00011f48       __IMPORT_DESCRIPTOR_USER32 00450f48     user32:USER32.dll
 0002:00011f5c       __IMPORT_DESCRIPTOR_ADVAPI32 00450f5c     advapi32:ADVAPI32.dll
 0002:00011f70       __IMPORT_DESCRIPTOR_ole32  00450f70     ole32:ole32.dll
 0002:00011f84       __IMPORT_DESCRIPTOR_ODBC32 00450f84     odbc32:ODBC32.dll
 0002:00011f98       __NULL_IMPORT_DESCRIPTOR   00450f98     ws2_32:WS2_32.dll
 0003:00000000       ?g_4skey@@3PA_JA           00452000     TNetLib:Session.obj
 0003:0000003c       ?_Sync@ios_base@std@@0_NA  0045203c     libcpmt:ios.obj
 0003:00000040       ?_PJP_CPP_Copyright@@3PADA 00452040     libcpmt:iosptrs.obj
 0003:00000098       ___scrt_native_dllmain_reason 00452098     LIBCMT:utility.obj
 0003:0000009c       __Init_global_epoch        0045209c     LIBCMT:thread_safe_statics.obj
 0003:000000a0       ___security_cookie_complement 004520a0     LIBCMT:gs_cookie.obj
 0003:000000a4       ___security_cookie         004520a4     LIBCMT:gs_cookie.obj
 0003:000000b0       __fltused                  004520b0     LIBCMT:fltused.obj
 0003:000000c0       ___isa_enabled             004520c0     LIBCMT:cpu_disp.obj
 0003:000000d0       ___scrt_default_matherr    004520d0     LIBCMT:matherr.obj
 0003:000000f0       __NLG_Destination          004520f0     libvcruntime:exsup.obj
 0003:00000108       __iob                      00452108     libucrt:_file.obj
 0003:000001b0       ___acrt_lconv_c            004521b0     libucrt:localeconv.obj
 0003:00000200       ___acrt_lconv              00452200     libucrt:localeconv.obj
 0003:00000204       ___acrt_lconv_static_decimal 00452204     libucrt:localeconv.obj
 0003:00000208       ___acrt_lconv_static_W_decimal 00452208     libucrt:localeconv.obj
 0003:0000020c       __pctype                   0045220c     libucrt:ctype.obj
 0003:00000210       __pwctype                  00452210     libucrt:ctype.obj
 0003:00000220       ___abort_behavior          00452220     libucrt:abort.obj
 0003:00000238       ___acrt_initial_locale_data 00452238     libucrt:nlsdata.obj
 0003:000002f0       ___acrt_initial_locale_pointers 004522f0     libucrt:nlsdata.obj
 0003:000002f8       ___acrt_wide_c_locale_string 004522f8     libucrt:nlsdata.obj
 0003:000002fc       ___mb_cur_max              004522fc     libucrt:nlsdata.obj
 0003:00000300       ___badioinfo               00452300     libucrt:ioinit.obj
 0003:00000338       __lookuptrailbytes         00452338     libucrt:read.obj
 0003:000005e4       ___globallocalestatus      004525e4     libucrt:glstatus.obj
 0003:000005f0       ___acrt_initial_multibyte_data 004525f0     libucrt:mbctype.obj
 0003:00000b28       ??_R0?AVCAtlException@ATL@@@8 00452b28     CSHandler.obj
 0003:00000b48       ??_R0?AVCWin32Heap@ATL@@@8 00452b48     CSHandler.obj
 0003:00000b68       ??_R0?AUIAtlMemMgr@ATL@@@8 00452b68     CSHandler.obj
 0003:00000b88       ??_R0?AUIAtlStringMgr@ATL@@@8 00452b88     CSHandler.obj
 0003:00000ba8       ??_R0?AVCAtlStringMgr@ATL@@@8 00452ba8     CSHandler.obj
 0003:00000bc8       ??_R0?AVCCSLock@@@8        00452bc8     CSHandler.obj
 0003:00000be0       ??_R0?AVCSPLogin@@@8       00452be0     DBAccess.obj
 0003:00000bf8       ??_R0?AVCSqlQuery@@@8      00452bf8     DBAccess.obj
 0003:00000c10       ??_R0?AVCSqlBase@@@8       00452c10     DBAccess.obj
 0003:00000c28       ??_R0?AVCSPLoginJP@@@8     00452c28     DBAccess.obj
 0003:00000c44       ??_R0?AVCSPCheckForbiddenHWID@@@8 00452c44     DBAccess.obj
 0003:00000c68       ??_R0?AVCSPCheckIP@@@8     00452c68     DBAccess.obj
 0003:00000c84       ??_R0?AVCSPLogout@@@8      00452c84     DBAccess.obj
 0003:00000c9c       ??_R0?AVCSPCheckPasswd@@@8 00452c9c     DBAccess.obj
 0003:00000cbc       ??_R0?AVCSPRoute@@@8       00452cbc     DBAccess.obj
 0003:00000cd4       ??_R0?AVCSPVeteran@@@8     00452cd4     DBAccess.obj
 0003:00000cf0       ??_R0?AVCTBLGroup@@@8      00452cf0     DBAccess.obj
 0003:00000d08       ??_R0?AVCTBLVeteranChart@@@8 00452d08     DBAccess.obj
 0003:00000d28       ??_R0?AVCTBLChannel@@@8    00452d28     DBAccess.obj
 0003:00000d44       ??_R0?AVCTBLGroupList@@@8  00452d44     DBAccess.obj
 0003:00000d60       ??_R0?AVCTBLUserCount@@@8  00452d60     DBAccess.obj
 0003:00000d7c       ??_R0?AVCSPTestLogin@@@8   00452d7c     DBAccess.obj
 0003:00000d98       ??_R0?AVCSPCreateChar@@@8  00452d98     DBAccess.obj
 0003:00000db4       ??_R0?AVCSPDeleteChar@@@8  00452db4     DBAccess.obj
 0003:00000dd0       ??_R0?AVCSPFindServerID@@@8 00452dd0     DBAccess.obj
 0003:00000df0       ??_R0?AVCSPAddNewMACAddress@@@8 00452df0     DBAccess.obj
 0003:00000e14       ??_R0?AVCSPGetClientSha@@@8 00452e14     DBAccess.obj
 0003:00000e34       ??_R0?AVCTBLChar@@@8       00452e34     DBAccess.obj
 0003:00000e4c       ??_R0?AVCTBLItem@@@8       00452e4c     DBAccess.obj
 0003:00000e64       ??_R0?AVCSPLoadService@@@8 00452e64     DBAccess.obj
 0003:00000e84       ??_R0?AVCSPAgreement@@@8   00452e84     DBAccess.obj
 0003:00000ea0       ??_R0?AVCSPFindBOWPlayer@@@8 00452ea0     DBAccess.obj
 0003:00000ec0       ??_R0?AVCSPFindBRPlayer@@@8 00452ec0     DBAccess.obj
 0003:00000ee0       ??_R0?AVCSPClearLoginUser@@@8 00452ee0     DBAccess.obj
 0003:00000f00       ??_R0?AVCSPGetNation@@@8   00452f00     DBAccess.obj
 0003:00000f1c       ??_R0?AVCSPGetGuildInfo@@@8 00452f1c     DBAccess.obj
 0003:00000f3c       ??_R0?AVCSPGetBanReason@@@8 00452f3c     DBAccess.obj
 0003:00000f5c       ??_R0?AV?$basic_istream@DU?$char_traits@D@std@@@std@@@8 00452f5c     mailer.obj
 0003:00000f98       ??_R0?AVCTLoginSession@@@8 00452f98     TLoginSession.obj
 0003:00000fb8       ??_R0?AVCSession@@@8       00452fb8     TLoginSession.obj
 0003:00000fd0       ??_R0?AVCAtlModule@ATL@@@8 00452fd0     TLoginSvr.obj
 0003:00000ff0       ??_R0?AU_ATL_MODULE70@ATL@@@8 00452ff0     TLoginSvr.obj
 0003:00001010       ??_R0?AVCTLoginSvrModule@@@8 00453010     TLoginSvr.obj
 0003:00001030       ??_R0?AV?$CAtlServiceModuleT@VCTLoginSvrModule@@$0GE@@ATL@@@8 00453030     TLoginSvr.obj
 0003:00001070       ??_R0?AV?$CAtlExeModuleT@VCTLoginSvrModule@@@ATL@@@8 00453070     TLoginSvr.obj
 0003:000010a8       ??_R0?AV?$CAtlModuleT@VCTLoginSvrModule@@@ATL@@@8 004530a8     TLoginSvr.obj
 0003:000010e0       ??_R0?AU?$CAtlValidateModuleConfiguration@$0A@VCTLoginSvrModule@@@ATL@@@8 004530e0     TLoginSvr.obj
 0003:0000112c       ??_R0?AVCTUser@@@8         0045312c     TUser.obj
 0003:00001144       ??_R0?AVCSqlDatabase@@@8   00453144     TNetLib:SqlDatabase.obj
 0003:00001160       ??_R0?AVCOverlappedEx@@@8  00453160     TNetLib:Packet.obj
 0003:0000117c       ??_R0?AVCPacket@@@8        0045317c     TNetLib:Packet.obj
 0003:00001194       ??_R0?AVbad_alloc@std@@@8  00453194     libcpmt:xthrow.obj
 0003:000011b0       ??_R0?AVinvalid_argument@std@@@8 004531b0     libcpmt:xthrow.obj
 0003:000011d4       ??_R0?AVlogic_error@std@@@8 004531d4     libcpmt:xthrow.obj
 0003:000011f4       ??_R0?AVlength_error@std@@@8 004531f4     libcpmt:xthrow.obj
 0003:00001214       ??_R0?AVout_of_range@std@@@8 00453214     libcpmt:xthrow.obj
 0003:00001234       ??_R0?AV_Locimp@locale@std@@@8 00453234     libcpmt:locale0.obj
 0003:00001258       ??_R0?AVtype_info@@@8      00453258     LIBCMT:std_type_info_static.obj
 0003:00001270       ??_R0?AVbad_array_new_length@std@@@8 00453270     LIBCMT:throw_bad_alloc.obj
 0003:00001298       ??_R0?AVbad_exception@std@@@8 00453298     libvcruntime:frame.obj
 0003:000012b8       ??_R0?AVfailure@ios_base@std@@@8 004532b8     TServerSystem:TServerSystem.obj
 0003:000012dc       ??_R0?AV?$basic_filebuf@DU?$char_traits@D@std@@@std@@@8 004532dc     TServerSystem:TServerSystem.obj
 0003:00001318       ??_R0?AVruntime_error@std@@@8 00453318     TServerSystem:TServerSystem.obj
 0003:00001338       ??_R0?AV?$codecvt@DDU_Mbstatet@@@std@@@8 00453338     TServerSystem:TServerSystem.obj
 0003:00001364       ??_R0?AVios_base@std@@@8   00453364     TServerSystem:TServerSystem.obj
 0003:00001380       ??_R0?AVerror_category@std@@@8 00453380     TServerSystem:TServerSystem.obj
 0003:000013a4       ??_R0?AV?$ctype@D@std@@@8  004533a4     TServerSystem:TServerSystem.obj
 0003:000013c0       ??_R0?AVsystem_error@std@@@8 004533c0     TServerSystem:TServerSystem.obj
 0003:000013e0       ??_R0?AVcodecvt_base@std@@@8 004533e0     TServerSystem:TServerSystem.obj
 0003:00001400       ??_R0?AV_Facet_base@std@@@8 00453400     TServerSystem:TServerSystem.obj
 0003:00001420       ??_R0?AV_Generic_error_category@std@@@8 00453420     TServerSystem:TServerSystem.obj
 0003:0000144c       ??_R0?AU_Crt_new_delete@std@@@8 0045344c     TServerSystem:TServerSystem.obj
 0003:00001470       ??_R0?AV?$_Iosb@H@std@@@8  00453470     TServerSystem:TServerSystem.obj
 0003:0000148c       ??_R0?AV?$basic_streambuf@DU?$char_traits@D@std@@@std@@@8 0045348c     TServerSystem:TServerSystem.obj
 0003:000014c8       ??_R0?AV_Iostream_error_category@std@@@8 004534c8     TServerSystem:TServerSystem.obj
 0003:000014f4       ??_R0?AUctype_base@std@@@8 004534f4     TServerSystem:TServerSystem.obj
 0003:00001514       ??_R0?AVTServerSystem@@@8  00453514     TServerSystem:TServerSystem.obj
 0003:00001530       ??_R0?AV?$basic_ios@DU?$char_traits@D@std@@@std@@@8 00453530     TServerSystem:TServerSystem.obj
 0003:00001568       ??_R0?AVfacet@locale@std@@@8 00453568     TServerSystem:TServerSystem.obj
 0003:00001588       ??_R0?AV?$basic_ostream@DU?$char_traits@D@std@@@std@@@8 00453588     TServerSystem:TServerSystem.obj
 0003:000015c4       ??_R0?AV_System_error@std@@@8 004535c4     TServerSystem:TServerSystem.obj
 0003:000015e4       ??_R0?AVexception@std@@@8  004535e4     TServerSystem:TServerSystem.obj
 0003:00001600       ?m_bInitFailed@CAtlBaseModule@ATL@@2_NA 00453600     CSHandler.obj
 0003:00001604       ?_pAtlModule@ATL@@3PAVCAtlModule@1@A 00453604     CSHandler.obj
 0003:00001608       ?strHeap@?1??GetInstance@CAtlStringMgr@ATL@@SAPAUIAtlStringMgr@3@XZ@4VCWin32Heap@3@A 00453608     CSHandler.obj
 0003:00001614       ?$TSS0@?1??GetInstance@CAtlStringMgr@ATL@@SAPAUIAtlStringMgr@3@XZ@4HA 00453614     CSHandler.obj
 0003:00001618       ?strMgr@?1??GetInstance@CAtlStringMgr@ATL@@SAPAUIAtlStringMgr@3@XZ@4V23@A 00453618     CSHandler.obj
 0003:00001634       ?$TSS1@?1??GetInstance@CAtlStringMgr@ATL@@SAPAUIAtlStringMgr@3@XZ@4HA 00453634     CSHandler.obj
 0003:00001640       ?m_libid@CAtlModule@ATL@@2U_GUID@@A 00453640     TLoginSvr.obj
 0003:00001650       ?_AtlModule@@3VCTLoginSvrModule@@A 00453650     TLoginSvr.obj
 0003:00011e9c       ?g_strSecretKey@@3V?$CStringT@DV?$StrTraitATL@DV?$ChTraitsCRT@D@ATL@@@ATL@@@ATL@@A 00463e9c     TNetLib:Session.obj
 0003:00011ea0       ___@@_PchSym_@00@UyzxpLfkLBCRBCRCACDUEhUEhglibPFOAPhlfixvLRLplkrvUoryUldmUgmvgoryUgmvgoryUivovzhvUhgwzucOlyq@4B2008FD98C1DD4 00463ea0     TNetLib:stdafx.obj
 0003:00011ea4       ?_AtlBaseModule@ATL@@3VCAtlBaseModule@1@A 00463ea4     atls:atlbase.obj
 0003:00011edc       ___@@_PchSym_@00@UztvmgUPdlipUCUhUrmgvinvwrzgvUexgllohUzgohOmzgrevkilqPBACIAJCBDBUlyqiUcIGUhgwzucOlyq@4B2008FD98C1DD4 00463edc     atls:stdafx.obj
 0003:00011fa8       ?_Id_cnt@id@locale@std@@0HA 00463fa8     libcpmt:locale0.obj
 0003:00011fac       ?_Clocptr@_Locimp@locale@std@@0PAV123@A 00463fac     libcpmt:locale0.obj
 0003:00011fb0       ?id@?$ctype@G@std@@2V0locale@2@A 00463fb0     libcpmt:locale0.obj
 0003:00011fb4       ?id@?$codecvt@_WDU_Mbstatet@@@std@@2V0locale@2@A 00463fb4     libcpmt:locale0.obj
 0003:00011fb8       ?id@?$codecvt@GDU_Mbstatet@@@std@@2V0locale@2@A 00463fb8     libcpmt:locale0.obj
 0003:00011fbc       ?id@?$ctype@_W@std@@2V0locale@2@A 00463fbc     libcpmt:locale0.obj
 0003:00011fc0       ?id@?$ctype@D@std@@2V0locale@2@A 00463fc0     libcpmt:locale0.obj
 0003:00011fdc       ?_Index@ios_base@std@@0HA  00463fdc     libcpmt:ios.obj
 0003:00012078       ?cin@std@@3V?$basic_istream@DU?$char_traits@D@std@@@1@A 00464078     libcpmt:cin.obj
 0003:000120e0       ?cout@std@@3V?$basic_ostream@DU?$char_traits@D@std@@@1@A 004640e0     libcpmt:cout.obj
 0003:00012188       ?id@?$num_get@DV?$istreambuf_iterator@DU?$char_traits@D@std@@@std@@@std@@2V0locale@2@A 00464188     libcpmt:locale.obj
 0003:0001218c       ?_Ptr_cin@std@@3PAV?$basic_istream@DU?$char_traits@D@std@@@1@A 0046418c     libcpmt:iosptrs.obj
 0003:00012190       ?_Ptr_cout@std@@3PAV?$basic_ostream@DU?$char_traits@D@std@@@1@A 00464190     libcpmt:iosptrs.obj
 0003:00012194       ?_Ptr_cerr@std@@3PAV?$basic_ostream@DU?$char_traits@D@std@@@1@A 00464194     libcpmt:iosptrs.obj
 0003:00012198       ?_Ptr_clog@std@@3PAV?$basic_ostream@DU?$char_traits@D@std@@@1@A 00464198     libcpmt:iosptrs.obj
 0003:0001219c       ?_Ptr_wcin@std@@3PAV?$basic_istream@_WU?$char_traits@_W@std@@@1@A 0046419c     libcpmt:iosptrs.obj
 0003:000121a0       ?_Ptr_wcout@std@@3PAV?$basic_ostream@_WU?$char_traits@_W@std@@@1@A 004641a0     libcpmt:iosptrs.obj
 0003:000121a4       ?_Ptr_wcerr@std@@3PAV?$basic_ostream@_WU?$char_traits@_W@std@@@1@A 004641a4     libcpmt:iosptrs.obj
 0003:000121a8       ?_Ptr_wclog@std@@3PAV?$basic_ostream@_WU?$char_traits@_W@std@@@1@A 004641a8     libcpmt:iosptrs.obj
 0003:000121d8       ___encodedKERNEL32Functions 004641d8     libcpmt:winapisupp.obj
 0003:00012278       ?id@?$time_put@_WV?$ostreambuf_iterator@_WU?$char_traits@_W@std@@@std@@@std@@2V0locale@2@A 00464278     libcpmt:wlocale.obj
 0003:0001227c       ?id@?$num_get@_WV?$istreambuf_iterator@_WU?$char_traits@_W@std@@@std@@@std@@2V0locale@2@A 0046427c     libcpmt:wlocale.obj
 0003:00012280       ?id@?$num_put@_WV?$ostreambuf_iterator@_WU?$char_traits@_W@std@@@std@@@std@@2V0locale@2@A 00464280     libcpmt:wlocale.obj
 0003:00012284       ?id@?$numpunct@_W@std@@2V0locale@2@A 00464284     libcpmt:wlocale.obj
 0003:00012288       ?id@?$collate@_W@std@@2V0locale@2@A 00464288     libcpmt:wlocale.obj
 0003:0001228c       ?id@?$messages@_W@std@@2V0locale@2@A 0046428c     libcpmt:wlocale.obj
 0003:00012290       ?id@?$money_get@_WV?$istreambuf_iterator@_WU?$char_traits@_W@std@@@std@@@std@@2V0locale@2@A 00464290     libcpmt:wlocale.obj
 0003:00012294       ?id@?$money_put@_WV?$ostreambuf_iterator@_WU?$char_traits@_W@std@@@std@@@std@@2V0locale@2@A 00464294     libcpmt:wlocale.obj
 0003:00012298       ?id@?$moneypunct@_W$0A@@std@@2V0locale@2@A 00464298     libcpmt:wlocale.obj
 0003:0001229c       ?id@?$moneypunct@_W$00@std@@2V0locale@2@A 0046429c     libcpmt:wlocale.obj
 0003:000122a0       ?id@?$time_get@_WV?$istreambuf_iterator@_WU?$char_traits@_W@std@@@std@@@std@@2V0locale@2@A 004642a0     libcpmt:wlocale.obj
 0003:000122a4       ?id@?$num_get@GV?$istreambuf_iterator@GU?$char_traits@G@std@@@std@@@std@@2V0locale@2@A 004642a4     libcpmt:wlocale.obj
 0003:000122a8       ?id@?$num_put@GV?$ostreambuf_iterator@GU?$char_traits@G@std@@@std@@@std@@2V0locale@2@A 004642a8     libcpmt:wlocale.obj
 0003:000122ac       ?id@?$numpunct@G@std@@2V0locale@2@A 004642ac     libcpmt:wlocale.obj
 0003:000122b0       ?id@?$collate@G@std@@2V0locale@2@A 004642b0     libcpmt:wlocale.obj
 0003:000122b4       ?id@?$messages@G@std@@2V0locale@2@A 004642b4     libcpmt:wlocale.obj
 0003:000122b8       ?id@?$money_get@GV?$istreambuf_iterator@GU?$char_traits@G@std@@@std@@@std@@2V0locale@2@A 004642b8     libcpmt:wlocale.obj
 0003:000122bc       ?id@?$money_put@GV?$ostreambuf_iterator@GU?$char_traits@G@std@@@std@@@std@@2V0locale@2@A 004642bc     libcpmt:wlocale.obj
 0003:000122c0       ?id@?$moneypunct@G$0A@@std@@2V0locale@2@A 004642c0     libcpmt:wlocale.obj
 0003:000122c4       ?id@?$moneypunct@G$00@std@@2V0locale@2@A 004642c4     libcpmt:wlocale.obj
 0003:000122c8       ?id@?$time_get@GV?$istreambuf_iterator@GU?$char_traits@G@std@@@std@@@std@@2V0locale@2@A 004642c8     libcpmt:wlocale.obj
 0003:000122cc       ?id@?$time_put@GV?$ostreambuf_iterator@GU?$char_traits@G@std@@@std@@@std@@2V0locale@2@A 004642cc     libcpmt:wlocale.obj
 0003:000122d0       ?id@?$collate@D@std@@2V0locale@2@A 004642d0     libcpmt:xlocale.obj
 0003:000122d4       ?id@?$messages@D@std@@2V0locale@2@A 004642d4     libcpmt:xlocale.obj
 0003:000122d8       ?id@?$money_get@DV?$istreambuf_iterator@DU?$char_traits@D@std@@@std@@@std@@2V0locale@2@A 004642d8     libcpmt:xlocale.obj
 0003:000122dc       ?id@?$money_put@DV?$ostreambuf_iterator@DU?$char_traits@D@std@@@std@@@std@@2V0locale@2@A 004642dc     libcpmt:xlocale.obj
 0003:000122e0       ?id@?$moneypunct@D$0A@@std@@2V0locale@2@A 004642e0     libcpmt:xlocale.obj
 0003:000122e4       ?id@?$moneypunct@D$00@std@@2V0locale@2@A 004642e4     libcpmt:xlocale.obj
 0003:000122e8       ?id@?$time_get@DV?$istreambuf_iterator@DU?$char_traits@D@std@@@std@@@std@@2V0locale@2@A 004642e8     libcpmt:xlocale.obj
 0003:000122ec       ?id@?$time_put@DV?$ostreambuf_iterator@DU?$char_traits@D@std@@@std@@@std@@2V0locale@2@A 004642ec     libcpmt:xlocale.obj
 0003:000122f0       ___scrt_current_native_startup_state 004642f0     LIBCMT:utility.obj
 0003:000122f4       ___scrt_native_startup_lock 004642f4     LIBCMT:utility.obj
 0003:0001233c       __tls_index                0046433c     LIBCMT:tlssup.obj
 0003:0001265c       ___isa_available           0046465c     LIBCMT:cpu_disp.obj
 0003:00012660       ___favor                   00464660     LIBCMT:cpu_disp.obj
 0003:00012664       ___scrt_debugger_hook_flag 00464664     LIBCMT:utility_desktop.obj
 0003:00012668       ?__type_info_root_node@@3U__type_info_node@@A 00464668     LIBCMT:tncleanup.obj
 0003:00012670       ?_OptionsStorage@?1??__local_stdio_scanf_options@@9@4_KA 00464670     LIBCMT:default_local_stdio_options.obj
 0003:00012678       ?__WinRTOutOfMemoryExceptionCallback@@3P6GPAXXZA 00464678     libvcruntime:ehhelpers.obj
 0003:000126a4       ___pPurecall               004646a4     libvcruntime:purevirt_data.obj
 0003:000126e4       ?pArgList@UnDecorator@@0PAVReplicator@@A 004646e4     libvcruntime:undname.obj
 0003:000126e8       ?pZNameList@UnDecorator@@0PAVReplicator@@A 004646e8     libvcruntime:undname.obj
 0003:000126ec       ?pTemplateArgList@UnDecorator@@0PAVReplicator@@A 004646ec     libvcruntime:undname.obj
 0003:000126f0       ?gName@UnDecorator@@0PBDB  004646f0     libvcruntime:undname.obj
 0003:000126f4       ?name@UnDecorator@@0PBDB   004646f4     libvcruntime:undname.obj
 0003:000126f8       ?disableFlags@UnDecorator@@0KA 004646f8     libvcruntime:undname.obj
 0003:000126fc       ?fExplicitTemplateParams@UnDecorator@@0_NA 004646fc     libvcruntime:undname.obj
 0003:000126fd       ?fGetTemplateArgumentList@UnDecorator@@0_NA 004646fd     libvcruntime:undname.obj
 0003:00012700       ?m_pGetParameter@UnDecorator@@0P6APADJ@ZA 00464700     libvcruntime:undname.obj
 0003:00012704       ?m_CHPENameOffset@UnDecorator@@0KA 00464704     libvcruntime:undname.obj
 0003:00012708       ?m_recursionLevel@UnDecorator@@0KA 00464708     libvcruntime:undname.obj
 0003:00012724       __nstream                  00464724     libucrt:_file.obj
 0003:00012728       ___piob                    00464728     libucrt:_file.obj
 0003:0001272c       __cflush                   0046472c     libucrt:_file.obj
 0003:00012730       ___acrt_lconv_static_null  00464730     libucrt:localeconv.obj
 0003:00012734       ___acrt_lconv_static_W_null 00464734     libucrt:localeconv.obj
 0003:000129a8       __environ_table            004649a8     libucrt:environment_initialization.obj
 0003:000129ac       __wenviron_table           004649ac     libucrt:environment_initialization.obj
 0003:000129b0       ___dcrt_initial_wide_environment 004649b0     libucrt:environment_initialization.obj
 0003:000129b4       ___dcrt_initial_narrow_environment 004649b4     libucrt:environment_initialization.obj
 0003:000129b8       ___acrt_atexit_table       004649b8     libucrt:onexit.obj
 0003:000129c4       ___acrt_at_quick_exit_table 004649c4     libucrt:onexit.obj
 0003:000129d8       __pgmptr                   004649d8     libucrt:argv_data.obj
 0003:000129dc       ___argc                    004649dc     libucrt:argv_data.obj
 0003:000129e0       ___argv                    004649e0     libucrt:argv_data.obj
 0003:000129e4       ___wargv                   004649e4     libucrt:argv_data.obj
 0003:000129e8       __acmdln                   004649e8     libucrt:argv_data.obj
 0003:000129ec       __wcmdln                   004649ec     libucrt:argv_data.obj
 0003:000129f0       ___acrt_locale_changed_data 004649f0     libucrt:wsetlocale.obj
 0003:000129f8       __commode                  004649f8     libucrt:ncommode.obj
 0003:000129fc       ___acrt_current_locale_data 004649fc     libucrt:nlsdata.obj
 0003:00012af4       ___acrt_stdout_buffer      00464af4     libucrt:_sftbuf.obj
 0003:00012af8       ___acrt_stderr_buffer      00464af8     libucrt:_sftbuf.obj
 0003:00012b00       ___pioinfo                 00464b00     libucrt:ioinit.obj
 0003:00012d00       __nhandle                  00464d00     libucrt:ioinit.obj
 0003:00012d04       ?_timezone@@3V?$dual_state_global@J@__crt_state_management@@A 00464d04     libucrt:timeset.obj
 0003:00012d08       ?_daylight@@3V?$dual_state_global@H@__crt_state_management@@A 00464d08     libucrt:timeset.obj
 0003:00012d0c       ?_dstbias@@3V?$dual_state_global@J@__crt_state_management@@A 00464d0c     libucrt:timeset.obj
 0003:00012dd4       ___fastflag                00464dd4     libucrt:fp_flags.obj
 0003:00012de8       __mbctype                  00464de8     libucrt:mbctype.obj
 0003:00012dec       __mbcasemap                00464dec     libucrt:mbctype.obj
 0003:00012df0       ___acrt_current_multibyte_data 00464df0     libucrt:mbctype.obj
 0003:00012dfc       ___acrt_heap               00464dfc     libucrt:heap_handle.obj
 0003:00012e00       __fmode                    00464e00     libucrt:txtmode.obj
 0003:00012e10       __umaskval                 00464e10     libucrt:umask.obj
 0003:00012e1c       ?_Flag@?1???$_Immortalize@V_Iostream_error_category@std@@@std@@YAAAV_Iostream_error_category@1@XZ@4PAXA 00464e1c     TServerSystem:TServerSystem.obj
 0003:00012e20       ?_Psave@?$_Facetptr@V?$ctype@D@std@@@std@@2PBVfacet@locale@2@B 00464e20     TServerSystem:TServerSystem.obj
 0003:00012e24       ?_Psave@?$_Facetptr@V?$codecvt@DDU_Mbstatet@@@std@@@std@@2PBVfacet@locale@2@B 00464e24     TServerSystem:TServerSystem.obj
 0003:00012e28       ?_Stinit@?1??_Init@?$basic_filebuf@DU?$char_traits@D@std@@@std@@IAEXPAU_iobuf@@W4_Initfl@23@@Z@4U_Mbstatet@@A 00464e28     TServerSystem:TServerSystem.obj
 0003:00012e30       ?id@?$num_put@DV?$ostreambuf_iterator@DU?$char_traits@D@std@@@std@@@std@@2V0locale@2@A 00464e30     TServerSystem:TServerSystem.obj
 0003:00012e34       ?id@?$codecvt@DDU_Mbstatet@@@std@@2V0locale@2@A 00464e34     TServerSystem:TServerSystem.obj
 0003:00012e38       ?_Storage@?1???$_Immortalize@V_Iostream_error_category@std@@@std@@YAAAV_Iostream_error_category@1@XZ@4T?$_Align_type@H$07@1@A 00464e38     TServerSystem:TServerSystem.obj
 0003:00012e40       ?_OptionsStorage@?1??__local_stdio_printf_options@@9@4_KA 00464e40     TServerSystem:TServerSystem.obj
 0003:00012e48       ?id@?$numpunct@D@std@@2V0locale@2@A 00464e48     TServerSystem:TServerSystem.obj
 0003:00012e4c       ___dyn_tls_dtor_callback   00464e4c     <common>
 0003:00012e50       ___dyn_tls_init_callback   00464e50     <common>
 0003:00012e54       ___scrt_ucrt_dll_is_in_use 00464e54     <common>
 0003:00012e58       __pmatherr                 00464e58     <common>
 0003:00012e5c       ___use_sse2_mathfcns       00464e5c     <common>

 entry point at        0001:0001aab1

 Static symbols

 0000:fff96000       .debug$S                   00400000     kernel32:KERNEL32.dll
 0000:fff96000       .debug$S                   00400000     ws2_32:WS2_32.dll
 0000:fff96000       .debug$S                   00400000     ws2_32:WS2_32.dll
 0000:fff96000       .debug$S                   00400000     ws2_32:WS2_32.dll
 0000:fff96000       .debug$S                   00400000     ws2_32:WS2_32.dll
 0000:fff96000       .debug$S                   00400000     ws2_32:WS2_32.dll
 0000:fff96000       .debug$S                   00400000     odbc32:ODBC32.dll
 0000:fff96000       .debug$S                   00400000     kernel32:KERNEL32.dll
 0000:fff96000       .debug$S                   00400000     odbc32:ODBC32.dll
 0000:fff96000       .debug$S                   00400000     kernel32:KERNEL32.dll
 0000:fff96000       .debug$S                   00400000     kernel32:KERNEL32.dll
 0000:fff96000       .debug$S                   00400000     kernel32:KERNEL32.dll
 0000:fff96000       .debug$S                   00400000     kernel32:KERNEL32.dll
 0000:fff96000       .debug$S                   00400000     kernel32:KERNEL32.dll
 0000:fff96000       .debug$S                   00400000     kernel32:KERNEL32.dll
 0000:fff96000       .debug$S                   00400000     kernel32:KERNEL32.dll
 0000:fff96000       .debug$S                   00400000     ws2_32:WS2_32.dll
 0000:fff96000       .debug$S                   00400000     ws2_32:WS2_32.dll
 0000:fff96000       .debug$S                   00400000     ws2_32:WS2_32.dll
 0000:fff96000       .debug$S                   00400000     ws2_32:WS2_32.dll
 0000:fff96000       .debug$S                   00400000     ws2_32:WS2_32.dll
 0000:fff96000       .debug$S                   00400000     ws2_32:WS2_32.dll
 0000:fff96000       .debug$S                   00400000     ws2_32:WS2_32.dll
 0000:fff96000       .debug$S                   00400000     ws2_32:WS2_32.dll
 0000:fff96000       .debug$S                   00400000     ws2_32:WS2_32.dll
 0000:fff96000       .debug$S                   00400000     ws2_32:WS2_32.dll
 0000:fff96000       .debug$S                   00400000     ws2_32:WS2_32.dll
 0000:fff96000       .debug$S                   00400000     ws2_32:WS2_32.dll
 0000:fff96000       .debug$S                   00400000     ws2_32:WS2_32.dll
 0000:fff96000       .debug$S                   00400000     ws2_32:WS2_32.dll
 0000:fff96000       .debug$S                   00400000     mswsock:MSWSOCK.dll
 0000:fff96000       .debug$S                   00400000     kernel32:KERNEL32.dll
 0000:fff96000       .debug$S                   00400000     kernel32:KERNEL32.dll
 0000:fff96000       .debug$S                   00400000     odbc32:ODBC32.dll
 0000:fff96000       .debug$S                   00400000     kernel32:KERNEL32.dll
 0000:fff96000       .debug$S                   00400000     kernel32:KERNEL32.dll
 0000:fff96000       .debug$S                   00400000     kernel32:KERNEL32.dll
 0000:fff96000       .debug$S                   00400000     kernel32:KERNEL32.dll
 0000:fff96000       .debug$S                   00400000     kernel32:KERNEL32.dll
 0000:fff96000       .debug$S                   00400000     kernel32:KERNEL32.dll
 0000:fff96000       .debug$S                   00400000     kernel32:KERNEL32.dll
 0000:fff96000       .debug$S                   00400000     kernel32:KERNEL32.dll
 0000:fff96000       .debug$S                   00400000     kernel32:KERNEL32.dll
 0000:fff96000       .debug$S                   00400000     kernel32:KERNEL32.dll
 0000:fff96000       .debug$S                   00400000     kernel32:KERNEL32.dll
 0000:fff96000       .debug$S                   00400000     kernel32:KERNEL32.dll
 0000:fff96000       .debug$S                   00400000     kernel32:KERNEL32.dll
 0000:fff96000       .debug$S                   00400000     kernel32:KERNEL32.dll
 0000:fff96000       .debug$S                   00400000     kernel32:KERNEL32.dll
 0000:fff96000       .debug$S                   00400000     kernel32:KERNEL32.dll
 0000:fff96000       .debug$S                   00400000     kernel32:KERNEL32.dll
 0000:fff96000       .debug$S                   00400000     kernel32:KERNEL32.dll
 0000:fff96000       .debug$S                   00400000     kernel32:KERNEL32.dll
 0000:fff96000       .debug$S                   00400000     kernel32:KERNEL32.dll
 0000:fff96000       .debug$S                   00400000     kernel32:KERNEL32.dll
 0000:fff96000       .debug$S                   00400000     kernel32:KERNEL32.dll
 0000:fff96000       .debug$S                   00400000     kernel32:KERNEL32.dll
 0000:fff96000       .debug$S                   00400000     kernel32:KERNEL32.dll
 0000:fff96000       .debug$S                   00400000     kernel32:KERNEL32.dll
 0000:fff96000       .debug$S                   00400000     kernel32:KERNEL32.dll
 0000:fff96000       .debug$S                   00400000     kernel32:KERNEL32.dll
 0000:fff96000       .debug$S                   00400000     kernel32:KERNEL32.dll
 0000:fff96000       .debug$S                   00400000     kernel32:KERNEL32.dll
 0000:fff96000       .debug$S                   00400000     kernel32:KERNEL32.dll
 0000:fff96000       .debug$S                   00400000     kernel32:KERNEL32.dll
 0000:fff96000       .debug$S                   00400000     kernel32:KERNEL32.dll
 0000:fff96000       .debug$S                   00400000     kernel32:KERNEL32.dll
 0000:fff96000       .debug$S                   00400000     kernel32:KERNEL32.dll
 0000:fff96000       .debug$S                   00400000     kernel32:KERNEL32.dll
 0000:fff96000       .debug$S                   00400000     kernel32:KERNEL32.dll
 0000:fff96000       .debug$S                   00400000     kernel32:KERNEL32.dll
 0000:fff96000       .debug$S                   00400000     kernel32:KERNEL32.dll
 0000:fff96000       .debug$S                   00400000     kernel32:KERNEL32.dll
 0000:fff96000       .debug$S                   00400000     kernel32:KERNEL32.dll
 0000:fff96000       .debug$S                   00400000     kernel32:KERNEL32.dll
 0000:fff96000       .debug$S                   00400000     kernel32:KERNEL32.dll
 0000:fff96000       .debug$S                   00400000     kernel32:KERNEL32.dll
 0000:fff96000       .debug$S                   00400000     kernel32:KERNEL32.dll
 0000:fff96000       .debug$S                   00400000     kernel32:KERNEL32.dll
 0000:fff96000       .debug$S                   00400000     kernel32:KERNEL32.dll
 0000:fff96000       .debug$S                   00400000     kernel32:KERNEL32.dll
 0000:fff96000       .debug$S                   00400000     kernel32:KERNEL32.dll
 0000:fff96000       .debug$S                   00400000     user32:USER32.dll
 0000:fff96000       .debug$S                   00400000     user32:USER32.dll
 0000:fff96000       .debug$S                   00400000     user32:USER32.dll
 0000:fff96000       .debug$S                   00400000     advapi32:ADVAPI32.dll
 0000:fff96000       .debug$S                   00400000     advapi32:ADVAPI32.dll
 0000:fff96000       .debug$S                   00400000     advapi32:ADVAPI32.dll
 0000:fff96000       .debug$S                   00400000     advapi32:ADVAPI32.dll
 0000:fff96000       .debug$S                   00400000     advapi32:ADVAPI32.dll
 0000:fff96000       .debug$S                   00400000     advapi32:ADVAPI32.dll
 0000:fff96000       .debug$S                   00400000     advapi32:ADVAPI32.dll
 0000:fff96000       .debug$S                   00400000     advapi32:ADVAPI32.dll
 0000:fff96000       .debug$S                   00400000     advapi32:ADVAPI32.dll
 0000:fff96000       .debug$S                   00400000     advapi32:ADVAPI32.dll
 0000:fff96000       .debug$S                   00400000     advapi32:ADVAPI32.dll
 0000:fff96000       .debug$S                   00400000     advapi32:ADVAPI32.dll
 0000:fff96000       .debug$S                   00400000     advapi32:ADVAPI32.dll
 0000:fff96000       .debug$S                   00400000     ole32:ole32.dll
 0000:fff96000       .debug$S                   00400000     ole32:ole32.dll
 0000:fff96000       .debug$S                   00400000     ole32:ole32.dll
 0000:fff96000       .debug$S                   00400000     odbc32:ODBC32.dll
 0000:fff96000       .debug$S                   00400000     odbc32:ODBC32.dll
 0000:fff96000       .debug$S                   00400000     odbc32:ODBC32.dll
 0000:fff96000       .debug$S                   00400000     kernel32:KERNEL32.dll
 0000:fff96000       .debug$S                   00400000     odbc32:ODBC32.dll
 0000:fff96000       .debug$S                   00400000     odbc32:ODBC32.dll
 0000:fff96000       .debug$S                   00400000     odbc32:ODBC32.dll
 0000:fff96000       .debug$S                   00400000     ws2_32:WS2_32.dll
 0000:fff96000       .debug$S                   00400000     odbc32:ODBC32.dll
 0000:fff96000       .debug$S                   00400000     odbc32:ODBC32.dll
 0000:fff96000       .debug$S                   00400000     odbc32:ODBC32.dll
 0000:fff96000       .debug$S                   00400000     odbc32:ODBC32.dll
 0000:fff96000       .debug$S                   00400000     ws2_32:WS2_32.dll
 0000:fff96000       .debug$S                   00400000     ws2_32:WS2_32.dll
 0000:fff96000       .debug$S                   00400000     ws2_32:WS2_32.dll
 0000:fff96000       .debug$S                   00400000     kernel32:KERNEL32.dll
 0000:fff96000       .debug$S                   00400000     kernel32:KERNEL32.dll
 0000:fff96000       .debug$S                   00400000     kernel32:KERNEL32.dll
 0000:fff96000       .debug$S                   00400000     kernel32:KERNEL32.dll
 0000:fff96000       .debug$S                   00400000     kernel32:KERNEL32.dll
 0000:fff96000       .debug$S                   00400000     kernel32:KERNEL32.dll
 0000:fff96000       .debug$S                   00400000     kernel32:KERNEL32.dll
 0000:fff96000       .debug$S                   00400000     kernel32:KERNEL32.dll
 0000:fff96000       .debug$S                   00400000     kernel32:KERNEL32.dll
 0000:fff96000       .debug$S                   00400000     kernel32:KERNEL32.dll
 0000:fff96000       .debug$S                   00400000     kernel32:KERNEL32.dll
 0000:fff96000       .debug$S                   00400000     kernel32:KERNEL32.dll
 0000:fff96000       .debug$S                   00400000     kernel32:KERNEL32.dll
 0000:fff96000       .debug$S                   00400000     kernel32:KERNEL32.dll
 0000:fff96000       .debug$S                   00400000     kernel32:KERNEL32.dll
 0000:fff96000       .debug$S                   00400000     kernel32:KERNEL32.dll
 0000:fff96000       .debug$S                   00400000     kernel32:KERNEL32.dll
 0000:fff96000       .debug$S                   00400000     kernel32:KERNEL32.dll
 0000:fff96000       .debug$S                   00400000     kernel32:KERNEL32.dll
 0000:fff96000       .debug$S                   00400000     kernel32:KERNEL32.dll
 0000:fff96000       .debug$S                   00400000     kernel32:KERNEL32.dll
 0000:fff96000       .debug$S                   00400000     kernel32:KERNEL32.dll
 0000:fff96000       .debug$S                   00400000     kernel32:KERNEL32.dll
 0000:fff96000       .debug$S                   00400000     kernel32:KERNEL32.dll
 0000:fff96000       .debug$S                   00400000     kernel32:KERNEL32.dll
 0000:fff96000       .debug$S                   00400000     kernel32:KERNEL32.dll
 0000:fff96000       .debug$S                   00400000     kernel32:KERNEL32.dll
 0000:fff96000       .debug$S                   00400000     kernel32:KERNEL32.dll
 0000:fff96000       .debug$S                   00400000     kernel32:KERNEL32.dll
 0000:fff96000       .debug$S                   00400000     kernel32:KERNEL32.dll
 0000:fff96000       .debug$S                   00400000     kernel32:KERNEL32.dll
 0000:fff96000       .debug$S                   00400000     kernel32:KERNEL32.dll
 0000:fff96000       .debug$S                   00400000     kernel32:KERNEL32.dll
 0000:fff96000       .debug$S                   00400000     kernel32:KERNEL32.dll
 0000:fff96000       .debug$S                   00400000     kernel32:KERNEL32.dll
 0000:fff96000       .debug$S                   00400000     kernel32:KERNEL32.dll
 0000:fff96000       .debug$S                   00400000     kernel32:KERNEL32.dll
 0000:fff96000       .debug$S                   00400000     kernel32:KERNEL32.dll
 0000:fff96000       .debug$S                   00400000     kernel32:KERNEL32.dll
 0000:fff96000       .debug$S                   00400000     kernel32:KERNEL32.dll
 0000:fff96000       .debug$S                   00400000     kernel32:KERNEL32.dll
 0000:fff96000       .debug$S                   00400000     kernel32:KERNEL32.dll
 0000:fff96000       .debug$S                   00400000     kernel32:KERNEL32.dll
 0000:fff96000       .debug$S                   00400000     kernel32:KERNEL32.dll
 0000:fff96000       .debug$S                   00400000     kernel32:KERNEL32.dll
 0000:fff96000       .debug$S                   00400000     kernel32:KERNEL32.dll
 0000:fff96000       .debug$S                   00400000     kernel32:KERNEL32.dll
 0000:fff96000       .debug$S                   00400000     kernel32:KERNEL32.dll
 0000:fff96000       .debug$S                   00400000     kernel32:KERNEL32.dll
 0000:fff96000       .debug$S                   00400000     kernel32:KERNEL32.dll
 0000:fff96000       .debug$S                   00400000     kernel32:KERNEL32.dll
 0000:fff96000       .debug$S                   00400000     kernel32:KERNEL32.dll
 0000:fff96000       .debug$S                   00400000     kernel32:KERNEL32.dll
 0000:fff96000       .debug$S                   00400000     kernel32:KERNEL32.dll
 0000:fff96000       .debug$S                   00400000     kernel32:KERNEL32.dll
 0000:fff96000       .debug$S                   00400000     kernel32:KERNEL32.dll
 0000:fff96000       .debug$S                   00400000     kernel32:KERNEL32.dll
 0000:fff96000       .debug$S                   00400000     kernel32:KERNEL32.dll
 0000:fff96000       .debug$S                   00400000     kernel32:KERNEL32.dll
 0001:00000000       ??__E_AtlModule@@YAXXZ     00401000 f   TLoginSvr.obj
 0001:00000020       ??__Eg_strSecretKey@@YAXXZ 00401020 f   TNetLib:Session.obj
 0001:0000003b       ??__E_AtlBaseModule@ATL@@YAXXZ 0040103b f   atls:atlbase.obj
 0001:00000051       ??__Einitlocks@std@@YAXXZ  00401051 f   libcpmt:xlock.obj
 0001:00000067       ??__E_Fac_tidy_reg@std@@YAXXZ 00401067 f   libcpmt:locale0.obj
 0001:00000073       ??__Eclassic_locale@std@@YAXXZ 00401073 f   libcpmt:locale0.obj
 0001:0000007f       ??__Ecin@std@@YAXXZ        0040107f f   libcpmt:cin.obj
 0001:0000009e       ??__Efin@std@@YAXXZ        0040109e f   libcpmt:cin.obj
 0001:000000d8       ??__Einit_cin@std@@YAXXZ   004010d8 f   libcpmt:cin.obj
 0001:000000f6       ??__Einitlocks@@YAXXZ      004010f6 f   libcpmt:cin.obj
 0001:0000010c       ??__Ecout@std@@YAXXZ       0040110c f   libcpmt:cout.obj
 0001:0000012b       ??__Efout@std@@YAXXZ       0040112b f   libcpmt:cout.obj
 0001:00000165       ??__Einit_cout@std@@YAXXZ  00401165 f   libcpmt:cout.obj
 0001:0000016f       ??__Einitlocks@@YAXXZ      0040116f f   libcpmt:cout.obj
 0001:00000185       ??__Einit_atexit@@YAXXZ    00401185 f   libcpmt:iosptrs.obj
 0001:00000191       ??__Einitlocks@std@@YAXXZ  00401191 f   libcpmt:iosptrs.obj
 0001:000025b4       __catch$??0?$vector@V?$basic_string@DU?$char_traits@D@std@@V?$allocator@D@2@@std@@V?$allocator@V?$basic_string@DU?$char_traits@D@std@@V?$allocator@D@2@@std@@@2@@std@@QAE@ABV01@@Z$0 004035b4 f i TServerSystem:TServerSystem.obj
 0001:00003390       _no_op_initialize          00404390 f i libucrt:wsetlocale.obj
 0001:00003900       _uninitialize_global_state_isolation 00404900 f i libucrt:initialization.obj
 0001:00003900       _initialize_environment    00404900 f i libucrt:initialization.obj
 0001:00003900       _uninitialize_c            00404900 f i libucrt:initialization.obj
 0001:00003900       _initialize_global_state_isolation 00404900 f i libucrt:initialization.obj
 0001:00003900       _report_memory_leaks       00404900 f i libucrt:initialization.obj
 0001:0000433b       __catch$?_Osfx@?$basic_ostream@DU?$char_traits@D@std@@@std@@QAEXXZ$0 0040533b f i TServerSystem:TServerSystem.obj
 0001:00004d0b       __catch$??$?6U?$char_traits@D@std@@@std@@YAAAV?$basic_ostream@DU?$char_traits@D@std@@@0@AAV10@PBD@Z$0 00405d0b f i TServerSystem:TServerSystem.obj
 0001:00004fc8       __catch$??$_Emplace_reallocate@ABV?$vector@V?$basic_string@DU?$char_traits@D@std@@V?$allocator@D@2@@std@@V?$allocator@V?$basic_string@DU?$char_traits@D@std@@V?$allocator@D@2@@std@@@2@@std@@@?$vector@V?$vector@V?$basic_string@DU?$char_traits@D@std@@V?$allocator@D@2@@std@@V?$allocator@V?$basic_string@DU?$char_traits@D@std@@V?$allocator@D@2@@std@@@2@@std@@V?$allocator@V?$vector@V?$basic_string@DU?$char_traits@D@std@@V?$allocator@D@2@@std@@V?$allocator@V?$basic_string@DU?$char_traits@D@std@@V?$allocator@D@2@@std@@@2@@std@@@2@@std@@QAEPAV?$vector@V?$basic_string@DU?$char_traits@D@std@@V?$allocator@D@2@@std@@V?$allocator@V?$basic_string@DU?$char_traits@D@std@@V?$allocator@D@2@@std@@@2@@1@QAV21@ABV21@@Z$0 00405fc8 f i TServerSystem:TServerSystem.obj
 0001:00005302       __catch$??$_Emplace_reallocate@ABV?$basic_string@DU?$char_traits@D@std@@V?$allocator@D@2@@std@@@?$vector@V?$basic_string@DU?$char_traits@D@std@@V?$allocator@D@2@@std@@V?$allocator@V?$basic_string@DU?$char_traits@D@std@@V?$allocator@D@2@@std@@@2@@std@@QAEPAV?$basic_string@DU?$char_traits@D@std@@V?$allocator@D@2@@1@QAV21@ABV21@@Z$0 00406302 f i TServerSystem:TServerSystem.obj
 0001:00005b22       __catch$?put@?$basic_ostream@DU?$char_traits@D@std@@@std@@QAEAAV12@D@Z$0 00406b22 f i TServerSystem:TServerSystem.obj
 0001:00006368       __catch$??$_Insert_string@DU?$char_traits@D@std@@I@std@@YAAAV?$basic_ostream@DU?$char_traits@D@std@@@0@AAV10@QBDI@Z$0 00407368 f i TServerSystem:TServerSystem.obj
 0001:000070cc       __catch$??$_Buynode@AAU?$pair@$$CBUEntry@?$CSimpleIniTempl@DU?$SI_NoCase@D@@V?$SI_ConvertA@D@@@@V?$multimap@UEntry@?$CSimpleIniTempl@DU?$SI_NoCase@D@@V?$SI_ConvertA@D@@@@PBDUKeyOrder@12@V?$allocator@U?$pair@$$CBUEntry@?$CSimpleIniTempl@DU?$SI_NoCase@D@@V?$SI_ConvertA@D@@@@PBD@std@@@std@@@std@@@std@@@?$_Tree_comp_alloc@V?$_Tmap_traits@UEntry@?$CSimpleIniTempl@DU?$SI_NoCase@D@@V?$SI_ConvertA@D@@@@V?$multimap@UEntry@?$CSimpleIniTempl@DU?$SI_NoCase@D@@V?$SI_ConvertA@D@@@@PBDUKeyOrder@12@V?$allocator@U?$pair@$$CBUEntry@?$CSimpleIniTempl@DU?$SI_NoCase@D@@V?$SI_ConvertA@D@@@@PBD@std@@@std@@@std@@UKeyOrder@12@V?$allocator@U?$pair@$$CBUEntry@?$CSimpleIniTempl@DU?$SI_NoCase@D@@V?$SI_ConvertA@D@@@@V?$multimap@UEntry@?$CSimpleIniTempl@DU?$SI_NoCase@D@@V?$SI_ConvertA@D@@@@PBDUKeyOrder@12@V?$allocator@U?$pair@$$CBUEntry@?$CSimpleIniTempl@DU?$SI_NoCase@D@@V?$SI_ConvertA@D@@@@PBD@std@@@std@@@std@@@std@@@4@$0A@@std@@@std@@QAEPAU?$_Tree_node@U?$pair@$$CBUEntry@?$CSimpleIniTempl@DU?$SI_NoCase@D@@V?$SI_ConvertA@D@@@@V?$multimap@UEntry@?$CSimpleIniTempl@DU?$SI_NoCase@D@@V?$SI_ConvertA@D@@@@PBDUKeyOrder@12@V?$allocator@U?$pair@$$CBUEntry@?$CSimpleIniTempl@DU?$SI_NoCase@D@@V?$SI_ConvertA@D@@@@PBD@std@@@std@@@std@@@std@@PAX@1@AAU?$pair@$$CBUEntry@?$CSimpleIniTempl@DU?$SI_NoCase@D@@V?$SI_ConvertA@D@@@@V?$multimap@UEntry@?$CSimpleIniTempl@DU?$SI_NoCase@D@@V?$SI_ConvertA@D@@@@PBDUKeyOrder@12@V?$allocator@U?$pair@$$CBUEntry@?$CSimpleIniTempl@DU?$SI_NoCase@D@@V?$SI_ConvertA@D@@@@PBD@std@@@std@@@std@@@1@@Z$0 004080cc f i TServerSystem:TServerSystem.obj
 0001:0000726a       __catch$??$_Insert_nohint@AAU?$pair@$$CBUEntry@?$CSimpleIniTempl@DU?$SI_NoCase@D@@V?$SI_ConvertA@D@@@@V?$multimap@UEntry@?$CSimpleIniTempl@DU?$SI_NoCase@D@@V?$SI_ConvertA@D@@@@PBDUKeyOrder@12@V?$allocator@U?$pair@$$CBUEntry@?$CSimpleIniTempl@DU?$SI_NoCase@D@@V?$SI_ConvertA@D@@@@PBD@std@@@std@@@std@@@std@@PAU?$_Tree_node@U?$pair@$$CBUEntry@?$CSimpleIniTempl@DU?$SI_NoCase@D@@V?$SI_ConvertA@D@@@@V?$multimap@UEntry@?$CSimpleIniTempl@DU?$SI_NoCase@D@@V?$SI_ConvertA@D@@@@PBDUKeyOrder@12@V?$allocator@U?$pair@$$CBUEntry@?$CSimpleIniTempl@DU?$SI_NoCase@D@@V?$SI_ConvertA@D@@@@PBD@std@@@std@@@std@@@std@@PAX@2@@?$_Tree@V?$_Tmap_traits@UEntry@?$CSimpleIniTempl@DU?$SI_NoCase@D@@V?$SI_ConvertA@D@@@@V?$multimap@UEntry@?$CSimpleIniTempl@DU?$SI_NoCase@D@@V?$SI_ConvertA@D@@@@PBDUKeyOrder@12@V?$allocator@U?$pair@$$CBUEntry@?$CSimpleIniTempl@DU?$SI_NoCase@D@@V?$SI_ConvertA@D@@@@PBD@std@@@std@@@std@@UKeyOrder@12@V?$allocator@U?$pair@$$CBUEntry@?$CSimpleIniTempl@DU?$SI_NoCase@D@@V?$SI_ConvertA@D@@@@V?$multimap@UEntry@?$CSimpleIniTempl@DU?$SI_NoCase@D@@V?$SI_ConvertA@D@@@@PBDUKeyOrder@12@V?$allocator@U?$pair@$$CBUEntry@?$CSimpleIniTempl@DU?$SI_NoCase@D@@V?$SI_ConvertA@D@@@@PBD@std@@@std@@@std@@@std@@@4@$0A@@std@@@std@@IAE?AU?$pair@V?$_Tree_iterator@V?$_Tree_val@U?$_Tree_simple_types@U?$pair@$$CBUEntry@?$CSimpleIniTempl@DU?$SI_NoCase@D@@V?$SI_ConvertA@D@@@@V?$multimap@UEntry@?$CSimpleIniTempl@DU?$SI_NoCase@D@@V?$SI_ConvertA@D@@@@PBDUKeyOrder@12@V?$allocator@U?$pair@$$CBUEntry@?$CSimpleIniTempl@DU?$SI_NoCase@D@@V?$SI_ConvertA@D@@@@PBD@std@@@std@@@std@@@std@@@std@@@std@@@std@@_N@1@_NAAU?$pair@$$CBUEntry@?$CSimpleIniTempl@DU?$SI_NoCase@D@@V?$SI_ConvertA@D@@@@V?$multimap@UEntry@?$CSimpleIniTempl@DU?$SI_NoCase@D@@V?$SI_ConvertA@D@@@@PBDUKeyOrder@12@V?$allocator@U?$pair@$$CBUEntry@?$CSimpleIniTempl@DU?$SI_NoCase@D@@V?$SI_ConvertA@D@@@@PBD@std@@@std@@@std@@@1@PAU?$_Tree_node@U?$pair@$$CBUEntry@?$CSimpleIniTempl@DU?$SI_NoCase@D@@V?$SI_ConvertA@D@@@@V?$multimap@UEntry@?$CSimpleIniTempl@DU?$SI_NoCase@D@@V?$SI_ConvertA@D@@@@PBDUKeyOrder@12@V?$allocator@U?$pair@$$CBUEntry@?$CSimpleIniTempl@DU?$SI_NoCase@D@@V?$SI_ConvertA@D@@@@PBD@std@@@std@@@std@@@std@@PAX@1@@Z$0 0040826a f i TServerSystem:TServerSystem.obj
 0001:00007602       __catch$??$_Insert_nohint@AAU?$pair@$$CBUEntry@?$CSimpleIniTempl@DU?$SI_NoCase@D@@V?$SI_ConvertA@D@@@@PBD@std@@PAU?$_Tree_node@U?$pair@$$CBUEntry@?$CSimpleIniTempl@DU?$SI_NoCase@D@@V?$SI_ConvertA@D@@@@PBD@std@@PAX@2@@?$_Tree@V?$_Tmap_traits@UEntry@?$CSimpleIniTempl@DU?$SI_NoCase@D@@V?$SI_ConvertA@D@@@@PBDUKeyOrder@12@V?$allocator@U?$pair@$$CBUEntry@?$CSimpleIniTempl@DU?$SI_NoCase@D@@V?$SI_ConvertA@D@@@@PBD@std@@@std@@$00@std@@@std@@IAE?AU?$pair@V?$_Tree_iterator@V?$_Tree_val@U?$_Tree_simple_types@U?$pair@$$CBUEntry@?$CSimpleIniTempl@DU?$SI_NoCase@D@@V?$SI_ConvertA@D@@@@PBD@std@@@std@@@std@@@std@@_N@1@_NAAU?$pair@$$CBUEntry@?$CSimpleIniTempl@DU?$SI_NoCase@D@@V?$SI_ConvertA@D@@@@PBD@1@PAU?$_Tree_node@U?$pair@$$CBUEntry@?$CSimpleIniTempl@DU?$SI_NoCase@D@@V?$SI_ConvertA@D@@@@PBD@std@@PAX@1@@Z$0 00408602 f i TServerSystem:TServerSystem.obj
 0001:0000791d       __catch$??$?0V?$allocator@U?$_Tree_node@U?$pair@$$CBUEntry@?$CSimpleIniTempl@DU?$SI_NoCase@D@@V?$SI_ConvertA@D@@@@PBD@std@@PAX@std@@@std@@@?$_Tree@V?$_Tmap_traits@UEntry@?$CSimpleIniTempl@DU?$SI_NoCase@D@@V?$SI_ConvertA@D@@@@PBDUKeyOrder@12@V?$allocator@U?$pair@$$CBUEntry@?$CSimpleIniTempl@DU?$SI_NoCase@D@@V?$SI_ConvertA@D@@@@PBD@std@@@std@@$00@std@@@std@@QAE@ABV01@$$QAV?$allocator@U?$_Tree_node@U?$pair@$$CBUEntry@?$CSimpleIniTempl@DU?$SI_NoCase@D@@V?$SI_ConvertA@D@@@@PBD@std@@PAX@std@@@1@@Z$0 0040891d f i TServerSystem:TServerSystem.obj
 0001:000079cf       __catch$??$_Copy_nodes@U_Copy_tag@?$_Tree@V?$_Tmap_traits@UEntry@?$CSimpleIniTempl@DU?$SI_NoCase@D@@V?$SI_ConvertA@D@@@@PBDUKeyOrder@12@V?$allocator@U?$pair@$$CBUEntry@?$CSimpleIniTempl@DU?$SI_NoCase@D@@V?$SI_ConvertA@D@@@@PBD@std@@@std@@$00@std@@@std@@@?$_Tree@V?$_Tmap_traits@UEntry@?$CSimpleIniTempl@DU?$SI_NoCase@D@@V?$SI_ConvertA@D@@@@PBDUKeyOrder@12@V?$allocator@U?$pair@$$CBUEntry@?$CSimpleIniTempl@DU?$SI_NoCase@D@@V?$SI_ConvertA@D@@@@PBD@std@@@std@@$00@std@@@std@@IAEPAU?$_Tree_node@U?$pair@$$CBUEntry@?$CSimpleIniTempl@DU?$SI_NoCase@D@@V?$SI_ConvertA@D@@@@PBD@std@@PAX@1@PAU21@0U_Copy_tag@01@@Z$0 004089cf f i TServerSystem:TServerSystem.obj
 0001:00007a7f       __catch$??$_Buynode@U?$pair@$$CBKUtagEVENTINFO@@@std@@@?$_Tree_comp_alloc@V?$_Tmap_traits@KUtagEVENTINFO@@U?$less@K@std@@V?$allocator@U?$pair@$$CBKUtagEVENTINFO@@@std@@@3@$0A@@std@@@std@@QAEPAU?$_Tree_node@U?$pair@$$CBKUtagEVENTINFO@@@std@@PAX@1@$$QAU?$pair@$$CBKUtagEVENTINFO@@@1@@Z$0 00408a7f f i CSHandler.obj
 0001:00008501       __catch$??$_Insert_nohint@U?$pair@$$CBKPAVCTUser@@@std@@U_Not_a_node_tag@2@@?$_Tree@V?$_Tmap_traits@KPAVCTUser@@U?$less@K@std@@V?$allocator@U?$pair@$$CBKPAVCTUser@@@std@@@3@$0A@@std@@@std@@IAE?AU?$pair@V?$_Tree_iterator@V?$_Tree_val@U?$_Tree_simple_types@U?$pair@$$CBKPAVCTUser@@@std@@@std@@@std@@@std@@_N@1@_N$$QAU?$pair@$$CBKPAVCTUser@@@1@U_Not_a_node_tag@1@@Z$0 00409501 f i CSHandler.obj
 0001:00008501       __catch$??$_Insert_nohint@U?$pair@$$CBKK@std@@U_Not_a_node_tag@2@@?$_Tree@V?$_Tmap_traits@KKU?$less@K@std@@V?$allocator@U?$pair@$$CBKK@std@@@2@$0A@@std@@@std@@IAE?AU?$pair@V?$_Tree_iterator@V?$_Tree_val@U?$_Tree_simple_types@U?$pair@$$CBKK@std@@@std@@@std@@@std@@_N@1@_N$$QAU?$pair@$$CBKK@1@U_Not_a_node_tag@1@@Z$0 00409501 f i CSHandler.obj
 0001:00008661       __catch$??$_Insert_nohint@U?$pair@$$CBKUtagEVENTINFO@@@std@@U_Not_a_node_tag@2@@?$_Tree@V?$_Tmap_traits@KUtagEVENTINFO@@U?$less@K@std@@V?$allocator@U?$pair@$$CBKUtagEVENTINFO@@@std@@@3@$0A@@std@@@std@@IAE?AU?$pair@V?$_Tree_iterator@V?$_Tree_val@U?$_Tree_simple_types@U?$pair@$$CBKUtagEVENTINFO@@@std@@@std@@@std@@@std@@_N@1@_N$$QAU?$pair@$$CBKUtagEVENTINFO@@@1@U_Not_a_node_tag@1@@Z$0 00409661 f i CSHandler.obj
 0001:00008f9c       $LN12                      00409f9c     CSHandler.obj
 0001:00008fac       $LN9                       00409fac     CSHandler.obj
 0001:0000d290       _memcpy_s                  0040e290 f   CSHandler.obj
 0001:000112fa       __catch$?_Ipfx@?$basic_istream@DU?$char_traits@D@std@@@std@@QAE_N_N@Z$0 004122fa f i mailer.obj
 0001:0001176c       __catch$??$?5DU?$char_traits@D@std@@V?$allocator@D@1@@std@@YAAAV?$basic_istream@DU?$char_traits@D@std@@@0@$$QAV10@AAV?$basic_string@DU?$char_traits@D@std@@V?$allocator@D@2@@0@@Z$0 0041276c f i TLoginSvr.obj
 0001:00011b11       __catch$??$_Insert_nohint@U?$pair@$$CBEPAUtagTGROUP@@@std@@U_Not_a_node_tag@2@@?$_Tree@V?$_Tmap_traits@EPAUtagTGROUP@@U?$less@E@std@@V?$allocator@U?$pair@$$CBEPAUtagTGROUP@@@std@@@3@$0A@@std@@@std@@IAE?AU?$pair@V?$_Tree_iterator@V?$_Tree_val@U?$_Tree_simple_types@U?$pair@$$CBEPAUtagTGROUP@@@std@@@std@@@std@@@std@@_N@1@_N$$QAU?$pair@$$CBEPAUtagTGROUP@@@1@U_Not_a_node_tag@1@@Z$0 00412b11 f i TLoginSvr.obj
 0001:000125f8       $LN134                     004135f8     TLoginSvr.obj
 0001:000142c4       $LN30                      004152c4     TLoginSvr.obj
 0001:000142fc       $LN27                      004152fc     TLoginSvr.obj
 0001:00014318       $LN31                      00415318     TLoginSvr.obj
 0001:00014330       $LN28                      00415330     TLoginSvr.obj
 0001:000150ed       __catch$??$_Buynode@U?$pair@$$CBV?$basic_string@DU?$char_traits@D@std@@V?$allocator@D@2@@std@@PAVCSqlQuery@@@std@@@?$_Tree_comp_alloc@V?$_Tmap_traits@V?$basic_string@DU?$char_traits@D@std@@V?$allocator@D@2@@std@@PAVCSqlQuery@@U?$less@V?$basic_string@DU?$char_traits@D@std@@V?$allocator@D@2@@std@@@2@V?$allocator@U?$pair@$$CBV?$basic_string@DU?$char_traits@D@std@@V?$allocator@D@2@@std@@PAVCSqlQuery@@@std@@@2@$0A@@std@@@std@@QAEPAU?$_Tree_node@U?$pair@$$CBV?$basic_string@DU?$char_traits@D@std@@V?$allocator@D@2@@std@@PAVCSqlQuery@@@std@@PAX@1@$$QAU?$pair@$$CBV?$basic_string@DU?$char_traits@D@std@@V?$allocator@D@2@@std@@PAVCSqlQuery@@@1@@Z$0 004160ed f i TNetLib:SqlDatabase.obj
 0001:00015512       __catch$??$_Insert_nohint@U?$pair@$$CBV?$basic_string@DU?$char_traits@D@std@@V?$allocator@D@2@@std@@PAVCSqlQuery@@@std@@U_Not_a_node_tag@2@@?$_Tree@V?$_Tmap_traits@V?$basic_string@DU?$char_traits@D@std@@V?$allocator@D@2@@std@@PAVCSqlQuery@@U?$less@V?$basic_string@DU?$char_traits@D@std@@V?$allocator@D@2@@std@@@2@V?$allocator@U?$pair@$$CBV?$basic_string@DU?$char_traits@D@std@@V?$allocator@D@2@@std@@PAVCSqlQuery@@@std@@@2@$0A@@std@@@std@@IAE?AU?$pair@V?$_Tree_iterator@V?$_Tree_val@U?$_Tree_simple_types@U?$pair@$$CBV?$basic_string@DU?$char_traits@D@std@@V?$allocator@D@2@@std@@PAVCSqlQuery@@@std@@@std@@@std@@@std@@_N@1@_N$$QAU?$pair@$$CBV?$basic_string@DU?$char_traits@D@std@@V?$allocator@D@2@@std@@PAVCSqlQuery@@@1@U_Not_a_node_tag@1@@Z$0 00416512 f i TNetLib:SqlDatabase.obj
 0001:000194a3       _tidy_global               0041a4a3 f   libcpmt:locale0.obj
 0001:000199af       ?initialize_pointers@@YAHXZ 0041a9af f   libcpmt:winapisupp.obj
 0001:00019fb2       ?find_pe_section@@YAPAU_IMAGE_SECTION_HEADER@@QAEI@Z 0041afb2 f   LIBCMT:utility.obj
 0001:0001a22f       ?__scrt_initialize_thread_safe_statics@@YAHXZ 0041b22f f   LIBCMT:thread_safe_statics.obj
 0001:0001a256       ?__scrt_initialize_thread_safe_statics_platform_specific@@YAXXZ 0041b256 f   LIBCMT:thread_safe_statics.obj
 0001:0001a345       ?__scrt_uninitialize_thread_safe_statics@@YAXXZ 0041b345 f   LIBCMT:thread_safe_statics.obj
 0001:0001a4e0       $$000000                   0041b4e0     LIBCMT:lldiv.obj
 0001:0001a590       $$000000                   0041b590     LIBCMT:llrem.obj
 0001:0001a86a       ?pre_c_initialization@@YAHXZ 0041b86a f   LIBCMT:exe_main.obj
 0001:0001a915       ?post_pgo_initialization@@YAHXZ 0041b915 f   LIBCMT:exe_main.obj
 0001:0001a91d       ?pre_cpp_initialization@@YAXXZ 0041b91d f   LIBCMT:exe_main.obj
 0001:0001a92f       ?__scrt_common_main_seh@@YAHXZ 0041b92f f   LIBCMT:exe_main.obj
 0001:0001aad0       $$000000                   0041bad0     LIBCMT:chkstk.obj
 0001:0001ab80       $$000000                   0041bb80     LIBCMT:alloca16.obj
 0001:0001abb0       $$000000                   0041bbb0     LIBCMT:llmul.obj
 0001:0001abf0       $$000000                   0041bbf0     LIBCMT:ulldiv.obj
 0001:0001b030       $$000000                   0041c030     LIBCMT:sehprolg4.obj
 0001:0001b08b       ___get_entropy             0041c08b f   LIBCMT:gs_support.obj
 0001:0001b750       $$000000                   0041c750     libvcruntime:memcpy.obj
 0001:0001b9b4       TrailingUpVec              0041c9b4     libvcruntime:memcpy.obj
 0001:0001ba60       TrailingDownVec            0041ca60     libvcruntime:memcpy.obj
 0001:0001bcd0       $$000000                   0041ccd0     libvcruntime:memmove.obj
 0001:0001bf34       TrailingUpVec              0041cf34     libvcruntime:memmove.obj
 0001:0001bfe0       TrailingDownVec            0041cfe0     libvcruntime:memmove.obj
 0001:0001c250       $$000000                   0041d250     libvcruntime:memset.obj
 0001:0001c460       $$000000                   0041d460     libvcruntime:memchr.obj
 0001:0001c510       $$000000                   0041d510     libvcruntime:strrchr.obj
 0001:0001d57f       $LN1285                    0041e57f     libvcruntime:memcmp.obj
 0001:0001d650       _ValidateLocalCookies      0041e650 f   libvcruntime:chandler4.obj
 0001:0001d964       ??$BuildCatchObjectHelperInternal@V__FrameHandler3@@@@YAHPAUEHExceptionRecord@@PAXPBU_s_HandlerType@@PBU_s_CatchableType@@@Z 0041e964 f   libvcruntime:frame.obj
 0001:0001daa3       ??$BuildCatchObjectInternal@V__FrameHandler3@@@@YAXPAUEHExceptionRecord@@PAXPBU_s_HandlerType@@PBU_s_CatchableType@@@Z 0041eaa3 f   libvcruntime:frame.obj
 0001:0001db3c       ??$CatchIt@V__FrameHandler3@@@@YAXPAUEHExceptionRecord@@PAUEHRegistrationNode@@PAU_CONTEXT@@PAXPBU_s_FuncInfo@@PBU_s_HandlerType@@PBU_s_CatchableType@@PBU_s_TryBlockMapEntry@@H1E@Z 0041eb3c f   libvcruntime:frame.obj
 0001:0001dbbc       ??$FindHandler@V__FrameHandler3@@@@YAXPAUEHExceptionRecord@@PAUEHRegistrationNode@@PAU_CONTEXT@@PAXPBU_s_FuncInfo@@EH1@Z 0041ebbc f   libvcruntime:frame.obj
 0001:0001df4a       ??$FindHandlerForForeignException@V__FrameHandler3@@@@YAXPAUEHExceptionRecord@@PAUEHRegistrationNode@@PAU_CONTEXT@@PAXPBU_s_FuncInfo@@HH1@Z 0041ef4a f   libvcruntime:frame.obj
 0001:0001e23d       ?CallCatchBlock@@YAPAXPAUEHExceptionRecord@@PAUEHRegistrationNode@@PAU_CONTEXT@@PBU_s_FuncInfo@@PAXHK@Z 0041f23d f   libvcruntime:frame.obj
 0001:0001e401       ?CallUnexpected@@YAXPBU_s_ESTypeList@@@Z 0041f401 f   libvcruntime:frame.obj
 0001:0001e421       __catch$?CallUnexpected@@YAXPBU_s_ESTypeList@@@Z$0 0041f421 f   libvcruntime:frame.obj
 0001:0001e43b       ?ExFilterRethrow@@YAHPAU_EXCEPTION_POINTERS@@@Z 0041f43b f   libvcruntime:frame.obj
 0001:0001e585       ?IsInExceptionSpec@@YAEPAUEHExceptionRecord@@PBU_s_ESTypeList@@@Z 0041f585 f   libvcruntime:frame.obj
 0001:0001e650       $$000000                   0041f650     libvcruntime:lowhelpr.obj
 0001:0001e76f       ?try_get_first_available_module@@YAPAUHINSTANCE__@@QBW4module_id@?A0xa2817912@@0@Z 0041f76f f   libvcruntime:winapi_downlevel.obj
 0001:0001e833       ?try_get_function@@YAPAXW4function_id@?A0xa2817912@@QBDQBW4module_id@2@2@Z 0041f833 f   libvcruntime:winapi_downlevel.obj
 0001:0001ea40       $$000000                   0041fa40     libvcruntime:exsup4.obj
 0001:0001ead0       __unwind_handler4          0041fad0 f   libvcruntime:exsup4.obj
 0001:0001ebf0       $$000000                   0041fbf0     libvcruntime:exsup.obj
 0001:0001ec11       __unwind_handler           0041fc11 f   libvcruntime:exsup.obj
 0001:0001f49f       ??$common_vsnprintf_s@D@@YAH_KQADIIQBDAAV__crt_cached_ptd_host@@1@Z 0042049f f   libucrt:output.obj
 0001:0001f5a0       ??$common_vsprintf@Vformat_validation_base@__crt_stdio_output@@D@@YAH_KQADIQBDAAV__crt_cached_ptd_host@@1@Z 004205a0 f   libucrt:output.obj
 0001:0001f714       ??$common_vsprintf@Vstandard_base@__crt_stdio_output@@D@@YAH_KQADIQBDAAV__crt_cached_ptd_host@@1@Z 00420714 f   libucrt:output.obj
 0001:0001f888       ??$common_vsprintf_s@D@@YAH_KQADIQBDAAV__crt_cached_ptd_host@@1@Z 00420888 f   libucrt:output.obj
 0001:00020939       $LN140                     00421939     libucrt:output.obj
 0001:00020c0d       $LN130                     00421c0d     libucrt:output.obj
 0001:00021119       $LN18                      00422119     libucrt:output.obj
 0001:0002112d       $LN17                      0042212d     libucrt:output.obj
 0001:00021baa       ?_fclose_internal@@YAHQAU_iobuf@@AAV__crt_cached_ptd_host@@@Z 00422baa f   libucrt:fclose.obj
 0001:00021c41       ?_fclose_nolock_internal@@YAHQAU_iobuf@@AAV__crt_cached_ptd_host@@@Z 00422c41 f   libucrt:fclose.obj
 0001:00021cff       ??$?RV<lambda_2866be3712abc81a800a822484c830d8>@@AAV<lambda_39ca0ed439415581b5b15c265174cece>@@V<lambda_2b24c74d71094a6cd0cb82e44167d71b>@@@?$__crt_seh_guarded_call@X@@QAEX$$QAV<lambda_2866be3712abc81a800a822484c830d8>@@AAV<lambda_39ca0ed439415581b5b15c265174cece>@@$$QAV<lambda_2b24c74d71094a6cd0cb82e44167d71b>@@@Z 00422cff f   libucrt:fflush.obj
 0001:00021d8b       ??$?RV<lambda_2cc53f568c5a2bb6f192f930a45d44ea>@@AAV<lambda_ab61a845afdef5b7c387490eaf3616ee>@@V<lambda_c2ffc0b7726aa6be21d5f0026187e748>@@@?$__crt_seh_guarded_call@X@@QAEX$$QAV<lambda_2cc53f568c5a2bb6f192f930a45d44ea>@@AAV<lambda_ab61a845afdef5b7c387490eaf3616ee>@@$$QAV<lambda_c2ffc0b7726aa6be21d5f0026187e748>@@@Z 00422d8b f   libucrt:fflush.obj
 0001:00021e37       ??$?RV<lambda_6d20deecaf4856105ebacbad442d1079>@@AAV<lambda_9a32fed5bf61b6b509b2d3f6003082a1>@@V<lambda_63ea2239ed67c638ddbae41947fdf875>@@@?$__crt_seh_guarded_call@H@@QAEH$$QAV<lambda_6d20deecaf4856105ebacbad442d1079>@@AAV<lambda_9a32fed5bf61b6b509b2d3f6003082a1>@@$$QAV<lambda_63ea2239ed67c638ddbae41947fdf875>@@@Z 00422e37 f   libucrt:fflush.obj
 0001:00021e97       ?common_flush_all@@YAH_N@Z 00422e97 f   libucrt:fflush.obj
 0001:00021ee4       ?common_flush_all_should_try_to_flush_stream@@YA_NV__crt_stdio_stream@@QAH@Z 00422ee4 f   libucrt:fflush.obj
 0001:00021f15       ?is_stream_flushable_or_commitable@@YA_NJ@Z 00422f15 f   libucrt:fflush.obj
 0001:00022212       ?_fputc_internal@@YAHHQAU_iobuf@@AAV__crt_cached_ptd_host@@@Z 00423212 f   libucrt:fputc.obj
 0001:0002263a       _memcpy_s                  0042363a f   libucrt:fread.obj
 0001:0002263a       _memcpy_s                  0042363a f   libucrt:mbctype.obj
 0001:0002263a       _memcpy_s                  0042363a f   libucrt:strtod.obj
 0001:0002263a       _memcpy_s                  0042363a f   libucrt:cfout.obj
 0001:00022770       ?common_fseek@@YAHV__crt_stdio_stream@@_JHAAV__crt_cached_ptd_host@@@Z 00423770 f   libucrt:fseek.obj
 0001:0002281a       ?common_fseek_binary_mode_read_only_fast_track_nolock@@YA_NV__crt_stdio_stream@@_JH@Z 0042381a f   libucrt:fseek.obj
 0001:000228f3       ?common_fseek_nolock@@YAHV__crt_stdio_stream@@_JHAAV__crt_cached_ptd_host@@@Z 004238f3 f   libucrt:fseek.obj
 0001:00022a53       ??$?RV<lambda_76055cf4b68c1f980da8b7496a3ae623>@@AAV<lambda_26974eb511f701c600fccfa2a97a8e1b>@@V<lambda_0062726809bb3c529c0733aa37379daf>@@@?$__crt_seh_guarded_call@I@@QAEI$$QAV<lambda_76055cf4b68c1f980da8b7496a3ae623>@@AAV<lambda_26974eb511f701c600fccfa2a97a8e1b>@@$$QAV<lambda_0062726809bb3c529c0733aa37379daf>@@@Z 00423a53 f   libucrt:fwrite.obj
 0001:00022aae       ??R<lambda_26974eb511f701c600fccfa2a97a8e1b>@@QBEIXZ 00423aae f   libucrt:fwrite.obj
 0001:00022d52       ??$?RV<lambda_c390c0748f48a7db46f6ce5cc3c796da>@@AAV<lambda_703a5c3f7c88128b7f5f7a8861b0a6e0>@@V<lambda_c16a91f8771b304e2b1164fb4c043437>@@@?$__crt_seh_guarded_call@H@@QAEH$$QAV<lambda_c390c0748f48a7db46f6ce5cc3c796da>@@AAV<lambda_703a5c3f7c88128b7f5f7a8861b0a6e0>@@$$QAV<lambda_c16a91f8771b304e2b1164fb4c043437>@@@Z 00423d52 f   libucrt:setvbuf.obj
 0001:00022dad       ??R<lambda_703a5c3f7c88128b7f5f7a8861b0a6e0>@@QBE@XZ 00423dad f   libucrt:setvbuf.obj
 0001:00022e4d       ?_setvbuf_internal@@YAHQAU_iobuf@@QADHIAAV__crt_cached_ptd_host@@@Z 00423e4d f   libucrt:setvbuf.obj
 0001:00022ee3       ?set_buffer@@YAHV__crt_stdio_stream@@QADIH@Z 00423ee3 f   libucrt:setvbuf.obj
 0001:00023221       ??$common_localtime_s@_J@@YAHQAUtm@@QB_J@Z 00424221 f   libucrt:localtime.obj
 0001:00023883       ??$?RV<lambda_9fd0146d8887c94a05b904783845dbe3>@@AAV<lambda_6adc7e3a23ba0bcf2ed85f63d6332a84>@@V<lambda_263a6ae15fc668da2ea63694c172d2eb>@@@?$__crt_seh_guarded_call@H@@QAEH$$QAV<lambda_9fd0146d8887c94a05b904783845dbe3>@@AAV<lambda_6adc7e3a23ba0bcf2ed85f63d6332a84>@@$$QAV<lambda_263a6ae15fc668da2ea63694c172d2eb>@@@Z 00424883 f   libucrt:puts.obj
 0001:000238de       ??R<lambda_6adc7e3a23ba0bcf2ed85f63d6332a84>@@QBEHXZ 004248de f   libucrt:puts.obj
 0001:0002394f       ?_puts_internal@@YAHQBDAAV__crt_cached_ptd_host@@@Z 0042494f f   libucrt:puts.obj
 0001:00023a8f       ??$common_fsopen@D@@YAPAU_iobuf@@QBD0H@Z 00424a8f f   libucrt:fopen.obj
 0001:00023ba4       ??$common_ftell@J@@YAJV__crt_stdio_stream@@AAV__crt_cached_ptd_host@@@Z 00424ba4 f   libucrt:ftell.obj
 0001:00023c24       ??$common_ftell@_J@@YA_JV__crt_stdio_stream@@AAV__crt_cached_ptd_host@@@Z 00424c24 f   libucrt:ftell.obj
 0001:00023cb3       ??$common_ftell_nolock@J@@YAJV__crt_stdio_stream@@AAV__crt_cached_ptd_host@@@Z 00424cb3 f   libucrt:ftell.obj
 0001:00023ce5       ??$common_ftell_nolock@_J@@YA_JV__crt_stdio_stream@@AAV__crt_cached_ptd_host@@@Z 00424ce5 f   libucrt:ftell.obj
 0001:00023e89       ?common_ftell_read_mode_nolock@@YA_JV__crt_stdio_stream@@_J1AAV__crt_cached_ptd_host@@@Z 00424e89 f   libucrt:ftell.obj
 0001:00024054       ?common_ftell_translated_utf8_nolock@@YA_JV__crt_stdio_stream@@_JAAV__crt_cached_ptd_host@@@Z 00425054 f   libucrt:ftell.obj
 0001:000241ff       ?count_newline_bytes@@YA_JQBD0W4__crt_lowio_text_mode@@@Z 004251ff f   libucrt:ftell.obj
 0001:00024450       $$000000                   00425450     libucrt:strcspn.obj
 0001:000256f7       ??$?RV<lambda_f5952838e36297a1e2e9d6c748429792>@@AAV<lambda_2116bde18c9e5f34230805ea4a4660ed>@@V<lambda_3c7107de1cc98bf330a3031f42c322a3>@@@?$__crt_seh_guarded_call@PAD@@QAEPAD$$QAV<lambda_f5952838e36297a1e2e9d6c748429792>@@AAV<lambda_2116bde18c9e5f34230805ea4a4660ed>@@$$QAV<lambda_3c7107de1cc98bf330a3031f42c322a3>@@@Z 004266f7 f   libucrt:setlocale.obj
 0001:00025752       ??R<lambda_2116bde18c9e5f34230805ea4a4660ed>@@QBEPADXZ 00426752 f   libucrt:setlocale.obj
 0001:000258b1       _call_wsetlocale           004268b1 f   libucrt:setlocale.obj
 0001:00025ea0       $$000000                   00426ea0     libucrt:pow_impl.obj
 0001:000261d4       ?compute_iso_week@@YAHHHH@Z 004271d4 f   libucrt:wcsftime.obj
 0001:0002621d       ?compute_iso_week_internal@@YAHHHH@Z 0042721d f   libucrt:wcsftime.obj
 0001:000262b2       ?compute_iso_year@@YAHHHH@Z 004272b2 f   libucrt:wcsftime.obj
 0001:000262dd       ?expand_time@@YA_NPAU__crt_locale_pointers@@_WPBUtm@@PAPA_WPAIPBU__crt_lc_time_data@@_N@Z 004272dd f   libucrt:wcsftime.obj
 0001:00026c91       $LN191                     00427c91     libucrt:wcsftime.obj
 0001:00026cb1       ?store_number@@YAXHHQAPA_WQAI_W@Z 00427cb1 f   libucrt:wcsftime.obj
 0001:00026d45       ?store_number_without_lead_zeroes@@YAXHQAPA_WQAI@Z 00427d45 f   libucrt:wcsftime.obj
 0001:00026dbf       ?store_string@@YAXPB_WQAPA_WQAI@Z 00427dbf f   libucrt:wcsftime.obj
 0001:00026df2       ?store_winword@@YA_NQAU__crt_locale_pointers@@HQBUtm@@QAPA_WQAIQBU__crt_lc_time_data@@@Z 00427df2 f   libucrt:wcsftime.obj
 0001:00027582       ??$?RV<lambda_03b1d95aef87969028cfba75ccab2455>@@AAV<lambda_6e4b09c48022b2350581041d5f6b0c4c>@@V<lambda_22bdf7517842c4b3e53723af5aa32b9e>@@@?$__crt_seh_guarded_call@X@@QAEX$$QAV<lambda_03b1d95aef87969028cfba75ccab2455>@@AAV<lambda_6e4b09c48022b2350581041d5f6b0c4c>@@$$QAV<lambda_22bdf7517842c4b3e53723af5aa32b9e>@@@Z 00428582 f   libucrt:exit.obj
 0001:000275ee       ??R<lambda_6e4b09c48022b2350581041d5f6b0c4c>@@QBE@XZ 004285ee f   libucrt:exit.obj
 0001:000276d6       ?common_exit@@YAXHW4_crt_exit_cleanup_mode@@W4_crt_exit_return_mode@@@Z 004286d6 f   libucrt:exit.obj
 0001:0002776d       ?exit_or_terminate_process@@YAXI@Z 0042876d f   libucrt:exit.obj
 0001:0002779e       ?is_managed_app@@YA_NXZ    0042879e f   libucrt:exit.obj
 0001:000277e0       ?should_call_terminate_process@@YA_NXZ 004287e0 f   libucrt:exit.obj
 0001:000277f9       ?try_cor_exit_process@@YAXI@Z 004287f9 f   libucrt:exit.obj
 0001:000278fa       ??$common_configure_argv@D@@YAHW4_crt_argv_mode@@@Z 004288fa f   libucrt:argv_parsing.obj
 0001:00027a37       ??$parse_command_line@D@@YAXPADPAPAD0PAI2@Z 00428a37 f   libucrt:argv_parsing.obj
 0001:00027c05       ??$common_get_or_create_environment_nolock@D@@YAPAPADXZ 00428c05 f   libucrt:environment_initialization.obj
 0001:00027c31       ??$common_get_or_create_environment_nolock@_W@@YAPAPA_WXZ 00428c31 f   libucrt:environment_initialization.obj
 0001:00027c5d       ??$common_initialize_environment_nolock@D@@YAHXZ 00428c5d f   libucrt:environment_initialization.obj
 0001:00027cb7       ??$common_initialize_environment_nolock@_W@@YAHXZ 00428cb7 f   libucrt:environment_initialization.obj
 0001:00027d0c       ??$create_environment@D@@YAQAPADQAD@Z 00428d0c f   libucrt:environment_initialization.obj
 0001:00027dee       ??$create_environment@_W@@YAQAPA_WQA_W@Z 00428dee f   libucrt:environment_initialization.obj
 0001:00027f0c       ??$free_environment@D@@YAXQAPAD@Z 00428f0c f   libucrt:environment_initialization.obj
 0001:00027f0c       ??$free_environment@_W@@YAXQAPA_W@Z 00428f0c f   libucrt:environment_initialization.obj
 0001:00027f3b       ??$initialize_environment_by_cloning_nolock@D@@YAHXZ 00428f3b f   libucrt:environment_initialization.obj
 0001:00027fbe       ??$initialize_environment_by_cloning_nolock@_W@@YAHXZ 00428fbe f   libucrt:environment_initialization.obj
 0001:0002803f       ??$uninitialize_environment_internal@D@@YAXAAPAPAD@Z 0042903f f   libucrt:environment_initialization.obj
 0001:0002805a       ??$uninitialize_environment_internal@_W@@YAXAAPAPA_W@Z 0042905a f   libucrt:environment_initialization.obj
 0001:000280e9       ??$?RV<lambda_69a2805e680e0e292e8ba93315fe43a8>@@AAV<lambda_f03950bc5685219e0bcd2087efbe011e>@@V<lambda_03fcd07e894ec930e3f35da366ca99d6>@@@?$__crt_seh_guarded_call@H@@QAEH$$QAV<lambda_69a2805e680e0e292e8ba93315fe43a8>@@AAV<lambda_f03950bc5685219e0bcd2087efbe011e>@@$$QAV<lambda_03fcd07e894ec930e3f35da366ca99d6>@@@Z 004290e9 f   libucrt:onexit.obj
 0001:00028144       ??$?RV<lambda_8e746cf0007f6ed984d6f78af1fec997>@@AAV<lambda_22ebabd17bc4fa466a2aca6d8deb888d>@@V<lambda_18ed0c0b38a6dc0daf1e7ac6d6adf05e>@@@?$__crt_seh_guarded_call@H@@QAEH$$QAV<lambda_8e746cf0007f6ed984d6f78af1fec997>@@AAV<lambda_22ebabd17bc4fa466a2aca6d8deb888d>@@$$QAV<lambda_18ed0c0b38a6dc0daf1e7ac6d6adf05e>@@@Z 00429144 f   libucrt:onexit.obj
 0001:0002819f       ??R<lambda_22ebabd17bc4fa466a2aca6d8deb888d>@@QBE@XZ 0042919f f   libucrt:onexit.obj
 0001:000282a1       ??R<lambda_f03950bc5685219e0bcd2087efbe011e>@@QBE@XZ 004292a1 f   libucrt:onexit.obj
 0001:0002842b       _initialize_global_variables 0042942b f   libucrt:initialization.obj
 0001:00028438       _initialize_c              00429438 f   libucrt:initialization.obj
 0001:00028452       _uninitialize_environment  00429452 f   libucrt:initialization.obj
 0001:0002845a       _initialize_pointers       0042945a f   libucrt:initialization.obj
 0001:00028488       _uninitialize_vcruntime    00429488 f   libucrt:initialization.obj
 0001:00028491       _uninitialize_allocated_memory 00429491 f   libucrt:initialization.obj
 0001:000284a8       _uninitialize_allocated_io_buffers 004294a8 f   libucrt:initialization.obj
 0001:000284f8       ??R<lambda_af42a3ee9806e9a7305d451646e05244>@@QBE@AAPAU__crt_multibyte_data@@@Z 004294f8 f   libucrt:initialization.obj
 0001:000287ab       ??$?RV<lambda_4fdada1b837b2abbf20876fac97688ad>@@AAV<lambda_b57350f2640456a0859d250846f69caf>@@V<lambda_eed5e4f92b5b7d55fa22c48c484aaa54>@@@?$__crt_seh_guarded_call@X@@QAEX$$QAV<lambda_4fdada1b837b2abbf20876fac97688ad>@@AAV<lambda_b57350f2640456a0859d250846f69caf>@@$$QAV<lambda_eed5e4f92b5b7d55fa22c48c484aaa54>@@@Z 004297ab f   libucrt:wsetlocale.obj
 0001:000287f8       ??$?RV<lambda_ac03c5d59bd18b09cb88b28331f6bfed>@@AAV<lambda_2a444430fde8c29194d880d93eed5e8f>@@AAV<lambda_02db5278e8aef8b5e4976579d73f5304>@@@?$__crt_seh_guarded_call@X@@QAEX$$QAV<lambda_ac03c5d59bd18b09cb88b28331f6bfed>@@AAV<lambda_2a444430fde8c29194d880d93eed5e8f>@@AAV<lambda_02db5278e8aef8b5e4976579d73f5304>@@@Z 004297f8 f   libucrt:wsetlocale.obj
 0001:0002883d       ??$?RV<lambda_e5124f882df8998aaf41531e079ba474>@@AAV<lambda_3e16ef9562a7dcce91392c22ab16ea36>@@V<lambda_e25ca0880e6ef98be67edffd8c599615>@@@?$__crt_seh_guarded_call@X@@QAEX$$QAV<lambda_e5124f882df8998aaf41531e079ba474>@@AAV<lambda_3e16ef9562a7dcce91392c22ab16ea36>@@$$QAV<lambda_e25ca0880e6ef98be67edffd8c599615>@@@Z 0042983d f   libucrt:wsetlocale.obj
 0001:00028925       ??R<lambda_2a444430fde8c29194d880d93eed5e8f>@@QBE@XZ 00429925 f   libucrt:wsetlocale.obj
 0001:0002898f       ??R<lambda_b57350f2640456a0859d250846f69caf>@@QBE@XZ 0042998f f   libucrt:wsetlocale.obj
 0001:00028da7       __copytlocinfo_nolock      00429da7 f   libucrt:wsetlocale.obj
 0001:00028dd6       __expandlocale             00429dd6 f   libucrt:wsetlocale.obj
 0001:00029260       __wsetlocale_get_all       0042a260 f   libucrt:wsetlocale.obj
 0001:000293fb       __wsetlocale_nolock        0042a3fb f   libucrt:wsetlocale.obj
 0001:000296eb       __wsetlocale_set_cat       0042a6eb f   libucrt:wsetlocale.obj
 0001:00029aab       _get_default_code_page     0042aaab f   libucrt:wsetlocale.obj
 0001:00029ada       _parse_bcp47               0042aada f   libucrt:wsetlocale.obj
 0001:00029cb4       _parse_bcp47_code_page     0042acb4 f   libucrt:wsetlocale.obj
 0001:00029cf3       _parse_bcp47_language      0042acf3 f   libucrt:wsetlocale.obj
 0001:00029d65       _parse_bcp47_region        0042ad65 f   libucrt:wsetlocale.obj
 0001:00029e23       _parse_bcp47_script        0042ae23 f   libucrt:wsetlocale.obj
 0001:00029e93       _string_is_alpha           0042ae93 f   libucrt:wsetlocale.obj
 0001:0002a040       $$000000                   0042b040     libucrt:strncmp.obj
 0001:0002a0b8       ??$?RV<lambda_15ade71b0218206bbe3333a0c9b79046>@@AAV<lambda_da44e0f8b0f19ba52fefafb335991732>@@V<lambda_207f2d024fc103971653565357d6cd41>@@@?$__crt_seh_guarded_call@X@@QAEX$$QAV<lambda_15ade71b0218206bbe3333a0c9b79046>@@AAV<lambda_da44e0f8b0f19ba52fefafb335991732>@@$$QAV<lambda_207f2d024fc103971653565357d6cd41>@@@Z 0042b0b8 f   libucrt:per_thread_data.obj
 0001:0002a10a       ??$?RV<lambda_38edbb1296d33220d7e4dd0ed76b244a>@@AAV<lambda_5ce1d447e08cb34b2473517608e21441>@@V<lambda_fb385d3da700c9147fc39e65dd577a8c>@@@?$__crt_seh_guarded_call@X@@QAEX$$QAV<lambda_38edbb1296d33220d7e4dd0ed76b244a>@@AAV<lambda_5ce1d447e08cb34b2473517608e21441>@@$$QAV<lambda_fb385d3da700c9147fc39e65dd577a8c>@@@Z 0042b10a f   libucrt:per_thread_data.obj
 0001:0002a175       ??$?RV<lambda_6affb1475c98b40b75cdec977db92e3c>@@AAV<lambda_b8d4b9c228a6ecc3f80208dbb4b4a104>@@V<lambda_608742c3c92a14382c1684fc64f96c88>@@@?$__crt_seh_guarded_call@X@@QAEX$$QAV<lambda_6affb1475c98b40b75cdec977db92e3c>@@AAV<lambda_b8d4b9c228a6ecc3f80208dbb4b4a104>@@$$QAV<lambda_608742c3c92a14382c1684fc64f96c88>@@@Z 0042b175 f   libucrt:per_thread_data.obj
 0001:0002a1ca       ??$?RV<lambda_a7e850c220f1c8d1e6efeecdedd162c6>@@AAV<lambda_46720907175c18b6c9d2717bc0d2d362>@@V<lambda_9048902d66e8d99359bc9897bbb930a8>@@@?$__crt_seh_guarded_call@X@@QAEX$$QAV<lambda_a7e850c220f1c8d1e6efeecdedd162c6>@@AAV<lambda_46720907175c18b6c9d2717bc0d2d362>@@$$QAV<lambda_9048902d66e8d99359bc9897bbb930a8>@@@Z 0042b1ca f   libucrt:per_thread_data.obj
 0001:0002a224       ?construct_ptd@@YAXQAU__acrt_ptd@@QAPAU__crt_locale_data@@@Z 0042b224 f   libucrt:per_thread_data.obj
 0001:0002a2bd       ?destroy_fls@@YGXPAX@Z     0042b2bd f   libucrt:per_thread_data.obj
 0001:0002a2de       ?destroy_ptd@@YAXQAU__acrt_ptd@@@Z 0042b2de f   libucrt:per_thread_data.obj
 0001:0002a3ab       ?replace_current_thread_locale_nolock@@YAXQAU__acrt_ptd@@QAU__crt_locale_data@@@Z 0042b3ab f   libucrt:per_thread_data.obj
 0001:0002a7d7       ?__acrt_LCMapStringA_stat@@YAHPAU__crt_locale_pointers@@PB_WKPBDHPADHHH@Z 0042b7d7 f   libucrt:lcmapstringa.obj
 0001:0002aa0f       ?<lambda_invoker_stdcall>@<lambda_29d3c280b90b41c2ae070ffca879996a>@@CG@PA_W@Z 0042ba0f f   libucrt:winapi_thunks.obj
 0001:0002aa1c       ??$?RV<lambda_6b4b7855443974f2b4b77000ea21c99c>@@AAV<lambda_8f7d3b162ab39427f4fa9995c67a7986>@@V<lambda_cc9a5ba8a5d8428b9634eab82665e5dc>@@@?$__crt_seh_guarded_call@H@@QAEH$$QAV<lambda_6b4b7855443974f2b4b77000ea21c99c>@@AAV<lambda_8f7d3b162ab39427f4fa9995c67a7986>@@$$QAV<lambda_cc9a5ba8a5d8428b9634eab82665e5dc>@@@Z 0042ba1c f   libucrt:winapi_thunks.obj
 0001:0002aa98       ??R<lambda_29d3c280b90b41c2ae070ffca879996a>@@QBE@PA_W@Z 0042ba98 f   libucrt:winapi_thunks.obj
 0001:0002aacb       ?try_get_AreFileApisANSI@@YAP6GHXZXZ 0042bacb f   libucrt:winapi_thunks.obj
 0001:0002aae5       ?try_get_CompareStringEx@@YAP6GHPB_WK0H0HPAU_nlsversioninfo@@PAXJ@ZXZ 0042bae5 f   libucrt:winapi_thunks.obj
 0001:0002aaff       ?try_get_EnumSystemLocalesEx@@YAP6GHP6GHPA_WKJ@ZKJPAX@ZXZ 0042baff f   libucrt:winapi_thunks.obj
 0001:0002ab19       ?try_get_GetDateFormatEx@@YAP6GHPB_WKPBU_SYSTEMTIME@@0PA_WH0@ZXZ 0042bb19 f   libucrt:winapi_thunks.obj
 0001:0002ab33       ?try_get_GetLocaleInfoEx@@YAP6GHPB_WKPA_WH@ZXZ 0042bb33 f   libucrt:winapi_thunks.obj
 0001:0002ab4d       ?try_get_GetTimeFormatEx@@YAP6GHPB_WKPBU_SYSTEMTIME@@0PA_WH@ZXZ 0042bb4d f   libucrt:winapi_thunks.obj
 0001:0002ab67       ?try_get_GetUserDefaultLocaleName@@YAP6GHPA_WH@ZXZ 0042bb67 f   libucrt:winapi_thunks.obj
 0001:0002ab81       ?try_get_IsValidLocaleName@@YAP6GHPB_W@ZXZ 0042bb81 f   libucrt:winapi_thunks.obj
 0001:0002ab9b       ?try_get_LCIDToLocaleName@@YAP6GHKPA_WHK@ZXZ 0042bb9b f   libucrt:winapi_thunks.obj
 0001:0002abb5       ?try_get_LCMapStringEx@@YAP6GHPB_WK0HPA_WHPAU_nlsversioninfo@@PAXJ@ZXZ 0042bbb5 f   libucrt:winapi_thunks.obj
 0001:0002abcf       ?try_get_LocaleNameToLCID@@YAP6GKPB_WK@ZXZ 0042bbcf f   libucrt:winapi_thunks.obj
 0001:0002abe9       ?try_get_first_available_module@@YAPAUHINSTANCE__@@QBW4module_id@?A0x391cf84c@@0@Z 0042bbe9 f   libucrt:winapi_thunks.obj
 0001:0002acb4       ?try_get_function@@YAPAXW4function_id@?A0x391cf84c@@QBDQBW4module_id@2@2@Z 0042bcb4 f   libucrt:winapi_thunks.obj
 0001:0002b32b       ?fe_to_nearest@@YA_NQBN_KF@Z 0042c32b f   libucrt:cvt.obj
 0001:0002b3ce       ?fp_format_a@@YAHQBNPADIQADIH_NIW4__acrt_rounding_mode@@AAV__crt_cached_ptd_host@@@Z 0042c3ce f   libucrt:cvt.obj
 0001:0002b6fb       ?fp_format_e@@YAHQBNQADI1IH_NIW4__acrt_rounding_mode@@AAV__crt_cached_ptd_host@@@Z 0042c6fb f   libucrt:cvt.obj
 0001:0002b79f       ?fp_format_e_internal@@YAHQADIH_NIQAU_strflt@@1AAV__crt_cached_ptd_host@@@Z 0042c79f f   libucrt:cvt.obj
 0001:0002b8f2       ?fp_format_f@@YAHQBNQADI1IHW4__acrt_rounding_mode@@AAV__crt_cached_ptd_host@@@Z 0042c8f2 f   libucrt:cvt.obj
 0001:0002b988       ?fp_format_f_internal@@YAHQADIHQAU_strflt@@_NAAV__crt_cached_ptd_host@@@Z 0042c988 f   libucrt:cvt.obj
 0001:0002ba76       ?fp_format_g@@YAHQBNQADI1IH_NIW4__acrt_rounding_mode@@AAV__crt_cached_ptd_host@@@Z 0042ca76 f   libucrt:cvt.obj
 0001:0002bb45       ?fp_format_nan_or_infinity@@YAHW4__acrt_fp_class@@_NPADI1@Z 0042cb45 f   libucrt:cvt.obj
 0001:0002bbda       ?shift_bytes@@YAXQADI0H@Z  0042cbda f   libucrt:cvt.obj
 0001:0002bc0e       ?should_round_up@@YA_NQBN_KFW4__acrt_rounding_mode@@@Z 0042cc0e f   libucrt:cvt.obj
 0001:0002c222       ?initialize_inherited_file_handles_nolock@@YAXXZ 0042d222 f   libucrt:ioinit.obj
 0001:0002c2d8       ?initialize_stdio_handles_nolock@@YAXXZ 0042d2d8 f   libucrt:ioinit.obj
 0001:0002c55c       ??$?RV<lambda_d422a76eb4c3bf3ad751449ab71a6ea4>@@AAV<lambda_c9ba49e555ba839a7b07aa3fbecb7617>@@V<lambda_9476263c8ee91a25d21c55370bdb50de>@@@?$__crt_seh_guarded_call@H@@QAEH$$QAV<lambda_d422a76eb4c3bf3ad751449ab71a6ea4>@@AAV<lambda_c9ba49e555ba839a7b07aa3fbecb7617>@@$$QAV<lambda_9476263c8ee91a25d21c55370bdb50de>@@@Z 0042d55c f   libucrt:close.obj
 0001:0002c804       ?find_or_allocate_unused_stream_nolock@@YA?AV__crt_stdio_stream@@XZ 0042d804 f   libucrt:stream.obj
 0001:0002c8c6       ??$?RV<lambda_9e9de3de5fa147e2223d7db92bc10aa6>@@AAV<lambda_38ce7e780aa69e748d6df282ebc68efe>@@V<lambda_8ca6da459f0f6780f1cff60fdc3d00e5>@@@?$__crt_seh_guarded_call@H@@QAEH$$QAV<lambda_9e9de3de5fa147e2223d7db92bc10aa6>@@AAV<lambda_38ce7e780aa69e748d6df282ebc68efe>@@$$QAV<lambda_8ca6da459f0f6780f1cff60fdc3d00e5>@@@Z 0042d8c6 f   libucrt:commit.obj
 0001:0002c9e5       ?write_double_translated_ansi_nolock@@YA?AUwrite_result@?A0x17268360@@HQBDIAAV__crt_cached_ptd_host@@@Z 0042d9e5 f   libucrt:write.obj
 0001:0002cdac       ?write_double_translated_unicode_nolock@@YA?AUwrite_result@?A0x17268360@@QBDI@Z 0042ddac f   libucrt:write.obj
 0001:0002ce14       ?write_requires_double_translation_nolock@@YA_NHAAV__crt_cached_ptd_host@@@Z 0042de14 f   libucrt:write.obj
 0001:0002ce91       ?write_text_ansi_nolock@@YA?AUwrite_result@?A0x17268360@@HQBDI@Z 0042de91 f   libucrt:write.obj
 0001:0002cf6c       ?write_text_utf16le_nolock@@YA?AUwrite_result@?A0x17268360@@HQBDI@Z 0042df6c f   libucrt:write.obj
 0001:0002d055       ?write_text_utf8_nolock@@YA?AUwrite_result@?A0x17268360@@HQBDI@Z 0042e055 f   libucrt:write.obj
 0001:0002d4eb       ??$common_refill_and_read_nolock@D@@YAHV__crt_stdio_stream@@@Z 0042e4eb f   libucrt:_filbuf.obj
 0001:0002d685       ??$common_flush_and_write_nolock@D@@YAHHV__crt_stdio_stream@@AAV__crt_cached_ptd_host@@@Z 0042e685 f   libucrt:_flsbuf.obj
 0001:0002d77b       ??$write_buffer_nolock@D@@YA_NDV__crt_stdio_stream@@AAV__crt_cached_ptd_host@@@Z 0042e77b f   libucrt:_flsbuf.obj
 0001:0002d84d       ?stream_is_at_end_of_file_nolock@@YA_NV__crt_stdio_stream@@@Z 0042e84d f   libucrt:_flsbuf.obj
 0001:0002d8dd       ??$translate_text_mode_nolock@D@@YAHHQADI@Z 0042e8dd f   libucrt:read.obj
 0001:0002da2a       ??$translate_text_mode_nolock@_W@@YAHHQA_WI@Z 0042ea2a f   libucrt:read.obj
 0001:0002dbe4       ?translate_ansi_or_utf8_nolock@@YAHHQADIQA_WI@Z 0042ebe4 f   libucrt:read.obj
 0001:0002dd3b       ?translate_utf16_from_console_nolock@@YAHHQA_WI@Z 0042ed3b f   libucrt:read.obj
 0001:0002e25d       ??$common_lseek@_J@@YA_JH_JHAAV__crt_cached_ptd_host@@@Z 0042f25d f   libucrt:lseek.obj
 0001:0002e382       ??$common_lseek_nolock@_J@@YA_JH_JHAAV__crt_cached_ptd_host@@@Z 0042f382 f   libucrt:lseek.obj
 0001:0002e62e       ??$common_gmtime_s@_J@@YAHQAUtm@@QB_J@Z 0042f62e f   libucrt:gmtime.obj
 0001:0002e778       ?compute_year@@YAHAA_JAA_N@Z 0042f778 f   libucrt:gmtime.obj
 0001:0002e8b9       ?_isindst_nolock@@YAHQAUtm@@@Z 0042f8b9 f   libucrt:tzset.obj
 0001:0002ead3       ?cvtdate@@YAXW4transition_type@?A0x7639d0b4@@W4date_type@2@HHHHHHHHH@Z 0042fad3 f   libucrt:tzset.obj
 0001:0002ec16       ?get_tz_environment_variable@@YAPA_WAAY0BAA@_W@Z 0042fc16 f   libucrt:tzset.obj
 0001:0002ec8d       ?tzset_env_copy_to_tzname@@YAXQB_WQA_WQADI@Z 0042fc8d f   libucrt:tzset.obj
 0001:0002ecd4       ?tzset_from_environment_nolock@@YAXPA_W@Z 0042fcd4 f   libucrt:tzset.obj
 0001:0002ef66       ?tzset_from_system_nolock@@YAXXZ 0042ff66 f   libucrt:tzset.obj
 0001:0002f0c0       ?tzset_nolock@@YAXXZ       004300c0 f   libucrt:tzset.obj
 0001:0002f136       ?tzset_os_copy_to_tzname@@YAXQB_WQA_WQADI@Z 00430136 f   libucrt:tzset.obj
 0001:0002f229       ?filter_mbtowcs_flags@@YAKIK@Z 00430229 f   libucrt:multibytetowidechar.obj
 0001:0002f2eb       ?filter_wcstomb_flags@@YAKIK@Z 004302eb f   libucrt:widechartomultibyte.obj
 0001:0002f611       ??$common_openfile@D@@YAPAU_iobuf@@QBD0HV__crt_stdio_stream@@@Z 00430611 f   libucrt:openfile.obj
 0001:000304d4       ?InternalGetLocaleInfoA@@YAHQAU__crt_locale_pointers@@QB_WKQADH@Z 004314d4 f   libucrt:getlocaleinfoa.obj
 0001:00030864       ?_mbstowcs_internal@@YAHPAIPA_WIPBDIAAV__crt_cached_ptd_host@@@Z 00431864 f   libucrt:mbstowcs.obj
 0001:00030940       ?_mbstowcs_l_helper@@YAIPA_WPBDIAAV__crt_cached_ptd_host@@@Z 00431940 f   libucrt:mbstowcs.obj
 0001:00030b44       ?_wcstombs_internal@@YAHPAIPADIPB_WIAAV__crt_cached_ptd_host@@@Z 00431b44 f   libucrt:wcstombs.obj
 0001:00030c19       ?_wcstombs_l_helper@@YAIPADPB_WIAAV__crt_cached_ptd_host@@@Z 00431c19 f   libucrt:wcstombs.obj
 0001:00030fc0       $$000000                   00431fc0     libucrt:pow_pentium4.obj
 0001:00031ae0       $$000000                   00432ae0     libucrt:87tran.obj
 0001:00031cf0       $$000000                   00432cf0     libucrt:87disp.obj
 0001:00031f50       $$000000                   00432f50     libucrt:genexcep.obj
 0001:00031fb0       $$000000                   00432fb0     libucrt:common.obj
 0001:000322cf       ??$?RV<lambda_cbab9ec6f41b0180b23cc171c22676b0>@@AAV<lambda_44731a7d0e6d81c3e6aa82d741081786>@@V<lambda_4b292cb8dd18144e164572427af410ab>@@@?$__crt_seh_guarded_call@P6AXH@Z@@QAEP6AXH@Z$$QAV<lambda_cbab9ec6f41b0180b23cc171c22676b0>@@AAV<lambda_44731a7d0e6d81c3e6aa82d741081786>@@$$QAV<lambda_4b292cb8dd18144e164572427af410ab>@@@Z 004332cf f   libucrt:signal.obj
 0001:00032337       ?get_global_action_nolock@@YAPAP6AXH@ZH@Z 00433337 f   libucrt:signal.obj
 0001:00032379       ?siglookup@@YAPAU__crt_signal_action_t@@HQAU1@@Z 00433379 f   libucrt:signal.obj
 0001:00032624       ?<lambda_invoker_cdecl>@<lambda_838c7f62c73c983481e27c09e84b0b5d>@@CAHPBX0@Z 00433624 f   libucrt:argv_wildcards.obj
 0001:00032702       ??$common_expand_argv_wildcards@D@@YAHQAPADQAPAPAD@Z 00433702 f   libucrt:argv_wildcards.obj
 0001:0003287f       ??$copy_and_add_argument_to_buffer@D@@YAHQBD0IAAV?$argument_list@D@?A0x5f5c8891@@@Z 0043387f f   libucrt:argv_wildcards.obj
 0001:00032930       ??$expand_argument_wildcards@D@@YAHQAD0AAV?$argument_list@D@?A0x5f5c8891@@@Z 00433930 f   libucrt:argv_wildcards.obj
 0001:00032bb5       ??1?$argument_list@D@?A0x5f5c8891@@QAE@XZ 00433bb5 f   libucrt:argv_wildcards.obj
 0001:00032c16       ?expand_if_necessary@?$argument_list@D@?A0x5f5c8891@@AAEHXZ 00433c16 f   libucrt:argv_wildcards.obj
 0001:00032d49       ??$?RV<lambda_ceb1ee4838e85a9d631eb091e2fbe199>@@AAV<lambda_ae742caa10f662c28703da3d2ea5e57e>@@V<lambda_cd08b5d6af4937fe54fc07d0c9bf6b37>@@@?$__crt_seh_guarded_call@X@@QAEX$$QAV<lambda_ceb1ee4838e85a9d631eb091e2fbe199>@@AAV<lambda_ae742caa10f662c28703da3d2ea5e57e>@@$$QAV<lambda_cd08b5d6af4937fe54fc07d0c9bf6b37>@@@Z 00433d49 f   libucrt:mbctype.obj
 0001:00032d96       ??R<lambda_ae742caa10f662c28703da3d2ea5e57e>@@QBE@XZ 00433d96 f   libucrt:mbctype.obj
 0001:00032e19       ?CPtoLocaleName@@YAPB_WH@Z 00433e19 f   libucrt:mbctype.obj
 0001:00032e57       ?getSystemCP@@YAHH@Z       00433e57 f   libucrt:mbctype.obj
 0001:00032ec8       ?setSBCS@@YAXPAU__crt_multibyte_data@@@Z 00433ec8 f   libucrt:mbctype.obj
 0001:00032f2b       ?setSBUpLow@@YAXPAU__crt_multibyte_data@@@Z 00433f2b f   libucrt:mbctype.obj
 0001:000330d0       ?setmbcp_internal@@YAHH_NQAU__acrt_ptd@@QAPAU__crt_multibyte_data@@@Z 004340d0 f   libucrt:mbctype.obj
 0001:00033225       ?update_thread_multibyte_data_internal@@YAPAU__crt_multibyte_data@@QAU__acrt_ptd@@QAPAU1@@Z 00434225 f   libucrt:mbctype.obj
 0001:00033525       ?x_ismbbtype_l@@YAHPAU__crt_locale_pointers@@IHH@Z 00434525 f   libucrt:ismbbyte.obj
 0001:0003358d       ?find_end_of_double_null_terminated_sequence@@YAPB_WQB_W@Z 0043458d f   libucrt:get_environment_from_os.obj
 0001:000336b2       ??$common_set_variable_in_environment_nolock@D@@YAHQADH@Z 004346b2 f   libucrt:setenv.obj
 0001:00033912       ??$common_set_variable_in_environment_nolock@_W@@YAHQA_WH@Z 00434912 f   libucrt:setenv.obj
 0001:00033b9d       ??$copy_environment@D@@YAPAPADQAPAD@Z 00434b9d f   libucrt:setenv.obj
 0001:00033c4d       ??$copy_environment@_W@@YAPAPA_WQAPA_W@Z 00434c4d f   libucrt:setenv.obj
 0001:00033d0b       ??$ensure_current_environment_is_not_initial_environment_nolock@D@@YAXXZ 00434d0b f   libucrt:setenv.obj
 0001:00033d25       ??$ensure_current_environment_is_not_initial_environment_nolock@_W@@YAXXZ 00434d25 f   libucrt:setenv.obj
 0001:00033d3f       ??$find_in_environment_nolock@D@@YAHQBDI@Z 00434d3f f   libucrt:setenv.obj
 0001:00033d94       ??$find_in_environment_nolock@_W@@YAHQB_WI@Z 00434d94 f   libucrt:setenv.obj
 0001:00033f25       ??$common_tcsncpy_s@_W@@YAHQA_WIQB_WI@Z 00434f25 f   libucrt:wcsncpy_s.obj
 0001:00034b2d       ?free_crt_array_internal@@YAXQAPBXI@Z 00435b2d f   libucrt:inittime.obj
 0001:00034b52       ?initialize_lc_time@@YA_NQAU__crt_lc_time_data@@QAU__crt_locale_data@@@Z 00435b52 f   libucrt:inittime.obj
 0001:00034f2d       ??$common_tcsncat_s@_W@@YAHQA_WIQB_WI@Z 00435f2d f   libucrt:wcsncat_s.obj
 0001:00035461       _GetLocaleNameFromDefault  00436461 f   libucrt:get_qualified_locale.obj
 0001:000354e8       _GetLocaleNameFromLangCountry 004364e8 f   libucrt:get_qualified_locale.obj
 0001:00035581       _GetLocaleNameFromLanguage 00436581 f   libucrt:get_qualified_locale.obj
 0001:000355da       _GetPrimaryLen             004365da f   libucrt:get_qualified_locale.obj
 0001:0003560e       _LangCountryEnumProcEx@12  0043660e f   libucrt:get_qualified_locale.obj
 0001:000358ef       _LanguageEnumProcEx@12     004368ef f   libucrt:get_qualified_locale.obj
 0001:000359ae       _ProcessCodePage           004369ae f   libucrt:get_qualified_locale.obj
 0001:00035a9e       _TestDefaultCountry        00436a9e f   libucrt:get_qualified_locale.obj
 0001:00035aeb       _TranslateName             00436aeb f   libucrt:get_qualified_locale.obj
 0001:00035d5d       _CountryEnumProc@4         00436d5d f   libucrt:getqloc_downlevel.obj
 0001:00035e04       _GetLcidFromCountry        00436e04 f   libucrt:getqloc_downlevel.obj
 0001:00035e4f       _GetLcidFromLangCountry    00436e4f f   libucrt:getqloc_downlevel.obj
 0001:00035eea       _GetLcidFromLanguage       00436eea f   libucrt:getqloc_downlevel.obj
 0001:00035f49       _GetPrimaryLen             00436f49 f   libucrt:getqloc_downlevel.obj
 0001:00035f75       _LangCountryEnumProc@4     00436f75 f   libucrt:getqloc_downlevel.obj
 0001:000361c8       _LanguageEnumProc@4        004371c8 f   libucrt:getqloc_downlevel.obj
 0001:0003629d       _LcidFromHexString         0043729d f   libucrt:getqloc_downlevel.obj
 0001:000362f1       _ProcessCodePage           004372f1 f   libucrt:getqloc_downlevel.obj
 0001:000363d2       _TestDefaultCountry        004373d2 f   libucrt:getqloc_downlevel.obj
 0001:000363f7       _TestDefaultLanguage       004373f7 f   libucrt:getqloc_downlevel.obj
 0001:0003646c       _TranslateName             0043746c f   libucrt:getqloc_downlevel.obj
 0001:000366bd       ___hw_cw_sse2              004376bd f   libucrt:ieee87.obj
 0001:00036b43       __hw_cw                    00437b43 f   libucrt:ieee87.obj
 0001:00036be1       ?GetTableIndexFromLocaleName@@YAHPB_W@Z 00437be1 f   libucrt:lcidtoname_downlevel.obj
 0001:00036d00       ?check_trailing@@YA_NPBDW4__acrt_has_trailing_digits@@@Z 00437d00 f   libucrt:_fptostr.obj
 0001:00036d23       ?should_round_up@@YA_NQBD0HW4__acrt_has_trailing_digits@@W4__acrt_rounding_mode@@@Z 00437d23 f   libucrt:_fptostr.obj
 0001:00038543       ??R<lambda_e96123212306c92459f955e8e4eac55d>@@QBEIPBD@Z 00439543 f   libucrt:mbrtowc.obj
 0001:00038742       ??$common_getenv_nolock@_W@@YAPA_WQB_W@Z 00439742 f   libucrt:getenv.obj
 0001:000387c6       ??$common_getenv_s@_W@@YAHQAIQA_WIQB_W@Z 004397c6 f   libucrt:getenv.obj
 0001:00038825       ??$common_getenv_s_nolock@_W@@YAHQAIQA_WIQB_W@Z 00439825 f   libucrt:getenv.obj
 0001:00038b84       ??$common_sopen_dispatch@D@@YAHQBDHHHQAHH@Z 00439b84 f   libucrt:open.obj
 0001:00038c5f       ?configure_text_mode@@YAHHUfile_options@?A0xa9d50aae@@HAAW4__crt_lowio_text_mode@@@Z 00439c5f f   libucrt:open.obj
 0001:00038eb5       ?create_file@@YAPAXQB_WQAU_SECURITY_ATTRIBUTES@@Ufile_options@?A0xa9d50aae@@@Z 00439eb5 f   libucrt:open.obj
 0001:00038eda       ?decode_open_create_flags@@YAKH@Z 00439eda f   libucrt:open.obj
 0001:00038f4a       ?decode_options@@YA?AUfile_options@?A0xa9d50aae@@HHH@Z 00439f4a f   libucrt:open.obj
 0001:000390c4       ?truncate_ctrl_z_if_present@@YAHH@Z 0043a0c4 f   libucrt:open.obj
 0001:0003957d       ??$common_tcsncpy_s@D@@YAHQADIQBDI@Z 0043a57d f   libucrt:strncpy_s.obj
 0001:0003974e       ?to_abstract_control@@YA?AW4__acrt_fenv_abstract_control@@W4__acrt_fenv_machine_sse_control@@@Z 0043a74e f   libucrt:_fenvutils.obj
 0001:000397fe       ?to_abstract_control@@YA?AW4__acrt_fenv_abstract_control@@W4__acrt_fenv_machine_x87_control@@@Z 0043a7fe f   libucrt:_fenvutils.obj
 0001:000398ab       ?to_machine_sse_control@@YA?AW4__acrt_fenv_machine_sse_control@@W4__acrt_fenv_abstract_control@@@Z 0043a8ab f   libucrt:_fenvutils.obj
 0001:00039961       ?to_machine_x87_control@@YA?AW4__acrt_fenv_machine_x87_control@@W4__acrt_fenv_abstract_control@@@Z 0043a961 f   libucrt:_fenvutils.obj
 0001:0003a4f0       $$000000                   0043b4f0     libucrt:strpbrk.obj
 0001:0003a5d4       ?initialize_multibyte@@YAHXZ 0043b5d4 f   libucrt:multibyte_initializer.obj
 0001:0003a896       ??$common_xtox@K_W@@YAHKQA_WII_N@Z 0043b896 f   libucrt:xtoa.obj
 0001:0003a952       ??$common_xtox_s@K_W@@YAHKQA_WII_N@Z 0043b952 f   libucrt:xtoa.obj
 0001:0003aab0       $$000000                   0043bab0     libucrt:log10_impl.obj
 0001:0003abc0       $$000000                   0043bbc0     libucrt:ceil_pentium4.obj
 0001:0003aec4       ?__dcrt_lowio_initialize_console_output@@YAXXZ 0043bec4 f   libucrt:initcon.obj
 0001:0003af70       $$000000                   0043bf70     libucrt:_strnicm.obj
 0001:0003b2fb       ?InternalCompareStringA@@YAHPAU__crt_locale_pointers@@PB_WKPBDH2HH@Z 0043c2fb f   libucrt:comparestringa.obj
 0001:0003b5e0       $$000000                   0043c5e0     libucrt:log10_pentium4.obj
 0001:0003bae0       $$000000                   0043cae0     LIBCMT:ulldvrm.obj
 0001:0003bb80       $$000000                   0043cb80     LIBCMT:ullrem.obj
 0001:0003bc00       $$000000                   0043cc00     LIBCMT:llshl.obj
 0001:0003bc20       $$000000                   0043cc20     LIBCMT:ullshr.obj
 0001:0003bc40       $$000000                   0043cc40     LIBCMT:ftol2.obj
 0001:0003bd00       $$000000                   0043cd00     libvcruntime:strchr.obj
 0001:0003bf00       __unwindfunclet$??0_Locinfo@std@@QAE@PBD@Z$0 0043cf00 f   TServerSystem:TServerSystem.obj
 0001:0003bf08       __unwindfunclet$??0_Locinfo@std@@QAE@PBD@Z$1 0043cf08 f   TServerSystem:TServerSystem.obj
 0001:0003bf13       __unwindfunclet$??0_Locinfo@std@@QAE@PBD@Z$2 0043cf13 f   TServerSystem:TServerSystem.obj
 0001:0003bf1e       __unwindfunclet$??0_Locinfo@std@@QAE@PBD@Z$3 0043cf1e f   TServerSystem:TServerSystem.obj
 0001:0003bf29       __unwindfunclet$??0_Locinfo@std@@QAE@PBD@Z$4 0043cf29 f   TServerSystem:TServerSystem.obj
 0001:0003bf34       __unwindfunclet$??0_Locinfo@std@@QAE@PBD@Z$5 0043cf34 f   TServerSystem:TServerSystem.obj
 0001:0003bf3f       __unwindfunclet$??0_Locinfo@std@@QAE@PBD@Z$6 0043cf3f f   TServerSystem:TServerSystem.obj
 0001:0003bf4a       __ehhandler$??0_Locinfo@std@@QAE@PBD@Z 0043cf4a f   TServerSystem:TServerSystem.obj
 0001:0003bf70       __ehhandler$??1_Locimp@locale@std@@MAE@XZ 0043cf70 f   libcpmt:locale0.obj
 0001:0003bf70       __ehhandler$??1_Locinfo@std@@QAE@XZ 0043cf70 f   TServerSystem:TServerSystem.obj
 0001:0003bf70       __ehhandler$??1_Init_atexit@@QAE@XZ 0043cf70 f   libcpmt:iosptrs.obj
 0001:0003bf90       __ehhandler$??1locale@std@@QAE@XZ 0043cf90 f   TServerSystem:TServerSystem.obj
 0001:0003bf90       __ehhandler$??1_Sentry_base@?$basic_ostream@DU?$char_traits@D@std@@@std@@QAE@XZ 0043cf90 f   TServerSystem:TServerSystem.obj
 0001:0003bf90       __ehhandler$??1_Sentry_base@?$basic_istream@DU?$char_traits@D@std@@@std@@QAE@XZ 0043cf90 f   mailer.obj
 0001:0003bfb0       __unwindfunclet$??0_System_error@std@@IAE@Verror_code@1@ABV?$basic_string@DU?$char_traits@D@std@@V?$allocator@D@2@@1@@Z$3 0043cfb0 f   TServerSystem:TServerSystem.obj
 0001:0003bfb8       __unwindfunclet$??0_System_error@std@@IAE@Verror_code@1@ABV?$basic_string@DU?$char_traits@D@std@@V?$allocator@D@2@@1@@Z$4 0043cfb8 f   TServerSystem:TServerSystem.obj
 0001:0003bfc0       __ehhandler$??0_System_error@std@@IAE@Verror_code@1@ABV?$basic_string@DU?$char_traits@D@std@@V?$allocator@D@2@@1@@Z 0043cfc0 f   TServerSystem:TServerSystem.obj
 0001:0003bff0       __unwindfunclet$??0failure@ios_base@std@@QAE@PBDABVerror_code@2@@Z$1 0043cff0 f   TServerSystem:TServerSystem.obj
 0001:0003bff8       __ehhandler$??0failure@ios_base@std@@QAE@PBDABVerror_code@2@@Z 0043cff8 f   TServerSystem:TServerSystem.obj
 0001:0003c020       __ehhandler$??_G?$basic_ios@DU?$char_traits@D@std@@@std@@UAEPAXI@Z 0043d020 f   TServerSystem:TServerSystem.obj
 0001:0003c020       __ehhandler$??_Gios_base@std@@UAEPAXI@Z 0043d020 f   TServerSystem:TServerSystem.obj
 0001:0003c020       __ehhandler$??_G?$basic_ostream@DU?$char_traits@D@std@@@std@@UAEPAXI@Z 0043d020 f   TServerSystem:TServerSystem.obj
 0001:0003c040       __unwindfunclet$??0TServerSystem@@QAE@V?$basic_string@DU?$char_traits@D@std@@V?$allocator@D@2@@std@@0@Z$0 0043d040 f   TServerSystem:TServerSystem.obj
 0001:0003c048       __unwindfunclet$??0TServerSystem@@QAE@V?$basic_string@DU?$char_traits@D@std@@V?$allocator@D@2@@std@@0@Z$1 0043d048 f   TServerSystem:TServerSystem.obj
 0001:0003c050       __unwindfunclet$??0TServerSystem@@QAE@V?$basic_string@DU?$char_traits@D@std@@V?$allocator@D@2@@std@@0@Z$2 0043d050 f   TServerSystem:TServerSystem.obj
 0001:0003c05b       __unwindfunclet$??0TServerSystem@@QAE@V?$basic_string@DU?$char_traits@D@std@@V?$allocator@D@2@@std@@0@Z$3 0043d05b f   TServerSystem:TServerSystem.obj
 0001:0003c066       __unwindfunclet$??0TServerSystem@@QAE@V?$basic_string@DU?$char_traits@D@std@@V?$allocator@D@2@@std@@0@Z$4 0043d066 f   TServerSystem:TServerSystem.obj
 0001:0003c071       __unwindfunclet$??0TServerSystem@@QAE@V?$basic_string@DU?$char_traits@D@std@@V?$allocator@D@2@@std@@0@Z$5 0043d071 f   TServerSystem:TServerSystem.obj
 0001:0003c07c       __unwindfunclet$??0TServerSystem@@QAE@V?$basic_string@DU?$char_traits@D@std@@V?$allocator@D@2@@std@@0@Z$6 0043d07c f   TServerSystem:TServerSystem.obj
 0001:0003c087       __unwindfunclet$??0TServerSystem@@QAE@V?$basic_string@DU?$char_traits@D@std@@V?$allocator@D@2@@std@@0@Z$12 0043d087 f   TServerSystem:TServerSystem.obj
 0001:0003c092       __unwindfunclet$??0TServerSystem@@QAE@V?$basic_string@DU?$char_traits@D@std@@V?$allocator@D@2@@std@@0@Z$7 0043d092 f   TServerSystem:TServerSystem.obj
 0001:0003c09d       __unwindfunclet$??0TServerSystem@@QAE@V?$basic_string@DU?$char_traits@D@std@@V?$allocator@D@2@@std@@0@Z$9 0043d09d f   TServerSystem:TServerSystem.obj
 0001:0003c0a5       __unwindfunclet$??0TServerSystem@@QAE@V?$basic_string@DU?$char_traits@D@std@@V?$allocator@D@2@@std@@0@Z$10 0043d0a5 f   TServerSystem:TServerSystem.obj
 0001:0003c0ad       __ehhandler$??0TServerSystem@@QAE@V?$basic_string@DU?$char_traits@D@std@@V?$allocator@D@2@@std@@0@Z 0043d0ad f   TServerSystem:TServerSystem.obj
 0001:0003c0e0       __unwindfunclet$?SSLogInfo@TServerSystem@@IAEXV?$basic_string@DU?$char_traits@D@std@@V?$allocator@D@2@@std@@H@Z$0 0043d0e0 f   TServerSystem:TServerSystem.obj
 0001:0003c0e0       __unwindfunclet$?SSLogError@TServerSystem@@IAEXV?$basic_string@DU?$char_traits@D@std@@V?$allocator@D@2@@std@@H@Z$0 0043d0e0 f   TServerSystem:TServerSystem.obj
 0001:0003c0e8       __ehhandler$?SSLogInfo@TServerSystem@@IAEXV?$basic_string@DU?$char_traits@D@std@@V?$allocator@D@2@@std@@H@Z 0043d0e8 f   TServerSystem:TServerSystem.obj
 0001:0003c0e8       __ehhandler$?SSLogError@TServerSystem@@IAEXV?$basic_string@DU?$char_traits@D@std@@V?$allocator@D@2@@std@@H@Z 0043d0e8 f   TServerSystem:TServerSystem.obj
 0001:0003c110       __unwindfunclet$?DisplayIni@TServerSystem@@IAEXXZ$0 0043d110 f   TServerSystem:TServerSystem.obj
 0001:0003c118       __unwindfunclet$?DisplayIni@TServerSystem@@IAEXXZ$2 0043d118 f   TServerSystem:TServerSystem.obj
 0001:0003c120       __ehhandler$?DisplayIni@TServerSystem@@IAEXXZ 0043d120 f   TServerSystem:TServerSystem.obj
 0001:0003c150       __unwindfunclet$?LoadIntFromIni@TServerSystem@@IAEXV?$basic_string@DU?$char_traits@D@std@@V?$allocator@D@2@@std@@HAAH@Z$0 0043d150 f   TServerSystem:TServerSystem.obj
 0001:0003c158       __unwindfunclet$?LoadIntFromIni@TServerSystem@@IAEXV?$basic_string@DU?$char_traits@D@std@@V?$allocator@D@2@@std@@HAAH@Z$1 0043d158 f   TServerSystem:TServerSystem.obj
 0001:0003c160       __unwindfunclet$?LoadIntFromIni@TServerSystem@@IAEXV?$basic_string@DU?$char_traits@D@std@@V?$allocator@D@2@@std@@HAAH@Z$2 0043d160 f   TServerSystem:TServerSystem.obj
 0001:0003c168       __unwindfunclet$?LoadIntFromIni@TServerSystem@@IAEXV?$basic_string@DU?$char_traits@D@std@@V?$allocator@D@2@@std@@HAAH@Z$3 0043d168 f   TServerSystem:TServerSystem.obj
 0001:0003c170       __unwindfunclet$?LoadIntFromIni@TServerSystem@@IAEXV?$basic_string@DU?$char_traits@D@std@@V?$allocator@D@2@@std@@HAAH@Z$4 0043d170 f   TServerSystem:TServerSystem.obj
 0001:0003c178       __unwindfunclet$?LoadIntFromIni@TServerSystem@@IAEXV?$basic_string@DU?$char_traits@D@std@@V?$allocator@D@2@@std@@HAAH@Z$5 0043d178 f   TServerSystem:TServerSystem.obj
 0001:0003c180       __ehhandler$?LoadIntFromIni@TServerSystem@@IAEXV?$basic_string@DU?$char_traits@D@std@@V?$allocator@D@2@@std@@HAAH@Z 0043d180 f   TServerSystem:TServerSystem.obj
 0001:0003c1b0       __unwindfunclet$?LoadStringFromIni@TServerSystem@@IAEXV?$basic_string@DU?$char_traits@D@std@@V?$allocator@D@2@@std@@0AAV23@@Z$0 0043d1b0 f   TServerSystem:TServerSystem.obj
 0001:0003c1b8       __unwindfunclet$?LoadStringFromIni@TServerSystem@@IAEXV?$basic_string@DU?$char_traits@D@std@@V?$allocator@D@2@@std@@0AAV23@@Z$1 0043d1b8 f   TServerSystem:TServerSystem.obj
 0001:0003c1c0       __unwindfunclet$?LoadStringFromIni@TServerSystem@@IAEXV?$basic_string@DU?$char_traits@D@std@@V?$allocator@D@2@@std@@0AAV23@@Z$2 0043d1c0 f   TServerSystem:TServerSystem.obj
 0001:0003c1c8       __unwindfunclet$?LoadStringFromIni@TServerSystem@@IAEXV?$basic_string@DU?$char_traits@D@std@@V?$allocator@D@2@@std@@0AAV23@@Z$3 0043d1c8 f   TServerSystem:TServerSystem.obj
 0001:0003c1d0       __ehhandler$?LoadStringFromIni@TServerSystem@@IAEXV?$basic_string@DU?$char_traits@D@std@@V?$allocator@D@2@@std@@0AAV23@@Z 0043d1d0 f   TServerSystem:TServerSystem.obj
 0001:0003c200       __unwindfunclet$??0?$vector@V?$basic_string@DU?$char_traits@D@std@@V?$allocator@D@2@@std@@V?$allocator@V?$basic_string@DU?$char_traits@D@std@@V?$allocator@D@2@@std@@@2@@std@@QAE@ABV01@@Z$2 0043d200 f   TServerSystem:TServerSystem.obj
 0001:0003c208       __ehhandler$??0?$vector@V?$basic_string@DU?$char_traits@D@std@@V?$allocator@D@2@@std@@V?$allocator@V?$basic_string@DU?$char_traits@D@std@@V?$allocator@D@2@@std@@@2@@std@@QAE@ABV01@@Z 0043d208 f   TServerSystem:TServerSystem.obj
 0001:0003c230       __unwindfunclet$?uflow@?$basic_filebuf@DU?$char_traits@D@std@@@std@@MAEHXZ$0 0043d230 f   TServerSystem:TServerSystem.obj
 0001:0003c238       __ehhandler$?uflow@?$basic_filebuf@DU?$char_traits@D@std@@@std@@MAEHXZ 0043d238 f   TServerSystem:TServerSystem.obj
 0001:0003c260       __ehhandler$??_G?$basic_streambuf@DU?$char_traits@D@std@@@std@@UAEPAXI@Z 0043d260 f   TServerSystem:TServerSystem.obj
 0001:0003c260       __ehhandler$??1?$basic_filebuf@DU?$char_traits@D@std@@@std@@UAE@XZ 0043d260 f   TServerSystem:TServerSystem.obj
 0001:0003c260       __ehhandler$??1sentry@?$basic_ostream@DU?$char_traits@D@std@@@std@@QAE@XZ 0043d260 f   TServerSystem:TServerSystem.obj
 0001:0003c280       __ehhandler$??1?$basic_ios@DU?$char_traits@D@std@@@std@@UAE@XZ 0043d280 f   TServerSystem:TServerSystem.obj
 0001:0003c280       __ehhandler$??_D?$basic_ostream@DU?$char_traits@D@std@@@std@@QAEXXZ 0043d280 f   TServerSystem:TServerSystem.obj
 0001:0003c2a0       __unwindfunclet$??0sentry@?$basic_ostream@DU?$char_traits@D@std@@@std@@QAE@AAV12@@Z$0 0043d2a0 f   TServerSystem:TServerSystem.obj
 0001:0003c2a8       __ehhandler$??0sentry@?$basic_ostream@DU?$char_traits@D@std@@@std@@QAE@AAV12@@Z 0043d2a8 f   TServerSystem:TServerSystem.obj
 0001:0003c2d0       __unwindfunclet$??0?$basic_ostream@DU?$char_traits@D@std@@@std@@QAE@PAV?$basic_streambuf@DU?$char_traits@D@std@@@1@_N@Z$0 0043d2d0 f   TServerSystem:TServerSystem.obj
 0001:0003c2ec       __ehhandler$??0?$basic_ostream@DU?$char_traits@D@std@@@std@@QAE@PAV?$basic_streambuf@DU?$char_traits@D@std@@@1@_N@Z 0043d2ec f   TServerSystem:TServerSystem.obj
 0001:0003c310       __unwindfunclet$?flush@?$basic_ostream@DU?$char_traits@D@std@@@std@@QAEAAV12@XZ$0 0043d310 f   TServerSystem:TServerSystem.obj
 0001:0003c318       __ehhandler$?flush@?$basic_ostream@DU?$char_traits@D@std@@@std@@QAEAAV12@XZ 0043d318 f   TServerSystem:TServerSystem.obj
 0001:0003c340       __ehhandler$?_Osfx@?$basic_ostream@DU?$char_traits@D@std@@@std@@QAEXXZ 0043d340 f   TServerSystem:TServerSystem.obj
 0001:0003c360       __ehhandler$??0?$basic_streambuf@DU?$char_traits@D@std@@@std@@IAE@XZ 0043d360 f   TServerSystem:TServerSystem.obj
 0001:0003c380       __unwindfunclet$?widen@?$basic_ios@DU?$char_traits@D@std@@@std@@QBEDD@Z$0 0043d380 f   TServerSystem:TServerSystem.obj
 0001:0003c388       __ehhandler$?widen@?$basic_ios@DU?$char_traits@D@std@@@std@@QBEDD@Z 0043d388 f   TServerSystem:TServerSystem.obj
 0001:0003c3b0       __unwindfunclet$??$use_facet@V?$ctype@D@std@@@std@@YAABV?$ctype@D@0@ABVlocale@0@@Z$0 0043d3b0 f   TServerSystem:TServerSystem.obj
 0001:0003c3b8       __unwindfunclet$??$use_facet@V?$ctype@D@std@@@std@@YAABV?$ctype@D@0@ABVlocale@0@@Z$3 0043d3b8 f   TServerSystem:TServerSystem.obj
 0001:0003c3c7       __unwindfunclet$??$use_facet@V?$ctype@D@std@@@std@@YAABV?$ctype@D@0@ABVlocale@0@@Z$1 0043d3c7 f   TServerSystem:TServerSystem.obj
 0001:0003c3cf       __ehhandler$??$use_facet@V?$ctype@D@std@@@std@@YAABV?$ctype@D@0@ABVlocale@0@@Z 0043d3cf f   TServerSystem:TServerSystem.obj
 0001:0003c400       __unwindfunclet$??$?HDU?$char_traits@D@std@@V?$allocator@D@1@@std@@YA?AV?$basic_string@DU?$char_traits@D@std@@V?$allocator@D@2@@0@ABV10@QBD@Z$0 0043d400 f   TServerSystem:TServerSystem.obj
 0001:0003c419       __ehhandler$??$?HDU?$char_traits@D@std@@V?$allocator@D@1@@std@@YA?AV?$basic_string@DU?$char_traits@D@std@@V?$allocator@D@2@@0@ABV10@QBD@Z 0043d419 f   TServerSystem:TServerSystem.obj
 0001:0003c440       __unwindfunclet$??$?HDU?$char_traits@D@std@@V?$allocator@D@1@@std@@YA?AV?$basic_string@DU?$char_traits@D@std@@V?$allocator@D@2@@0@QBDABV10@@Z$0 0043d440 f   TServerSystem:TServerSystem.obj
 0001:0003c459       __ehhandler$??$?HDU?$char_traits@D@std@@V?$allocator@D@1@@std@@YA?AV?$basic_string@DU?$char_traits@D@std@@V?$allocator@D@2@@0@QBDABV10@@Z 0043d459 f   TServerSystem:TServerSystem.obj
 0001:0003c480       __unwindfunclet$??$?6U?$char_traits@D@std@@@std@@YAAAV?$basic_ostream@DU?$char_traits@D@std@@@0@AAV10@PBD@Z$3 0043d480 f   TServerSystem:TServerSystem.obj
 0001:0003c488       __unwindfunclet$??$?6U?$char_traits@D@std@@@std@@YAAAV?$basic_ostream@DU?$char_traits@D@std@@@0@AAV10@PBD@Z$2 0043d488 f   TServerSystem:TServerSystem.obj
 0001:0003c490       __ehhandler$??$?6U?$char_traits@D@std@@@std@@YAAAV?$basic_ostream@DU?$char_traits@D@std@@@0@AAV10@PBD@Z 0043d490 f   TServerSystem:TServerSystem.obj
 0001:0003c4b0       __ehhandler$??$_Emplace_reallocate@ABV?$vector@V?$basic_string@DU?$char_traits@D@std@@V?$allocator@D@2@@std@@V?$allocator@V?$basic_string@DU?$char_traits@D@std@@V?$allocator@D@2@@std@@@2@@std@@@?$vector@V?$vector@V?$basic_string@DU?$char_traits@D@std@@V?$allocator@D@2@@std@@V?$allocator@V?$basic_string@DU?$char_traits@D@std@@V?$allocator@D@2@@std@@@2@@std@@V?$allocator@V?$vector@V?$basic_string@DU?$char_traits@D@std@@V?$allocator@D@2@@std@@V?$allocator@V?$basic_string@DU?$char_traits@D@std@@V?$allocator@D@2@@std@@@2@@std@@@2@@std@@QAEPAV?$vector@V?$basic_string@DU?$char_traits@D@std@@V?$allocator@D@2@@std@@V?$allocator@V?$basic_string@DU?$char_traits@D@std@@V?$allocator@D@2@@std@@@2@@1@QAV21@ABV21@@Z 0043d4b0 f   TServerSystem:TServerSystem.obj
 0001:0003c4d0       __ehhandler$??$_Emplace_reallocate@ABV?$basic_string@DU?$char_traits@D@std@@V?$allocator@D@2@@std@@@?$vector@V?$basic_string@DU?$char_traits@D@std@@V?$allocator@D@2@@std@@V?$allocator@V?$basic_string@DU?$char_traits@D@std@@V?$allocator@D@2@@std@@@2@@std@@QAEPAV?$basic_string@DU?$char_traits@D@std@@V?$allocator@D@2@@1@QAV21@ABV21@@Z 0043d4d0 f   TServerSystem:TServerSystem.obj
 0001:0003c4f0       __unwindfunclet$??$use_facet@V?$codecvt@DDU_Mbstatet@@@std@@@std@@YAABV?$codecvt@DDU_Mbstatet@@@0@ABVlocale@0@@Z$0 0043d4f0 f   TServerSystem:TServerSystem.obj
 0001:0003c4f8       __unwindfunclet$??$use_facet@V?$codecvt@DDU_Mbstatet@@@std@@@std@@YAABV?$codecvt@DDU_Mbstatet@@@0@ABVlocale@0@@Z$3 0043d4f8 f   TServerSystem:TServerSystem.obj
 0001:0003c507       __unwindfunclet$??$use_facet@V?$codecvt@DDU_Mbstatet@@@std@@@std@@YAABV?$codecvt@DDU_Mbstatet@@@0@ABVlocale@0@@Z$1 0043d507 f   TServerSystem:TServerSystem.obj
 0001:0003c50f       __ehhandler$??$use_facet@V?$codecvt@DDU_Mbstatet@@@std@@@std@@YAABV?$codecvt@DDU_Mbstatet@@@0@ABVlocale@0@@Z 0043d50f f   TServerSystem:TServerSystem.obj
 0001:0003c540       __unwindfunclet$?put@?$basic_ostream@DU?$char_traits@D@std@@@std@@QAEAAV12@D@Z$3 0043d540 f   TServerSystem:TServerSystem.obj
 0001:0003c548       __unwindfunclet$?put@?$basic_ostream@DU?$char_traits@D@std@@@std@@QAEAAV12@D@Z$2 0043d548 f   TServerSystem:TServerSystem.obj
 0001:0003c550       __ehhandler$?put@?$basic_ostream@DU?$char_traits@D@std@@@std@@QAEAAV12@D@Z 0043d550 f   TServerSystem:TServerSystem.obj
 0001:0003c570       __ehhandler$?erase@?$_Tree@V?$_Tmap_traits@UEntry@?$CSimpleIniTempl@DU?$SI_NoCase@D@@V?$SI_ConvertA@D@@@@V?$multimap@UEntry@?$CSimpleIniTempl@DU?$SI_NoCase@D@@V?$SI_ConvertA@D@@@@PBDUKeyOrder@12@V?$allocator@U?$pair@$$CBUEntry@?$CSimpleIniTempl@DU?$SI_NoCase@D@@V?$SI_ConvertA@D@@@@PBD@std@@@std@@@std@@UKeyOrder@12@V?$allocator@U?$pair@$$CBUEntry@?$CSimpleIniTempl@DU?$SI_NoCase@D@@V?$SI_ConvertA@D@@@@V?$multimap@UEntry@?$CSimpleIniTempl@DU?$SI_NoCase@D@@V?$SI_ConvertA@D@@@@PBDUKeyOrder@12@V?$allocator@U?$pair@$$CBUEntry@?$CSimpleIniTempl@DU?$SI_NoCase@D@@V?$SI_ConvertA@D@@@@PBD@std@@@std@@@std@@@std@@@4@$0A@@std@@@std@@QAE?AV?$_Tree_iterator@V?$_Tree_val@U?$_Tree_simple_types@U?$pair@$$CBUEntry@?$CSimpleIniTempl@DU?$SI_NoCase@D@@V?$SI_ConvertA@D@@@@V?$multimap@UEntry@?$CSimpleIniTempl@DU?$SI_NoCase@D@@V?$SI_ConvertA@D@@@@PBDUKeyOrder@12@V?$allocator@U?$pair@$$CBUEntry@?$CSimpleIniTempl@DU?$SI_NoCase@D@@V?$SI_ConvertA@D@@@@PBD@std@@@std@@@std@@@std@@@std@@@std@@@2@V?$_Tree_const_iterator@V?$_Tree_val@U?$_Tree_simple_types@U?$pair@$$CBUEntry@?$CSimpleIniTempl@DU?$SI_NoCase@D@@V?$SI_ConvertA@D@@@@V?$multimap@UEntry@?$CSimpleIniTempl@DU?$SI_NoCase@D@@V?$SI_ConvertA@D@@@@PBDUKeyOrder@12@V?$allocator@U?$pair@$$CBUEntry@?$CSimpleIniTempl@DU?$SI_NoCase@D@@V?$SI_ConvertA@D@@@@PBD@std@@@std@@@std@@@std@@@std@@@std@@@2@0@Z 0043d570 f   TServerSystem:TServerSystem.obj
 0001:0003c570       __ehhandler$?_Tidy@?$_Tree@V?$_Tmap_traits@UEntry@?$CSimpleIniTempl@DU?$SI_NoCase@D@@V?$SI_ConvertA@D@@@@PBDUKeyOrder@12@V?$allocator@U?$pair@$$CBUEntry@?$CSimpleIniTempl@DU?$SI_NoCase@D@@V?$SI_ConvertA@D@@@@PBD@std@@@std@@$00@std@@@std@@IAEXXZ 0043d570 f   TServerSystem:TServerSystem.obj
 0001:0003c590       __unwindfunclet$??$_Insert_string@DU?$char_traits@D@std@@I@std@@YAAAV?$basic_ostream@DU?$char_traits@D@std@@@0@AAV10@QBDI@Z$3 0043d590 f   TServerSystem:TServerSystem.obj
 0001:0003c598       __unwindfunclet$??$_Insert_string@DU?$char_traits@D@std@@I@std@@YAAAV?$basic_ostream@DU?$char_traits@D@std@@@0@AAV10@QBDI@Z$2 0043d598 f   TServerSystem:TServerSystem.obj
 0001:0003c5a0       __ehhandler$??$_Insert_string@DU?$char_traits@D@std@@I@std@@YAAAV?$basic_ostream@DU?$char_traits@D@std@@@0@AAV10@QBDI@Z 0043d5a0 f   TServerSystem:TServerSystem.obj
 0001:0003c5c0       __unwindfunclet$?AddEntry@?$CSimpleIniTempl@DU?$SI_NoCase@D@@V?$SI_ConvertA@D@@@@AAE?AW4SI_Error@@PBD000_N1@Z$0 0043d5c0 f   TServerSystem:TServerSystem.obj
 0001:0003c5c8       __unwindfunclet$?AddEntry@?$CSimpleIniTempl@DU?$SI_NoCase@D@@V?$SI_ConvertA@D@@@@AAE?AW4SI_Error@@PBD000_N1@Z$1 0043d5c8 f   TServerSystem:TServerSystem.obj
 0001:0003c5d0       __ehhandler$?AddEntry@?$CSimpleIniTempl@DU?$SI_NoCase@D@@V?$SI_ConvertA@D@@@@AAE?AW4SI_Error@@PBD000_N1@Z 0043d5d0 f   TServerSystem:TServerSystem.obj
 0001:0003c600       __ehhandler$??$_Buynode@AAU?$pair@$$CBUEntry@?$CSimpleIniTempl@DU?$SI_NoCase@D@@V?$SI_ConvertA@D@@@@V?$multimap@UEntry@?$CSimpleIniTempl@DU?$SI_NoCase@D@@V?$SI_ConvertA@D@@@@PBDUKeyOrder@12@V?$allocator@U?$pair@$$CBUEntry@?$CSimpleIniTempl@DU?$SI_NoCase@D@@V?$SI_ConvertA@D@@@@PBD@std@@@std@@@std@@@std@@@?$_Tree_comp_alloc@V?$_Tmap_traits@UEntry@?$CSimpleIniTempl@DU?$SI_NoCase@D@@V?$SI_ConvertA@D@@@@V?$multimap@UEntry@?$CSimpleIniTempl@DU?$SI_NoCase@D@@V?$SI_ConvertA@D@@@@PBDUKeyOrder@12@V?$allocator@U?$pair@$$CBUEntry@?$CSimpleIniTempl@DU?$SI_NoCase@D@@V?$SI_ConvertA@D@@@@PBD@std@@@std@@@std@@UKeyOrder@12@V?$allocator@U?$pair@$$CBUEntry@?$CSimpleIniTempl@DU?$SI_NoCase@D@@V?$SI_ConvertA@D@@@@V?$multimap@UEntry@?$CSimpleIniTempl@DU?$SI_NoCase@D@@V?$SI_ConvertA@D@@@@PBDUKeyOrder@12@V?$allocator@U?$pair@$$CBUEntry@?$CSimpleIniTempl@DU?$SI_NoCase@D@@V?$SI_ConvertA@D@@@@PBD@std@@@std@@@std@@@std@@@4@$0A@@std@@@std@@QAEPAU?$_Tree_node@U?$pair@$$CBUEntry@?$CSimpleIniTempl@DU?$SI_NoCase@D@@V?$SI_ConvertA@D@@@@V?$multimap@UEntry@?$CSimpleIniTempl@DU?$SI_NoCase@D@@V?$SI_ConvertA@D@@@@PBDUKeyOrder@12@V?$allocator@U?$pair@$$CBUEntry@?$CSimpleIniTempl@DU?$SI_NoCase@D@@V?$SI_ConvertA@D@@@@PBD@std@@@std@@@std@@@std@@PAX@1@AAU?$pair@$$CBUEntry@?$CSimpleIniTempl@DU?$SI_NoCase@D@@V?$SI_ConvertA@D@@@@V?$multimap@UEntry@?$CSimpleIniTempl@DU?$SI_NoCase@D@@V?$SI_ConvertA@D@@@@PBDUKeyOrder@12@V?$allocator@U?$pair@$$CBUEntry@?$CSimpleIniTempl@DU?$SI_NoCase@D@@V?$SI_ConvertA@D@@@@PBD@std@@@std@@@std@@@1@@Z 0043d600 f   TServerSystem:TServerSystem.obj
 0001:0003c620       __ehhandler$??$_Insert_nohint@AAU?$pair@$$CBUEntry@?$CSimpleIniTempl@DU?$SI_NoCase@D@@V?$SI_ConvertA@D@@@@V?$multimap@UEntry@?$CSimpleIniTempl@DU?$SI_NoCase@D@@V?$SI_ConvertA@D@@@@PBDUKeyOrder@12@V?$allocator@U?$pair@$$CBUEntry@?$CSimpleIniTempl@DU?$SI_NoCase@D@@V?$SI_ConvertA@D@@@@PBD@std@@@std@@@std@@@std@@PAU?$_Tree_node@U?$pair@$$CBUEntry@?$CSimpleIniTempl@DU?$SI_NoCase@D@@V?$SI_ConvertA@D@@@@V?$multimap@UEntry@?$CSimpleIniTempl@DU?$SI_NoCase@D@@V?$SI_ConvertA@D@@@@PBDUKeyOrder@12@V?$allocator@U?$pair@$$CBUEntry@?$CSimpleIniTempl@DU?$SI_NoCase@D@@V?$SI_ConvertA@D@@@@PBD@std@@@std@@@std@@@std@@PAX@2@@?$_Tree@V?$_Tmap_traits@UEntry@?$CSimpleIniTempl@DU?$SI_NoCase@D@@V?$SI_ConvertA@D@@@@V?$multimap@UEntry@?$CSimpleIniTempl@DU?$SI_NoCase@D@@V?$SI_ConvertA@D@@@@PBDUKeyOrder@12@V?$allocator@U?$pair@$$CBUEntry@?$CSimpleIniTempl@DU?$SI_NoCase@D@@V?$SI_ConvertA@D@@@@PBD@std@@@std@@@std@@UKeyOrder@12@V?$allocator@U?$pair@$$CBUEntry@?$CSimpleIniTempl@DU?$SI_NoCase@D@@V?$SI_ConvertA@D@@@@V?$multimap@UEntry@?$CSimpleIniTempl@DU?$SI_NoCase@D@@V?$SI_ConvertA@D@@@@PBDUKeyOrder@12@V?$allocator@U?$pair@$$CBUEntry@?$CSimpleIniTempl@DU?$SI_NoCase@D@@V?$SI_ConvertA@D@@@@PBD@std@@@std@@@std@@@std@@@4@$0A@@std@@@std@@IAE?AU?$pair@V?$_Tree_iterator@V?$_Tree_val@U?$_Tree_simple_types@U?$pair@$$CBUEntry@?$CSimpleIniTempl@DU?$SI_NoCase@D@@V?$SI_ConvertA@D@@@@V?$multimap@UEntry@?$CSimpleIniTempl@DU?$SI_NoCase@D@@V?$SI_ConvertA@D@@@@PBDUKeyOrder@12@V?$allocator@U?$pair@$$CBUEntry@?$CSimpleIniTempl@DU?$SI_NoCase@D@@V?$SI_ConvertA@D@@@@PBD@std@@@std@@@std@@@std@@@std@@@std@@@std@@_N@1@_NAAU?$pair@$$CBUEntry@?$CSimpleIniTempl@DU?$SI_NoCase@D@@V?$SI_ConvertA@D@@@@V?$multimap@UEntry@?$CSimpleIniTempl@DU?$SI_NoCase@D@@V?$SI_ConvertA@D@@@@PBDUKeyOrder@12@V?$allocator@U?$pair@$$CBUEntry@?$CSimpleIniTempl@DU?$SI_NoCase@D@@V?$SI_ConvertA@D@@@@PBD@std@@@std@@@std@@@1@PAU?$_Tree_node@U?$pair@$$CBUEntry@?$CSimpleIniTempl@DU?$SI_NoCase@D@@V?$SI_ConvertA@D@@@@V?$multimap@UEntry@?$CSimpleIniTempl@DU?$SI_NoCase@D@@V?$SI_ConvertA@D@@@@PBDUKeyOrder@12@V?$allocator@U?$pair@$$CBUEntry@?$CSimpleIniTempl@DU?$SI_NoCase@D@@V?$SI_ConvertA@D@@@@PBD@std@@@std@@@std@@@std@@PAX@1@@Z 0043d620 f   TServerSystem:TServerSystem.obj
 0001:0003c640       __ehhandler$??$_Insert_nohint@AAU?$pair@$$CBUEntry@?$CSimpleIniTempl@DU?$SI_NoCase@D@@V?$SI_ConvertA@D@@@@PBD@std@@PAU?$_Tree_node@U?$pair@$$CBUEntry@?$CSimpleIniTempl@DU?$SI_NoCase@D@@V?$SI_ConvertA@D@@@@PBD@std@@PAX@2@@?$_Tree@V?$_Tmap_traits@UEntry@?$CSimpleIniTempl@DU?$SI_NoCase@D@@V?$SI_ConvertA@D@@@@PBDUKeyOrder@12@V?$allocator@U?$pair@$$CBUEntry@?$CSimpleIniTempl@DU?$SI_NoCase@D@@V?$SI_ConvertA@D@@@@PBD@std@@@std@@$00@std@@@std@@IAE?AU?$pair@V?$_Tree_iterator@V?$_Tree_val@U?$_Tree_simple_types@U?$pair@$$CBUEntry@?$CSimpleIniTempl@DU?$SI_NoCase@D@@V?$SI_ConvertA@D@@@@PBD@std@@@std@@@std@@@std@@_N@1@_NAAU?$pair@$$CBUEntry@?$CSimpleIniTempl@DU?$SI_NoCase@D@@V?$SI_ConvertA@D@@@@PBD@1@PAU?$_Tree_node@U?$pair@$$CBUEntry@?$CSimpleIniTempl@DU?$SI_NoCase@D@@V?$SI_ConvertA@D@@@@PBD@std@@PAX@1@@Z 0043d640 f   TServerSystem:TServerSystem.obj
 0001:0003c660       __unwindfunclet$??$?0V?$allocator@U?$_Tree_node@U?$pair@$$CBUEntry@?$CSimpleIniTempl@DU?$SI_NoCase@D@@V?$SI_ConvertA@D@@@@PBD@std@@PAX@std@@@std@@@?$_Tree@V?$_Tmap_traits@UEntry@?$CSimpleIniTempl@DU?$SI_NoCase@D@@V?$SI_ConvertA@D@@@@PBDUKeyOrder@12@V?$allocator@U?$pair@$$CBUEntry@?$CSimpleIniTempl@DU?$SI_NoCase@D@@V?$SI_ConvertA@D@@@@PBD@std@@@std@@$00@std@@@std@@QAE@ABV01@$$QAV?$allocator@U?$_Tree_node@U?$pair@$$CBUEntry@?$CSimpleIniTempl@DU?$SI_NoCase@D@@V?$SI_ConvertA@D@@@@PBD@std@@PAX@std@@@1@@Z$2 0043d660 f   TServerSystem:TServerSystem.obj
 0001:0003c668       __ehhandler$??$?0V?$allocator@U?$_Tree_node@U?$pair@$$CBUEntry@?$CSimpleIniTempl@DU?$SI_NoCase@D@@V?$SI_ConvertA@D@@@@PBD@std@@PAX@std@@@std@@@?$_Tree@V?$_Tmap_traits@UEntry@?$CSimpleIniTempl@DU?$SI_NoCase@D@@V?$SI_ConvertA@D@@@@PBDUKeyOrder@12@V?$allocator@U?$pair@$$CBUEntry@?$CSimpleIniTempl@DU?$SI_NoCase@D@@V?$SI_ConvertA@D@@@@PBD@std@@@std@@$00@std@@@std@@QAE@ABV01@$$QAV?$allocator@U?$_Tree_node@U?$pair@$$CBUEntry@?$CSimpleIniTempl@DU?$SI_NoCase@D@@V?$SI_ConvertA@D@@@@PBD@std@@PAX@std@@@1@@Z 0043d668 f   TServerSystem:TServerSystem.obj
 0001:0003c690       __ehhandler$??$_Copy_nodes@U_Copy_tag@?$_Tree@V?$_Tmap_traits@UEntry@?$CSimpleIniTempl@DU?$SI_NoCase@D@@V?$SI_ConvertA@D@@@@PBDUKeyOrder@12@V?$allocator@U?$pair@$$CBUEntry@?$CSimpleIniTempl@DU?$SI_NoCase@D@@V?$SI_ConvertA@D@@@@PBD@std@@@std@@$00@std@@@std@@@?$_Tree@V?$_Tmap_traits@UEntry@?$CSimpleIniTempl@DU?$SI_NoCase@D@@V?$SI_ConvertA@D@@@@PBDUKeyOrder@12@V?$allocator@U?$pair@$$CBUEntry@?$CSimpleIniTempl@DU?$SI_NoCase@D@@V?$SI_ConvertA@D@@@@PBD@std@@@std@@$00@std@@@std@@IAEPAU?$_Tree_node@U?$pair@$$CBUEntry@?$CSimpleIniTempl@DU?$SI_NoCase@D@@V?$SI_ConvertA@D@@@@PBD@std@@PAX@1@PAU21@0U_Copy_tag@01@@Z 0043d690 f   TServerSystem:TServerSystem.obj
 0001:0003c6b0       __ehhandler$??$_Buynode@U?$pair@$$CBKUtagEVENTINFO@@@std@@@?$_Tree_comp_alloc@V?$_Tmap_traits@KUtagEVENTINFO@@U?$less@K@std@@V?$allocator@U?$pair@$$CBKUtagEVENTINFO@@@std@@@3@$0A@@std@@@std@@QAEPAU?$_Tree_node@U?$pair@$$CBKUtagEVENTINFO@@@std@@PAX@1@$$QAU?$pair@$$CBKUtagEVENTINFO@@@1@@Z 0043d6b0 f   CSHandler.obj
 0001:0003c6d0       __ehhandler$??$_Insert_nohint@U?$pair@$$CBKK@std@@U_Not_a_node_tag@2@@?$_Tree@V?$_Tmap_traits@KKU?$less@K@std@@V?$allocator@U?$pair@$$CBKK@std@@@2@$0A@@std@@@std@@IAE?AU?$pair@V?$_Tree_iterator@V?$_Tree_val@U?$_Tree_simple_types@U?$pair@$$CBKK@std@@@std@@@std@@@std@@_N@1@_N$$QAU?$pair@$$CBKK@1@U_Not_a_node_tag@1@@Z 0043d6d0 f   CSHandler.obj
 0001:0003c6d0       __ehhandler$??$_Insert_nohint@U?$pair@$$CBKPAVCTUser@@@std@@U_Not_a_node_tag@2@@?$_Tree@V?$_Tmap_traits@KPAVCTUser@@U?$less@K@std@@V?$allocator@U?$pair@$$CBKPAVCTUser@@@std@@@3@$0A@@std@@@std@@IAE?AU?$pair@V?$_Tree_iterator@V?$_Tree_val@U?$_Tree_simple_types@U?$pair@$$CBKPAVCTUser@@@std@@@std@@@std@@@std@@_N@1@_N$$QAU?$pair@$$CBKPAVCTUser@@@1@U_Not_a_node_tag@1@@Z 0043d6d0 f   CSHandler.obj
 0001:0003c6f0       __ehhandler$??$_Insert_nohint@U?$pair@$$CBKUtagEVENTINFO@@@std@@U_Not_a_node_tag@2@@?$_Tree@V?$_Tmap_traits@KUtagEVENTINFO@@U?$less@K@std@@V?$allocator@U?$pair@$$CBKUtagEVENTINFO@@@std@@@3@$0A@@std@@@std@@IAE?AU?$pair@V?$_Tree_iterator@V?$_Tree_val@U?$_Tree_simple_types@U?$pair@$$CBKUtagEVENTINFO@@@std@@@std@@@std@@@std@@_N@1@_N$$QAU?$pair@$$CBKUtagEVENTINFO@@@1@U_Not_a_node_tag@1@@Z 0043d6f0 f   CSHandler.obj
 0001:0003c710       __unwindfunclet$??0?$CStringT@DV?$StrTraitATL@DV?$ChTraitsCRT@D@ATL@@@ATL@@@ATL@@QAE@PBD@Z$0 0043d710 f   CSHandler.obj
 0001:0003c718       __ehhandler$??0?$CStringT@DV?$StrTraitATL@DV?$ChTraitsCRT@D@ATL@@@ATL@@@ATL@@QAE@PBD@Z 0043d718 f   CSHandler.obj
 0001:0003c740       __unwindfunclet$??0tagEVENTINFO@@QAE@$$QAU0@@Z$0 0043d740 f   CSHandler.obj
 0001:0003c74b       __unwindfunclet$??0tagEVENTINFO@@QAE@$$QAU0@@Z$1 0043d74b f   CSHandler.obj
 0001:0003c756       __unwindfunclet$??0tagEVENTINFO@@QAE@$$QAU0@@Z$2 0043d756 f   CSHandler.obj
 0001:0003c761       __unwindfunclet$??0tagEVENTINFO@@QAE@$$QAU0@@Z$3 0043d761 f   CSHandler.obj
 0001:0003c76c       __unwindfunclet$??0tagEVENTINFO@@QAE@$$QAU0@@Z$4 0043d76c f   CSHandler.obj
 0001:0003c777       __unwindfunclet$??0tagEVENTINFO@@QAE@$$QAU0@@Z$5 0043d777 f   CSHandler.obj
 0001:0003c782       __unwindfunclet$??0tagEVENTINFO@@QAE@$$QAU0@@Z$6 0043d782 f   CSHandler.obj
 0001:0003c78d       __ehhandler$??0tagEVENTINFO@@QAE@$$QAU0@@Z 0043d78d f   CSHandler.obj
 0001:0003c7b0       __ehhandler$??1CTUser@@UAE@XZ 0043d7b0 f   TUser.obj
 0001:0003c7b0       __ehhandler$??1_Fac_node@std@@QAE@XZ 0043d7b0 f   libcpmt:locale0.obj
 0001:0003c7b0       __ehhandler$??1tagEVENTINFO@@QAE@XZ 0043d7b0 f   CSHandler.obj
 0001:0003c7d0       __unwindfunclet$?OnCS_AGREEMENT_REQ@CTLoginSvrModule@@IAEKPAVCSqlDatabase@@PAV?$map@EPAUtagTGROUP@@U?$less@E@std@@V?$allocator@U?$pair@$$CBEPAUtagTGROUP@@@std@@@3@@std@@PAVCTUser@@AAVCPacket@@@Z$1 0043d7d0 f   CSHandler.obj
 0001:0003c7d8       __ehhandler$?OnCS_AGREEMENT_REQ@CTLoginSvrModule@@IAEKPAVCSqlDatabase@@PAV?$map@EPAUtagTGROUP@@U?$less@E@std@@V?$allocator@U?$pair@$$CBEPAUtagTGROUP@@@std@@@3@@std@@PAVCTUser@@AAVCPacket@@@Z 0043d7d8 f   CSHandler.obj
 0001:0003c800       __unwindfunclet$?OnCS_CHANNELLIST_REQ@CTLoginSvrModule@@IAEKPAVCSqlDatabase@@PAV?$map@EPAUtagTGROUP@@U?$less@E@std@@V?$allocator@U?$pair@$$CBEPAUtagTGROUP@@@std@@@3@@std@@PAVCTUser@@AAVCPacket@@@Z$0 0043d800 f   CSHandler.obj
 0001:0003c80f       __unwindfunclet$?OnCS_CHANNELLIST_REQ@CTLoginSvrModule@@IAEKPAVCSqlDatabase@@PAV?$map@EPAUtagTGROUP@@U?$less@E@std@@V?$allocator@U?$pair@$$CBEPAUtagTGROUP@@@std@@@3@@std@@PAVCTUser@@AAVCPacket@@@Z$2 0043d80f f   CSHandler.obj
 0001:0003c817       __unwindfunclet$?OnCS_CHANNELLIST_REQ@CTLoginSvrModule@@IAEKPAVCSqlDatabase@@PAV?$map@EPAUtagTGROUP@@U?$less@E@std@@V?$allocator@U?$pair@$$CBEPAUtagTGROUP@@@std@@@3@@std@@PAVCTUser@@AAVCPacket@@@Z$3 0043d817 f   CSHandler.obj
 0001:0003c81f       __ehhandler$?OnCS_CHANNELLIST_REQ@CTLoginSvrModule@@IAEKPAVCSqlDatabase@@PAV?$map@EPAUtagTGROUP@@U?$less@E@std@@V?$allocator@U?$pair@$$CBEPAUtagTGROUP@@@std@@@3@@std@@PAVCTUser@@AAVCPacket@@@Z 0043d81f f   CSHandler.obj
 0001:0003c840       __unwindfunclet$?OnCS_CHARLIST_REQ@CTLoginSvrModule@@IAEKPAVCSqlDatabase@@PAV?$map@EPAUtagTGROUP@@U?$less@E@std@@V?$allocator@U?$pair@$$CBEPAUtagTGROUP@@@std@@@3@@std@@PAVCTUser@@AAVCPacket@@@Z$0 0043d840 f   CSHandler.obj
 0001:0003c848       __unwindfunclet$?OnCS_CHARLIST_REQ@CTLoginSvrModule@@IAEKPAVCSqlDatabase@@PAV?$map@EPAUtagTGROUP@@U?$less@E@std@@V?$allocator@U?$pair@$$CBEPAUtagTGROUP@@@std@@@3@@std@@PAVCTUser@@AAVCPacket@@@Z$2 0043d848 f   CSHandler.obj
 0001:0003c850       __unwindfunclet$?OnCS_CHARLIST_REQ@CTLoginSvrModule@@IAEKPAVCSqlDatabase@@PAV?$map@EPAUtagTGROUP@@U?$less@E@std@@V?$allocator@U?$pair@$$CBEPAUtagTGROUP@@@std@@@3@@std@@PAVCTUser@@AAVCPacket@@@Z$4 0043d850 f   CSHandler.obj
 0001:0003c858       __unwindfunclet$?OnCS_CHARLIST_REQ@CTLoginSvrModule@@IAEKPAVCSqlDatabase@@PAV?$map@EPAUtagTGROUP@@U?$less@E@std@@V?$allocator@U?$pair@$$CBEPAUtagTGROUP@@@std@@@3@@std@@PAVCTUser@@AAVCPacket@@@Z$6 0043d858 f   CSHandler.obj
 0001:0003c860       __unwindfunclet$?OnCS_CHARLIST_REQ@CTLoginSvrModule@@IAEKPAVCSqlDatabase@@PAV?$map@EPAUtagTGROUP@@U?$less@E@std@@V?$allocator@U?$pair@$$CBEPAUtagTGROUP@@@std@@@3@@std@@PAVCTUser@@AAVCPacket@@@Z$8 0043d860 f   CSHandler.obj
 0001:0003c868       __unwindfunclet$?OnCS_CHARLIST_REQ@CTLoginSvrModule@@IAEKPAVCSqlDatabase@@PAV?$map@EPAUtagTGROUP@@U?$less@E@std@@V?$allocator@U?$pair@$$CBEPAUtagTGROUP@@@std@@@3@@std@@PAVCTUser@@AAVCPacket@@@Z$10 0043d868 f   CSHandler.obj
 0001:0003c870       __unwindfunclet$?OnCS_CHARLIST_REQ@CTLoginSvrModule@@IAEKPAVCSqlDatabase@@PAV?$map@EPAUtagTGROUP@@U?$less@E@std@@V?$allocator@U?$pair@$$CBEPAUtagTGROUP@@@std@@@3@@std@@PAVCTUser@@AAVCPacket@@@Z$11 0043d870 f   CSHandler.obj
 0001:0003c87f       __ehhandler$?OnCS_CHARLIST_REQ@CTLoginSvrModule@@IAEKPAVCSqlDatabase@@PAV?$map@EPAUtagTGROUP@@U?$less@E@std@@V?$allocator@U?$pair@$$CBEPAUtagTGROUP@@@std@@@3@@std@@PAVCTUser@@AAVCPacket@@@Z 0043d87f f   CSHandler.obj
 0001:0003c8a0       __unwindfunclet$?OnCS_CREATECHAR_REQ@CTLoginSvrModule@@IAEKPAVCSqlDatabase@@PAV?$map@EPAUtagTGROUP@@U?$less@E@std@@V?$allocator@U?$pair@$$CBEPAUtagTGROUP@@@std@@@3@@std@@PAVCTUser@@AAVCPacket@@@Z$0 0043d8a0 f   CSHandler.obj
 0001:0003c8a8       __unwindfunclet$?OnCS_CREATECHAR_REQ@CTLoginSvrModule@@IAEKPAVCSqlDatabase@@PAV?$map@EPAUtagTGROUP@@U?$less@E@std@@V?$allocator@U?$pair@$$CBEPAUtagTGROUP@@@std@@@3@@std@@PAVCTUser@@AAVCPacket@@@Z$4 0043d8a8 f   CSHandler.obj
 0001:0003c8b0       __ehhandler$?OnCS_CREATECHAR_REQ@CTLoginSvrModule@@IAEKPAVCSqlDatabase@@PAV?$map@EPAUtagTGROUP@@U?$less@E@std@@V?$allocator@U?$pair@$$CBEPAUtagTGROUP@@@std@@@3@@std@@PAVCTUser@@AAVCPacket@@@Z 0043d8b0 f   CSHandler.obj
 0001:0003c8d0       __unwindfunclet$?OnCS_DELCHAR_REQ@CTLoginSvrModule@@IAEKPAVCSqlDatabase@@PAV?$map@EPAUtagTGROUP@@U?$less@E@std@@V?$allocator@U?$pair@$$CBEPAUtagTGROUP@@@std@@@3@@std@@PAVCTUser@@AAVCPacket@@@Z$0 0043d8d0 f   CSHandler.obj
 0001:0003c8d8       __unwindfunclet$?OnCS_DELCHAR_REQ@CTLoginSvrModule@@IAEKPAVCSqlDatabase@@PAV?$map@EPAUtagTGROUP@@U?$less@E@std@@V?$allocator@U?$pair@$$CBEPAUtagTGROUP@@@std@@@3@@std@@PAVCTUser@@AAVCPacket@@@Z$2 0043d8d8 f   CSHandler.obj
 0001:0003c8e0       __unwindfunclet$?OnCS_DELCHAR_REQ@CTLoginSvrModule@@IAEKPAVCSqlDatabase@@PAV?$map@EPAUtagTGROUP@@U?$less@E@std@@V?$allocator@U?$pair@$$CBEPAUtagTGROUP@@@std@@@3@@std@@PAVCTUser@@AAVCPacket@@@Z$4 0043d8e0 f   CSHandler.obj
 0001:0003c8e8       __ehhandler$?OnCS_DELCHAR_REQ@CTLoginSvrModule@@IAEKPAVCSqlDatabase@@PAV?$map@EPAUtagTGROUP@@U?$less@E@std@@V?$allocator@U?$pair@$$CBEPAUtagTGROUP@@@std@@@3@@std@@PAVCTUser@@AAVCPacket@@@Z 0043d8e8 f   CSHandler.obj
 0001:0003c910       __unwindfunclet$?OnCS_GROUPLIST_REQ@CTLoginSvrModule@@IAEKPAVCSqlDatabase@@PAV?$map@EPAUtagTGROUP@@U?$less@E@std@@V?$allocator@U?$pair@$$CBEPAUtagTGROUP@@@std@@@3@@std@@PAVCTUser@@AAVCPacket@@@Z$0 0043d910 f   CSHandler.obj
 0001:0003c91f       __unwindfunclet$?OnCS_GROUPLIST_REQ@CTLoginSvrModule@@IAEKPAVCSqlDatabase@@PAV?$map@EPAUtagTGROUP@@U?$less@E@std@@V?$allocator@U?$pair@$$CBEPAUtagTGROUP@@@std@@@3@@std@@PAVCTUser@@AAVCPacket@@@Z$2 0043d91f f   CSHandler.obj
 0001:0003c927       __unwindfunclet$?OnCS_GROUPLIST_REQ@CTLoginSvrModule@@IAEKPAVCSqlDatabase@@PAV?$map@EPAUtagTGROUP@@U?$less@E@std@@V?$allocator@U?$pair@$$CBEPAUtagTGROUP@@@std@@@3@@std@@PAVCTUser@@AAVCPacket@@@Z$3 0043d927 f   CSHandler.obj
 0001:0003c92f       __ehhandler$?OnCS_GROUPLIST_REQ@CTLoginSvrModule@@IAEKPAVCSqlDatabase@@PAV?$map@EPAUtagTGROUP@@U?$less@E@std@@V?$allocator@U?$pair@$$CBEPAUtagTGROUP@@@std@@@3@@std@@PAVCTUser@@AAVCPacket@@@Z 0043d92f f   CSHandler.obj
 0001:0003c950       __unwindfunclet$?OnCS_LOGIN_REQ@CTLoginSvrModule@@IAEKPAVCSqlDatabase@@PAV?$map@EPAUtagTGROUP@@U?$less@E@std@@V?$allocator@U?$pair@$$CBEPAUtagTGROUP@@@std@@@3@@std@@PAVCTUser@@AAVCPacket@@@Z$2 0043d950 f   CSHandler.obj
 0001:0003c958       __unwindfunclet$?OnCS_LOGIN_REQ@CTLoginSvrModule@@IAEKPAVCSqlDatabase@@PAV?$map@EPAUtagTGROUP@@U?$less@E@std@@V?$allocator@U?$pair@$$CBEPAUtagTGROUP@@@std@@@3@@std@@PAVCTUser@@AAVCPacket@@@Z$4 0043d958 f   CSHandler.obj
 0001:0003c960       __unwindfunclet$?OnCS_LOGIN_REQ@CTLoginSvrModule@@IAEKPAVCSqlDatabase@@PAV?$map@EPAUtagTGROUP@@U?$less@E@std@@V?$allocator@U?$pair@$$CBEPAUtagTGROUP@@@std@@@3@@std@@PAVCTUser@@AAVCPacket@@@Z$6 0043d960 f   CSHandler.obj
 0001:0003c968       __unwindfunclet$?OnCS_LOGIN_REQ@CTLoginSvrModule@@IAEKPAVCSqlDatabase@@PAV?$map@EPAUtagTGROUP@@U?$less@E@std@@V?$allocator@U?$pair@$$CBEPAUtagTGROUP@@@std@@@3@@std@@PAVCTUser@@AAVCPacket@@@Z$5 0043d968 f   CSHandler.obj
 0001:0003c970       __unwindfunclet$?OnCS_LOGIN_REQ@CTLoginSvrModule@@IAEKPAVCSqlDatabase@@PAV?$map@EPAUtagTGROUP@@U?$less@E@std@@V?$allocator@U?$pair@$$CBEPAUtagTGROUP@@@std@@@3@@std@@PAVCTUser@@AAVCPacket@@@Z$8 0043d970 f   CSHandler.obj
 0001:0003c978       __unwindfunclet$?OnCS_LOGIN_REQ@CTLoginSvrModule@@IAEKPAVCSqlDatabase@@PAV?$map@EPAUtagTGROUP@@U?$less@E@std@@V?$allocator@U?$pair@$$CBEPAUtagTGROUP@@@std@@@3@@std@@PAVCTUser@@AAVCPacket@@@Z$10 0043d978 f   CSHandler.obj
 0001:0003c980       __unwindfunclet$?OnCS_LOGIN_REQ@CTLoginSvrModule@@IAEKPAVCSqlDatabase@@PAV?$map@EPAUtagTGROUP@@U?$less@E@std@@V?$allocator@U?$pair@$$CBEPAUtagTGROUP@@@std@@@3@@std@@PAVCTUser@@AAVCPacket@@@Z$9 0043d980 f   CSHandler.obj
 0001:0003c988       __ehhandler$?OnCS_LOGIN_REQ@CTLoginSvrModule@@IAEKPAVCSqlDatabase@@PAV?$map@EPAUtagTGROUP@@U?$less@E@std@@V?$allocator@U?$pair@$$CBEPAUtagTGROUP@@@std@@@3@@std@@PAVCTUser@@AAVCPacket@@@Z 0043d988 f   CSHandler.obj
 0001:0003c9b0       __unwindfunclet$?OnCS_SECURITYCONFIRM_ACK@CTLoginSvrModule@@IAEKPAVCSqlDatabase@@PAV?$map@EPAUtagTGROUP@@U?$less@E@std@@V?$allocator@U?$pair@$$CBEPAUtagTGROUP@@@std@@@3@@std@@PAVCTUser@@AAVCPacket@@@Z$0 0043d9b0 f   CSHandler.obj
 0001:0003c9b8       __unwindfunclet$?OnCS_SECURITYCONFIRM_ACK@CTLoginSvrModule@@IAEKPAVCSqlDatabase@@PAV?$map@EPAUtagTGROUP@@U?$less@E@std@@V?$allocator@U?$pair@$$CBEPAUtagTGROUP@@@std@@@3@@std@@PAVCTUser@@AAVCPacket@@@Z$2 0043d9b8 f   CSHandler.obj
 0001:0003c9c0       __ehhandler$?OnCS_SECURITYCONFIRM_ACK@CTLoginSvrModule@@IAEKPAVCSqlDatabase@@PAV?$map@EPAUtagTGROUP@@U?$less@E@std@@V?$allocator@U?$pair@$$CBEPAUtagTGROUP@@@std@@@3@@std@@PAVCTUser@@AAVCPacket@@@Z 0043d9c0 f   CSHandler.obj
 0001:0003c9e0       __unwindfunclet$?OnCS_START_REQ@CTLoginSvrModule@@IAEKPAVCSqlDatabase@@PAV?$map@EPAUtagTGROUP@@U?$less@E@std@@V?$allocator@U?$pair@$$CBEPAUtagTGROUP@@@std@@@3@@std@@PAVCTUser@@AAVCPacket@@@Z$1 0043d9e0 f   CSHandler.obj
 0001:0003c9e8       __unwindfunclet$?OnCS_START_REQ@CTLoginSvrModule@@IAEKPAVCSqlDatabase@@PAV?$map@EPAUtagTGROUP@@U?$less@E@std@@V?$allocator@U?$pair@$$CBEPAUtagTGROUP@@@std@@@3@@std@@PAVCTUser@@AAVCPacket@@@Z$3 0043d9e8 f   CSHandler.obj
 0001:0003c9f0       __unwindfunclet$?OnCS_START_REQ@CTLoginSvrModule@@IAEKPAVCSqlDatabase@@PAV?$map@EPAUtagTGROUP@@U?$less@E@std@@V?$allocator@U?$pair@$$CBEPAUtagTGROUP@@@std@@@3@@std@@PAVCTUser@@AAVCPacket@@@Z$5 0043d9f0 f   CSHandler.obj
 0001:0003c9f8       __unwindfunclet$?OnCS_START_REQ@CTLoginSvrModule@@IAEKPAVCSqlDatabase@@PAV?$map@EPAUtagTGROUP@@U?$less@E@std@@V?$allocator@U?$pair@$$CBEPAUtagTGROUP@@@std@@@3@@std@@PAVCTUser@@AAVCPacket@@@Z$7 0043d9f8 f   CSHandler.obj
 0001:0003ca00       __ehhandler$?OnCS_START_REQ@CTLoginSvrModule@@IAEKPAVCSqlDatabase@@PAV?$map@EPAUtagTGROUP@@U?$less@E@std@@V?$allocator@U?$pair@$$CBEPAUtagTGROUP@@@std@@@3@@std@@PAVCTUser@@AAVCPacket@@@Z 0043da00 f   CSHandler.obj
 0001:0003ca20       __unwindfunclet$?OnCS_TESTLOGIN_REQ@CTLoginSvrModule@@IAEKPAVCSqlDatabase@@PAV?$map@EPAUtagTGROUP@@U?$less@E@std@@V?$allocator@U?$pair@$$CBEPAUtagTGROUP@@@std@@@3@@std@@PAVCTUser@@AAVCPacket@@@Z$1 0043da20 f   CSHandler.obj
 0001:0003ca28       __unwindfunclet$?OnCS_TESTLOGIN_REQ@CTLoginSvrModule@@IAEKPAVCSqlDatabase@@PAV?$map@EPAUtagTGROUP@@U?$less@E@std@@V?$allocator@U?$pair@$$CBEPAUtagTGROUP@@@std@@@3@@std@@PAVCTUser@@AAVCPacket@@@Z$2 0043da28 f   CSHandler.obj
 0001:0003ca30       __ehhandler$?OnCS_TESTLOGIN_REQ@CTLoginSvrModule@@IAEKPAVCSqlDatabase@@PAV?$map@EPAUtagTGROUP@@U?$less@E@std@@V?$allocator@U?$pair@$$CBEPAUtagTGROUP@@@std@@@3@@std@@PAVCTUser@@AAVCPacket@@@Z 0043da30 f   CSHandler.obj
 0001:0003ca50       __unwindfunclet$?OnCT_EVENTMSG_REQ@CTLoginSvrModule@@IAEKPAVCSqlDatabase@@PAV?$map@EPAUtagTGROUP@@U?$less@E@std@@V?$allocator@U?$pair@$$CBEPAUtagTGROUP@@@std@@@3@@std@@PAVCTUser@@AAVCPacket@@@Z$0 0043da50 f   CSHandler.obj
 0001:0003ca58       __ehhandler$?OnCT_EVENTMSG_REQ@CTLoginSvrModule@@IAEKPAVCSqlDatabase@@PAV?$map@EPAUtagTGROUP@@U?$less@E@std@@V?$allocator@U?$pair@$$CBEPAUtagTGROUP@@@std@@@3@@std@@PAVCTUser@@AAVCPacket@@@Z 0043da58 f   CSHandler.obj
 0001:0003ca80       __unwindfunclet$?OnCT_EVENTUPDATE_REQ@CTLoginSvrModule@@IAEKPAVCSqlDatabase@@PAV?$map@EPAUtagTGROUP@@U?$less@E@std@@V?$allocator@U?$pair@$$CBEPAUtagTGROUP@@@std@@@3@@std@@PAVCTUser@@AAVCPacket@@@Z$0 0043da80 f   CSHandler.obj
 0001:0003ca8b       __unwindfunclet$?OnCT_EVENTUPDATE_REQ@CTLoginSvrModule@@IAEKPAVCSqlDatabase@@PAV?$map@EPAUtagTGROUP@@U?$less@E@std@@V?$allocator@U?$pair@$$CBEPAUtagTGROUP@@@std@@@3@@std@@PAVCTUser@@AAVCPacket@@@Z$6 0043da8b f   CSHandler.obj
 0001:0003ca96       __unwindfunclet$?OnCT_EVENTUPDATE_REQ@CTLoginSvrModule@@IAEKPAVCSqlDatabase@@PAV?$map@EPAUtagTGROUP@@U?$less@E@std@@V?$allocator@U?$pair@$$CBEPAUtagTGROUP@@@std@@@3@@std@@PAVCTUser@@AAVCPacket@@@Z$7 0043da96 f   CSHandler.obj
 0001:0003caa1       __unwindfunclet$?OnCT_EVENTUPDATE_REQ@CTLoginSvrModule@@IAEKPAVCSqlDatabase@@PAV?$map@EPAUtagTGROUP@@U?$less@E@std@@V?$allocator@U?$pair@$$CBEPAUtagTGROUP@@@std@@@3@@std@@PAVCTUser@@AAVCPacket@@@Z$8 0043daa1 f   CSHandler.obj
 0001:0003caac       __unwindfunclet$?OnCT_EVENTUPDATE_REQ@CTLoginSvrModule@@IAEKPAVCSqlDatabase@@PAV?$map@EPAUtagTGROUP@@U?$less@E@std@@V?$allocator@U?$pair@$$CBEPAUtagTGROUP@@@std@@@3@@std@@PAVCTUser@@AAVCPacket@@@Z$9 0043daac f   CSHandler.obj
 0001:0003cab7       __unwindfunclet$?OnCT_EVENTUPDATE_REQ@CTLoginSvrModule@@IAEKPAVCSqlDatabase@@PAV?$map@EPAUtagTGROUP@@U?$less@E@std@@V?$allocator@U?$pair@$$CBEPAUtagTGROUP@@@std@@@3@@std@@PAVCTUser@@AAVCPacket@@@Z$10 0043dab7 f   CSHandler.obj
 0001:0003cac2       __unwindfunclet$?OnCT_EVENTUPDATE_REQ@CTLoginSvrModule@@IAEKPAVCSqlDatabase@@PAV?$map@EPAUtagTGROUP@@U?$less@E@std@@V?$allocator@U?$pair@$$CBEPAUtagTGROUP@@@std@@@3@@std@@PAVCTUser@@AAVCPacket@@@Z$11 0043dac2 f   CSHandler.obj
 0001:0003cacd       __unwindfunclet$?OnCT_EVENTUPDATE_REQ@CTLoginSvrModule@@IAEKPAVCSqlDatabase@@PAV?$map@EPAUtagTGROUP@@U?$less@E@std@@V?$allocator@U?$pair@$$CBEPAUtagTGROUP@@@std@@@3@@std@@PAVCTUser@@AAVCPacket@@@Z$12 0043dacd f   CSHandler.obj
 0001:0003cad8       __unwindfunclet$?OnCT_EVENTUPDATE_REQ@CTLoginSvrModule@@IAEKPAVCSqlDatabase@@PAV?$map@EPAUtagTGROUP@@U?$less@E@std@@V?$allocator@U?$pair@$$CBEPAUtagTGROUP@@@std@@@3@@std@@PAVCTUser@@AAVCPacket@@@Z$1 0043dad8 f   CSHandler.obj
 0001:0003cae3       __ehhandler$?OnCT_EVENTUPDATE_REQ@CTLoginSvrModule@@IAEKPAVCSqlDatabase@@PAV?$map@EPAUtagTGROUP@@U?$less@E@std@@V?$allocator@U?$pair@$$CBEPAUtagTGROUP@@@std@@@3@@std@@PAVCTUser@@AAVCPacket@@@Z 0043dae3 f   CSHandler.obj
 0001:0003cb10       __ehhandler$?OnCT_SERVICEDATACLEAR_ACK@CTLoginSvrModule@@IAEKPAVCSqlDatabase@@PAV?$map@EPAUtagTGROUP@@U?$less@E@std@@V?$allocator@U?$pair@$$CBEPAUtagTGROUP@@@std@@@3@@std@@PAVCTUser@@AAVCPacket@@@Z 0043db10 f   CSHandler.obj
 0001:0003cb30       __unwindfunclet$?SendCS_TESTVERSION_ACK@CTUser@@QAEXG@Z$0 0043db30 f   CSSender.obj
 0001:0003cb30       __unwindfunclet$?SendCS_VETERAN_ACK@CTUser@@QAEXEEEE@Z$0 0043db30 f   CSSender.obj
 0001:0003cb30       __unwindfunclet$?SendCT_SERVICEMONITOR_REQ@CTUser@@QAEXKKKK@Z$0 0043db30 f   CSSender.obj
 0001:0003cb30       __unwindfunclet$?SendCS_SECURITYRESULT_ACK@CTUser@@QAEXE@Z$0 0043db30 f   CSSender.obj
 0001:0003cb30       __unwindfunclet$?SendCS_LOGIN_ACK@CTUser@@QAEXEKKKKGEEK_J@Z$0 0043db30 f   CSSender.obj
 0001:0003cb30       __unwindfunclet$?SendCS_BOWPLAYERNOTIFY_ACK@CTUser@@QAEXE@Z$0 0043db30 f   CSSender.obj
 0001:0003cb30       __unwindfunclet$?SendCS_DELCHAR_ACK@CTUser@@QAEXEK@Z$0 0043db30 f   CSSender.obj
 0001:0003cb30       __unwindfunclet$?SendCS_START_ACK@CTUser@@QAEXEKGE@Z$0 0043db30 f   CSSender.obj
 0001:0003cb3f       __ehhandler$?SendCS_VETERAN_ACK@CTUser@@QAEXEEEE@Z 0043db3f f   CSSender.obj
 0001:0003cb3f       __ehhandler$?SendCS_DELCHAR_ACK@CTUser@@QAEXEK@Z 0043db3f f   CSSender.obj
 0001:0003cb3f       __ehhandler$?SendCS_SECURITYRESULT_ACK@CTUser@@QAEXE@Z 0043db3f f   CSSender.obj
 0001:0003cb3f       __ehhandler$?SendCS_TESTVERSION_ACK@CTUser@@QAEXG@Z 0043db3f f   CSSender.obj
 0001:0003cb3f       __ehhandler$?SendCT_SERVICEMONITOR_REQ@CTUser@@QAEXKKKK@Z 0043db3f f   CSSender.obj
 0001:0003cb3f       __ehhandler$?SendCS_START_ACK@CTUser@@QAEXEKGE@Z 0043db3f f   CSSender.obj
 0001:0003cb3f       __ehhandler$?SendCS_LOGIN_ACK@CTUser@@QAEXEKKKKGEEK_J@Z 0043db3f f   CSSender.obj
 0001:0003cb3f       __ehhandler$?SendCS_BOWPLAYERNOTIFY_ACK@CTUser@@QAEXE@Z 0043db3f f   CSSender.obj
 0001:0003cb60       __unwindfunclet$?SendCS_CREATECHAR_ACK@CTUser@@QAEXEKV?$CStringT@DV?$StrTraitATL@DV?$ChTraitsCRT@D@ATL@@@ATL@@@ATL@@EEEEEEEEEEEEE@Z$0 0043db60 f   CSSender.obj
 0001:0003cb68       __unwindfunclet$?SendCS_CREATECHAR_ACK@CTUser@@QAEXEKV?$CStringT@DV?$StrTraitATL@DV?$ChTraitsCRT@D@ATL@@@ATL@@@ATL@@EEEEEEEEEEEEE@Z$1 0043db68 f   CSSender.obj
 0001:0003cb77       __ehhandler$?SendCS_CREATECHAR_ACK@CTUser@@QAEXEKV?$CStringT@DV?$StrTraitATL@DV?$ChTraitsCRT@D@ATL@@@ATL@@@ATL@@EEEEEEEEEEEEE@Z 0043db77 f   CSSender.obj
 0001:0003cba0       __unwindfunclet$?InitQueryTGameSvr@@YAHPAVCSqlDatabase@@@Z$0 0043dba0 f   DBAccess.obj
 0001:0003cbb2       __unwindfunclet$?InitQueryTGameSvr@@YAHPAVCSqlDatabase@@@Z$16 0043dbb2 f   DBAccess.obj
 0001:0003cbba       __unwindfunclet$?InitQueryTGameSvr@@YAHPAVCSqlDatabase@@@Z$2 0043dbba f   DBAccess.obj
 0001:0003cbcc       __unwindfunclet$?InitQueryTGameSvr@@YAHPAVCSqlDatabase@@@Z$23 0043dbcc f   DBAccess.obj
 0001:0003cbd4       __unwindfunclet$?InitQueryTGameSvr@@YAHPAVCSqlDatabase@@@Z$4 0043dbd4 f   DBAccess.obj
 0001:0003cbe6       __unwindfunclet$?InitQueryTGameSvr@@YAHPAVCSqlDatabase@@@Z$30 0043dbe6 f   DBAccess.obj
 0001:0003cbee       __unwindfunclet$?InitQueryTGameSvr@@YAHPAVCSqlDatabase@@@Z$6 0043dbee f   DBAccess.obj
 0001:0003cc00       __unwindfunclet$?InitQueryTGameSvr@@YAHPAVCSqlDatabase@@@Z$37 0043dc00 f   DBAccess.obj
 0001:0003cc08       __unwindfunclet$?InitQueryTGameSvr@@YAHPAVCSqlDatabase@@@Z$8 0043dc08 f   DBAccess.obj
 0001:0003cc1a       __unwindfunclet$?InitQueryTGameSvr@@YAHPAVCSqlDatabase@@@Z$44 0043dc1a f   DBAccess.obj
 0001:0003cc22       __unwindfunclet$?InitQueryTGameSvr@@YAHPAVCSqlDatabase@@@Z$10 0043dc22 f   DBAccess.obj
 0001:0003cc34       __unwindfunclet$?InitQueryTGameSvr@@YAHPAVCSqlDatabase@@@Z$51 0043dc34 f   DBAccess.obj
 0001:0003cc3c       __unwindfunclet$?InitQueryTGameSvr@@YAHPAVCSqlDatabase@@@Z$12 0043dc3c f   DBAccess.obj
 0001:0003cc4e       __unwindfunclet$?InitQueryTGameSvr@@YAHPAVCSqlDatabase@@@Z$58 0043dc4e f   DBAccess.obj
 0001:0003cc56       __unwindfunclet$?InitQueryTGameSvr@@YAHPAVCSqlDatabase@@@Z$14 0043dc56 f   DBAccess.obj
 0001:0003cc68       __unwindfunclet$?InitQueryTGameSvr@@YAHPAVCSqlDatabase@@@Z$65 0043dc68 f   DBAccess.obj
 0001:0003cc70       __ehhandler$?InitQueryTGameSvr@@YAHPAVCSqlDatabase@@@Z 0043dc70 f   DBAccess.obj
 0001:0003cc90       __unwindfunclet$?InitQueryTLoginSvr@@YAHPAVCSqlDatabase@@@Z$0 0043dc90 f   DBAccess.obj
 0001:0003cca2       __unwindfunclet$?InitQueryTLoginSvr@@YAHPAVCSqlDatabase@@@Z$42 0043dca2 f   DBAccess.obj
 0001:0003ccaa       __unwindfunclet$?InitQueryTLoginSvr@@YAHPAVCSqlDatabase@@@Z$2 0043dcaa f   DBAccess.obj
 0001:0003ccbc       __unwindfunclet$?InitQueryTLoginSvr@@YAHPAVCSqlDatabase@@@Z$49 0043dcbc f   DBAccess.obj
 0001:0003ccc4       __unwindfunclet$?InitQueryTLoginSvr@@YAHPAVCSqlDatabase@@@Z$4 0043dcc4 f   DBAccess.obj
 0001:0003ccd6       __unwindfunclet$?InitQueryTLoginSvr@@YAHPAVCSqlDatabase@@@Z$56 0043dcd6 f   DBAccess.obj
 0001:0003ccde       __unwindfunclet$?InitQueryTLoginSvr@@YAHPAVCSqlDatabase@@@Z$6 0043dcde f   DBAccess.obj
 0001:0003ccf0       __unwindfunclet$?InitQueryTLoginSvr@@YAHPAVCSqlDatabase@@@Z$63 0043dcf0 f   DBAccess.obj
 0001:0003ccf8       __unwindfunclet$?InitQueryTLoginSvr@@YAHPAVCSqlDatabase@@@Z$8 0043dcf8 f   DBAccess.obj
 0001:0003cd0a       __unwindfunclet$?InitQueryTLoginSvr@@YAHPAVCSqlDatabase@@@Z$70 0043dd0a f   DBAccess.obj
 0001:0003cd12       __unwindfunclet$?InitQueryTLoginSvr@@YAHPAVCSqlDatabase@@@Z$10 0043dd12 f   DBAccess.obj
 0001:0003cd24       __unwindfunclet$?InitQueryTLoginSvr@@YAHPAVCSqlDatabase@@@Z$77 0043dd24 f   DBAccess.obj
 0001:0003cd2c       __unwindfunclet$?InitQueryTLoginSvr@@YAHPAVCSqlDatabase@@@Z$12 0043dd2c f   DBAccess.obj
 0001:0003cd3e       __unwindfunclet$?InitQueryTLoginSvr@@YAHPAVCSqlDatabase@@@Z$84 0043dd3e f   DBAccess.obj
 0001:0003cd46       __unwindfunclet$?InitQueryTLoginSvr@@YAHPAVCSqlDatabase@@@Z$14 0043dd46 f   DBAccess.obj
 0001:0003cd58       __unwindfunclet$?InitQueryTLoginSvr@@YAHPAVCSqlDatabase@@@Z$91 0043dd58 f   DBAccess.obj
 0001:0003cd60       __unwindfunclet$?InitQueryTLoginSvr@@YAHPAVCSqlDatabase@@@Z$16 0043dd60 f   DBAccess.obj
 0001:0003cd72       __unwindfunclet$?InitQueryTLoginSvr@@YAHPAVCSqlDatabase@@@Z$98 0043dd72 f   DBAccess.obj
 0001:0003cd7a       __unwindfunclet$?InitQueryTLoginSvr@@YAHPAVCSqlDatabase@@@Z$18 0043dd7a f   DBAccess.obj
 0001:0003cd8c       __unwindfunclet$?InitQueryTLoginSvr@@YAHPAVCSqlDatabase@@@Z$105 0043dd8c f   DBAccess.obj
 0001:0003cd94       __unwindfunclet$?InitQueryTLoginSvr@@YAHPAVCSqlDatabase@@@Z$20 0043dd94 f   DBAccess.obj
 0001:0003cda6       __unwindfunclet$?InitQueryTLoginSvr@@YAHPAVCSqlDatabase@@@Z$112 0043dda6 f   DBAccess.obj
 0001:0003cdae       __unwindfunclet$?InitQueryTLoginSvr@@YAHPAVCSqlDatabase@@@Z$22 0043ddae f   DBAccess.obj
 0001:0003cdc0       __unwindfunclet$?InitQueryTLoginSvr@@YAHPAVCSqlDatabase@@@Z$119 0043ddc0 f   DBAccess.obj
 0001:0003cdc8       __unwindfunclet$?InitQueryTLoginSvr@@YAHPAVCSqlDatabase@@@Z$24 0043ddc8 f   DBAccess.obj
 0001:0003cdda       __unwindfunclet$?InitQueryTLoginSvr@@YAHPAVCSqlDatabase@@@Z$126 0043ddda f   DBAccess.obj
 0001:0003cde2       __unwindfunclet$?InitQueryTLoginSvr@@YAHPAVCSqlDatabase@@@Z$26 0043dde2 f   DBAccess.obj
 0001:0003cdf4       __unwindfunclet$?InitQueryTLoginSvr@@YAHPAVCSqlDatabase@@@Z$133 0043ddf4 f   DBAccess.obj
 0001:0003cdfc       __unwindfunclet$?InitQueryTLoginSvr@@YAHPAVCSqlDatabase@@@Z$28 0043ddfc f   DBAccess.obj
 0001:0003ce0e       __unwindfunclet$?InitQueryTLoginSvr@@YAHPAVCSqlDatabase@@@Z$140 0043de0e f   DBAccess.obj
 0001:0003ce16       __unwindfunclet$?InitQueryTLoginSvr@@YAHPAVCSqlDatabase@@@Z$30 0043de16 f   DBAccess.obj
 0001:0003ce28       __unwindfunclet$?InitQueryTLoginSvr@@YAHPAVCSqlDatabase@@@Z$147 0043de28 f   DBAccess.obj
 0001:0003ce30       __unwindfunclet$?InitQueryTLoginSvr@@YAHPAVCSqlDatabase@@@Z$32 0043de30 f   DBAccess.obj
 0001:0003ce42       __unwindfunclet$?InitQueryTLoginSvr@@YAHPAVCSqlDatabase@@@Z$154 0043de42 f   DBAccess.obj
 0001:0003ce4a       __unwindfunclet$?InitQueryTLoginSvr@@YAHPAVCSqlDatabase@@@Z$34 0043de4a f   DBAccess.obj
 0001:0003ce5c       __unwindfunclet$?InitQueryTLoginSvr@@YAHPAVCSqlDatabase@@@Z$161 0043de5c f   DBAccess.obj
 0001:0003ce64       __unwindfunclet$?InitQueryTLoginSvr@@YAHPAVCSqlDatabase@@@Z$36 0043de64 f   DBAccess.obj
 0001:0003ce76       __unwindfunclet$?InitQueryTLoginSvr@@YAHPAVCSqlDatabase@@@Z$164 0043de76 f   DBAccess.obj
 0001:0003ce7e       __unwindfunclet$?InitQueryTLoginSvr@@YAHPAVCSqlDatabase@@@Z$38 0043de7e f   DBAccess.obj
 0001:0003ce90       __unwindfunclet$?InitQueryTLoginSvr@@YAHPAVCSqlDatabase@@@Z$167 0043de90 f   DBAccess.obj
 0001:0003ce98       __unwindfunclet$?InitQueryTLoginSvr@@YAHPAVCSqlDatabase@@@Z$40 0043de98 f   DBAccess.obj
 0001:0003ceaa       __unwindfunclet$?InitQueryTLoginSvr@@YAHPAVCSqlDatabase@@@Z$170 0043deaa f   DBAccess.obj
 0001:0003ceb2       __ehhandler$?InitQueryTLoginSvr@@YAHPAVCSqlDatabase@@@Z 0043deb2 f   DBAccess.obj
 0001:0003ced0       __unwindfunclet$??0?$basic_istream@DU?$char_traits@D@std@@@std@@QAE@PAV?$basic_streambuf@DU?$char_traits@D@std@@@1@_N@Z$0 0043ded0 f   mailer.obj
 0001:0003ceec       __unwindfunclet$??0?$basic_istream@DU?$char_traits@D@std@@@std@@QAE@PAV?$basic_streambuf@DU?$char_traits@D@std@@@1@_N@Z$2 0043deec f   mailer.obj
 0001:0003cef4       __ehhandler$??0?$basic_istream@DU?$char_traits@D@std@@@std@@QAE@PAV?$basic_streambuf@DU?$char_traits@D@std@@@1@_N@Z 0043def4 f   mailer.obj
 0001:0003cf10       __ehhandler$??_D?$basic_istream@DU?$char_traits@D@std@@@std@@QAEXXZ 0043df10 f   libcpmt:cin.obj
 0001:0003cf10       __ehhandler$??1sentry@?$basic_istream@DU?$char_traits@D@std@@@std@@QAE@XZ 0043df10 f   mailer.obj
 0001:0003cf30       __ehhandler$??_G?$basic_istream@DU?$char_traits@D@std@@@std@@UAEPAXI@Z 0043df30 f   mailer.obj
 0001:0003cf50       __unwindfunclet$?_Ipfx@?$basic_istream@DU?$char_traits@D@std@@@std@@QAE_N_N@Z$2 0043df50 f   mailer.obj
 0001:0003cf58       __ehhandler$?_Ipfx@?$basic_istream@DU?$char_traits@D@std@@@std@@QAE_N_N@Z 0043df58 f   mailer.obj
 0001:0003cf80       __unwindfunclet$??$?5DU?$char_traits@D@std@@V?$allocator@D@1@@std@@YAAAV?$basic_istream@DU?$char_traits@D@std@@@0@$$QAV10@AAV?$basic_string@DU?$char_traits@D@std@@V?$allocator@D@2@@0@@Z$4 0043df80 f   TLoginSvr.obj
 0001:0003cf88       __unwindfunclet$??$?5DU?$char_traits@D@std@@V?$allocator@D@1@@std@@YAAAV?$basic_istream@DU?$char_traits@D@std@@@0@$$QAV10@AAV?$basic_string@DU?$char_traits@D@std@@V?$allocator@D@2@@0@@Z$2 0043df88 f   TLoginSvr.obj
 0001:0003cf90       __unwindfunclet$??$?5DU?$char_traits@D@std@@V?$allocator@D@1@@std@@YAAAV?$basic_istream@DU?$char_traits@D@std@@@0@$$QAV10@AAV?$basic_string@DU?$char_traits@D@std@@V?$allocator@D@2@@0@@Z$3 0043df90 f   TLoginSvr.obj
 0001:0003cf98       __ehhandler$??$?5DU?$char_traits@D@std@@V?$allocator@D@1@@std@@YAAAV?$basic_istream@DU?$char_traits@D@std@@@0@$$QAV10@AAV?$basic_string@DU?$char_traits@D@std@@V?$allocator@D@2@@0@@Z 0043df98 f   TLoginSvr.obj
 0001:0003cfc0       __ehhandler$??$_Insert_nohint@U?$pair@$$CBEPAUtagTGROUP@@@std@@U_Not_a_node_tag@2@@?$_Tree@V?$_Tmap_traits@EPAUtagTGROUP@@U?$less@E@std@@V?$allocator@U?$pair@$$CBEPAUtagTGROUP@@@std@@@3@$0A@@std@@@std@@IAE?AU?$pair@V?$_Tree_iterator@V?$_Tree_val@U?$_Tree_simple_types@U?$pair@$$CBEPAUtagTGROUP@@@std@@@std@@@std@@@std@@_N@1@_N$$QAU?$pair@$$CBEPAUtagTGROUP@@@1@U_Not_a_node_tag@1@@Z 0043dfc0 f   TLoginSvr.obj
 0001:0003cfe0       __unwindfunclet$??0CTLoginSvrModule@@QAE@XZ$0 0043dfe0 f   TLoginSvr.obj
 0001:0003cfe8       __unwindfunclet$??0CTLoginSvrModule@@QAE@XZ$1 0043dfe8 f   TLoginSvr.obj
 0001:0003cff0       __unwindfunclet$??0CTLoginSvrModule@@QAE@XZ$3 0043dff0 f   TLoginSvr.obj
 0001:0003cffe       __unwindfunclet$??0CTLoginSvrModule@@QAE@XZ$4 0043dffe f   TLoginSvr.obj
 0001:0003d00c       __unwindfunclet$??0CTLoginSvrModule@@QAE@XZ$5 0043e00c f   TLoginSvr.obj
 0001:0003d01a       __unwindfunclet$??0CTLoginSvrModule@@QAE@XZ$6 0043e01a f   TLoginSvr.obj
 0001:0003d028       __unwindfunclet$??0CTLoginSvrModule@@QAE@XZ$7 0043e028 f   TLoginSvr.obj
 0001:0003d036       __unwindfunclet$??0CTLoginSvrModule@@QAE@XZ$8 0043e036 f   TLoginSvr.obj
 0001:0003d044       __unwindfunclet$??0CTLoginSvrModule@@QAE@XZ$9 0043e044 f   TLoginSvr.obj
 0001:0003d052       __unwindfunclet$??0CTLoginSvrModule@@QAE@XZ$10 0043e052 f   TLoginSvr.obj
 0001:0003d060       __unwindfunclet$??0CTLoginSvrModule@@QAE@XZ$11 0043e060 f   TLoginSvr.obj
 0001:0003d06e       __unwindfunclet$??0CTLoginSvrModule@@QAE@XZ$12 0043e06e f   TLoginSvr.obj
 0001:0003d07c       __unwindfunclet$??0CTLoginSvrModule@@QAE@XZ$13 0043e07c f   TLoginSvr.obj
 0001:0003d08a       __unwindfunclet$??0CTLoginSvrModule@@QAE@XZ$14 0043e08a f   TLoginSvr.obj
 0001:0003d098       __unwindfunclet$??0CTLoginSvrModule@@QAE@XZ$15 0043e098 f   TLoginSvr.obj
 0001:0003d0a6       __unwindfunclet$??0CTLoginSvrModule@@QAE@XZ$16 0043e0a6 f   TLoginSvr.obj
 0001:0003d0b4       __unwindfunclet$??0CTLoginSvrModule@@QAE@XZ$17 0043e0b4 f   TLoginSvr.obj
 0001:0003d0c2       __unwindfunclet$??0CTLoginSvrModule@@QAE@XZ$18 0043e0c2 f   TLoginSvr.obj
 0001:0003d0d1       __ehhandler$??0CTLoginSvrModule@@QAE@XZ 0043e0d1 f   TLoginSvr.obj
 0001:0003d0f0       __ehhandler$??1CSqlDatabase@@UAE@XZ 0043e0f0 f   TNetLib:SqlDatabase.obj
 0001:0003d0f0       __ehhandler$??1?$map@KUtagEVENTINFO@@U?$less@K@std@@V?$allocator@U?$pair@$$CBKUtagEVENTINFO@@@std@@@3@@std@@QAE@XZ 0043e0f0 f   TLoginSvr.obj
 0001:0003d110       __ehhandler$??_GCSqlQuery@@UAEPAXI@Z 0043e110 f   TNetLib:SqlQuery.obj
 0001:0003d110       __ehhandler$??1CTLoginSvrModule@@UAE@XZ 0043e110 f   TLoginSvr.obj
 0001:0003d130       __unwindfunclet$?ControlThread@CTLoginSvrModule@@IAEKXZ$0 0043e130 f   TLoginSvr.obj
 0001:0003d142       __unwindfunclet$?ControlThread@CTLoginSvrModule@@IAEKXZ$1 0043e142 f   TLoginSvr.obj
 0001:0003d14a       __ehhandler$?ControlThread@CTLoginSvrModule@@IAEKXZ 0043e14a f   TLoginSvr.obj
 0001:0003d170       __unwindfunclet$?LoadConfig@CTLoginSvrModule@@IAEKXZ$0 0043e170 f   TLoginSvr.obj
 0001:0003d178       __unwindfunclet$?LoadConfig@CTLoginSvrModule@@IAEKXZ$2 0043e178 f   TLoginSvr.obj
 0001:0003d180       __unwindfunclet$?LoadConfig@CTLoginSvrModule@@IAEKXZ$4 0043e180 f   TLoginSvr.obj
 0001:0003d188       __unwindfunclet$?LoadConfig@CTLoginSvrModule@@IAEKXZ$8 0043e188 f   TLoginSvr.obj
 0001:0003d190       __ehhandler$?LoadConfig@CTLoginSvrModule@@IAEKXZ 0043e190 f   TLoginSvr.obj
 0001:0003d1b0       __unwindfunclet$?LoadData@CTLoginSvrModule@@IAEKPAVCSqlDatabase@@PAV?$map@EPAUtagTGROUP@@U?$less@E@std@@V?$allocator@U?$pair@$$CBEPAUtagTGROUP@@@std@@@3@@std@@@Z$1 0043e1b0 f   TLoginSvr.obj
 0001:0003d1b8       __unwindfunclet$?LoadData@CTLoginSvrModule@@IAEKPAVCSqlDatabase@@PAV?$map@EPAUtagTGROUP@@U?$less@E@std@@V?$allocator@U?$pair@$$CBEPAUtagTGROUP@@@std@@@3@@std@@@Z$2 0043e1b8 f   TLoginSvr.obj
 0001:0003d1c7       __ehhandler$?LoadData@CTLoginSvrModule@@IAEKPAVCSqlDatabase@@PAV?$map@EPAUtagTGROUP@@U?$less@E@std@@V?$allocator@U?$pair@$$CBEPAUtagTGROUP@@@std@@@3@@std@@@Z 0043e1c7 f   TLoginSvr.obj
 0001:0003d1f0       __unwindfunclet$?LoadDataLogin@CTLoginSvrModule@@IAEKXZ$1 0043e1f0 f   TLoginSvr.obj
 0001:0003d1fb       __unwindfunclet$?LoadDataLogin@CTLoginSvrModule@@IAEKXZ$3 0043e1fb f   TLoginSvr.obj
 0001:0003d206       __unwindfunclet$?LoadDataLogin@CTLoginSvrModule@@IAEKXZ$5 0043e206 f   TLoginSvr.obj
 0001:0003d211       __unwindfunclet$?LoadDataLogin@CTLoginSvrModule@@IAEKXZ$7 0043e211 f   TLoginSvr.obj
 0001:0003d21c       __ehhandler$?LoadDataLogin@CTLoginSvrModule@@IAEKXZ 0043e21c f   TLoginSvr.obj
 0001:0003d250       __unwindfunclet$?LogExecCheck@CTLoginSvrModule@@IAEXKKV?$CStringT@DV?$StrTraitATL@DV?$ChTraitsCRT@D@ATL@@@ATL@@@ATL@@@Z$0 0043e250 f   TLoginSvr.obj
 0001:0003d258       __unwindfunclet$?LogExecCheck@CTLoginSvrModule@@IAEXKKV?$CStringT@DV?$StrTraitATL@DV?$ChTraitsCRT@D@ATL@@@ATL@@@ATL@@@Z$2 0043e258 f   TLoginSvr.obj
 0001:0003d263       __unwindfunclet$?LogExecCheck@CTLoginSvrModule@@IAEXKKV?$CStringT@DV?$StrTraitATL@DV?$ChTraitsCRT@D@ATL@@@ATL@@@ATL@@@Z$6 0043e263 f   TLoginSvr.obj
 0001:0003d26e       __unwindfunclet$?LogExecCheck@CTLoginSvrModule@@IAEXKKV?$CStringT@DV?$StrTraitATL@DV?$ChTraitsCRT@D@ATL@@@ATL@@@ATL@@@Z$3 0043e26e f   TLoginSvr.obj
 0001:0003d279       __unwindfunclet$?LogExecCheck@CTLoginSvrModule@@IAEXKKV?$CStringT@DV?$StrTraitATL@DV?$ChTraitsCRT@D@ATL@@@ATL@@@ATL@@@Z$1 0043e279 f   TLoginSvr.obj
 0001:0003d285       __unwindfunclet$?LogExecCheck@CTLoginSvrModule@@IAEXKKV?$CStringT@DV?$StrTraitATL@DV?$ChTraitsCRT@D@ATL@@@ATL@@@ATL@@@Z$4 0043e285 f   TLoginSvr.obj
 0001:0003d28f       __ehhandler$?LogExecCheck@CTLoginSvrModule@@IAEXKKV?$CStringT@DV?$StrTraitATL@DV?$ChTraitsCRT@D@ATL@@@ATL@@@ATL@@@Z 0043e28f f   TLoginSvr.obj
 0001:0003d2c0       __unwindfunclet$?OnCloseSession@CTLoginSvrModule@@IAEXPAVCTUser@@@Z$0 0043e2c0 f   TLoginSvr.obj
 0001:0003d2c8       __unwindfunclet$?OnCloseSession@CTLoginSvrModule@@IAEXPAVCTUser@@@Z$2 0043e2c8 f   TLoginSvr.obj
 0001:0003d2d0       __ehhandler$?OnCloseSession@CTLoginSvrModule@@IAEXPAVCTUser@@@Z 0043e2d0 f   TLoginSvr.obj
 0001:0003d2f0       __unwindfunclet$?OnEnter@CTLoginSvrModule@@MAEKXZ$1 0043e2f0 f   TLoginSvr.obj
 0001:0003d2fb       __ehhandler$?OnEnter@CTLoginSvrModule@@MAEKXZ 0043e2fb f   TLoginSvr.obj
 0001:0003d330       __unwindfunclet$?OnExit@CTLoginSvrModule@@MAEXXZ$1 0043e330 f   TLoginSvr.obj
 0001:0003d338       __ehhandler$?OnExit@CTLoginSvrModule@@MAEXXZ 0043e338 f   TLoginSvr.obj
 0001:0003d360       __unwindfunclet$?WorkThread@CTLoginSvrModule@@IAEKXZ$0 0043e360 f   TLoginSvr.obj
 0001:0003d368       __unwindfunclet$?WorkThread@CTLoginSvrModule@@IAEKXZ$1 0043e368 f   TLoginSvr.obj
 0001:0003d370       __ehhandler$?WorkThread@CTLoginSvrModule@@IAEKXZ 0043e370 f   TLoginSvr.obj
 0001:0003d390       __ehhandler$?clear@?$_Tree@V?$_Tmap_traits@EPAUtagTGROUP@@U?$less@E@std@@V?$allocator@U?$pair@$$CBEPAUtagTGROUP@@@std@@@3@$0A@@std@@@std@@QAEXXZ 0043e390 f   TLoginSvr.obj
 0001:0003d390       __ehhandler$?clear@?$_Tree@V?$_Tmap_traits@KKU?$less@K@std@@V?$allocator@U?$pair@$$CBKK@std@@@2@$0A@@std@@@std@@QAEXXZ 0043e390 f   TLoginSvr.obj
 0001:0003d390       __ehhandler$?clear@?$_Tree@V?$_Tmap_traits@KPAVCTUser@@U?$less@K@std@@V?$allocator@U?$pair@$$CBKPAVCTUser@@@std@@@3@$0A@@std@@@std@@QAEXXZ 0043e390 f   TLoginSvr.obj
 0001:0003d390       __ehhandler$??1CSession@@UAE@XZ 0043e390 f   TNetLib:Session.obj
 0001:0003d3b0       __unwindfunclet$_main$0    0043e3b0 f   TLoginSvr.obj
 0001:0003d3b8       __ehhandler$_main          0043e3b8 f   TLoginSvr.obj
 0001:0003d3e0       __unwindfunclet$??0CTUser@@QAE@XZ$0 0043e3e0 f   TUser.obj
 0001:0003d3e8       __unwindfunclet$??0CTUser@@QAE@XZ$1 0043e3e8 f   TUser.obj
 0001:0003d3f6       __unwindfunclet$??0CTUser@@QAE@XZ$2 0043e3f6 f   TUser.obj
 0001:0003d404       __unwindfunclet$??0CTUser@@QAE@XZ$3 0043e404 f   TUser.obj
 0001:0003d412       __unwindfunclet$??0CTUser@@QAE@XZ$4 0043e412 f   TUser.obj
 0001:0003d420       __unwindfunclet$??0CTUser@@QAE@XZ$5 0043e420 f   TUser.obj
 0001:0003d42e       __ehhandler$??0CTUser@@QAE@XZ 0043e42e f   TUser.obj
 0001:0003d450       __ehhandler$??$_Buynode@U?$pair@$$CBV?$basic_string@DU?$char_traits@D@std@@V?$allocator@D@2@@std@@PAVCSqlQuery@@@std@@@?$_Tree_comp_alloc@V?$_Tmap_traits@V?$basic_string@DU?$char_traits@D@std@@V?$allocator@D@2@@std@@PAVCSqlQuery@@U?$less@V?$basic_string@DU?$char_traits@D@std@@V?$allocator@D@2@@std@@@2@V?$allocator@U?$pair@$$CBV?$basic_string@DU?$char_traits@D@std@@V?$allocator@D@2@@std@@PAVCSqlQuery@@@std@@@2@$0A@@std@@@std@@QAEPAU?$_Tree_node@U?$pair@$$CBV?$basic_string@DU?$char_traits@D@std@@V?$allocator@D@2@@std@@PAVCSqlQuery@@@std@@PAX@1@$$QAU?$pair@$$CBV?$basic_string@DU?$char_traits@D@std@@V?$allocator@D@2@@std@@PAVCSqlQuery@@@1@@Z 0043e450 f   TNetLib:SqlDatabase.obj
 0001:0003d470       __ehhandler$??$_Insert_nohint@U?$pair@$$CBV?$basic_string@DU?$char_traits@D@std@@V?$allocator@D@2@@std@@PAVCSqlQuery@@@std@@U_Not_a_node_tag@2@@?$_Tree@V?$_Tmap_traits@V?$basic_string@DU?$char_traits@D@std@@V?$allocator@D@2@@std@@PAVCSqlQuery@@U?$less@V?$basic_string@DU?$char_traits@D@std@@V?$allocator@D@2@@std@@@2@V?$allocator@U?$pair@$$CBV?$basic_string@DU?$char_traits@D@std@@V?$allocator@D@2@@std@@PAVCSqlQuery@@@std@@@2@$0A@@std@@@std@@IAE?AU?$pair@V?$_Tree_iterator@V?$_Tree_val@U?$_Tree_simple_types@U?$pair@$$CBV?$basic_string@DU?$char_traits@D@std@@V?$allocator@D@2@@std@@PAVCSqlQuery@@@std@@@std@@@std@@@std@@_N@1@_N$$QAU?$pair@$$CBV?$basic_string@DU?$char_traits@D@std@@V?$allocator@D@2@@std@@PAVCSqlQuery@@@1@U_Not_a_node_tag@1@@Z 0043e470 f   TNetLib:SqlDatabase.obj
 0001:0003d490       __ehhandler$??_GCSqlDatabase@@UAEPAXI@Z 0043e490 f   TNetLib:SqlDatabase.obj
 0001:0003d4b0       __unwindfunclet$?AddQuery@CSqlDatabase@@QAEHPAVCSqlQuery@@V?$basic_string@DU?$char_traits@D@std@@V?$allocator@D@2@@std@@@Z$0 0043e4b0 f   TNetLib:SqlDatabase.obj
 0001:0003d4b8       __unwindfunclet$?AddQuery@CSqlDatabase@@QAEHPAVCSqlQuery@@V?$basic_string@DU?$char_traits@D@std@@V?$allocator@D@2@@std@@@Z$1 0043e4b8 f   TNetLib:SqlDatabase.obj
 0001:0003d4c0       __ehhandler$?AddQuery@CSqlDatabase@@QAEHPAVCSqlQuery@@V?$basic_string@DU?$char_traits@D@std@@V?$allocator@D@2@@std@@@Z 0043e4c0 f   TNetLib:SqlDatabase.obj
 0001:0003d4f0       __ehhandler$?Close@CSqlDatabase@@QAEXXZ 0043e4f0 f   TNetLib:SqlDatabase.obj
 0001:0003d510       __unwindfunclet$?Fetch@CSqlBase@@QAEHXZ$0 0043e510 f   TNetLib:SqlBase.obj
 0001:0003d51b       __ehhandler$?Fetch@CSqlBase@@QAEHXZ 0043e51b f   TNetLib:SqlBase.obj
 0001:0003d550       __unwindfunclet$?Open@CSqlBase@@QAEHH@Z$0 0043e550 f   TNetLib:SqlBase.obj
 0001:0003d55b       __unwindfunclet$?Open@CSqlBase@@QAEHH@Z$1 0043e55b f   TNetLib:SqlBase.obj
 0001:0003d566       __ehhandler$?Open@CSqlBase@@QAEHH@Z 0043e566 f   TNetLib:SqlBase.obj
 0001:0003d590       __unwindfunclet$??0CSqlQuery@@QAE@PAVCSqlDatabase@@V?$basic_string@DU?$char_traits@D@std@@V?$allocator@D@2@@std@@PBD@Z$0 0043e590 f   TNetLib:SqlQuery.obj
 0001:0003d598       __unwindfunclet$??0CSqlQuery@@QAE@PAVCSqlDatabase@@V?$basic_string@DU?$char_traits@D@std@@V?$allocator@D@2@@std@@PBD@Z$1 0043e598 f   TNetLib:SqlQuery.obj
 0001:0003d5a3       __unwindfunclet$??0CSqlQuery@@QAE@PAVCSqlDatabase@@V?$basic_string@DU?$char_traits@D@std@@V?$allocator@D@2@@std@@PBD@Z$2 0043e5a3 f   TNetLib:SqlQuery.obj
 0001:0003d5b4       __ehhandler$??0CSqlQuery@@QAE@PAVCSqlDatabase@@V?$basic_string@DU?$char_traits@D@std@@V?$allocator@D@2@@std@@PBD@Z 0043e5b4 f   TNetLib:SqlQuery.obj
 0001:0003d5e0       __ehhandler$?__scrt_initialize_thread_safe_statics_platform_specific@@YAXXZ 0043e5e0 f   LIBCMT:thread_safe_statics.obj
 0001:0003d5e0       __ehhandler$??1CSqlQuery@@UAE@XZ 0043e5e0 f   TNetLib:SqlQuery.obj
 0001:0003d600       __unwindfunclet$??0CSession@@QAE@XZ$0 0043e600 f   TNetLib:Session.obj
 0001:0003d60b       __unwindfunclet$??0CSession@@QAE@XZ$1 0043e60b f   TNetLib:Session.obj
 0001:0003d616       __unwindfunclet$??0CSession@@QAE@XZ$2 0043e616 f   TNetLib:Session.obj
 0001:0003d624       __unwindfunclet$??0CSession@@QAE@XZ$3 0043e624 f   TNetLib:Session.obj
 0001:0003d632       __ehhandler$??0CSession@@QAE@XZ 0043e632 f   TNetLib:Session.obj
 0001:0003d650       __ehhandler$??_GCSession@@UAEPAXI@Z 0043e650 f   TNetLib:Session.obj
 0001:0003d670       __unwindfunclet$?CheckMessage@CSession@@QAEHXZ$0 0043e670 f   TNetLib:Session.obj
 0001:0003d678       __unwindfunclet$?CheckMessage@CSession@@QAEHXZ$1 0043e678 f   TNetLib:Session.obj
 0001:0003d680       __ehhandler$?CheckMessage@CSession@@QAEHXZ 0043e680 f   TNetLib:Session.obj
 0001:0003d6a0       __unwindfunclet$?OnInvalidSession@CSession@@QAEHXZ$0 0043e6a0 f   TNetLib:Session.obj
 0001:0003d6a0       __unwindfunclet$?Flush@CSession@@QAEXXZ$0 0043e6a0 f   TNetLib:Session.obj
 0001:0003d6a0       __unwindfunclet$?Read@CSession@@QAEHK@Z$0 0043e6a0 f   TNetLib:Session.obj
 0001:0003d6a8       __ehhandler$?Read@CSession@@QAEHK@Z 0043e6a8 f   TNetLib:Session.obj
 0001:0003d6a8       __ehhandler$?Flush@CSession@@QAEXXZ 0043e6a8 f   TNetLib:Session.obj
 0001:0003d6a8       __ehhandler$?OnInvalidSession@CSession@@QAEHXZ 0043e6a8 f   TNetLib:Session.obj
 0001:0003d6d0       __unwindfunclet$?Say@CSession@@UAEHPAVCPacket@@@Z$0 0043e6d0 f   TNetLib:Session.obj
 0001:0003d6d0       __unwindfunclet$?WaitForMessage@CSession@@QAEHXZ$0 0043e6d0 f   TNetLib:Session.obj
 0001:0003d6d8       __ehhandler$?WaitForMessage@CSession@@QAEHXZ 0043e6d8 f   TNetLib:Session.obj
 0001:0003d6d8       __ehhandler$?Say@CSession@@UAEHPAVCPacket@@@Z 0043e6d8 f   TNetLib:Session.obj
 0001:0003d700       __unwindfunclet$?SendComplete@CSession@@QAEHK@Z$0 0043e700 f   TNetLib:Session.obj
 0001:0003d708       __unwindfunclet$?SendComplete@CSession@@QAEHK@Z$1 0043e708 f   TNetLib:Session.obj
 0001:0003d710       __ehhandler$?SendComplete@CSession@@QAEHK@Z 0043e710 f   TNetLib:Session.obj
 0001:0003d730       __unwindfunclet$?TraceLastError@@YAXPBD0K@Z$0 0043e730 f   TNetLib:CryptographyExt.obj
 0001:0003d738       __ehhandler$?TraceLastError@@YAXPBD0K@Z 0043e738 f   TNetLib:CryptographyExt.obj
 0001:0003d753       __unwindfunclet$?_Init@locale@std@@CAPAV_Locimp@12@_N@Z$0 0043e753 f   libcpmt:locale0.obj
 0001:0003d75b       __ehhandler$?_Init@locale@std@@CAPAV_Locimp@12@_N@Z 0043e75b f   libcpmt:locale0.obj
 0001:0003d776       __unwindfunclet$?_Locimp_dtor@_Locimp@locale@std@@CAXPAV123@@Z$0 0043e776 f   libcpmt:locale0.obj
 0001:0003d77e       __ehhandler$?_Locimp_dtor@_Locimp@locale@std@@CAXPAV123@@Z 0043e77e f   libcpmt:locale0.obj
 0001:0003d799       __ehhandler$?CallUnexpected@@YAXPBU_s_ESTypeList@@@Z 0043e799 f   libvcruntime:frame.obj
 0001:0003d7b4       __ehhandler$?common_exit@@YAXHW4_crt_exit_cleanup_mode@@W4_crt_exit_return_mode@@@Z 0043e7b4 f   libucrt:exit.obj
 0001:0003d7d1       __ehhandler$?try_cor_exit_process@@YAXI@Z 0043e7d1 f   libucrt:exit.obj
 0001:0003d7ee       __ehhandler$___dcrt_uninitialize_environments_nolock 0043e7ee f   libucrt:environment_initialization.obj
 0001:0003d80b       __ehhandler$__execute_onexit_table 0043e80b f   libucrt:onexit.obj
 0001:0003d828       __ehhandler$?write_double_translated_ansi_nolock@@YA?AUwrite_result@?A0x17268360@@HQBDIAAV__crt_cached_ptd_host@@@Z 0043e828 f   libucrt:write.obj
 0001:0003d852       __ehhandler$?_mbstowcs_l_helper@@YAIPA_WPBDIAAV__crt_cached_ptd_host@@@Z 0043e852 f   libucrt:mbstowcs.obj
 0001:0003d8b0       ??__F_AtlModule@@YAXXZ     0043e8b0 f   TLoginSvr.obj
 0001:0003d8c0       ??__FstrFileName@?1??LogExecCheck@CTLoginSvrModule@@IAEXKKV?$CStringT@DV?$StrTraitATL@DV?$ChTraitsCRT@D@ATL@@@ATL@@@ATL@@@Z@YAXXZ 0043e8c0 f   TLoginSvr.obj
 0001:0003d8e0       ??__Fg_strSecretKey@@YAXXZ 0043e8e0 f   TNetLib:Session.obj
 0001:0003d8ff       ??__F_AtlBaseModule@ATL@@YAXXZ 0043e8ff f   atls:atlbase.obj
 0001:0003d909       ??__Finitlocks@std@@YAXXZ  0043e909 f   libcpmt:xlock.obj
 0001:0003d913       ??__F_Fac_tidy_reg@std@@YAXXZ 0043e913 f   libcpmt:locale0.obj
 0001:0003d91d       ??__Fclassic_locale@std@@YAXXZ 0043e91d f   libcpmt:locale0.obj
 0001:0003d927       ??__Fcin@std@@YAXXZ        0043e927 f   libcpmt:cin.obj
 0001:0003d931       ??__Ffin@std@@YAXXZ        0043e931 f   libcpmt:cin.obj
 0001:0003d93b       ??__Finitlocks@@YAXXZ      0043e93b f   libcpmt:cin.obj
 0001:0003d945       ??__Fcout@std@@YAXXZ       0043e945 f   libcpmt:cout.obj
 0001:0003d94f       ??__Ffout@std@@YAXXZ       0043e94f f   libcpmt:cout.obj
 0001:0003d959       ??__Finitlocks@@YAXXZ      0043e959 f   libcpmt:cout.obj
 0001:0003d963       ??__Finit_atexit@@YAXXZ    0043e963 f   libcpmt:iosptrs.obj
 0001:0003d96d       ??__Finitlocks@std@@YAXXZ  0043e96d f   libcpmt:iosptrs.obj
 0002:00000298       ?pre_cpp_initializer@@3P6AXXZA 0043f298     LIBCMT:exe_main.obj
 0002:0000029c       ?initlocks$initializer$@std@@3P6AXXZA 0043f29c     libcpmt:xlock.obj
 0002:000002a0       ?initlocks$initializer$@@3P6AXXZA 0043f2a0     libcpmt:cin.obj
 0002:000002a4       ?fin$initializer$@std@@3P6AXXZA 0043f2a4     libcpmt:cin.obj
 0002:000002a8       ?cin$initializer$@std@@3P6AXXZA 0043f2a8     libcpmt:cin.obj
 0002:000002ac       ?init_cin$initializer$@std@@3P6AXXZA 0043f2ac     libcpmt:cin.obj
 0002:000002b0       ?initlocks$initializer$@@3P6AXXZA 0043f2b0     libcpmt:cout.obj
 0002:000002b4       ?fout$initializer$@std@@3P6AXXZA 0043f2b4     libcpmt:cout.obj
 0002:000002b8       ?cout$initializer$@std@@3P6AXXZA 0043f2b8     libcpmt:cout.obj
 0002:000002bc       ?init_cout$initializer$@std@@3P6AXXZA 0043f2bc     libcpmt:cout.obj
 0002:000002c0       ?initlocks$initializer$@std@@3P6AXXZA 0043f2c0     libcpmt:iosptrs.obj
 0002:000002c4       ?init_atexit$initializer$@@3P6AXXZA 0043f2c4     libcpmt:iosptrs.obj
 0002:000002c8       ?_AtlBaseModule$initializer$@ATL@@3P6AXXZA 0043f2c8     atls:atlbase.obj
 0002:000002cc       ?_Fac_tidy_reg$initializer$@std@@3P6AXXZA 0043f2cc     libcpmt:locale0.obj
 0002:000002d0       ?classic_locale$initializer$@std@@3P6AXXZA 0043f2d0     libcpmt:locale0.obj
 0002:000002d4       ?_AtlModule$initializer$@@3P6AXXZA 0043f2d4     TLoginSvr.obj
 0002:000002d8       ?g_strSecretKey$initializer$@@3P6AXXZA 0043f2d8     TNetLib:Session.obj
 0002:000002e4       ?pre_c_initializer@@3P6AHXZA 0043f2e4     LIBCMT:exe_main.obj
 0002:000002e8       ?post_pgo_initializer@@3P6AHXZA 0043f2e8     LIBCMT:exe_main.obj
 0002:000002ec       ?pinit@@3P6AHXZA           0043f2ec     libcpmt:winapisupp.obj
 0002:000002f0       ?__scrt_initialize_tss_var@@3P6AHXZA 0043f2f0     LIBCMT:thread_safe_statics.obj
 0002:000018d0       ?_Sys_errtab@std@@3QBU_Sys_errtab_t@1@B 004408d0     libcpmt:syserror.obj
 0002:00001b40       ?_Win_errtab@std@@3QBU_Win_errtab_t@1@B 00440b40     libcpmt:syserror.obj
 0002:00002798       ?LcidToLocaleNameTable@@3QBULcidToLocaleName@@B 00441798     libcpmt:winapinls.obj
 0002:00002eb8       ?LocaleNameToIndexTable@@3QBULocaleNameIndex@@B 00441eb8     libcpmt:winapinls.obj
 0002:00004854       _digits                    00443854     libcpmt:xstoul.obj
 0002:0000487c       _ndigs                     0044387c     libcpmt:xstoul.obj
 0002:000048a4       _digits                    004438a4     libcpmt:xstoull.obj
 0002:000048cc       _ndigs                     004438cc     libcpmt:xstoull.obj
 0002:00004944       _GS_ExceptionPointers      00443944     LIBCMT:gs_report.obj
 0002:00004974       ?ExceptionTemplate@?1??_CxxThrowException@@9@8@4UEHExceptionRecord@@B 00443974     libvcruntime:throw.obj
 0002:000049b0       ?module_names@?A0xa2817912@@3QBQB_WB 004439b0     libvcruntime:winapi_downlevel.obj
 0002:00004a68       ?candidate_modules@?1??try_get_FlsAlloc@@YAP6GKP6GXPAX@Z@ZXZ@4QBW4module_id@?A0xa2817912@@B 00443a68     libvcruntime:winapi_downlevel.obj
 0002:00004a70       ?candidate_modules@?1??try_get_FlsFree@@YAP6GHK@ZXZ@4QBW4module_id@?A0xa2817912@@B 00443a70     libvcruntime:winapi_downlevel.obj
 0002:00004a78       ?candidate_modules@?1??try_get_FlsGetValue@@YAP6GPAXK@ZXZ@4QBW4module_id@?A0xa2817912@@B 00443a78     libvcruntime:winapi_downlevel.obj
 0002:00004a80       ?candidate_modules@?1??try_get_FlsSetValue@@YAP6GHKPAX@ZXZ@4QBW4module_id@?A0xa2817912@@B 00443a80     libvcruntime:winapi_downlevel.obj
 0002:00004a88       ?candidate_modules@?1??try_get_InitializeCriticalSectionEx@@YAP6GHPAU_RTL_CRITICAL_SECTION@@KK@ZXZ@4QBW4module_id@?A0xa2817912@@B 00443a88     libvcruntime:winapi_downlevel.obj
 0002:00004a90       ?tokenTable@@3QBQBDB       00443a90     libvcruntime:undname.obj
 0002:00004ad0       ?nameTable@@3QBQBDB        00443ad0     libvcruntime:undname.obj
 0002:00004c18       ?rttiTable@@3QBQBDB        00443c18     libvcruntime:undname.obj
 0002:00005220       ?errtable@@3QBUerrentry@?A0x31fdb9ec@@B 00444220     libucrt:errno.obj
 0002:00006780       POW_name                   00445780     libucrt:pow_impl.obj
 0002:00006888       ___acrt_initializers       00445888     libucrt:initialization.obj
 0002:00006908       __first_127char            00445908     libucrt:wsetlocale.obj
 0002:00006f30       ?module_names@?A0x391cf84c@@3QBQB_WB 00445f30     libucrt:winapi_thunks.obj
 0002:0000742c       ?candidate_modules@?1??try_get_AreFileApisANSI@@YAP6GHXZXZ@4QBW4module_id@?A0x391cf84c@@B 0044642c     libucrt:winapi_thunks.obj
 0002:00007440       ?candidate_modules@?1??try_get_CompareStringEx@@YAP6GHPB_WK0H0HPAU_nlsversioninfo@@PAXJ@ZXZ@4QBW4module_id@?A0x391cf84c@@B 00446440     libucrt:winapi_thunks.obj
 0002:00007448       ?candidate_modules@?1??try_get_EnumSystemLocalesEx@@YAP6GHP6GHPA_WKJ@ZKJPAX@ZXZ@4QBW4module_id@?A0x391cf84c@@B 00446448     libucrt:winapi_thunks.obj
 0002:00007464       ?candidate_modules@?1??try_get_GetDateFormatEx@@YAP6GHPB_WKPBU_SYSTEMTIME@@0PA_WH0@ZXZ@4QBW4module_id@?A0x391cf84c@@B 00446464     libucrt:winapi_thunks.obj
 0002:0000747c       ?candidate_modules@?1??try_get_GetLocaleInfoEx@@YAP6GHPB_WKPA_WH@ZXZ@4QBW4module_id@?A0x391cf84c@@B 0044647c     libucrt:winapi_thunks.obj
 0002:00007484       ?candidate_modules@?1??try_get_GetTimeFormatEx@@YAP6GHPB_WKPBU_SYSTEMTIME@@0PA_WH@ZXZ@4QBW4module_id@?A0x391cf84c@@B 00446484     libucrt:winapi_thunks.obj
 0002:0000749c       ?candidate_modules@?1??try_get_GetUserDefaultLocaleName@@YAP6GHPA_WH@ZXZ@4QBW4module_id@?A0x391cf84c@@B 0044649c     libucrt:winapi_thunks.obj
 0002:000074c0       ?candidate_modules@?1??try_get_InitializeCriticalSectionEx@@YAP6GHPAU_RTL_CRITICAL_SECTION@@KK@ZXZ@4QBW4module_id@?A0x391cf84c@@B 004464c0     libucrt:winapi_thunks.obj
 0002:000074c8       ?candidate_modules@?1??try_get_IsValidLocaleName@@YAP6GHPB_W@ZXZ@4QBW4module_id@?A0x391cf84c@@B 004464c8     libucrt:winapi_thunks.obj
 0002:000074e4       ?candidate_modules@?1??try_get_LCMapStringEx@@YAP6GHPB_WK0HPA_WHPAU_nlsversioninfo@@PAXJ@ZXZ@4QBW4module_id@?A0x391cf84c@@B 004464e4     libucrt:winapi_thunks.obj
 0002:000074ec       ?candidate_modules@?1??try_get_LCIDToLocaleName@@YAP6GHKPA_WHK@ZXZ@4QBW4module_id@?A0x391cf84c@@B 004464ec     libucrt:winapi_thunks.obj
 0002:00007508       ?candidate_modules@?1??try_get_LocaleNameToLCID@@YAP6GKPB_WK@ZXZ@4QBW4module_id@?A0x391cf84c@@B 00446508     libucrt:winapi_thunks.obj
 0002:00007524       ?candidate_modules@?1??try_get_AppPolicyGetProcessTerminationMethod@@YAP6GJPAXPAW4AppPolicyProcessTerminationMethod@@@ZXZ@4QBW4module_id@?A0x391cf84c@@B 00446524     libucrt:winapi_thunks.obj
 0002:00007550       ?candidate_modules@?1??try_get_SystemFunction036@@YAP6GEPAXK@ZXZ@4QBW4module_id@?A0x391cf84c@@B 00446550     libucrt:winapi_thunks.obj
 0002:0000756c       ?candidate_modules@?1??try_get_FlsAlloc@@YAP6GKP6GXPAX@Z@ZXZ@4QBW4module_id@?A0x391cf84c@@B 0044656c     libucrt:winapi_thunks.obj
 0002:00007574       ?candidate_modules@?1??try_get_FlsFree@@YAP6GHK@ZXZ@4QBW4module_id@?A0x391cf84c@@B 00446574     libucrt:winapi_thunks.obj
 0002:0000757c       ?candidate_modules@?1??try_get_FlsGetValue@@YAP6GPAXK@ZXZ@4QBW4module_id@?A0x391cf84c@@B 0044657c     libucrt:winapi_thunks.obj
 0002:00007584       ?candidate_modules@?1??try_get_FlsSetValue@@YAP6GHKPAX@ZXZ@4QBW4module_id@?A0x391cf84c@@B 00446584     libucrt:winapi_thunks.obj
 0002:00007590       ?strings@?1??fp_format_nan_or_infinity@@YAHW4__acrt_fp_class@@_NPADI1@Z@4QAY03QBDA 00446590     libucrt:cvt.obj
 0002:00007640       ?_names@?1??_get_fname@@9@4QBU<unnamed-type-_names>@?1??1@YAPADI@Z@B 00446640     libucrt:fpexcept.obj
 0002:00007808       _over                      00446808     libucrt:fpctrl.obj
 0002:00007814       _under                     00446814     libucrt:fpctrl.obj
 0002:00007820       Shifter                    00446820     libucrt:pow_pentium4.obj
 0002:00007830       SIGMASK                    00446830     libucrt:pow_pentium4.obj
 0002:00007840       ONEMASK                    00446840     libucrt:pow_pentium4.obj
 0002:00007850       ABSVALMASK                 00446850     libucrt:pow_pentium4.obj
 0002:00007860       cev                        00446860     libucrt:pow_pentium4.obj
 0002:00007888       HALFSIG                    00446888     libucrt:pow_pentium4.obj
 0002:00007890       LHN                        00446890     libucrt:pow_pentium4.obj
 0002:00007898       sNaN                       00446898     libucrt:pow_pentium4.obj
 0002:000078a0       INF                        004468a0     libucrt:pow_pentium4.obj
 0002:000078a8       NEG_INF                    004468a8     libucrt:pow_pentium4.obj
 0002:000078b0       NEG_ZERO                   004468b0     libucrt:pow_pentium4.obj
 0002:000078b8       NEG_BIG                    004468b8     libucrt:pow_pentium4.obj
 0002:000078c0       POS_BIG                    004468c0     libucrt:pow_pentium4.obj
 0002:000078c8       EMIN                       004468c8     libucrt:pow_pentium4.obj
 0002:000078d0       QIND                       004468d0     libucrt:pow_pentium4.obj
 0002:000078fe       _log2max                   004468fe     libucrt:87tran.obj
 0002:00007908       _smallarg                  00446908     libucrt:87tran.obj
 0002:00007912       _half                      00446912     libucrt:87tran.obj
 0002:0000795e       One                        0044695e     libucrt:87disp.obj
 0002:00007966       Three                      00446966     libucrt:87disp.obj
 0002:0000796e       XAMtoTagTab                0044696e     libucrt:87disp.obj
 0002:00007980       One                        00446980     libucrt:common.obj
 0002:00007994       DblMax                     00446994     libucrt:common.obj
 0002:0000799c       DblMin                     0044699c     libucrt:common.obj
 0002:000079a4       IeeeAdjO                   004469a4     libucrt:common.obj
 0002:000079ac       IeeeAdjU                   004469ac     libucrt:common.obj
 0002:000079b4       _infinity                  004469b4     libucrt:common.obj
 0002:000079bc       _zero                      004469bc     libucrt:common.obj
 0002:000079d0       ?_mb_locale_names@@3QBQB_WB 004469d0     libucrt:mbctype.obj
 0002:000087a8       ?LcidToLocaleNameTable@?A0x881e4c05@@3QBULcidToLocaleName@1@B 004477a8     libucrt:lcidtoname_downlevel.obj
 0002:00008ec8       ?LocaleNameToIndexTable@?A0x881e4c05@@3QBULocaleNameIndex@1@B 00447ec8     libucrt:lcidtoname_downlevel.obj
 0002:0000cf00       LOG_name                   0044bf00     libucrt:log10_impl.obj
 0002:0000cf10       _One                       0044bf10     libucrt:ceil_pentium4.obj
 0002:0000cf20       _Bns                       0044bf20     libucrt:ceil_pentium4.obj
 0002:0000cf30       _Zero                      0044bf30     libucrt:ceil_pentium4.obj
 0002:0000cf40       _S                         0044bf40     libucrt:ceil_pentium4.obj
 0002:0000cf50       _NegZero                   0044bf50     libucrt:ceil_pentium4.obj
 0002:0000cf70       emask                      0044bf70     libucrt:log10_pentium4.obj
 0002:0000cf80       CC                         0044bf80     libucrt:log10_pentium4.obj
 0002:0000cf90       Magic                      0044bf90     libucrt:log10_pentium4.obj
 0002:0000cfa0       hi_mask                    0044bfa0     libucrt:log10_pentium4.obj
 0002:0000cfb0       LOG10_2                    0044bfb0     libucrt:log10_pentium4.obj
 0002:0000cfc0       place_L                    0044bfc0     libucrt:log10_pentium4.obj
 0002:0000cfe0       One                        0044bfe0     libucrt:log10_pentium4.obj
 0002:0000cff0       Zero                       0044bff0     libucrt:log10_pentium4.obj
 0002:0000d000       Two52                      0044c000     libucrt:log10_pentium4.obj
 0002:0000d010       Infs                       0044c010     libucrt:log10_pentium4.obj
 0002:0000d020       NaN                        0044c020     libucrt:log10_pentium4.obj
 0002:0000d030       coeff                      0044c030     libucrt:log10_pentium4.obj
 0002:0000fbd0       __ehfuncinfo$??0_Locinfo@std@@QAE@PBD@Z 0044ebd0     TServerSystem:TServerSystem.obj
 0002:0000fbf4       __unwindtable$??0_Locinfo@std@@QAE@PBD@Z 0044ebf4     TServerSystem:TServerSystem.obj
 0002:0000fc2c       __ehfuncinfo$?write_double_translated_ansi_nolock@@YA?AUwrite_result@?A0x17268360@@HQBDIAAV__crt_cached_ptd_host@@@Z 0044ec2c     libucrt:write.obj
 0002:0000fc2c       __ehfuncinfo$?_mbstowcs_l_helper@@YAIPA_WPBDIAAV__crt_cached_ptd_host@@@Z 0044ec2c     libucrt:mbstowcs.obj
 0002:0000fc2c       __ehfuncinfo$?try_cor_exit_process@@YAXI@Z 0044ec2c     libucrt:exit.obj
 0002:0000fc2c       __ehfuncinfo$??1CTUser@@UAE@XZ 0044ec2c     TUser.obj
 0002:0000fc2c       __ehfuncinfo$?__scrt_initialize_thread_safe_statics_platform_specific@@YAXXZ 0044ec2c     LIBCMT:thread_safe_statics.obj
 0002:0000fc2c       __ehfuncinfo$??1_Sentry_base@?$basic_ostream@DU?$char_traits@D@std@@@std@@QAE@XZ 0044ec2c     TServerSystem:TServerSystem.obj
 0002:0000fc2c       __ehfuncinfo$?clear@?$_Tree@V?$_Tmap_traits@EPAUtagTGROUP@@U?$less@E@std@@V?$allocator@U?$pair@$$CBEPAUtagTGROUP@@@std@@@3@$0A@@std@@@std@@QAEXXZ 0044ec2c     TLoginSvr.obj
 0002:0000fc2c       __ehfuncinfo$??1_Sentry_base@?$basic_istream@DU?$char_traits@D@std@@@std@@QAE@XZ 0044ec2c     mailer.obj
 0002:0000fc2c       __ehfuncinfo$??1_Init_atexit@@QAE@XZ 0044ec2c     libcpmt:iosptrs.obj
 0002:0000fc2c       __ehfuncinfo$?clear@?$_Tree@V?$_Tmap_traits@KPAVCTUser@@U?$less@K@std@@V?$allocator@U?$pair@$$CBKPAVCTUser@@@std@@@3@$0A@@std@@@std@@QAEXXZ 0044ec2c     TLoginSvr.obj
 0002:0000fc2c       __ehfuncinfo$??1_Locinfo@std@@QAE@XZ 0044ec2c     TServerSystem:TServerSystem.obj
 0002:0000fc2c       __ehfuncinfo$?clear@?$_Tree@V?$_Tmap_traits@KKU?$less@K@std@@V?$allocator@U?$pair@$$CBKK@std@@@2@$0A@@std@@@std@@QAEXXZ 0044ec2c     TLoginSvr.obj
 0002:0000fc2c       __ehfuncinfo$??1CSqlQuery@@UAE@XZ 0044ec2c     TNetLib:SqlQuery.obj
 0002:0000fc2c       __ehfuncinfo$??1_Locimp@locale@std@@MAE@XZ 0044ec2c     libcpmt:locale0.obj
 0002:0000fc2c       __ehfuncinfo$??1CSession@@UAE@XZ 0044ec2c     TNetLib:Session.obj
 0002:0000fc2c       __ehfuncinfo$??1_Fac_node@std@@QAE@XZ 0044ec2c     libcpmt:locale0.obj
 0002:0000fc2c       __ehfuncinfo$??1locale@std@@QAE@XZ 0044ec2c     TServerSystem:TServerSystem.obj
 0002:0000fc2c       __ehfuncinfo$??1tagEVENTINFO@@QAE@XZ 0044ec2c     CSHandler.obj
 0002:0000fc50       __ehfuncinfo$??0_System_error@std@@IAE@Verror_code@1@ABV?$basic_string@DU?$char_traits@D@std@@V?$allocator@D@2@@1@@Z 0044ec50     TServerSystem:TServerSystem.obj
 0002:0000fc74       __unwindtable$??0_System_error@std@@IAE@Verror_code@1@ABV?$basic_string@DU?$char_traits@D@std@@V?$allocator@D@2@@1@@Z 0044ec74     TServerSystem:TServerSystem.obj
 0002:0000fc84       __ehfuncinfo$??0failure@ios_base@std@@QAE@PBDABVerror_code@2@@Z 0044ec84     TServerSystem:TServerSystem.obj
 0002:0000fca8       __unwindtable$??0failure@ios_base@std@@QAE@PBDABVerror_code@2@@Z 0044eca8     TServerSystem:TServerSystem.obj
 0002:0000fcb0       __ehfuncinfo$??1?$basic_ios@DU?$char_traits@D@std@@@std@@UAE@XZ 0044ecb0     TServerSystem:TServerSystem.obj
 0002:0000fcb0       __ehfuncinfo$??_D?$basic_ostream@DU?$char_traits@D@std@@@std@@QAEXXZ 0044ecb0     TServerSystem:TServerSystem.obj
 0002:0000fcb0       __ehfuncinfo$??_G?$basic_streambuf@DU?$char_traits@D@std@@@std@@UAEPAXI@Z 0044ecb0     TServerSystem:TServerSystem.obj
 0002:0000fcb0       __ehfuncinfo$??1?$basic_filebuf@DU?$char_traits@D@std@@@std@@UAE@XZ 0044ecb0     TServerSystem:TServerSystem.obj
 0002:0000fcb0       __ehfuncinfo$??_Gios_base@std@@UAEPAXI@Z 0044ecb0     TServerSystem:TServerSystem.obj
 0002:0000fcb0       __ehfuncinfo$??_G?$basic_ios@DU?$char_traits@D@std@@@std@@UAEPAXI@Z 0044ecb0     TServerSystem:TServerSystem.obj
 0002:0000fcb0       __ehfuncinfo$??1sentry@?$basic_ostream@DU?$char_traits@D@std@@@std@@QAE@XZ 0044ecb0     TServerSystem:TServerSystem.obj
 0002:0000fcb0       __ehfuncinfo$??_G?$basic_ostream@DU?$char_traits@D@std@@@std@@UAEPAXI@Z 0044ecb0     TServerSystem:TServerSystem.obj
 0002:0000fcd4       __unwindtable$??1?$basic_filebuf@DU?$char_traits@D@std@@@std@@UAE@XZ 0044ecd4     TServerSystem:TServerSystem.obj
 0002:0000fcd4       __unwindtable$??_G?$basic_ios@DU?$char_traits@D@std@@@std@@UAEPAXI@Z 0044ecd4     TServerSystem:TServerSystem.obj
 0002:0000fcd4       __unwindtable$??_Gios_base@std@@UAEPAXI@Z 0044ecd4     TServerSystem:TServerSystem.obj
 0002:0000fcd4       __unwindtable$??1?$basic_ios@DU?$char_traits@D@std@@@std@@UAE@XZ 0044ecd4     TServerSystem:TServerSystem.obj
 0002:0000fcd4       __unwindtable$??_G?$basic_streambuf@DU?$char_traits@D@std@@@std@@UAEPAXI@Z 0044ecd4     TServerSystem:TServerSystem.obj
 0002:0000fcd4       __unwindtable$??1sentry@?$basic_ostream@DU?$char_traits@D@std@@@std@@QAE@XZ 0044ecd4     TServerSystem:TServerSystem.obj
 0002:0000fcd4       __unwindtable$??_D?$basic_ostream@DU?$char_traits@D@std@@@std@@QAEXXZ 0044ecd4     TServerSystem:TServerSystem.obj
 0002:0000fcd4       __unwindtable$??_G?$basic_ostream@DU?$char_traits@D@std@@@std@@UAEPAXI@Z 0044ecd4     TServerSystem:TServerSystem.obj
 0002:0000fce0       __ehfuncinfo$??0TServerSystem@@QAE@V?$basic_string@DU?$char_traits@D@std@@V?$allocator@D@2@@std@@0@Z 0044ece0     TServerSystem:TServerSystem.obj
 0002:0000fd08       __unwindtable$??0TServerSystem@@QAE@V?$basic_string@DU?$char_traits@D@std@@V?$allocator@D@2@@std@@0@Z 0044ed08     TServerSystem:TServerSystem.obj
 0002:0000fd68       __ehfuncinfo$?SSLogError@TServerSystem@@IAEXV?$basic_string@DU?$char_traits@D@std@@V?$allocator@D@2@@std@@H@Z 0044ed68     TServerSystem:TServerSystem.obj
 0002:0000fd68       __ehfuncinfo$?SSLogInfo@TServerSystem@@IAEXV?$basic_string@DU?$char_traits@D@std@@V?$allocator@D@2@@std@@H@Z 0044ed68     TServerSystem:TServerSystem.obj
 0002:0000fd8c       __unwindtable$?SSLogInfo@TServerSystem@@IAEXV?$basic_string@DU?$char_traits@D@std@@V?$allocator@D@2@@std@@H@Z 0044ed8c     TServerSystem:TServerSystem.obj
 0002:0000fd8c       __unwindtable$?SSLogError@TServerSystem@@IAEXV?$basic_string@DU?$char_traits@D@std@@V?$allocator@D@2@@std@@H@Z 0044ed8c     TServerSystem:TServerSystem.obj
 0002:0000fd94       __ehfuncinfo$?DisplayIni@TServerSystem@@IAEXXZ 0044ed94     TServerSystem:TServerSystem.obj
 0002:0000fdb8       __unwindtable$?DisplayIni@TServerSystem@@IAEXXZ 0044edb8     TServerSystem:TServerSystem.obj
 0002:0000fdc8       __ehfuncinfo$?LoadIntFromIni@TServerSystem@@IAEXV?$basic_string@DU?$char_traits@D@std@@V?$allocator@D@2@@std@@HAAH@Z 0044edc8     TServerSystem:TServerSystem.obj
 0002:0000fdec       __unwindtable$?LoadIntFromIni@TServerSystem@@IAEXV?$basic_string@DU?$char_traits@D@std@@V?$allocator@D@2@@std@@HAAH@Z 0044edec     TServerSystem:TServerSystem.obj
 0002:0000fe1c       __ehfuncinfo$?LoadStringFromIni@TServerSystem@@IAEXV?$basic_string@DU?$char_traits@D@std@@V?$allocator@D@2@@std@@0AAV23@@Z 0044ee1c     TServerSystem:TServerSystem.obj
 0002:0000fe40       __unwindtable$?LoadStringFromIni@TServerSystem@@IAEXV?$basic_string@DU?$char_traits@D@std@@V?$allocator@D@2@@std@@0AAV23@@Z 0044ee40     TServerSystem:TServerSystem.obj
 0002:0000fe60       __ehfuncinfo$??0?$vector@V?$basic_string@DU?$char_traits@D@std@@V?$allocator@D@2@@std@@V?$allocator@V?$basic_string@DU?$char_traits@D@std@@V?$allocator@D@2@@std@@@2@@std@@QAE@ABV01@@Z 0044ee60     TServerSystem:TServerSystem.obj
 0002:0000fe84       __unwindtable$??0?$vector@V?$basic_string@DU?$char_traits@D@std@@V?$allocator@D@2@@std@@V?$allocator@V?$basic_string@DU?$char_traits@D@std@@V?$allocator@D@2@@std@@@2@@std@@QAE@ABV01@@Z 0044ee84     TServerSystem:TServerSystem.obj
 0002:0000fe9c       __tryblocktable$??0?$vector@V?$basic_string@DU?$char_traits@D@std@@V?$allocator@D@2@@std@@V?$allocator@V?$basic_string@DU?$char_traits@D@std@@V?$allocator@D@2@@std@@@2@@std@@QAE@ABV01@@Z 0044ee9c     TServerSystem:TServerSystem.obj
 0002:0000feb0       __catchsym$??0?$vector@V?$basic_string@DU?$char_traits@D@std@@V?$allocator@D@2@@std@@V?$allocator@V?$basic_string@DU?$char_traits@D@std@@V?$allocator@D@2@@std@@@2@@std@@QAE@ABV01@@Z$3 0044eeb0     TServerSystem:TServerSystem.obj
 0002:0000fec0       __ehfuncinfo$?uflow@?$basic_filebuf@DU?$char_traits@D@std@@@std@@MAEHXZ 0044eec0     TServerSystem:TServerSystem.obj
 0002:0000fee4       __unwindtable$?uflow@?$basic_filebuf@DU?$char_traits@D@std@@@std@@MAEHXZ 0044eee4     TServerSystem:TServerSystem.obj
 0002:0000feec       __ehfuncinfo$??0sentry@?$basic_ostream@DU?$char_traits@D@std@@@std@@QAE@AAV12@@Z 0044eeec     TServerSystem:TServerSystem.obj
 0002:0000ff10       __unwindtable$??0sentry@?$basic_ostream@DU?$char_traits@D@std@@@std@@QAE@AAV12@@Z 0044ef10     TServerSystem:TServerSystem.obj
 0002:0000ff18       __ehfuncinfo$??0?$basic_ostream@DU?$char_traits@D@std@@@std@@QAE@PAV?$basic_streambuf@DU?$char_traits@D@std@@@1@_N@Z 0044ef18     TServerSystem:TServerSystem.obj
 0002:0000ff3c       __unwindtable$??0?$basic_ostream@DU?$char_traits@D@std@@@std@@QAE@PAV?$basic_streambuf@DU?$char_traits@D@std@@@1@_N@Z 0044ef3c     TServerSystem:TServerSystem.obj
 0002:0000ff4c       __ehfuncinfo$?flush@?$basic_ostream@DU?$char_traits@D@std@@@std@@QAEAAV12@XZ 0044ef4c     TServerSystem:TServerSystem.obj
 0002:0000ff70       __unwindtable$?flush@?$basic_ostream@DU?$char_traits@D@std@@@std@@QAEAAV12@XZ 0044ef70     TServerSystem:TServerSystem.obj
 0002:0000ff88       __ehfuncinfo$?_Osfx@?$basic_ostream@DU?$char_traits@D@std@@@std@@QAEXXZ 0044ef88     TServerSystem:TServerSystem.obj
 0002:0000ffac       __unwindtable$?_Osfx@?$basic_ostream@DU?$char_traits@D@std@@@std@@QAEXXZ 0044efac     TServerSystem:TServerSystem.obj
 0002:0000ffbc       __tryblocktable$?_Osfx@?$basic_ostream@DU?$char_traits@D@std@@@std@@QAEXXZ 0044efbc     TServerSystem:TServerSystem.obj
 0002:0000ffd0       __catchsym$?_Osfx@?$basic_ostream@DU?$char_traits@D@std@@@std@@QAEXXZ$2 0044efd0     TServerSystem:TServerSystem.obj
 0002:0000ffe0       __ehfuncinfo$?_Tidy@?$_Tree@V?$_Tmap_traits@UEntry@?$CSimpleIniTempl@DU?$SI_NoCase@D@@V?$SI_ConvertA@D@@@@PBDUKeyOrder@12@V?$allocator@U?$pair@$$CBUEntry@?$CSimpleIniTempl@DU?$SI_NoCase@D@@V?$SI_ConvertA@D@@@@PBD@std@@@std@@$00@std@@@std@@IAEXXZ 0044efe0     TServerSystem:TServerSystem.obj
 0002:0000ffe0       __ehfuncinfo$??0?$basic_streambuf@DU?$char_traits@D@std@@@std@@IAE@XZ 0044efe0     TServerSystem:TServerSystem.obj
 0002:0000ffe0       __ehfuncinfo$?erase@?$_Tree@V?$_Tmap_traits@UEntry@?$CSimpleIniTempl@DU?$SI_NoCase@D@@V?$SI_ConvertA@D@@@@V?$multimap@UEntry@?$CSimpleIniTempl@DU?$SI_NoCase@D@@V?$SI_ConvertA@D@@@@PBDUKeyOrder@12@V?$allocator@U?$pair@$$CBUEntry@?$CSimpleIniTempl@DU?$SI_NoCase@D@@V?$SI_ConvertA@D@@@@PBD@std@@@std@@@std@@UKeyOrder@12@V?$allocator@U?$pair@$$CBUEntry@?$CSimpleIniTempl@DU?$SI_NoCase@D@@V?$SI_ConvertA@D@@@@V?$multimap@UEntry@?$CSimpleIniTempl@DU?$SI_NoCase@D@@V?$SI_ConvertA@D@@@@PBDUKeyOrder@12@V?$allocator@U?$pair@$$CBUEntry@?$CSimpleIniTempl@DU?$SI_NoCase@D@@V?$SI_ConvertA@D@@@@PBD@std@@@std@@@std@@@std@@@4@$0A@@std@@@std@@QAE?AV?$_Tree_iterator@V?$_Tree_val@U?$_Tree_simple_types@U?$pair@$$CBUEntry@?$CSimpleIniTempl@DU?$SI_NoCase@D@@V?$SI_ConvertA@D@@@@V?$multimap@UEntry@?$CSimpleIniTempl@DU?$SI_NoCase@D@@V?$SI_ConvertA@D@@@@PBDUKeyOrder@12@V?$allocator@U?$pair@$$CBUEntry@?$CSimpleIniTempl@DU?$SI_NoCase@D@@V?$SI_ConvertA@D@@@@PBD@std@@@std@@@std@@@std@@@std@@@std@@@2@V?$_Tree_const_iterator@V?$_Tree_val@U?$_Tree_simple_types@U?$pair@$$CBUEntry@?$CSimpleIniTempl@DU?$SI_NoCase@D@@V?$SI_ConvertA@D@@@@V?$multimap@UEntry@?$CSimpleIniTempl@DU?$SI_NoCase@D@@V?$SI_ConvertA@D@@@@PBDUKeyOrder@12@V?$allocator@U?$pair@$$CBUEntry@?$CSimpleIniTempl@DU?$SI_NoCase@D@@V?$SI_ConvertA@D@@@@PBD@std@@@std@@@std@@@std@@@std@@@std@@@2@0@Z 0044efe0     TServerSystem:TServerSystem.obj
 0002:00010004       __unwindtable$??0?$basic_streambuf@DU?$char_traits@D@std@@@std@@IAE@XZ 0044f004     TServerSystem:TServerSystem.obj
 0002:00010004       __unwindtable$?_Tidy@?$_Tree@V?$_Tmap_traits@UEntry@?$CSimpleIniTempl@DU?$SI_NoCase@D@@V?$SI_ConvertA@D@@@@PBDUKeyOrder@12@V?$allocator@U?$pair@$$CBUEntry@?$CSimpleIniTempl@DU?$SI_NoCase@D@@V?$SI_ConvertA@D@@@@PBD@std@@@std@@$00@std@@@std@@IAEXXZ 0044f004     TServerSystem:TServerSystem.obj
 0002:00010004       __unwindtable$?erase@?$_Tree@V?$_Tmap_traits@UEntry@?$CSimpleIniTempl@DU?$SI_NoCase@D@@V?$SI_ConvertA@D@@@@V?$multimap@UEntry@?$CSimpleIniTempl@DU?$SI_NoCase@D@@V?$SI_ConvertA@D@@@@PBDUKeyOrder@12@V?$allocator@U?$pair@$$CBUEntry@?$CSimpleIniTempl@DU?$SI_NoCase@D@@V?$SI_ConvertA@D@@@@PBD@std@@@std@@@std@@UKeyOrder@12@V?$allocator@U?$pair@$$CBUEntry@?$CSimpleIniTempl@DU?$SI_NoCase@D@@V?$SI_ConvertA@D@@@@V?$multimap@UEntry@?$CSimpleIniTempl@DU?$SI_NoCase@D@@V?$SI_ConvertA@D@@@@PBDUKeyOrder@12@V?$allocator@U?$pair@$$CBUEntry@?$CSimpleIniTempl@DU?$SI_NoCase@D@@V?$SI_ConvertA@D@@@@PBD@std@@@std@@@std@@@std@@@4@$0A@@std@@@std@@QAE?AV?$_Tree_iterator@V?$_Tree_val@U?$_Tree_simple_types@U?$pair@$$CBUEntry@?$CSimpleIniTempl@DU?$SI_NoCase@D@@V?$SI_ConvertA@D@@@@V?$multimap@UEntry@?$CSimpleIniTempl@DU?$SI_NoCase@D@@V?$SI_ConvertA@D@@@@PBDUKeyOrder@12@V?$allocator@U?$pair@$$CBUEntry@?$CSimpleIniTempl@DU?$SI_NoCase@D@@V?$SI_ConvertA@D@@@@PBD@std@@@std@@@std@@@std@@@std@@@std@@@2@V?$_Tree_const_iterator@V?$_Tree_val@U?$_Tree_simple_types@U?$pair@$$CBUEntry@?$CSimpleIniTempl@DU?$SI_NoCase@D@@V?$SI_ConvertA@D@@@@V?$multimap@UEntry@?$CSimpleIniTempl@DU?$SI_NoCase@D@@V?$SI_ConvertA@D@@@@PBDUKeyOrder@12@V?$allocator@U?$pair@$$CBUEntry@?$CSimpleIniTempl@DU?$SI_NoCase@D@@V?$SI_ConvertA@D@@@@PBD@std@@@std@@@std@@@std@@@std@@@std@@@2@0@Z 0044f004     TServerSystem:TServerSystem.obj
 0002:0001000c       __ehfuncinfo$?widen@?$basic_ios@DU?$char_traits@D@std@@@std@@QBEDD@Z 0044f00c     TServerSystem:TServerSystem.obj
 0002:00010030       __unwindtable$?widen@?$basic_ios@DU?$char_traits@D@std@@@std@@QBEDD@Z 0044f030     TServerSystem:TServerSystem.obj
 0002:00010048       __ehfuncinfo$??$use_facet@V?$ctype@D@std@@@std@@YAABV?$ctype@D@0@ABVlocale@0@@Z 0044f048     TServerSystem:TServerSystem.obj
 0002:0001006c       __unwindtable$??$use_facet@V?$ctype@D@std@@@std@@YAABV?$ctype@D@0@ABVlocale@0@@Z 0044f06c     TServerSystem:TServerSystem.obj
 0002:00010084       __ehfuncinfo$??$?HDU?$char_traits@D@std@@V?$allocator@D@1@@std@@YA?AV?$basic_string@DU?$char_traits@D@std@@V?$allocator@D@2@@0@ABV10@QBD@Z 0044f084     TServerSystem:TServerSystem.obj
 0002:000100a8       __unwindtable$??$?HDU?$char_traits@D@std@@V?$allocator@D@1@@std@@YA?AV?$basic_string@DU?$char_traits@D@std@@V?$allocator@D@2@@0@ABV10@QBD@Z 0044f0a8     TServerSystem:TServerSystem.obj
 0002:000100b0       __ehfuncinfo$??$?HDU?$char_traits@D@std@@V?$allocator@D@1@@std@@YA?AV?$basic_string@DU?$char_traits@D@std@@V?$allocator@D@2@@0@QBDABV10@@Z 0044f0b0     TServerSystem:TServerSystem.obj
 0002:000100d4       __unwindtable$??$?HDU?$char_traits@D@std@@V?$allocator@D@1@@std@@YA?AV?$basic_string@DU?$char_traits@D@std@@V?$allocator@D@2@@0@QBDABV10@@Z 0044f0d4     TServerSystem:TServerSystem.obj
 0002:000100dc       __ehfuncinfo$??$?6U?$char_traits@D@std@@@std@@YAAAV?$basic_ostream@DU?$char_traits@D@std@@@0@AAV10@PBD@Z 0044f0dc     TServerSystem:TServerSystem.obj
 0002:00010100       __unwindtable$??$?6U?$char_traits@D@std@@@std@@YAAAV?$basic_ostream@DU?$char_traits@D@std@@@0@AAV10@PBD@Z 0044f100     TServerSystem:TServerSystem.obj
 0002:00010130       __tryblocktable$??$?6U?$char_traits@D@std@@@std@@YAAAV?$basic_ostream@DU?$char_traits@D@std@@@0@AAV10@PBD@Z 0044f130     TServerSystem:TServerSystem.obj
 0002:00010144       __catchsym$??$?6U?$char_traits@D@std@@@std@@YAAAV?$basic_ostream@DU?$char_traits@D@std@@@0@AAV10@PBD@Z$6 0044f144     TServerSystem:TServerSystem.obj
 0002:00010154       __ehfuncinfo$??$_Emplace_reallocate@ABV?$vector@V?$basic_string@DU?$char_traits@D@std@@V?$allocator@D@2@@std@@V?$allocator@V?$basic_string@DU?$char_traits@D@std@@V?$allocator@D@2@@std@@@2@@std@@@?$vector@V?$vector@V?$basic_string@DU?$char_traits@D@std@@V?$allocator@D@2@@std@@V?$allocator@V?$basic_string@DU?$char_traits@D@std@@V?$allocator@D@2@@std@@@2@@std@@V?$allocator@V?$vector@V?$basic_string@DU?$char_traits@D@std@@V?$allocator@D@2@@std@@V?$allocator@V?$basic_string@DU?$char_traits@D@std@@V?$allocator@D@2@@std@@@2@@std@@@2@@std@@QAEPAV?$vector@V?$basic_string@DU?$char_traits@D@std@@V?$allocator@D@2@@std@@V?$allocator@V?$basic_string@DU?$char_traits@D@std@@V?$allocator@D@2@@std@@@2@@1@QAV21@ABV21@@Z 0044f154     TServerSystem:TServerSystem.obj
 0002:00010178       __unwindtable$??$_Emplace_reallocate@ABV?$vector@V?$basic_string@DU?$char_traits@D@std@@V?$allocator@D@2@@std@@V?$allocator@V?$basic_string@DU?$char_traits@D@std@@V?$allocator@D@2@@std@@@2@@std@@@?$vector@V?$vector@V?$basic_string@DU?$char_traits@D@std@@V?$allocator@D@2@@std@@V?$allocator@V?$basic_string@DU?$char_traits@D@std@@V?$allocator@D@2@@std@@@2@@std@@V?$allocator@V?$vector@V?$basic_string@DU?$char_traits@D@std@@V?$allocator@D@2@@std@@V?$allocator@V?$basic_string@DU?$char_traits@D@std@@V?$allocator@D@2@@std@@@2@@std@@@2@@std@@QAEPAV?$vector@V?$basic_string@DU?$char_traits@D@std@@V?$allocator@D@2@@std@@V?$allocator@V?$basic_string@DU?$char_traits@D@std@@V?$allocator@D@2@@std@@@2@@1@QAV21@ABV21@@Z 0044f178     TServerSystem:TServerSystem.obj
 0002:00010188       __tryblocktable$??$_Emplace_reallocate@ABV?$vector@V?$basic_string@DU?$char_traits@D@std@@V?$allocator@D@2@@std@@V?$allocator@V?$basic_string@DU?$char_traits@D@std@@V?$allocator@D@2@@std@@@2@@std@@@?$vector@V?$vector@V?$basic_string@DU?$char_traits@D@std@@V?$allocator@D@2@@std@@V?$allocator@V?$basic_string@DU?$char_traits@D@std@@V?$allocator@D@2@@std@@@2@@std@@V?$allocator@V?$vector@V?$basic_string@DU?$char_traits@D@std@@V?$allocator@D@2@@std@@V?$allocator@V?$basic_string@DU?$char_traits@D@std@@V?$allocator@D@2@@std@@@2@@std@@@2@@std@@QAEPAV?$vector@V?$basic_string@DU?$char_traits@D@std@@V?$allocator@D@2@@std@@V?$allocator@V?$basic_string@DU?$char_traits@D@std@@V?$allocator@D@2@@std@@@2@@1@QAV21@ABV21@@Z 0044f188     TServerSystem:TServerSystem.obj
 0002:0001019c       __catchsym$??$_Emplace_reallocate@ABV?$vector@V?$basic_string@DU?$char_traits@D@std@@V?$allocator@D@2@@std@@V?$allocator@V?$basic_string@DU?$char_traits@D@std@@V?$allocator@D@2@@std@@@2@@std@@@?$vector@V?$vector@V?$basic_string@DU?$char_traits@D@std@@V?$allocator@D@2@@std@@V?$allocator@V?$basic_string@DU?$char_traits@D@std@@V?$allocator@D@2@@std@@@2@@std@@V?$allocator@V?$vector@V?$basic_string@DU?$char_traits@D@std@@V?$allocator@D@2@@std@@V?$allocator@V?$basic_string@DU?$char_traits@D@std@@V?$allocator@D@2@@std@@@2@@std@@@2@@std@@QAEPAV?$vector@V?$basic_string@DU?$char_traits@D@std@@V?$allocator@D@2@@std@@V?$allocator@V?$basic_string@DU?$char_traits@D@std@@V?$allocator@D@2@@std@@@2@@1@QAV21@ABV21@@Z$2 0044f19c     TServerSystem:TServerSystem.obj
 0002:000101ac       __ehfuncinfo$??$_Emplace_reallocate@ABV?$basic_string@DU?$char_traits@D@std@@V?$allocator@D@2@@std@@@?$vector@V?$basic_string@DU?$char_traits@D@std@@V?$allocator@D@2@@std@@V?$allocator@V?$basic_string@DU?$char_traits@D@std@@V?$allocator@D@2@@std@@@2@@std@@QAEPAV?$basic_string@DU?$char_traits@D@std@@V?$allocator@D@2@@1@QAV21@ABV21@@Z 0044f1ac     TServerSystem:TServerSystem.obj
 0002:000101d0       __unwindtable$??$_Emplace_reallocate@ABV?$basic_string@DU?$char_traits@D@std@@V?$allocator@D@2@@std@@@?$vector@V?$basic_string@DU?$char_traits@D@std@@V?$allocator@D@2@@std@@V?$allocator@V?$basic_string@DU?$char_traits@D@std@@V?$allocator@D@2@@std@@@2@@std@@QAEPAV?$basic_string@DU?$char_traits@D@std@@V?$allocator@D@2@@1@QAV21@ABV21@@Z 0044f1d0     TServerSystem:TServerSystem.obj
 0002:000101e0       __tryblocktable$??$_Emplace_reallocate@ABV?$basic_string@DU?$char_traits@D@std@@V?$allocator@D@2@@std@@@?$vector@V?$basic_string@DU?$char_traits@D@std@@V?$allocator@D@2@@std@@V?$allocator@V?$basic_string@DU?$char_traits@D@std@@V?$allocator@D@2@@std@@@2@@std@@QAEPAV?$basic_string@DU?$char_traits@D@std@@V?$allocator@D@2@@1@QAV21@ABV21@@Z 0044f1e0     TServerSystem:TServerSystem.obj
 0002:000101f4       __catchsym$??$_Emplace_reallocate@ABV?$basic_string@DU?$char_traits@D@std@@V?$allocator@D@2@@std@@@?$vector@V?$basic_string@DU?$char_traits@D@std@@V?$allocator@D@2@@std@@V?$allocator@V?$basic_string@DU?$char_traits@D@std@@V?$allocator@D@2@@std@@@2@@std@@QAEPAV?$basic_string@DU?$char_traits@D@std@@V?$allocator@D@2@@1@QAV21@ABV21@@Z$2 0044f1f4     TServerSystem:TServerSystem.obj
 0002:00010204       __ehfuncinfo$??$use_facet@V?$codecvt@DDU_Mbstatet@@@std@@@std@@YAABV?$codecvt@DDU_Mbstatet@@@0@ABVlocale@0@@Z 0044f204     TServerSystem:TServerSystem.obj
 0002:00010228       __unwindtable$??$use_facet@V?$codecvt@DDU_Mbstatet@@@std@@@std@@YAABV?$codecvt@DDU_Mbstatet@@@0@ABVlocale@0@@Z 0044f228     TServerSystem:TServerSystem.obj
 0002:00010240       __ehfuncinfo$?put@?$basic_ostream@DU?$char_traits@D@std@@@std@@QAEAAV12@D@Z 0044f240     TServerSystem:TServerSystem.obj
 0002:00010264       __unwindtable$?put@?$basic_ostream@DU?$char_traits@D@std@@@std@@QAEAAV12@D@Z 0044f264     TServerSystem:TServerSystem.obj
 0002:00010294       __tryblocktable$?put@?$basic_ostream@DU?$char_traits@D@std@@@std@@QAEAAV12@D@Z 0044f294     TServerSystem:TServerSystem.obj
 0002:000102a8       __catchsym$?put@?$basic_ostream@DU?$char_traits@D@std@@@std@@QAEAAV12@D@Z$6 0044f2a8     TServerSystem:TServerSystem.obj
 0002:000102b8       __ehfuncinfo$??$_Insert_string@DU?$char_traits@D@std@@I@std@@YAAAV?$basic_ostream@DU?$char_traits@D@std@@@0@AAV10@QBDI@Z 0044f2b8     TServerSystem:TServerSystem.obj
 0002:000102dc       __unwindtable$??$_Insert_string@DU?$char_traits@D@std@@I@std@@YAAAV?$basic_ostream@DU?$char_traits@D@std@@@0@AAV10@QBDI@Z 0044f2dc     TServerSystem:TServerSystem.obj
 0002:0001030c       __tryblocktable$??$_Insert_string@DU?$char_traits@D@std@@I@std@@YAAAV?$basic_ostream@DU?$char_traits@D@std@@@0@AAV10@QBDI@Z 0044f30c     TServerSystem:TServerSystem.obj
 0002:00010320       __catchsym$??$_Insert_string@DU?$char_traits@D@std@@I@std@@YAAAV?$basic_ostream@DU?$char_traits@D@std@@@0@AAV10@QBDI@Z$6 0044f320     TServerSystem:TServerSystem.obj
 0002:00010330       __ehfuncinfo$?AddEntry@?$CSimpleIniTempl@DU?$SI_NoCase@D@@V?$SI_ConvertA@D@@@@AAE?AW4SI_Error@@PBD000_N1@Z 0044f330     TServerSystem:TServerSystem.obj
 0002:00010354       __unwindtable$?AddEntry@?$CSimpleIniTempl@DU?$SI_NoCase@D@@V?$SI_ConvertA@D@@@@AAE?AW4SI_Error@@PBD000_N1@Z 0044f354     TServerSystem:TServerSystem.obj
 0002:0001036c       __ehfuncinfo$??$_Buynode@AAU?$pair@$$CBUEntry@?$CSimpleIniTempl@DU?$SI_NoCase@D@@V?$SI_ConvertA@D@@@@V?$multimap@UEntry@?$CSimpleIniTempl@DU?$SI_NoCase@D@@V?$SI_ConvertA@D@@@@PBDUKeyOrder@12@V?$allocator@U?$pair@$$CBUEntry@?$CSimpleIniTempl@DU?$SI_NoCase@D@@V?$SI_ConvertA@D@@@@PBD@std@@@std@@@std@@@std@@@?$_Tree_comp_alloc@V?$_Tmap_traits@UEntry@?$CSimpleIniTempl@DU?$SI_NoCase@D@@V?$SI_ConvertA@D@@@@V?$multimap@UEntry@?$CSimpleIniTempl@DU?$SI_NoCase@D@@V?$SI_ConvertA@D@@@@PBDUKeyOrder@12@V?$allocator@U?$pair@$$CBUEntry@?$CSimpleIniTempl@DU?$SI_NoCase@D@@V?$SI_ConvertA@D@@@@PBD@std@@@std@@@std@@UKeyOrder@12@V?$allocator@U?$pair@$$CBUEntry@?$CSimpleIniTempl@DU?$SI_NoCase@D@@V?$SI_ConvertA@D@@@@V?$multimap@UEntry@?$CSimpleIniTempl@DU?$SI_NoCase@D@@V?$SI_ConvertA@D@@@@PBDUKeyOrder@12@V?$allocator@U?$pair@$$CBUEntry@?$CSimpleIniTempl@DU?$SI_NoCase@D@@V?$SI_ConvertA@D@@@@PBD@std@@@std@@@std@@@std@@@4@$0A@@std@@@std@@QAEPAU?$_Tree_node@U?$pair@$$CBUEntry@?$CSimpleIniTempl@DU?$SI_NoCase@D@@V?$SI_ConvertA@D@@@@V?$multimap@UEntry@?$CSimpleIniTempl@DU?$SI_NoCase@D@@V?$SI_ConvertA@D@@@@PBDUKeyOrder@12@V?$allocator@U?$pair@$$CBUEntry@?$CSimpleIniTempl@DU?$SI_NoCase@D@@V?$SI_ConvertA@D@@@@PBD@std@@@std@@@std@@@std@@PAX@1@AAU?$pair@$$CBUEntry@?$CSimpleIniTempl@DU?$SI_NoCase@D@@V?$SI_ConvertA@D@@@@V?$multimap@UEntry@?$CSimpleIniTempl@DU?$SI_NoCase@D@@V?$SI_ConvertA@D@@@@PBDUKeyOrder@12@V?$allocator@U?$pair@$$CBUEntry@?$CSimpleIniTempl@DU?$SI_NoCase@D@@V?$SI_ConvertA@D@@@@PBD@std@@@std@@@std@@@1@@Z 0044f36c     TServerSystem:TServerSystem.obj
 0002:00010390       __unwindtable$??$_Buynode@AAU?$pair@$$CBUEntry@?$CSimpleIniTempl@DU?$SI_NoCase@D@@V?$SI_ConvertA@D@@@@V?$multimap@UEntry@?$CSimpleIniTempl@DU?$SI_NoCase@D@@V?$SI_ConvertA@D@@@@PBDUKeyOrder@12@V?$allocator@U?$pair@$$CBUEntry@?$CSimpleIniTempl@DU?$SI_NoCase@D@@V?$SI_ConvertA@D@@@@PBD@std@@@std@@@std@@@std@@@?$_Tree_comp_alloc@V?$_Tmap_traits@UEntry@?$CSimpleIniTempl@DU?$SI_NoCase@D@@V?$SI_ConvertA@D@@@@V?$multimap@UEntry@?$CSimpleIniTempl@DU?$SI_NoCase@D@@V?$SI_ConvertA@D@@@@PBDUKeyOrder@12@V?$allocator@U?$pair@$$CBUEntry@?$CSimpleIniTempl@DU?$SI_NoCase@D@@V?$SI_ConvertA@D@@@@PBD@std@@@std@@@std@@UKeyOrder@12@V?$allocator@U?$pair@$$CBUEntry@?$CSimpleIniTempl@DU?$SI_NoCase@D@@V?$SI_ConvertA@D@@@@V?$multimap@UEntry@?$CSimpleIniTempl@DU?$SI_NoCase@D@@V?$SI_ConvertA@D@@@@PBDUKeyOrder@12@V?$allocator@U?$pair@$$CBUEntry@?$CSimpleIniTempl@DU?$SI_NoCase@D@@V?$SI_ConvertA@D@@@@PBD@std@@@std@@@std@@@std@@@4@$0A@@std@@@std@@QAEPAU?$_Tree_node@U?$pair@$$CBUEntry@?$CSimpleIniTempl@DU?$SI_NoCase@D@@V?$SI_ConvertA@D@@@@V?$multimap@UEntry@?$CSimpleIniTempl@DU?$SI_NoCase@D@@V?$SI_ConvertA@D@@@@PBDUKeyOrder@12@V?$allocator@U?$pair@$$CBUEntry@?$CSimpleIniTempl@DU?$SI_NoCase@D@@V?$SI_ConvertA@D@@@@PBD@std@@@std@@@std@@@std@@PAX@1@AAU?$pair@$$CBUEntry@?$CSimpleIniTempl@DU?$SI_NoCase@D@@V?$SI_ConvertA@D@@@@V?$multimap@UEntry@?$CSimpleIniTempl@DU?$SI_NoCase@D@@V?$SI_ConvertA@D@@@@PBDUKeyOrder@12@V?$allocator@U?$pair@$$CBUEntry@?$CSimpleIniTempl@DU?$SI_NoCase@D@@V?$SI_ConvertA@D@@@@PBD@std@@@std@@@std@@@1@@Z 0044f390     TServerSystem:TServerSystem.obj
 0002:000103a0       __tryblocktable$??$_Buynode@AAU?$pair@$$CBUEntry@?$CSimpleIniTempl@DU?$SI_NoCase@D@@V?$SI_ConvertA@D@@@@V?$multimap@UEntry@?$CSimpleIniTempl@DU?$SI_NoCase@D@@V?$SI_ConvertA@D@@@@PBDUKeyOrder@12@V?$allocator@U?$pair@$$CBUEntry@?$CSimpleIniTempl@DU?$SI_NoCase@D@@V?$SI_ConvertA@D@@@@PBD@std@@@std@@@std@@@std@@@?$_Tree_comp_alloc@V?$_Tmap_traits@UEntry@?$CSimpleIniTempl@DU?$SI_NoCase@D@@V?$SI_ConvertA@D@@@@V?$multimap@UEntry@?$CSimpleIniTempl@DU?$SI_NoCase@D@@V?$SI_ConvertA@D@@@@PBDUKeyOrder@12@V?$allocator@U?$pair@$$CBUEntry@?$CSimpleIniTempl@DU?$SI_NoCase@D@@V?$SI_ConvertA@D@@@@PBD@std@@@std@@@std@@UKeyOrder@12@V?$allocator@U?$pair@$$CBUEntry@?$CSimpleIniTempl@DU?$SI_NoCase@D@@V?$SI_ConvertA@D@@@@V?$multimap@UEntry@?$CSimpleIniTempl@DU?$SI_NoCase@D@@V?$SI_ConvertA@D@@@@PBDUKeyOrder@12@V?$allocator@U?$pair@$$CBUEntry@?$CSimpleIniTempl@DU?$SI_NoCase@D@@V?$SI_ConvertA@D@@@@PBD@std@@@std@@@std@@@std@@@4@$0A@@std@@@std@@QAEPAU?$_Tree_node@U?$pair@$$CBUEntry@?$CSimpleIniTempl@DU?$SI_NoCase@D@@V?$SI_ConvertA@D@@@@V?$multimap@UEntry@?$CSimpleIniTempl@DU?$SI_NoCase@D@@V?$SI_ConvertA@D@@@@PBDUKeyOrder@12@V?$allocator@U?$pair@$$CBUEntry@?$CSimpleIniTempl@DU?$SI_NoCase@D@@V?$SI_ConvertA@D@@@@PBD@std@@@std@@@std@@@std@@PAX@1@AAU?$pair@$$CBUEntry@?$CSimpleIniTempl@DU?$SI_NoCase@D@@V?$SI_ConvertA@D@@@@V?$multimap@UEntry@?$CSimpleIniTempl@DU?$SI_NoCase@D@@V?$SI_ConvertA@D@@@@PBDUKeyOrder@12@V?$allocator@U?$pair@$$CBUEntry@?$CSimpleIniTempl@DU?$SI_NoCase@D@@V?$SI_ConvertA@D@@@@PBD@std@@@std@@@std@@@1@@Z 0044f3a0     TServerSystem:TServerSystem.obj
 0002:000103b4       __catchsym$??$_Buynode@AAU?$pair@$$CBUEntry@?$CSimpleIniTempl@DU?$SI_NoCase@D@@V?$SI_ConvertA@D@@@@V?$multimap@UEntry@?$CSimpleIniTempl@DU?$SI_NoCase@D@@V?$SI_ConvertA@D@@@@PBDUKeyOrder@12@V?$allocator@U?$pair@$$CBUEntry@?$CSimpleIniTempl@DU?$SI_NoCase@D@@V?$SI_ConvertA@D@@@@PBD@std@@@std@@@std@@@std@@@?$_Tree_comp_alloc@V?$_Tmap_traits@UEntry@?$CSimpleIniTempl@DU?$SI_NoCase@D@@V?$SI_ConvertA@D@@@@V?$multimap@UEntry@?$CSimpleIniTempl@DU?$SI_NoCase@D@@V?$SI_ConvertA@D@@@@PBDUKeyOrder@12@V?$allocator@U?$pair@$$CBUEntry@?$CSimpleIniTempl@DU?$SI_NoCase@D@@V?$SI_ConvertA@D@@@@PBD@std@@@std@@@std@@UKeyOrder@12@V?$allocator@U?$pair@$$CBUEntry@?$CSimpleIniTempl@DU?$SI_NoCase@D@@V?$SI_ConvertA@D@@@@V?$multimap@UEntry@?$CSimpleIniTempl@DU?$SI_NoCase@D@@V?$SI_ConvertA@D@@@@PBDUKeyOrder@12@V?$allocator@U?$pair@$$CBUEntry@?$CSimpleIniTempl@DU?$SI_NoCase@D@@V?$SI_ConvertA@D@@@@PBD@std@@@std@@@std@@@std@@@4@$0A@@std@@@std@@QAEPAU?$_Tree_node@U?$pair@$$CBUEntry@?$CSimpleIniTempl@DU?$SI_NoCase@D@@V?$SI_ConvertA@D@@@@V?$multimap@UEntry@?$CSimpleIniTempl@DU?$SI_NoCase@D@@V?$SI_ConvertA@D@@@@PBDUKeyOrder@12@V?$allocator@U?$pair@$$CBUEntry@?$CSimpleIniTempl@DU?$SI_NoCase@D@@V?$SI_ConvertA@D@@@@PBD@std@@@std@@@std@@@std@@PAX@1@AAU?$pair@$$CBUEntry@?$CSimpleIniTempl@DU?$SI_NoCase@D@@V?$SI_ConvertA@D@@@@V?$multimap@UEntry@?$CSimpleIniTempl@DU?$SI_NoCase@D@@V?$SI_ConvertA@D@@@@PBDUKeyOrder@12@V?$allocator@U?$pair@$$CBUEntry@?$CSimpleIniTempl@DU?$SI_NoCase@D@@V?$SI_ConvertA@D@@@@PBD@std@@@std@@@std@@@1@@Z$4 0044f3b4     TServerSystem:TServerSystem.obj
 0002:000103c4       __ehfuncinfo$??$_Insert_nohint@AAU?$pair@$$CBUEntry@?$CSimpleIniTempl@DU?$SI_NoCase@D@@V?$SI_ConvertA@D@@@@V?$multimap@UEntry@?$CSimpleIniTempl@DU?$SI_NoCase@D@@V?$SI_ConvertA@D@@@@PBDUKeyOrder@12@V?$allocator@U?$pair@$$CBUEntry@?$CSimpleIniTempl@DU?$SI_NoCase@D@@V?$SI_ConvertA@D@@@@PBD@std@@@std@@@std@@@std@@PAU?$_Tree_node@U?$pair@$$CBUEntry@?$CSimpleIniTempl@DU?$SI_NoCase@D@@V?$SI_ConvertA@D@@@@V?$multimap@UEntry@?$CSimpleIniTempl@DU?$SI_NoCase@D@@V?$SI_ConvertA@D@@@@PBDUKeyOrder@12@V?$allocator@U?$pair@$$CBUEntry@?$CSimpleIniTempl@DU?$SI_NoCase@D@@V?$SI_ConvertA@D@@@@PBD@std@@@std@@@std@@@std@@PAX@2@@?$_Tree@V?$_Tmap_traits@UEntry@?$CSimpleIniTempl@DU?$SI_NoCase@D@@V?$SI_ConvertA@D@@@@V?$multimap@UEntry@?$CSimpleIniTempl@DU?$SI_NoCase@D@@V?$SI_ConvertA@D@@@@PBDUKeyOrder@12@V?$allocator@U?$pair@$$CBUEntry@?$CSimpleIniTempl@DU?$SI_NoCase@D@@V?$SI_ConvertA@D@@@@PBD@std@@@std@@@std@@UKeyOrder@12@V?$allocator@U?$pair@$$CBUEntry@?$CSimpleIniTempl@DU?$SI_NoCase@D@@V?$SI_ConvertA@D@@@@V?$multimap@UEntry@?$CSimpleIniTempl@DU?$SI_NoCase@D@@V?$SI_ConvertA@D@@@@PBDUKeyOrder@12@V?$allocator@U?$pair@$$CBUEntry@?$CSimpleIniTempl@DU?$SI_NoCase@D@@V?$SI_ConvertA@D@@@@PBD@std@@@std@@@std@@@std@@@4@$0A@@std@@@std@@IAE?AU?$pair@V?$_Tree_iterator@V?$_Tree_val@U?$_Tree_simple_types@U?$pair@$$CBUEntry@?$CSimpleIniTempl@DU?$SI_NoCase@D@@V?$SI_ConvertA@D@@@@V?$multimap@UEntry@?$CSimpleIniTempl@DU?$SI_NoCase@D@@V?$SI_ConvertA@D@@@@PBDUKeyOrder@12@V?$allocator@U?$pair@$$CBUEntry@?$CSimpleIniTempl@DU?$SI_NoCase@D@@V?$SI_ConvertA@D@@@@PBD@std@@@std@@@std@@@std@@@std@@@std@@@std@@_N@1@_NAAU?$pair@$$CBUEntry@?$CSimpleIniTempl@DU?$SI_NoCase@D@@V?$SI_ConvertA@D@@@@V?$multimap@UEntry@?$CSimpleIniTempl@DU?$SI_NoCase@D@@V?$SI_ConvertA@D@@@@PBDUKeyOrder@12@V?$allocator@U?$pair@$$CBUEntry@?$CSimpleIniTempl@DU?$SI_NoCase@D@@V?$SI_ConvertA@D@@@@PBD@std@@@std@@@std@@@1@PAU?$_Tree_node@U?$pair@$$CBUEntry@?$CSimpleIniTempl@DU?$SI_NoCase@D@@V?$SI_ConvertA@D@@@@V?$multimap@UEntry@?$CSimpleIniTempl@DU?$SI_NoCase@D@@V?$SI_ConvertA@D@@@@PBDUKeyOrder@12@V?$allocator@U?$pair@$$CBUEntry@?$CSimpleIniTempl@DU?$SI_NoCase@D@@V?$SI_ConvertA@D@@@@PBD@std@@@std@@@std@@@std@@PAX@1@@Z 0044f3c4     TServerSystem:TServerSystem.obj
 0002:000103e8       __unwindtable$??$_Insert_nohint@AAU?$pair@$$CBUEntry@?$CSimpleIniTempl@DU?$SI_NoCase@D@@V?$SI_ConvertA@D@@@@V?$multimap@UEntry@?$CSimpleIniTempl@DU?$SI_NoCase@D@@V?$SI_ConvertA@D@@@@PBDUKeyOrder@12@V?$allocator@U?$pair@$$CBUEntry@?$CSimpleIniTempl@DU?$SI_NoCase@D@@V?$SI_ConvertA@D@@@@PBD@std@@@std@@@std@@@std@@PAU?$_Tree_node@U?$pair@$$CBUEntry@?$CSimpleIniTempl@DU?$SI_NoCase@D@@V?$SI_ConvertA@D@@@@V?$multimap@UEntry@?$CSimpleIniTempl@DU?$SI_NoCase@D@@V?$SI_ConvertA@D@@@@PBDUKeyOrder@12@V?$allocator@U?$pair@$$CBUEntry@?$CSimpleIniTempl@DU?$SI_NoCase@D@@V?$SI_ConvertA@D@@@@PBD@std@@@std@@@std@@@std@@PAX@2@@?$_Tree@V?$_Tmap_traits@UEntry@?$CSimpleIniTempl@DU?$SI_NoCase@D@@V?$SI_ConvertA@D@@@@V?$multimap@UEntry@?$CSimpleIniTempl@DU?$SI_NoCase@D@@V?$SI_ConvertA@D@@@@PBDUKeyOrder@12@V?$allocator@U?$pair@$$CBUEntry@?$CSimpleIniTempl@DU?$SI_NoCase@D@@V?$SI_ConvertA@D@@@@PBD@std@@@std@@@std@@UKeyOrder@12@V?$allocator@U?$pair@$$CBUEntry@?$CSimpleIniTempl@DU?$SI_NoCase@D@@V?$SI_ConvertA@D@@@@V?$multimap@UEntry@?$CSimpleIniTempl@DU?$SI_NoCase@D@@V?$SI_ConvertA@D@@@@PBDUKeyOrder@12@V?$allocator@U?$pair@$$CBUEntry@?$CSimpleIniTempl@DU?$SI_NoCase@D@@V?$SI_ConvertA@D@@@@PBD@std@@@std@@@std@@@std@@@4@$0A@@std@@@std@@IAE?AU?$pair@V?$_Tree_iterator@V?$_Tree_val@U?$_Tree_simple_types@U?$pair@$$CBUEntry@?$CSimpleIniTempl@DU?$SI_NoCase@D@@V?$SI_ConvertA@D@@@@V?$multimap@UEntry@?$CSimpleIniTempl@DU?$SI_NoCase@D@@V?$SI_ConvertA@D@@@@PBDUKeyOrder@12@V?$allocator@U?$pair@$$CBUEntry@?$CSimpleIniTempl@DU?$SI_NoCase@D@@V?$SI_ConvertA@D@@@@PBD@std@@@std@@@std@@@std@@@std@@@std@@@std@@_N@1@_NAAU?$pair@$$CBUEntry@?$CSimpleIniTempl@DU?$SI_NoCase@D@@V?$SI_ConvertA@D@@@@V?$multimap@UEntry@?$CSimpleIniTempl@DU?$SI_NoCase@D@@V?$SI_ConvertA@D@@@@PBDUKeyOrder@12@V?$allocator@U?$pair@$$CBUEntry@?$CSimpleIniTempl@DU?$SI_NoCase@D@@V?$SI_ConvertA@D@@@@PBD@std@@@std@@@std@@@1@PAU?$_Tree_node@U?$pair@$$CBUEntry@?$CSimpleIniTempl@DU?$SI_NoCase@D@@V?$SI_ConvertA@D@@@@V?$multimap@UEntry@?$CSimpleIniTempl@DU?$SI_NoCase@D@@V?$SI_ConvertA@D@@@@PBDUKeyOrder@12@V?$allocator@U?$pair@$$CBUEntry@?$CSimpleIniTempl@DU?$SI_NoCase@D@@V?$SI_ConvertA@D@@@@PBD@std@@@std@@@std@@@std@@PAX@1@@Z 0044f3e8     TServerSystem:TServerSystem.obj
 0002:000103f8       __tryblocktable$??$_Insert_nohint@AAU?$pair@$$CBUEntry@?$CSimpleIniTempl@DU?$SI_NoCase@D@@V?$SI_ConvertA@D@@@@V?$multimap@UEntry@?$CSimpleIniTempl@DU?$SI_NoCase@D@@V?$SI_ConvertA@D@@@@PBDUKeyOrder@12@V?$allocator@U?$pair@$$CBUEntry@?$CSimpleIniTempl@DU?$SI_NoCase@D@@V?$SI_ConvertA@D@@@@PBD@std@@@std@@@std@@@std@@PAU?$_Tree_node@U?$pair@$$CBUEntry@?$CSimpleIniTempl@DU?$SI_NoCase@D@@V?$SI_ConvertA@D@@@@V?$multimap@UEntry@?$CSimpleIniTempl@DU?$SI_NoCase@D@@V?$SI_ConvertA@D@@@@PBDUKeyOrder@12@V?$allocator@U?$pair@$$CBUEntry@?$CSimpleIniTempl@DU?$SI_NoCase@D@@V?$SI_ConvertA@D@@@@PBD@std@@@std@@@std@@@std@@PAX@2@@?$_Tree@V?$_Tmap_traits@UEntry@?$CSimpleIniTempl@DU?$SI_NoCase@D@@V?$SI_ConvertA@D@@@@V?$multimap@UEntry@?$CSimpleIniTempl@DU?$SI_NoCase@D@@V?$SI_ConvertA@D@@@@PBDUKeyOrder@12@V?$allocator@U?$pair@$$CBUEntry@?$CSimpleIniTempl@DU?$SI_NoCase@D@@V?$SI_ConvertA@D@@@@PBD@std@@@std@@@std@@UKeyOrder@12@V?$allocator@U?$pair@$$CBUEntry@?$CSimpleIniTempl@DU?$SI_NoCase@D@@V?$SI_ConvertA@D@@@@V?$multimap@UEntry@?$CSimpleIniTempl@DU?$SI_NoCase@D@@V?$SI_ConvertA@D@@@@PBDUKeyOrder@12@V?$allocator@U?$pair@$$CBUEntry@?$CSimpleIniTempl@DU?$SI_NoCase@D@@V?$SI_ConvertA@D@@@@PBD@std@@@std@@@std@@@std@@@4@$0A@@std@@@std@@IAE?AU?$pair@V?$_Tree_iterator@V?$_Tree_val@U?$_Tree_simple_types@U?$pair@$$CBUEntry@?$CSimpleIniTempl@DU?$SI_NoCase@D@@V?$SI_ConvertA@D@@@@V?$multimap@UEntry@?$CSimpleIniTempl@DU?$SI_NoCase@D@@V?$SI_ConvertA@D@@@@PBDUKeyOrder@12@V?$allocator@U?$pair@$$CBUEntry@?$CSimpleIniTempl@DU?$SI_NoCase@D@@V?$SI_ConvertA@D@@@@PBD@std@@@std@@@std@@@std@@@std@@@std@@@std@@_N@1@_NAAU?$pair@$$CBUEntry@?$CSimpleIniTempl@DU?$SI_NoCase@D@@V?$SI_ConvertA@D@@@@V?$multimap@UEntry@?$CSimpleIniTempl@DU?$SI_NoCase@D@@V?$SI_ConvertA@D@@@@PBDUKeyOrder@12@V?$allocator@U?$pair@$$CBUEntry@?$CSimpleIniTempl@DU?$SI_NoCase@D@@V?$SI_ConvertA@D@@@@PBD@std@@@std@@@std@@@1@PAU?$_Tree_node@U?$pair@$$CBUEntry@?$CSimpleIniTempl@DU?$SI_NoCase@D@@V?$SI_ConvertA@D@@@@V?$multimap@UEntry@?$CSimpleIniTempl@DU?$SI_NoCase@D@@V?$SI_ConvertA@D@@@@PBDUKeyOrder@12@V?$allocator@U?$pair@$$CBUEntry@?$CSimpleIniTempl@DU?$SI_NoCase@D@@V?$SI_ConvertA@D@@@@PBD@std@@@std@@@std@@@std@@PAX@1@@Z 0044f3f8     TServerSystem:TServerSystem.obj
 0002:0001040c       __catchsym$??$_Insert_nohint@AAU?$pair@$$CBUEntry@?$CSimpleIniTempl@DU?$SI_NoCase@D@@V?$SI_ConvertA@D@@@@V?$multimap@UEntry@?$CSimpleIniTempl@DU?$SI_NoCase@D@@V?$SI_ConvertA@D@@@@PBDUKeyOrder@12@V?$allocator@U?$pair@$$CBUEntry@?$CSimpleIniTempl@DU?$SI_NoCase@D@@V?$SI_ConvertA@D@@@@PBD@std@@@std@@@std@@@std@@PAU?$_Tree_node@U?$pair@$$CBUEntry@?$CSimpleIniTempl@DU?$SI_NoCase@D@@V?$SI_ConvertA@D@@@@V?$multimap@UEntry@?$CSimpleIniTempl@DU?$SI_NoCase@D@@V?$SI_ConvertA@D@@@@PBDUKeyOrder@12@V?$allocator@U?$pair@$$CBUEntry@?$CSimpleIniTempl@DU?$SI_NoCase@D@@V?$SI_ConvertA@D@@@@PBD@std@@@std@@@std@@@std@@PAX@2@@?$_Tree@V?$_Tmap_traits@UEntry@?$CSimpleIniTempl@DU?$SI_NoCase@D@@V?$SI_ConvertA@D@@@@V?$multimap@UEntry@?$CSimpleIniTempl@DU?$SI_NoCase@D@@V?$SI_ConvertA@D@@@@PBDUKeyOrder@12@V?$allocator@U?$pair@$$CBUEntry@?$CSimpleIniTempl@DU?$SI_NoCase@D@@V?$SI_ConvertA@D@@@@PBD@std@@@std@@@std@@UKeyOrder@12@V?$allocator@U?$pair@$$CBUEntry@?$CSimpleIniTempl@DU?$SI_NoCase@D@@V?$SI_ConvertA@D@@@@V?$multimap@UEntry@?$CSimpleIniTempl@DU?$SI_NoCase@D@@V?$SI_ConvertA@D@@@@PBDUKeyOrder@12@V?$allocator@U?$pair@$$CBUEntry@?$CSimpleIniTempl@DU?$SI_NoCase@D@@V?$SI_ConvertA@D@@@@PBD@std@@@std@@@std@@@std@@@4@$0A@@std@@@std@@IAE?AU?$pair@V?$_Tree_iterator@V?$_Tree_val@U?$_Tree_simple_types@U?$pair@$$CBUEntry@?$CSimpleIniTempl@DU?$SI_NoCase@D@@V?$SI_ConvertA@D@@@@V?$multimap@UEntry@?$CSimpleIniTempl@DU?$SI_NoCase@D@@V?$SI_ConvertA@D@@@@PBDUKeyOrder@12@V?$allocator@U?$pair@$$CBUEntry@?$CSimpleIniTempl@DU?$SI_NoCase@D@@V?$SI_ConvertA@D@@@@PBD@std@@@std@@@std@@@std@@@std@@@std@@@std@@_N@1@_NAAU?$pair@$$CBUEntry@?$CSimpleIniTempl@DU?$SI_NoCase@D@@V?$SI_ConvertA@D@@@@V?$multimap@UEntry@?$CSimpleIniTempl@DU?$SI_NoCase@D@@V?$SI_ConvertA@D@@@@PBDUKeyOrder@12@V?$allocator@U?$pair@$$CBUEntry@?$CSimpleIniTempl@DU?$SI_NoCase@D@@V?$SI_ConvertA@D@@@@PBD@std@@@std@@@std@@@1@PAU?$_Tree_node@U?$pair@$$CBUEntry@?$CSimpleIniTempl@DU?$SI_NoCase@D@@V?$SI_ConvertA@D@@@@V?$multimap@UEntry@?$CSimpleIniTempl@DU?$SI_NoCase@D@@V?$SI_ConvertA@D@@@@PBDUKeyOrder@12@V?$allocator@U?$pair@$$CBUEntry@?$CSimpleIniTempl@DU?$SI_NoCase@D@@V?$SI_ConvertA@D@@@@PBD@std@@@std@@@std@@@std@@PAX@1@@Z$5 0044f40c     TServerSystem:TServerSystem.obj
 0002:0001041c       __ehfuncinfo$??$_Insert_nohint@AAU?$pair@$$CBUEntry@?$CSimpleIniTempl@DU?$SI_NoCase@D@@V?$SI_ConvertA@D@@@@PBD@std@@PAU?$_Tree_node@U?$pair@$$CBUEntry@?$CSimpleIniTempl@DU?$SI_NoCase@D@@V?$SI_ConvertA@D@@@@PBD@std@@PAX@2@@?$_Tree@V?$_Tmap_traits@UEntry@?$CSimpleIniTempl@DU?$SI_NoCase@D@@V?$SI_ConvertA@D@@@@PBDUKeyOrder@12@V?$allocator@U?$pair@$$CBUEntry@?$CSimpleIniTempl@DU?$SI_NoCase@D@@V?$SI_ConvertA@D@@@@PBD@std@@@std@@$00@std@@@std@@IAE?AU?$pair@V?$_Tree_iterator@V?$_Tree_val@U?$_Tree_simple_types@U?$pair@$$CBUEntry@?$CSimpleIniTempl@DU?$SI_NoCase@D@@V?$SI_ConvertA@D@@@@PBD@std@@@std@@@std@@@std@@_N@1@_NAAU?$pair@$$CBUEntry@?$CSimpleIniTempl@DU?$SI_NoCase@D@@V?$SI_ConvertA@D@@@@PBD@1@PAU?$_Tree_node@U?$pair@$$CBUEntry@?$CSimpleIniTempl@DU?$SI_NoCase@D@@V?$SI_ConvertA@D@@@@PBD@std@@PAX@1@@Z 0044f41c     TServerSystem:TServerSystem.obj
 0002:00010440       __unwindtable$??$_Insert_nohint@AAU?$pair@$$CBUEntry@?$CSimpleIniTempl@DU?$SI_NoCase@D@@V?$SI_ConvertA@D@@@@PBD@std@@PAU?$_Tree_node@U?$pair@$$CBUEntry@?$CSimpleIniTempl@DU?$SI_NoCase@D@@V?$SI_ConvertA@D@@@@PBD@std@@PAX@2@@?$_Tree@V?$_Tmap_traits@UEntry@?$CSimpleIniTempl@DU?$SI_NoCase@D@@V?$SI_ConvertA@D@@@@PBDUKeyOrder@12@V?$allocator@U?$pair@$$CBUEntry@?$CSimpleIniTempl@DU?$SI_NoCase@D@@V?$SI_ConvertA@D@@@@PBD@std@@@std@@$00@std@@@std@@IAE?AU?$pair@V?$_Tree_iterator@V?$_Tree_val@U?$_Tree_simple_types@U?$pair@$$CBUEntry@?$CSimpleIniTempl@DU?$SI_NoCase@D@@V?$SI_ConvertA@D@@@@PBD@std@@@std@@@std@@@std@@_N@1@_NAAU?$pair@$$CBUEntry@?$CSimpleIniTempl@DU?$SI_NoCase@D@@V?$SI_ConvertA@D@@@@PBD@1@PAU?$_Tree_node@U?$pair@$$CBUEntry@?$CSimpleIniTempl@DU?$SI_NoCase@D@@V?$SI_ConvertA@D@@@@PBD@std@@PAX@1@@Z 0044f440     TServerSystem:TServerSystem.obj
 0002:00010450       __tryblocktable$??$_Insert_nohint@AAU?$pair@$$CBUEntry@?$CSimpleIniTempl@DU?$SI_NoCase@D@@V?$SI_ConvertA@D@@@@PBD@std@@PAU?$_Tree_node@U?$pair@$$CBUEntry@?$CSimpleIniTempl@DU?$SI_NoCase@D@@V?$SI_ConvertA@D@@@@PBD@std@@PAX@2@@?$_Tree@V?$_Tmap_traits@UEntry@?$CSimpleIniTempl@DU?$SI_NoCase@D@@V?$SI_ConvertA@D@@@@PBDUKeyOrder@12@V?$allocator@U?$pair@$$CBUEntry@?$CSimpleIniTempl@DU?$SI_NoCase@D@@V?$SI_ConvertA@D@@@@PBD@std@@@std@@$00@std@@@std@@IAE?AU?$pair@V?$_Tree_iterator@V?$_Tree_val@U?$_Tree_simple_types@U?$pair@$$CBUEntry@?$CSimpleIniTempl@DU?$SI_NoCase@D@@V?$SI_ConvertA@D@@@@PBD@std@@@std@@@std@@@std@@_N@1@_NAAU?$pair@$$CBUEntry@?$CSimpleIniTempl@DU?$SI_NoCase@D@@V?$SI_ConvertA@D@@@@PBD@1@PAU?$_Tree_node@U?$pair@$$CBUEntry@?$CSimpleIniTempl@DU?$SI_NoCase@D@@V?$SI_ConvertA@D@@@@PBD@std@@PAX@1@@Z 0044f450     TServerSystem:TServerSystem.obj
 0002:00010464       __catchsym$??$_Insert_nohint@AAU?$pair@$$CBUEntry@?$CSimpleIniTempl@DU?$SI_NoCase@D@@V?$SI_ConvertA@D@@@@PBD@std@@PAU?$_Tree_node@U?$pair@$$CBUEntry@?$CSimpleIniTempl@DU?$SI_NoCase@D@@V?$SI_ConvertA@D@@@@PBD@std@@PAX@2@@?$_Tree@V?$_Tmap_traits@UEntry@?$CSimpleIniTempl@DU?$SI_NoCase@D@@V?$SI_ConvertA@D@@@@PBDUKeyOrder@12@V?$allocator@U?$pair@$$CBUEntry@?$CSimpleIniTempl@DU?$SI_NoCase@D@@V?$SI_ConvertA@D@@@@PBD@std@@@std@@$00@std@@@std@@IAE?AU?$pair@V?$_Tree_iterator@V?$_Tree_val@U?$_Tree_simple_types@U?$pair@$$CBUEntry@?$CSimpleIniTempl@DU?$SI_NoCase@D@@V?$SI_ConvertA@D@@@@PBD@std@@@std@@@std@@@std@@_N@1@_NAAU?$pair@$$CBUEntry@?$CSimpleIniTempl@DU?$SI_NoCase@D@@V?$SI_ConvertA@D@@@@PBD@1@PAU?$_Tree_node@U?$pair@$$CBUEntry@?$CSimpleIniTempl@DU?$SI_NoCase@D@@V?$SI_ConvertA@D@@@@PBD@std@@PAX@1@@Z$2 0044f464     TServerSystem:TServerSystem.obj
 0002:00010474       __ehfuncinfo$??$?0V?$allocator@U?$_Tree_node@U?$pair@$$CBUEntry@?$CSimpleIniTempl@DU?$SI_NoCase@D@@V?$SI_ConvertA@D@@@@PBD@std@@PAX@std@@@std@@@?$_Tree@V?$_Tmap_traits@UEntry@?$CSimpleIniTempl@DU?$SI_NoCase@D@@V?$SI_ConvertA@D@@@@PBDUKeyOrder@12@V?$allocator@U?$pair@$$CBUEntry@?$CSimpleIniTempl@DU?$SI_NoCase@D@@V?$SI_ConvertA@D@@@@PBD@std@@@std@@$00@std@@@std@@QAE@ABV01@$$QAV?$allocator@U?$_Tree_node@U?$pair@$$CBUEntry@?$CSimpleIniTempl@DU?$SI_NoCase@D@@V?$SI_ConvertA@D@@@@PBD@std@@PAX@std@@@1@@Z 0044f474     TServerSystem:TServerSystem.obj
 0002:00010498       __unwindtable$??$?0V?$allocator@U?$_Tree_node@U?$pair@$$CBUEntry@?$CSimpleIniTempl@DU?$SI_NoCase@D@@V?$SI_ConvertA@D@@@@PBD@std@@PAX@std@@@std@@@?$_Tree@V?$_Tmap_traits@UEntry@?$CSimpleIniTempl@DU?$SI_NoCase@D@@V?$SI_ConvertA@D@@@@PBDUKeyOrder@12@V?$allocator@U?$pair@$$CBUEntry@?$CSimpleIniTempl@DU?$SI_NoCase@D@@V?$SI_ConvertA@D@@@@PBD@std@@@std@@$00@std@@@std@@QAE@ABV01@$$QAV?$allocator@U?$_Tree_node@U?$pair@$$CBUEntry@?$CSimpleIniTempl@DU?$SI_NoCase@D@@V?$SI_ConvertA@D@@@@PBD@std@@PAX@std@@@1@@Z 0044f498     TServerSystem:TServerSystem.obj
 0002:000104b0       __tryblocktable$??$?0V?$allocator@U?$_Tree_node@U?$pair@$$CBUEntry@?$CSimpleIniTempl@DU?$SI_NoCase@D@@V?$SI_ConvertA@D@@@@PBD@std@@PAX@std@@@std@@@?$_Tree@V?$_Tmap_traits@UEntry@?$CSimpleIniTempl@DU?$SI_NoCase@D@@V?$SI_ConvertA@D@@@@PBDUKeyOrder@12@V?$allocator@U?$pair@$$CBUEntry@?$CSimpleIniTempl@DU?$SI_NoCase@D@@V?$SI_ConvertA@D@@@@PBD@std@@@std@@$00@std@@@std@@QAE@ABV01@$$QAV?$allocator@U?$_Tree_node@U?$pair@$$CBUEntry@?$CSimpleIniTempl@DU?$SI_NoCase@D@@V?$SI_ConvertA@D@@@@PBD@std@@PAX@std@@@1@@Z 0044f4b0     TServerSystem:TServerSystem.obj
 0002:000104c4       __catchsym$??$?0V?$allocator@U?$_Tree_node@U?$pair@$$CBUEntry@?$CSimpleIniTempl@DU?$SI_NoCase@D@@V?$SI_ConvertA@D@@@@PBD@std@@PAX@std@@@std@@@?$_Tree@V?$_Tmap_traits@UEntry@?$CSimpleIniTempl@DU?$SI_NoCase@D@@V?$SI_ConvertA@D@@@@PBDUKeyOrder@12@V?$allocator@U?$pair@$$CBUEntry@?$CSimpleIniTempl@DU?$SI_NoCase@D@@V?$SI_ConvertA@D@@@@PBD@std@@@std@@$00@std@@@std@@QAE@ABV01@$$QAV?$allocator@U?$_Tree_node@U?$pair@$$CBUEntry@?$CSimpleIniTempl@DU?$SI_NoCase@D@@V?$SI_ConvertA@D@@@@PBD@std@@PAX@std@@@1@@Z$3 0044f4c4     TServerSystem:TServerSystem.obj
 0002:000104d4       __ehfuncinfo$??$_Copy_nodes@U_Copy_tag@?$_Tree@V?$_Tmap_traits@UEntry@?$CSimpleIniTempl@DU?$SI_NoCase@D@@V?$SI_ConvertA@D@@@@PBDUKeyOrder@12@V?$allocator@U?$pair@$$CBUEntry@?$CSimpleIniTempl@DU?$SI_NoCase@D@@V?$SI_ConvertA@D@@@@PBD@std@@@std@@$00@std@@@std@@@?$_Tree@V?$_Tmap_traits@UEntry@?$CSimpleIniTempl@DU?$SI_NoCase@D@@V?$SI_ConvertA@D@@@@PBDUKeyOrder@12@V?$allocator@U?$pair@$$CBUEntry@?$CSimpleIniTempl@DU?$SI_NoCase@D@@V?$SI_ConvertA@D@@@@PBD@std@@@std@@$00@std@@@std@@IAEPAU?$_Tree_node@U?$pair@$$CBUEntry@?$CSimpleIniTempl@DU?$SI_NoCase@D@@V?$SI_ConvertA@D@@@@PBD@std@@PAX@1@PAU21@0U_Copy_tag@01@@Z 0044f4d4     TServerSystem:TServerSystem.obj
 0002:000104f8       __unwindtable$??$_Copy_nodes@U_Copy_tag@?$_Tree@V?$_Tmap_traits@UEntry@?$CSimpleIniTempl@DU?$SI_NoCase@D@@V?$SI_ConvertA@D@@@@PBDUKeyOrder@12@V?$allocator@U?$pair@$$CBUEntry@?$CSimpleIniTempl@DU?$SI_NoCase@D@@V?$SI_ConvertA@D@@@@PBD@std@@@std@@$00@std@@@std@@@?$_Tree@V?$_Tmap_traits@UEntry@?$CSimpleIniTempl@DU?$SI_NoCase@D@@V?$SI_ConvertA@D@@@@PBDUKeyOrder@12@V?$allocator@U?$pair@$$CBUEntry@?$CSimpleIniTempl@DU?$SI_NoCase@D@@V?$SI_ConvertA@D@@@@PBD@std@@@std@@$00@std@@@std@@IAEPAU?$_Tree_node@U?$pair@$$CBUEntry@?$CSimpleIniTempl@DU?$SI_NoCase@D@@V?$SI_ConvertA@D@@@@PBD@std@@PAX@1@PAU21@0U_Copy_tag@01@@Z 0044f4f8     TServerSystem:TServerSystem.obj
 0002:00010508       __tryblocktable$??$_Copy_nodes@U_Copy_tag@?$_Tree@V?$_Tmap_traits@UEntry@?$CSimpleIniTempl@DU?$SI_NoCase@D@@V?$SI_ConvertA@D@@@@PBDUKeyOrder@12@V?$allocator@U?$pair@$$CBUEntry@?$CSimpleIniTempl@DU?$SI_NoCase@D@@V?$SI_ConvertA@D@@@@PBD@std@@@std@@$00@std@@@std@@@?$_Tree@V?$_Tmap_traits@UEntry@?$CSimpleIniTempl@DU?$SI_NoCase@D@@V?$SI_ConvertA@D@@@@PBDUKeyOrder@12@V?$allocator@U?$pair@$$CBUEntry@?$CSimpleIniTempl@DU?$SI_NoCase@D@@V?$SI_ConvertA@D@@@@PBD@std@@@std@@$00@std@@@std@@IAEPAU?$_Tree_node@U?$pair@$$CBUEntry@?$CSimpleIniTempl@DU?$SI_NoCase@D@@V?$SI_ConvertA@D@@@@PBD@std@@PAX@1@PAU21@0U_Copy_tag@01@@Z 0044f508     TServerSystem:TServerSystem.obj
 0002:0001051c       __catchsym$??$_Copy_nodes@U_Copy_tag@?$_Tree@V?$_Tmap_traits@UEntry@?$CSimpleIniTempl@DU?$SI_NoCase@D@@V?$SI_ConvertA@D@@@@PBDUKeyOrder@12@V?$allocator@U?$pair@$$CBUEntry@?$CSimpleIniTempl@DU?$SI_NoCase@D@@V?$SI_ConvertA@D@@@@PBD@std@@@std@@$00@std@@@std@@@?$_Tree@V?$_Tmap_traits@UEntry@?$CSimpleIniTempl@DU?$SI_NoCase@D@@V?$SI_ConvertA@D@@@@PBDUKeyOrder@12@V?$allocator@U?$pair@$$CBUEntry@?$CSimpleIniTempl@DU?$SI_NoCase@D@@V?$SI_ConvertA@D@@@@PBD@std@@@std@@$00@std@@@std@@IAEPAU?$_Tree_node@U?$pair@$$CBUEntry@?$CSimpleIniTempl@DU?$SI_NoCase@D@@V?$SI_ConvertA@D@@@@PBD@std@@PAX@1@PAU21@0U_Copy_tag@01@@Z$2 0044f51c     TServerSystem:TServerSystem.obj
 0002:0001052c       __unwindtable$??0?$CStringT@DV?$StrTraitATL@DV?$ChTraitsCRT@D@ATL@@@ATL@@@ATL@@QAE@PBD@Z 0044f52c     CSHandler.obj
 0002:00010534       __ehfuncinfo$??0?$CStringT@DV?$StrTraitATL@DV?$ChTraitsCRT@D@ATL@@@ATL@@@ATL@@QAE@PBD@Z 0044f534     CSHandler.obj
 0002:00010558       __ehfuncinfo$??0tagEVENTINFO@@QAE@$$QAU0@@Z 0044f558     CSHandler.obj
 0002:0001057c       __unwindtable$??0tagEVENTINFO@@QAE@$$QAU0@@Z 0044f57c     CSHandler.obj
 0002:000105b4       __unwindtable$?OnCT_SERVICEDATACLEAR_ACK@CTLoginSvrModule@@IAEKPAVCSqlDatabase@@PAV?$map@EPAUtagTGROUP@@U?$less@E@std@@V?$allocator@U?$pair@$$CBEPAUtagTGROUP@@@std@@@3@@std@@PAVCTUser@@AAVCPacket@@@Z 0044f5b4     CSHandler.obj
 0002:000105b4       __unwindtable$__execute_onexit_table 0044f5b4     libucrt:onexit.obj
 0002:000105b4       __unwindtable$?Close@CSqlDatabase@@QAEXXZ 0044f5b4     TNetLib:SqlDatabase.obj
 0002:000105bc       __ehfuncinfo$?OnCT_SERVICEDATACLEAR_ACK@CTLoginSvrModule@@IAEKPAVCSqlDatabase@@PAV?$map@EPAUtagTGROUP@@U?$less@E@std@@V?$allocator@U?$pair@$$CBEPAUtagTGROUP@@@std@@@3@@std@@PAVCTUser@@AAVCPacket@@@Z 0044f5bc     CSHandler.obj
 0002:000105bc       __ehfuncinfo$?Close@CSqlDatabase@@QAEXXZ 0044f5bc     TNetLib:SqlDatabase.obj
 0002:000105bc       __ehfuncinfo$__execute_onexit_table 0044f5bc     libucrt:onexit.obj
 0002:000105e0       __ehfuncinfo$?OnCT_EVENTUPDATE_REQ@CTLoginSvrModule@@IAEKPAVCSqlDatabase@@PAV?$map@EPAUtagTGROUP@@U?$less@E@std@@V?$allocator@U?$pair@$$CBEPAUtagTGROUP@@@std@@@3@@std@@PAVCTUser@@AAVCPacket@@@Z 0044f5e0     CSHandler.obj
 0002:00010604       __unwindtable$?OnCT_EVENTUPDATE_REQ@CTLoginSvrModule@@IAEKPAVCSqlDatabase@@PAV?$map@EPAUtagTGROUP@@U?$less@E@std@@V?$allocator@U?$pair@$$CBEPAUtagTGROUP@@@std@@@3@@std@@PAVCTUser@@AAVCPacket@@@Z 0044f604     CSHandler.obj
 0002:0001064c       __unwindtable$?OnCT_EVENTMSG_REQ@CTLoginSvrModule@@IAEKPAVCSqlDatabase@@PAV?$map@EPAUtagTGROUP@@U?$less@E@std@@V?$allocator@U?$pair@$$CBEPAUtagTGROUP@@@std@@@3@@std@@PAVCTUser@@AAVCPacket@@@Z 0044f64c     CSHandler.obj
 0002:00010654       __ehfuncinfo$?OnCT_EVENTMSG_REQ@CTLoginSvrModule@@IAEKPAVCSqlDatabase@@PAV?$map@EPAUtagTGROUP@@U?$less@E@std@@V?$allocator@U?$pair@$$CBEPAUtagTGROUP@@@std@@@3@@std@@PAVCTUser@@AAVCPacket@@@Z 0044f654     CSHandler.obj
 0002:00010678       __unwindtable$?OnCS_CHANNELLIST_REQ@CTLoginSvrModule@@IAEKPAVCSqlDatabase@@PAV?$map@EPAUtagTGROUP@@U?$less@E@std@@V?$allocator@U?$pair@$$CBEPAUtagTGROUP@@@std@@@3@@std@@PAVCTUser@@AAVCPacket@@@Z 0044f678     CSHandler.obj
 0002:00010690       __ehfuncinfo$?OnCS_CHANNELLIST_REQ@CTLoginSvrModule@@IAEKPAVCSqlDatabase@@PAV?$map@EPAUtagTGROUP@@U?$less@E@std@@V?$allocator@U?$pair@$$CBEPAUtagTGROUP@@@std@@@3@@std@@PAVCTUser@@AAVCPacket@@@Z 0044f690     CSHandler.obj
 0002:000106b4       __unwindtable$?OnCS_GROUPLIST_REQ@CTLoginSvrModule@@IAEKPAVCSqlDatabase@@PAV?$map@EPAUtagTGROUP@@U?$less@E@std@@V?$allocator@U?$pair@$$CBEPAUtagTGROUP@@@std@@@3@@std@@PAVCTUser@@AAVCPacket@@@Z 0044f6b4     CSHandler.obj
 0002:000106cc       __ehfuncinfo$?OnCS_GROUPLIST_REQ@CTLoginSvrModule@@IAEKPAVCSqlDatabase@@PAV?$map@EPAUtagTGROUP@@U?$less@E@std@@V?$allocator@U?$pair@$$CBEPAUtagTGROUP@@@std@@@3@@std@@PAVCTUser@@AAVCPacket@@@Z 0044f6cc     CSHandler.obj
 0002:000106f0       __ehfuncinfo$?OnCS_CHARLIST_REQ@CTLoginSvrModule@@IAEKPAVCSqlDatabase@@PAV?$map@EPAUtagTGROUP@@U?$less@E@std@@V?$allocator@U?$pair@$$CBEPAUtagTGROUP@@@std@@@3@@std@@PAVCTUser@@AAVCPacket@@@Z 0044f6f0     CSHandler.obj
 0002:00010714       __unwindtable$?OnCS_CHARLIST_REQ@CTLoginSvrModule@@IAEKPAVCSqlDatabase@@PAV?$map@EPAUtagTGROUP@@U?$less@E@std@@V?$allocator@U?$pair@$$CBEPAUtagTGROUP@@@std@@@3@@std@@PAVCTUser@@AAVCPacket@@@Z 0044f714     CSHandler.obj
 0002:0001074c       __ehfuncinfo$?OnCS_LOGIN_REQ@CTLoginSvrModule@@IAEKPAVCSqlDatabase@@PAV?$map@EPAUtagTGROUP@@U?$less@E@std@@V?$allocator@U?$pair@$$CBEPAUtagTGROUP@@@std@@@3@@std@@PAVCTUser@@AAVCPacket@@@Z 0044f74c     CSHandler.obj
 0002:00010770       __unwindtable$?OnCS_LOGIN_REQ@CTLoginSvrModule@@IAEKPAVCSqlDatabase@@PAV?$map@EPAUtagTGROUP@@U?$less@E@std@@V?$allocator@U?$pair@$$CBEPAUtagTGROUP@@@std@@@3@@std@@PAVCTUser@@AAVCPacket@@@Z 0044f770     CSHandler.obj
 0002:000107a8       __unwindtable$?OnCS_TESTLOGIN_REQ@CTLoginSvrModule@@IAEKPAVCSqlDatabase@@PAV?$map@EPAUtagTGROUP@@U?$less@E@std@@V?$allocator@U?$pair@$$CBEPAUtagTGROUP@@@std@@@3@@std@@PAVCTUser@@AAVCPacket@@@Z 0044f7a8     CSHandler.obj
 0002:000107b8       __ehfuncinfo$?OnCS_TESTLOGIN_REQ@CTLoginSvrModule@@IAEKPAVCSqlDatabase@@PAV?$map@EPAUtagTGROUP@@U?$less@E@std@@V?$allocator@U?$pair@$$CBEPAUtagTGROUP@@@std@@@3@@std@@PAVCTUser@@AAVCPacket@@@Z 0044f7b8     CSHandler.obj
 0002:000107dc       __unwindtable$?OnCS_CREATECHAR_REQ@CTLoginSvrModule@@IAEKPAVCSqlDatabase@@PAV?$map@EPAUtagTGROUP@@U?$less@E@std@@V?$allocator@U?$pair@$$CBEPAUtagTGROUP@@@std@@@3@@std@@PAVCTUser@@AAVCPacket@@@Z 0044f7dc     CSHandler.obj
 0002:000107ec       __ehfuncinfo$?OnCS_CREATECHAR_REQ@CTLoginSvrModule@@IAEKPAVCSqlDatabase@@PAV?$map@EPAUtagTGROUP@@U?$less@E@std@@V?$allocator@U?$pair@$$CBEPAUtagTGROUP@@@std@@@3@@std@@PAVCTUser@@AAVCPacket@@@Z 0044f7ec     CSHandler.obj
 0002:00010810       __unwindtable$?OnCS_DELCHAR_REQ@CTLoginSvrModule@@IAEKPAVCSqlDatabase@@PAV?$map@EPAUtagTGROUP@@U?$less@E@std@@V?$allocator@U?$pair@$$CBEPAUtagTGROUP@@@std@@@3@@std@@PAVCTUser@@AAVCPacket@@@Z 0044f810     CSHandler.obj
 0002:00010828       __ehfuncinfo$?OnCS_DELCHAR_REQ@CTLoginSvrModule@@IAEKPAVCSqlDatabase@@PAV?$map@EPAUtagTGROUP@@U?$less@E@std@@V?$allocator@U?$pair@$$CBEPAUtagTGROUP@@@std@@@3@@std@@PAVCTUser@@AAVCPacket@@@Z 0044f828     CSHandler.obj
 0002:0001084c       __unwindtable$?OnCS_START_REQ@CTLoginSvrModule@@IAEKPAVCSqlDatabase@@PAV?$map@EPAUtagTGROUP@@U?$less@E@std@@V?$allocator@U?$pair@$$CBEPAUtagTGROUP@@@std@@@3@@std@@PAVCTUser@@AAVCPacket@@@Z 0044f84c     CSHandler.obj
 0002:0001086c       __ehfuncinfo$?OnCS_START_REQ@CTLoginSvrModule@@IAEKPAVCSqlDatabase@@PAV?$map@EPAUtagTGROUP@@U?$less@E@std@@V?$allocator@U?$pair@$$CBEPAUtagTGROUP@@@std@@@3@@std@@PAVCTUser@@AAVCPacket@@@Z 0044f86c     CSHandler.obj
 0002:00010890       __unwindtable$?OnCS_AGREEMENT_REQ@CTLoginSvrModule@@IAEKPAVCSqlDatabase@@PAV?$map@EPAUtagTGROUP@@U?$less@E@std@@V?$allocator@U?$pair@$$CBEPAUtagTGROUP@@@std@@@3@@std@@PAVCTUser@@AAVCPacket@@@Z 0044f890     CSHandler.obj
 0002:00010898       __ehfuncinfo$?OnCS_AGREEMENT_REQ@CTLoginSvrModule@@IAEKPAVCSqlDatabase@@PAV?$map@EPAUtagTGROUP@@U?$less@E@std@@V?$allocator@U?$pair@$$CBEPAUtagTGROUP@@@std@@@3@@std@@PAVCTUser@@AAVCPacket@@@Z 0044f898     CSHandler.obj
 0002:000108bc       __unwindtable$?OnCS_SECURITYCONFIRM_ACK@CTLoginSvrModule@@IAEKPAVCSqlDatabase@@PAV?$map@EPAUtagTGROUP@@U?$less@E@std@@V?$allocator@U?$pair@$$CBEPAUtagTGROUP@@@std@@@3@@std@@PAVCTUser@@AAVCPacket@@@Z 0044f8bc     CSHandler.obj
 0002:000108cc       __ehfuncinfo$?OnCS_SECURITYCONFIRM_ACK@CTLoginSvrModule@@IAEKPAVCSqlDatabase@@PAV?$map@EPAUtagTGROUP@@U?$less@E@std@@V?$allocator@U?$pair@$$CBEPAUtagTGROUP@@@std@@@3@@std@@PAVCTUser@@AAVCPacket@@@Z 0044f8cc     CSHandler.obj
 0002:000108f0       __catchsym$??$_Insert_nohint@U?$pair@$$CBKK@std@@U_Not_a_node_tag@2@@?$_Tree@V?$_Tmap_traits@KKU?$less@K@std@@V?$allocator@U?$pair@$$CBKK@std@@@2@$0A@@std@@@std@@IAE?AU?$pair@V?$_Tree_iterator@V?$_Tree_val@U?$_Tree_simple_types@U?$pair@$$CBKK@std@@@std@@@std@@@std@@_N@1@_N$$QAU?$pair@$$CBKK@1@U_Not_a_node_tag@1@@Z$2 0044f8f0     CSHandler.obj
 0002:000108f0       __catchsym$??$_Insert_nohint@U?$pair@$$CBKPAVCTUser@@@std@@U_Not_a_node_tag@2@@?$_Tree@V?$_Tmap_traits@KPAVCTUser@@U?$less@K@std@@V?$allocator@U?$pair@$$CBKPAVCTUser@@@std@@@3@$0A@@std@@@std@@IAE?AU?$pair@V?$_Tree_iterator@V?$_Tree_val@U?$_Tree_simple_types@U?$pair@$$CBKPAVCTUser@@@std@@@std@@@std@@@std@@_N@1@_N$$QAU?$pair@$$CBKPAVCTUser@@@1@U_Not_a_node_tag@1@@Z$2 0044f8f0     CSHandler.obj
 0002:00010900       __unwindtable$??$_Insert_nohint@U?$pair@$$CBKPAVCTUser@@@std@@U_Not_a_node_tag@2@@?$_Tree@V?$_Tmap_traits@KPAVCTUser@@U?$less@K@std@@V?$allocator@U?$pair@$$CBKPAVCTUser@@@std@@@3@$0A@@std@@@std@@IAE?AU?$pair@V?$_Tree_iterator@V?$_Tree_val@U?$_Tree_simple_types@U?$pair@$$CBKPAVCTUser@@@std@@@std@@@std@@@std@@_N@1@_N$$QAU?$pair@$$CBKPAVCTUser@@@1@U_Not_a_node_tag@1@@Z 0044f900     CSHandler.obj
 0002:00010900       __unwindtable$??$_Insert_nohint@U?$pair@$$CBKK@std@@U_Not_a_node_tag@2@@?$_Tree@V?$_Tmap_traits@KKU?$less@K@std@@V?$allocator@U?$pair@$$CBKK@std@@@2@$0A@@std@@@std@@IAE?AU?$pair@V?$_Tree_iterator@V?$_Tree_val@U?$_Tree_simple_types@U?$pair@$$CBKK@std@@@std@@@std@@@std@@_N@1@_N$$QAU?$pair@$$CBKK@1@U_Not_a_node_tag@1@@Z 0044f900     CSHandler.obj
 0002:00010910       __tryblocktable$??$_Insert_nohint@U?$pair@$$CBKK@std@@U_Not_a_node_tag@2@@?$_Tree@V?$_Tmap_traits@KKU?$less@K@std@@V?$allocator@U?$pair@$$CBKK@std@@@2@$0A@@std@@@std@@IAE?AU?$pair@V?$_Tree_iterator@V?$_Tree_val@U?$_Tree_simple_types@U?$pair@$$CBKK@std@@@std@@@std@@@std@@_N@1@_N$$QAU?$pair@$$CBKK@1@U_Not_a_node_tag@1@@Z 0044f910     CSHandler.obj
 0002:00010910       __tryblocktable$??$_Insert_nohint@U?$pair@$$CBKPAVCTUser@@@std@@U_Not_a_node_tag@2@@?$_Tree@V?$_Tmap_traits@KPAVCTUser@@U?$less@K@std@@V?$allocator@U?$pair@$$CBKPAVCTUser@@@std@@@3@$0A@@std@@@std@@IAE?AU?$pair@V?$_Tree_iterator@V?$_Tree_val@U?$_Tree_simple_types@U?$pair@$$CBKPAVCTUser@@@std@@@std@@@std@@@std@@_N@1@_N$$QAU?$pair@$$CBKPAVCTUser@@@1@U_Not_a_node_tag@1@@Z 0044f910     CSHandler.obj
 0002:00010924       __ehfuncinfo$??$_Insert_nohint@U?$pair@$$CBKPAVCTUser@@@std@@U_Not_a_node_tag@2@@?$_Tree@V?$_Tmap_traits@KPAVCTUser@@U?$less@K@std@@V?$allocator@U?$pair@$$CBKPAVCTUser@@@std@@@3@$0A@@std@@@std@@IAE?AU?$pair@V?$_Tree_iterator@V?$_Tree_val@U?$_Tree_simple_types@U?$pair@$$CBKPAVCTUser@@@std@@@std@@@std@@@std@@_N@1@_N$$QAU?$pair@$$CBKPAVCTUser@@@1@U_Not_a_node_tag@1@@Z 0044f924     CSHandler.obj
 0002:00010924       __ehfuncinfo$??$_Insert_nohint@U?$pair@$$CBKK@std@@U_Not_a_node_tag@2@@?$_Tree@V?$_Tmap_traits@KKU?$less@K@std@@V?$allocator@U?$pair@$$CBKK@std@@@2@$0A@@std@@@std@@IAE?AU?$pair@V?$_Tree_iterator@V?$_Tree_val@U?$_Tree_simple_types@U?$pair@$$CBKK@std@@@std@@@std@@@std@@_N@1@_N$$QAU?$pair@$$CBKK@1@U_Not_a_node_tag@1@@Z 0044f924     CSHandler.obj
 0002:00010948       __catchsym$??$_Insert_nohint@U?$pair@$$CBKUtagEVENTINFO@@@std@@U_Not_a_node_tag@2@@?$_Tree@V?$_Tmap_traits@KUtagEVENTINFO@@U?$less@K@std@@V?$allocator@U?$pair@$$CBKUtagEVENTINFO@@@std@@@3@$0A@@std@@@std@@IAE?AU?$pair@V?$_Tree_iterator@V?$_Tree_val@U?$_Tree_simple_types@U?$pair@$$CBKUtagEVENTINFO@@@std@@@std@@@std@@@std@@_N@1@_N$$QAU?$pair@$$CBKUtagEVENTINFO@@@1@U_Not_a_node_tag@1@@Z$2 0044f948     CSHandler.obj
 0002:00010958       __unwindtable$??$_Insert_nohint@U?$pair@$$CBKUtagEVENTINFO@@@std@@U_Not_a_node_tag@2@@?$_Tree@V?$_Tmap_traits@KUtagEVENTINFO@@U?$less@K@std@@V?$allocator@U?$pair@$$CBKUtagEVENTINFO@@@std@@@3@$0A@@std@@@std@@IAE?AU?$pair@V?$_Tree_iterator@V?$_Tree_val@U?$_Tree_simple_types@U?$pair@$$CBKUtagEVENTINFO@@@std@@@std@@@std@@@std@@_N@1@_N$$QAU?$pair@$$CBKUtagEVENTINFO@@@1@U_Not_a_node_tag@1@@Z 0044f958     CSHandler.obj
 0002:00010968       __tryblocktable$??$_Insert_nohint@U?$pair@$$CBKUtagEVENTINFO@@@std@@U_Not_a_node_tag@2@@?$_Tree@V?$_Tmap_traits@KUtagEVENTINFO@@U?$less@K@std@@V?$allocator@U?$pair@$$CBKUtagEVENTINFO@@@std@@@3@$0A@@std@@@std@@IAE?AU?$pair@V?$_Tree_iterator@V?$_Tree_val@U?$_Tree_simple_types@U?$pair@$$CBKUtagEVENTINFO@@@std@@@std@@@std@@@std@@_N@1@_N$$QAU?$pair@$$CBKUtagEVENTINFO@@@1@U_Not_a_node_tag@1@@Z 0044f968     CSHandler.obj
 0002:0001097c       __ehfuncinfo$??$_Insert_nohint@U?$pair@$$CBKUtagEVENTINFO@@@std@@U_Not_a_node_tag@2@@?$_Tree@V?$_Tmap_traits@KUtagEVENTINFO@@U?$less@K@std@@V?$allocator@U?$pair@$$CBKUtagEVENTINFO@@@std@@@3@$0A@@std@@@std@@IAE?AU?$pair@V?$_Tree_iterator@V?$_Tree_val@U?$_Tree_simple_types@U?$pair@$$CBKUtagEVENTINFO@@@std@@@std@@@std@@@std@@_N@1@_N$$QAU?$pair@$$CBKUtagEVENTINFO@@@1@U_Not_a_node_tag@1@@Z 0044f97c     CSHandler.obj
 0002:000109a0       __catchsym$??$_Buynode@U?$pair@$$CBKUtagEVENTINFO@@@std@@@?$_Tree_comp_alloc@V?$_Tmap_traits@KUtagEVENTINFO@@U?$less@K@std@@V?$allocator@U?$pair@$$CBKUtagEVENTINFO@@@std@@@3@$0A@@std@@@std@@QAEPAU?$_Tree_node@U?$pair@$$CBKUtagEVENTINFO@@@std@@PAX@1@$$QAU?$pair@$$CBKUtagEVENTINFO@@@1@@Z$3 0044f9a0     CSHandler.obj
 0002:000109b0       __unwindtable$??$_Buynode@U?$pair@$$CBKUtagEVENTINFO@@@std@@@?$_Tree_comp_alloc@V?$_Tmap_traits@KUtagEVENTINFO@@U?$less@K@std@@V?$allocator@U?$pair@$$CBKUtagEVENTINFO@@@std@@@3@$0A@@std@@@std@@QAEPAU?$_Tree_node@U?$pair@$$CBKUtagEVENTINFO@@@std@@PAX@1@$$QAU?$pair@$$CBKUtagEVENTINFO@@@1@@Z 0044f9b0     CSHandler.obj
 0002:000109c0       __tryblocktable$??$_Buynode@U?$pair@$$CBKUtagEVENTINFO@@@std@@@?$_Tree_comp_alloc@V?$_Tmap_traits@KUtagEVENTINFO@@U?$less@K@std@@V?$allocator@U?$pair@$$CBKUtagEVENTINFO@@@std@@@3@$0A@@std@@@std@@QAEPAU?$_Tree_node@U?$pair@$$CBKUtagEVENTINFO@@@std@@PAX@1@$$QAU?$pair@$$CBKUtagEVENTINFO@@@1@@Z 0044f9c0     CSHandler.obj
 0002:000109d4       __ehfuncinfo$??$_Buynode@U?$pair@$$CBKUtagEVENTINFO@@@std@@@?$_Tree_comp_alloc@V?$_Tmap_traits@KUtagEVENTINFO@@U?$less@K@std@@V?$allocator@U?$pair@$$CBKUtagEVENTINFO@@@std@@@3@$0A@@std@@@std@@QAEPAU?$_Tree_node@U?$pair@$$CBKUtagEVENTINFO@@@std@@PAX@1@$$QAU?$pair@$$CBKUtagEVENTINFO@@@1@@Z 0044f9d4     CSHandler.obj
 0002:00010a2c       __unwindtable$?SendCS_BOWPLAYERNOTIFY_ACK@CTUser@@QAEXE@Z 0044fa2c     CSSender.obj
 0002:00010a2c       __unwindtable$?SendCS_START_ACK@CTUser@@QAEXEKGE@Z 0044fa2c     CSSender.obj
 0002:00010a2c       __unwindtable$?SendCS_DELCHAR_ACK@CTUser@@QAEXEK@Z 0044fa2c     CSSender.obj
 0002:00010a2c       __unwindtable$?SendCS_TESTVERSION_ACK@CTUser@@QAEXG@Z 0044fa2c     CSSender.obj
 0002:00010a2c       __unwindtable$?SendCS_SECURITYRESULT_ACK@CTUser@@QAEXE@Z 0044fa2c     CSSender.obj
 0002:00010a2c       __unwindtable$?SendCS_VETERAN_ACK@CTUser@@QAEXEEEE@Z 0044fa2c     CSSender.obj
 0002:00010a2c       __unwindtable$?SendCS_LOGIN_ACK@CTUser@@QAEXEKKKKGEEK_J@Z 0044fa2c     CSSender.obj
 0002:00010a2c       __unwindtable$?SendCT_SERVICEMONITOR_REQ@CTUser@@QAEXKKKK@Z 0044fa2c     CSSender.obj
 0002:00010a34       __ehfuncinfo$?SendCS_TESTVERSION_ACK@CTUser@@QAEXG@Z 0044fa34     CSSender.obj
 0002:00010a34       __ehfuncinfo$?SendCS_LOGIN_ACK@CTUser@@QAEXEKKKKGEEK_J@Z 0044fa34     CSSender.obj
 0002:00010a34       __ehfuncinfo$?SendCS_DELCHAR_ACK@CTUser@@QAEXEK@Z 0044fa34     CSSender.obj
 0002:00010a34       __ehfuncinfo$?SendCT_SERVICEMONITOR_REQ@CTUser@@QAEXKKKK@Z 0044fa34     CSSender.obj
 0002:00010a34       __ehfuncinfo$?SendCS_VETERAN_ACK@CTUser@@QAEXEEEE@Z 0044fa34     CSSender.obj
 0002:00010a34       __ehfuncinfo$?SendCS_START_ACK@CTUser@@QAEXEKGE@Z 0044fa34     CSSender.obj
 0002:00010a34       __ehfuncinfo$?SendCS_BOWPLAYERNOTIFY_ACK@CTUser@@QAEXE@Z 0044fa34     CSSender.obj
 0002:00010a34       __ehfuncinfo$?SendCS_SECURITYRESULT_ACK@CTUser@@QAEXE@Z 0044fa34     CSSender.obj
 0002:00010a58       __unwindtable$?SendCS_CREATECHAR_ACK@CTUser@@QAEXEKV?$CStringT@DV?$StrTraitATL@DV?$ChTraitsCRT@D@ATL@@@ATL@@@ATL@@EEEEEEEEEEEEE@Z 0044fa58     CSSender.obj
 0002:00010a68       __ehfuncinfo$?SendCS_CREATECHAR_ACK@CTUser@@QAEXEKV?$CStringT@DV?$StrTraitATL@DV?$ChTraitsCRT@D@ATL@@@ATL@@@ATL@@EEEEEEEEEEEEE@Z 0044fa68     CSSender.obj
 0002:00010a8c       __ehfuncinfo$?InitQueryTLoginSvr@@YAHPAVCSqlDatabase@@@Z 0044fa8c     DBAccess.obj
 0002:00010ab0       __unwindtable$?InitQueryTLoginSvr@@YAHPAVCSqlDatabase@@@Z 0044fab0     DBAccess.obj
 0002:00010c00       __ehfuncinfo$?InitQueryTGameSvr@@YAHPAVCSqlDatabase@@@Z 0044fc00     DBAccess.obj
 0002:00010c24       __unwindtable$?InitQueryTGameSvr@@YAHPAVCSqlDatabase@@@Z 0044fc24     DBAccess.obj
 0002:00010ca4       __ehfuncinfo$??0?$basic_istream@DU?$char_traits@D@std@@@std@@QAE@PAV?$basic_streambuf@DU?$char_traits@D@std@@@1@_N@Z 0044fca4     mailer.obj
 0002:00010cc8       __unwindtable$??0?$basic_istream@DU?$char_traits@D@std@@@std@@QAE@PAV?$basic_streambuf@DU?$char_traits@D@std@@@1@_N@Z 0044fcc8     mailer.obj
 0002:00010cf0       __catchsym$?_Ipfx@?$basic_istream@DU?$char_traits@D@std@@@std@@QAE_N_N@Z$6 0044fcf0     mailer.obj
 0002:00010d00       __tryblocktable$?_Ipfx@?$basic_istream@DU?$char_traits@D@std@@@std@@QAE_N_N@Z 0044fd00     mailer.obj
 0002:00010d14       __ehfuncinfo$?_Ipfx@?$basic_istream@DU?$char_traits@D@std@@@std@@QAE_N_N@Z 0044fd14     mailer.obj
 0002:00010d38       __unwindtable$?_Ipfx@?$basic_istream@DU?$char_traits@D@std@@@std@@QAE_N_N@Z 0044fd38     mailer.obj
 0002:00010d60       __unwindtable$??1?$map@KUtagEVENTINFO@@U?$less@K@std@@V?$allocator@U?$pair@$$CBKUtagEVENTINFO@@@std@@@3@@std@@QAE@XZ 0044fd60     TLoginSvr.obj
 0002:00010d60       __unwindtable$??_G?$basic_istream@DU?$char_traits@D@std@@@std@@UAEPAXI@Z 0044fd60     mailer.obj
 0002:00010d60       __unwindtable$??_D?$basic_istream@DU?$char_traits@D@std@@@std@@QAEXXZ 0044fd60     libcpmt:cin.obj
 0002:00010d60       __unwindtable$??_GCSession@@UAEPAXI@Z 0044fd60     TNetLib:Session.obj
 0002:00010d60       __unwindtable$??1sentry@?$basic_istream@DU?$char_traits@D@std@@@std@@QAE@XZ 0044fd60     mailer.obj
 0002:00010d60       __unwindtable$??1CTLoginSvrModule@@UAE@XZ 0044fd60     TLoginSvr.obj
 0002:00010d60       __unwindtable$??_GCSqlQuery@@UAEPAXI@Z 0044fd60     TNetLib:SqlQuery.obj
 0002:00010d60       __unwindtable$??1CSqlDatabase@@UAE@XZ 0044fd60     TNetLib:SqlDatabase.obj
 0002:00010d60       __unwindtable$?common_exit@@YAXHW4_crt_exit_cleanup_mode@@W4_crt_exit_return_mode@@@Z 0044fd60     libucrt:exit.obj
 0002:00010d68       __ehfuncinfo$?common_exit@@YAXHW4_crt_exit_cleanup_mode@@W4_crt_exit_return_mode@@@Z 0044fd68     libucrt:exit.obj
 0002:00010d68       __ehfuncinfo$??_GCSession@@UAEPAXI@Z 0044fd68     TNetLib:Session.obj
 0002:00010d68       __ehfuncinfo$??1sentry@?$basic_istream@DU?$char_traits@D@std@@@std@@QAE@XZ 0044fd68     mailer.obj
 0002:00010d68       __ehfuncinfo$??1CSqlDatabase@@UAE@XZ 0044fd68     TNetLib:SqlDatabase.obj
 0002:00010d68       __ehfuncinfo$??_GCSqlQuery@@UAEPAXI@Z 0044fd68     TNetLib:SqlQuery.obj
 0002:00010d68       __ehfuncinfo$??_G?$basic_istream@DU?$char_traits@D@std@@@std@@UAEPAXI@Z 0044fd68     mailer.obj
 0002:00010d68       __ehfuncinfo$??_D?$basic_istream@DU?$char_traits@D@std@@@std@@QAEXXZ 0044fd68     libcpmt:cin.obj
 0002:00010d68       __ehfuncinfo$??1?$map@KUtagEVENTINFO@@U?$less@K@std@@V?$allocator@U?$pair@$$CBKUtagEVENTINFO@@@std@@@3@@std@@QAE@XZ 0044fd68     TLoginSvr.obj
 0002:00010d68       __ehfuncinfo$??1CTLoginSvrModule@@UAE@XZ 0044fd68     TLoginSvr.obj
 0002:00010d8c       __unwindtable$?OnCloseSession@CTLoginSvrModule@@IAEXPAVCTUser@@@Z 0044fd8c     TLoginSvr.obj
 0002:00010d9c       __ehfuncinfo$?OnCloseSession@CTLoginSvrModule@@IAEXPAVCTUser@@@Z 0044fd9c     TLoginSvr.obj
 0002:00010dc0       __unwindtable$?LoadData@CTLoginSvrModule@@IAEKPAVCSqlDatabase@@PAV?$map@EPAUtagTGROUP@@U?$less@E@std@@V?$allocator@U?$pair@$$CBEPAUtagTGROUP@@@std@@@3@@std@@@Z 0044fdc0     TLoginSvr.obj
 0002:00010dd0       __ehfuncinfo$?LoadData@CTLoginSvrModule@@IAEKPAVCSqlDatabase@@PAV?$map@EPAUtagTGROUP@@U?$less@E@std@@V?$allocator@U?$pair@$$CBEPAUtagTGROUP@@@std@@@3@@std@@@Z 0044fdd0     TLoginSvr.obj
 0002:00010df4       __unwindtable$?LoadDataLogin@CTLoginSvrModule@@IAEKXZ 0044fdf4     TLoginSvr.obj
 0002:00010e14       __ehfuncinfo$?LoadDataLogin@CTLoginSvrModule@@IAEKXZ 0044fe14     TLoginSvr.obj
 0002:00010e38       __unwindtable$?LoadConfig@CTLoginSvrModule@@IAEKXZ 0044fe38     TLoginSvr.obj
 0002:00010e58       __ehfuncinfo$?LoadConfig@CTLoginSvrModule@@IAEKXZ 0044fe58     TLoginSvr.obj
 0002:00010e7c       __unwindtable$?ControlThread@CTLoginSvrModule@@IAEKXZ 0044fe7c     TLoginSvr.obj
 0002:00010e8c       __ehfuncinfo$?ControlThread@CTLoginSvrModule@@IAEKXZ 0044fe8c     TLoginSvr.obj
 0002:00010eb0       __unwindtable$?WorkThread@CTLoginSvrModule@@IAEKXZ 0044feb0     TLoginSvr.obj
 0002:00010ec8       __ehfuncinfo$?WorkThread@CTLoginSvrModule@@IAEKXZ 0044fec8     TLoginSvr.obj
 0002:00010eec       __ehfuncinfo$?LogExecCheck@CTLoginSvrModule@@IAEXKKV?$CStringT@DV?$StrTraitATL@DV?$ChTraitsCRT@D@ATL@@@ATL@@@ATL@@@Z 0044feec     TLoginSvr.obj
 0002:00010f10       __unwindtable$?LogExecCheck@CTLoginSvrModule@@IAEXKKV?$CStringT@DV?$StrTraitATL@DV?$ChTraitsCRT@D@ATL@@@ATL@@@ATL@@@Z 0044ff10     TLoginSvr.obj
 0002:00010f40       __unwindtable$?OnEnter@CTLoginSvrModule@@MAEKXZ 0044ff40     TLoginSvr.obj
 0002:00010f48       __ehfuncinfo$?OnEnter@CTLoginSvrModule@@MAEKXZ 0044ff48     TLoginSvr.obj
 0002:00010f6c       __unwindtable$?OnExit@CTLoginSvrModule@@MAEXXZ 0044ff6c     TLoginSvr.obj
 0002:00010f74       __ehfuncinfo$?OnExit@CTLoginSvrModule@@MAEXXZ 0044ff74     TLoginSvr.obj
 0002:00010f98       __ehfuncinfo$??0CTLoginSvrModule@@QAE@XZ 0044ff98     TLoginSvr.obj
 0002:00010fbc       __unwindtable$??0CTLoginSvrModule@@QAE@XZ 0044ffbc     TLoginSvr.obj
 0002:00011054       __unwindtable$_main        00450054     TLoginSvr.obj
 0002:0001105c       __ehfuncinfo$_main         0045005c     TLoginSvr.obj
 0002:00011080       __catchsym$??$?5DU?$char_traits@D@std@@V?$allocator@D@1@@std@@YAAAV?$basic_istream@DU?$char_traits@D@std@@@0@$$QAV10@AAV?$basic_string@DU?$char_traits@D@std@@V?$allocator@D@2@@0@@Z$10 00450080     TLoginSvr.obj
 0002:00011090       __tryblocktable$??$?5DU?$char_traits@D@std@@V?$allocator@D@1@@std@@YAAAV?$basic_istream@DU?$char_traits@D@std@@@0@$$QAV10@AAV?$basic_string@DU?$char_traits@D@std@@V?$allocator@D@2@@0@@Z 00450090     TLoginSvr.obj
 0002:000110a4       __ehfuncinfo$??$?5DU?$char_traits@D@std@@V?$allocator@D@1@@std@@YAAAV?$basic_istream@DU?$char_traits@D@std@@@0@$$QAV10@AAV?$basic_string@DU?$char_traits@D@std@@V?$allocator@D@2@@0@@Z 004500a4     TLoginSvr.obj
 0002:000110c8       __unwindtable$??$?5DU?$char_traits@D@std@@V?$allocator@D@1@@std@@YAAAV?$basic_istream@DU?$char_traits@D@std@@@0@$$QAV10@AAV?$basic_string@DU?$char_traits@D@std@@V?$allocator@D@2@@0@@Z 004500c8     TLoginSvr.obj
 0002:00011108       __catchsym$??$_Insert_nohint@U?$pair@$$CBEPAUtagTGROUP@@@std@@U_Not_a_node_tag@2@@?$_Tree@V?$_Tmap_traits@EPAUtagTGROUP@@U?$less@E@std@@V?$allocator@U?$pair@$$CBEPAUtagTGROUP@@@std@@@3@$0A@@std@@@std@@IAE?AU?$pair@V?$_Tree_iterator@V?$_Tree_val@U?$_Tree_simple_types@U?$pair@$$CBEPAUtagTGROUP@@@std@@@std@@@std@@@std@@_N@1@_N$$QAU?$pair@$$CBEPAUtagTGROUP@@@1@U_Not_a_node_tag@1@@Z$2 00450108     TLoginSvr.obj
 0002:00011118       __unwindtable$??$_Insert_nohint@U?$pair@$$CBEPAUtagTGROUP@@@std@@U_Not_a_node_tag@2@@?$_Tree@V?$_Tmap_traits@EPAUtagTGROUP@@U?$less@E@std@@V?$allocator@U?$pair@$$CBEPAUtagTGROUP@@@std@@@3@$0A@@std@@@std@@IAE?AU?$pair@V?$_Tree_iterator@V?$_Tree_val@U?$_Tree_simple_types@U?$pair@$$CBEPAUtagTGROUP@@@std@@@std@@@std@@@std@@_N@1@_N$$QAU?$pair@$$CBEPAUtagTGROUP@@@1@U_Not_a_node_tag@1@@Z 00450118     TLoginSvr.obj
 0002:00011128       __tryblocktable$??$_Insert_nohint@U?$pair@$$CBEPAUtagTGROUP@@@std@@U_Not_a_node_tag@2@@?$_Tree@V?$_Tmap_traits@EPAUtagTGROUP@@U?$less@E@std@@V?$allocator@U?$pair@$$CBEPAUtagTGROUP@@@std@@@3@$0A@@std@@@std@@IAE?AU?$pair@V?$_Tree_iterator@V?$_Tree_val@U?$_Tree_simple_types@U?$pair@$$CBEPAUtagTGROUP@@@std@@@std@@@std@@@std@@_N@1@_N$$QAU?$pair@$$CBEPAUtagTGROUP@@@1@U_Not_a_node_tag@1@@Z 00450128     TLoginSvr.obj
 0002:0001113c       __ehfuncinfo$??$_Insert_nohint@U?$pair@$$CBEPAUtagTGROUP@@@std@@U_Not_a_node_tag@2@@?$_Tree@V?$_Tmap_traits@EPAUtagTGROUP@@U?$less@E@std@@V?$allocator@U?$pair@$$CBEPAUtagTGROUP@@@std@@@3@$0A@@std@@@std@@IAE?AU?$pair@V?$_Tree_iterator@V?$_Tree_val@U?$_Tree_simple_types@U?$pair@$$CBEPAUtagTGROUP@@@std@@@std@@@std@@@std@@_N@1@_N$$QAU?$pair@$$CBEPAUtagTGROUP@@@1@U_Not_a_node_tag@1@@Z 0045013c     TLoginSvr.obj
 0002:00011160       __ehfuncinfo$??0CTUser@@QAE@XZ 00450160     TUser.obj
 0002:00011184       __unwindtable$??0CTUser@@QAE@XZ 00450184     TUser.obj
 0002:000111b4       __unwindtable$?AddQuery@CSqlDatabase@@QAEHPAVCSqlQuery@@V?$basic_string@DU?$char_traits@D@std@@V?$allocator@D@2@@std@@@Z 004501b4     TNetLib:SqlDatabase.obj
 0002:000111c4       __ehfuncinfo$?AddQuery@CSqlDatabase@@QAEHPAVCSqlQuery@@V?$basic_string@DU?$char_traits@D@std@@V?$allocator@D@2@@std@@@Z 004501c4     TNetLib:SqlDatabase.obj
 0002:000111e8       __unwindtable$??_GCSqlDatabase@@UAEPAXI@Z 004501e8     TNetLib:SqlDatabase.obj
 0002:000111f8       __ehfuncinfo$??_GCSqlDatabase@@UAEPAXI@Z 004501f8     TNetLib:SqlDatabase.obj
 0002:0001121c       __catchsym$??$_Insert_nohint@U?$pair@$$CBV?$basic_string@DU?$char_traits@D@std@@V?$allocator@D@2@@std@@PAVCSqlQuery@@@std@@U_Not_a_node_tag@2@@?$_Tree@V?$_Tmap_traits@V?$basic_string@DU?$char_traits@D@std@@V?$allocator@D@2@@std@@PAVCSqlQuery@@U?$less@V?$basic_string@DU?$char_traits@D@std@@V?$allocator@D@2@@std@@@2@V?$allocator@U?$pair@$$CBV?$basic_string@DU?$char_traits@D@std@@V?$allocator@D@2@@std@@PAVCSqlQuery@@@std@@@2@$0A@@std@@@std@@IAE?AU?$pair@V?$_Tree_iterator@V?$_Tree_val@U?$_Tree_simple_types@U?$pair@$$CBV?$basic_string@DU?$char_traits@D@std@@V?$allocator@D@2@@std@@PAVCSqlQuery@@@std@@@std@@@std@@@std@@_N@1@_N$$QAU?$pair@$$CBV?$basic_string@DU?$char_traits@D@std@@V?$allocator@D@2@@std@@PAVCSqlQuery@@@1@U_Not_a_node_tag@1@@Z$2 0045021c     TNetLib:SqlDatabase.obj
 0002:0001122c       __unwindtable$??$_Insert_nohint@U?$pair@$$CBV?$basic_string@DU?$char_traits@D@std@@V?$allocator@D@2@@std@@PAVCSqlQuery@@@std@@U_Not_a_node_tag@2@@?$_Tree@V?$_Tmap_traits@V?$basic_string@DU?$char_traits@D@std@@V?$allocator@D@2@@std@@PAVCSqlQuery@@U?$less@V?$basic_string@DU?$char_traits@D@std@@V?$allocator@D@2@@std@@@2@V?$allocator@U?$pair@$$CBV?$basic_string@DU?$char_traits@D@std@@V?$allocator@D@2@@std@@PAVCSqlQuery@@@std@@@2@$0A@@std@@@std@@IAE?AU?$pair@V?$_Tree_iterator@V?$_Tree_val@U?$_Tree_simple_types@U?$pair@$$CBV?$basic_string@DU?$char_traits@D@std@@V?$allocator@D@2@@std@@PAVCSqlQuery@@@std@@@std@@@std@@@std@@_N@1@_N$$QAU?$pair@$$CBV?$basic_string@DU?$char_traits@D@std@@V?$allocator@D@2@@std@@PAVCSqlQuery@@@1@U_Not_a_node_tag@1@@Z 0045022c     TNetLib:SqlDatabase.obj
 0002:0001123c       __tryblocktable$??$_Insert_nohint@U?$pair@$$CBV?$basic_string@DU?$char_traits@D@std@@V?$allocator@D@2@@std@@PAVCSqlQuery@@@std@@U_Not_a_node_tag@2@@?$_Tree@V?$_Tmap_traits@V?$basic_string@DU?$char_traits@D@std@@V?$allocator@D@2@@std@@PAVCSqlQuery@@U?$less@V?$basic_string@DU?$char_traits@D@std@@V?$allocator@D@2@@std@@@2@V?$allocator@U?$pair@$$CBV?$basic_string@DU?$char_traits@D@std@@V?$allocator@D@2@@std@@PAVCSqlQuery@@@std@@@2@$0A@@std@@@std@@IAE?AU?$pair@V?$_Tree_iterator@V?$_Tree_val@U?$_Tree_simple_types@U?$pair@$$CBV?$basic_string@DU?$char_traits@D@std@@V?$allocator@D@2@@std@@PAVCSqlQuery@@@std@@@std@@@std@@@std@@_N@1@_N$$QAU?$pair@$$CBV?$basic_string@DU?$char_traits@D@std@@V?$allocator@D@2@@std@@PAVCSqlQuery@@@1@U_Not_a_node_tag@1@@Z 0045023c     TNetLib:SqlDatabase.obj
 0002:00011250       __ehfuncinfo$??$_Insert_nohint@U?$pair@$$CBV?$basic_string@DU?$char_traits@D@std@@V?$allocator@D@2@@std@@PAVCSqlQuery@@@std@@U_Not_a_node_tag@2@@?$_Tree@V?$_Tmap_traits@V?$basic_string@DU?$char_traits@D@std@@V?$allocator@D@2@@std@@PAVCSqlQuery@@U?$less@V?$basic_string@DU?$char_traits@D@std@@V?$allocator@D@2@@std@@@2@V?$allocator@U?$pair@$$CBV?$basic_string@DU?$char_traits@D@std@@V?$allocator@D@2@@std@@PAVCSqlQuery@@@std@@@2@$0A@@std@@@std@@IAE?AU?$pair@V?$_Tree_iterator@V?$_Tree_val@U?$_Tree_simple_types@U?$pair@$$CBV?$basic_string@DU?$char_traits@D@std@@V?$allocator@D@2@@std@@PAVCSqlQuery@@@std@@@std@@@std@@@std@@_N@1@_N$$QAU?$pair@$$CBV?$basic_string@DU?$char_traits@D@std@@V?$allocator@D@2@@std@@PAVCSqlQuery@@@1@U_Not_a_node_tag@1@@Z 00450250     TNetLib:SqlDatabase.obj
 0002:00011274       __catchsym$??$_Buynode@U?$pair@$$CBV?$basic_string@DU?$char_traits@D@std@@V?$allocator@D@2@@std@@PAVCSqlQuery@@@std@@@?$_Tree_comp_alloc@V?$_Tmap_traits@V?$basic_string@DU?$char_traits@D@std@@V?$allocator@D@2@@std@@PAVCSqlQuery@@U?$less@V?$basic_string@DU?$char_traits@D@std@@V?$allocator@D@2@@std@@@2@V?$allocator@U?$pair@$$CBV?$basic_string@DU?$char_traits@D@std@@V?$allocator@D@2@@std@@PAVCSqlQuery@@@std@@@2@$0A@@std@@@std@@QAEPAU?$_Tree_node@U?$pair@$$CBV?$basic_string@DU?$char_traits@D@std@@V?$allocator@D@2@@std@@PAVCSqlQuery@@@std@@PAX@1@$$QAU?$pair@$$CBV?$basic_string@DU?$char_traits@D@std@@V?$allocator@D@2@@std@@PAVCSqlQuery@@@1@@Z$3 00450274     TNetLib:SqlDatabase.obj
 0002:00011284       __unwindtable$??$_Buynode@U?$pair@$$CBV?$basic_string@DU?$char_traits@D@std@@V?$allocator@D@2@@std@@PAVCSqlQuery@@@std@@@?$_Tree_comp_alloc@V?$_Tmap_traits@V?$basic_string@DU?$char_traits@D@std@@V?$allocator@D@2@@std@@PAVCSqlQuery@@U?$less@V?$basic_string@DU?$char_traits@D@std@@V?$allocator@D@2@@std@@@2@V?$allocator@U?$pair@$$CBV?$basic_string@DU?$char_traits@D@std@@V?$allocator@D@2@@std@@PAVCSqlQuery@@@std@@@2@$0A@@std@@@std@@QAEPAU?$_Tree_node@U?$pair@$$CBV?$basic_string@DU?$char_traits@D@std@@V?$allocator@D@2@@std@@PAVCSqlQuery@@@std@@PAX@1@$$QAU?$pair@$$CBV?$basic_string@DU?$char_traits@D@std@@V?$allocator@D@2@@std@@PAVCSqlQuery@@@1@@Z 00450284     TNetLib:SqlDatabase.obj
 0002:00011294       __tryblocktable$??$_Buynode@U?$pair@$$CBV?$basic_string@DU?$char_traits@D@std@@V?$allocator@D@2@@std@@PAVCSqlQuery@@@std@@@?$_Tree_comp_alloc@V?$_Tmap_traits@V?$basic_string@DU?$char_traits@D@std@@V?$allocator@D@2@@std@@PAVCSqlQuery@@U?$less@V?$basic_string@DU?$char_traits@D@std@@V?$allocator@D@2@@std@@@2@V?$allocator@U?$pair@$$CBV?$basic_string@DU?$char_traits@D@std@@V?$allocator@D@2@@std@@PAVCSqlQuery@@@std@@@2@$0A@@std@@@std@@QAEPAU?$_Tree_node@U?$pair@$$CBV?$basic_string@DU?$char_traits@D@std@@V?$allocator@D@2@@std@@PAVCSqlQuery@@@std@@PAX@1@$$QAU?$pair@$$CBV?$basic_string@DU?$char_traits@D@std@@V?$allocator@D@2@@std@@PAVCSqlQuery@@@1@@Z 00450294     TNetLib:SqlDatabase.obj
 0002:000112a8       __ehfuncinfo$??$_Buynode@U?$pair@$$CBV?$basic_string@DU?$char_traits@D@std@@V?$allocator@D@2@@std@@PAVCSqlQuery@@@std@@@?$_Tree_comp_alloc@V?$_Tmap_traits@V?$basic_string@DU?$char_traits@D@std@@V?$allocator@D@2@@std@@PAVCSqlQuery@@U?$less@V?$basic_string@DU?$char_traits@D@std@@V?$allocator@D@2@@std@@@2@V?$allocator@U?$pair@$$CBV?$basic_string@DU?$char_traits@D@std@@V?$allocator@D@2@@std@@PAVCSqlQuery@@@std@@@2@$0A@@std@@@std@@QAEPAU?$_Tree_node@U?$pair@$$CBV?$basic_string@DU?$char_traits@D@std@@V?$allocator@D@2@@std@@PAVCSqlQuery@@@std@@PAX@1@$$QAU?$pair@$$CBV?$basic_string@DU?$char_traits@D@std@@V?$allocator@D@2@@std@@PAVCSqlQuery@@@1@@Z 004502a8     TNetLib:SqlDatabase.obj
 0002:000112cc       __unwindtable$?Fetch@CSqlBase@@QAEHXZ 004502cc     TNetLib:SqlBase.obj
 0002:000112d4       __ehfuncinfo$?Fetch@CSqlBase@@QAEHXZ 004502d4     TNetLib:SqlBase.obj
 0002:000112f8       __unwindtable$?Open@CSqlBase@@QAEHH@Z 004502f8     TNetLib:SqlBase.obj
 0002:00011308       __ehfuncinfo$?Open@CSqlBase@@QAEHH@Z 00450308     TNetLib:SqlBase.obj
 0002:0001132c       __unwindtable$??0CSqlQuery@@QAE@PAVCSqlDatabase@@V?$basic_string@DU?$char_traits@D@std@@V?$allocator@D@2@@std@@PBD@Z 0045032c     TNetLib:SqlQuery.obj
 0002:00011344       __ehfuncinfo$??0CSqlQuery@@QAE@PAVCSqlDatabase@@V?$basic_string@DU?$char_traits@D@std@@V?$allocator@D@2@@std@@PBD@Z 00450344     TNetLib:SqlQuery.obj
 0002:00011368       __unwindtable$?Flush@CSession@@QAEXXZ 00450368     TNetLib:Session.obj
 0002:00011368       __unwindtable$?OnInvalidSession@CSession@@QAEHXZ 00450368     TNetLib:Session.obj
 0002:00011368       __unwindtable$?Read@CSession@@QAEHK@Z 00450368     TNetLib:Session.obj
 0002:00011370       __ehfuncinfo$?OnInvalidSession@CSession@@QAEHXZ 00450370     TNetLib:Session.obj
 0002:00011370       __ehfuncinfo$?Flush@CSession@@QAEXXZ 00450370     TNetLib:Session.obj
 0002:00011370       __ehfuncinfo$?Read@CSession@@QAEHK@Z 00450370     TNetLib:Session.obj
 0002:00011394       __unwindtable$?WaitForMessage@CSession@@QAEHXZ 00450394     TNetLib:Session.obj
 0002:00011394       __unwindtable$?Say@CSession@@UAEHPAVCPacket@@@Z 00450394     TNetLib:Session.obj
 0002:0001139c       __ehfuncinfo$?Say@CSession@@UAEHPAVCPacket@@@Z 0045039c     TNetLib:Session.obj
 0002:0001139c       __ehfuncinfo$?WaitForMessage@CSession@@QAEHXZ 0045039c     TNetLib:Session.obj
 0002:000113c0       __unwindtable$?SendComplete@CSession@@QAEHK@Z 004503c0     TNetLib:Session.obj
 0002:000113d0       __ehfuncinfo$?SendComplete@CSession@@QAEHK@Z 004503d0     TNetLib:Session.obj
 0002:000113f4       __unwindtable$?CheckMessage@CSession@@QAEHXZ 004503f4     TNetLib:Session.obj
 0002:00011404       __ehfuncinfo$?CheckMessage@CSession@@QAEHXZ 00450404     TNetLib:Session.obj
 0002:00011428       __unwindtable$??0CSession@@QAE@XZ 00450428     TNetLib:Session.obj
 0002:00011448       __ehfuncinfo$??0CSession@@QAE@XZ 00450448     TNetLib:Session.obj
 0002:0001146c       __unwindtable$?TraceLastError@@YAXPBD0K@Z 0045046c     TNetLib:CryptographyExt.obj
 0002:00011474       __ehfuncinfo$?TraceLastError@@YAXPBD0K@Z 00450474     TNetLib:CryptographyExt.obj
 0002:000115a0       __unwindtable$?_Locimp_dtor@_Locimp@locale@std@@CAXPAV123@@Z 004505a0     libcpmt:locale0.obj
 0002:000115a8       __ehfuncinfo$?_Locimp_dtor@_Locimp@locale@std@@CAXPAV123@@Z 004505a8     libcpmt:locale0.obj
 0002:000115cc       __unwindtable$?_Init@locale@std@@CAPAV_Locimp@12@_N@Z 004505cc     libcpmt:locale0.obj
 0002:000115d4       __ehfuncinfo$?_Init@locale@std@@CAPAV_Locimp@12@_N@Z 004505d4     libcpmt:locale0.obj
 0002:000115f8       __sehtable$___scrt_is_nonwritable_in_current_image 004505f8     LIBCMT:utility.obj
 0002:00011618       __sehtable$?__scrt_common_main_seh@@YAHXZ 00450618     LIBCMT:exe_main.obj
 0002:00011670       __sehtable$___DestructExceptionObject 00450670     libvcruntime:ehhelpers.obj
 0002:00011690       __sehtable$?FrameUnwindToState@__FrameHandler3@@SAXPAUEHRegistrationNode@@PAXPBU_s_FuncInfo@@H@Z 00450690     libvcruntime:frame.obj
 0002:000116b8       __sehtable$?CallCatchBlock@@YAPAXPAUEHExceptionRecord@@PAUEHRegistrationNode@@PAU_CONTEXT@@PBU_s_FuncInfo@@PAXHK@Z 004506b8     libvcruntime:frame.obj
 0002:000116e0       __catchsym$?CallUnexpected@@YAXPBU_s_ESTypeList@@@Z$2 004506e0     libvcruntime:frame.obj
 0002:000116f0       __unwindtable$?CallUnexpected@@YAXPBU_s_ESTypeList@@@Z 004506f0     libvcruntime:frame.obj
 0002:00011700       __tryblocktable$?CallUnexpected@@YAXPBU_s_ESTypeList@@@Z 00450700     libvcruntime:frame.obj
 0002:00011714       __ehfuncinfo$?CallUnexpected@@YAXPBU_s_ESTypeList@@@Z 00450714     libvcruntime:frame.obj
 0002:00011738       __sehtable$??$BuildCatchObjectHelperInternal@V__FrameHandler3@@@@YAHPAUEHExceptionRecord@@PAXPBU_s_HandlerType@@PBU_s_CatchableType@@@Z 00450738     libvcruntime:frame.obj
 0002:00011758       __sehtable$??$BuildCatchObjectInternal@V__FrameHandler3@@@@YAXPAUEHExceptionRecord@@PAXPBU_s_HandlerType@@PBU_s_CatchableType@@@Z 00450758     libvcruntime:frame.obj
 0002:000117b0       __sehtable$?_fclose_internal@@YAHQAU_iobuf@@AAV__crt_cached_ptd_host@@@Z 004507b0     libucrt:fclose.obj
 0002:000117d0       __sehtable$??$?RV<lambda_2866be3712abc81a800a822484c830d8>@@AAV<lambda_39ca0ed439415581b5b15c265174cece>@@V<lambda_2b24c74d71094a6cd0cb82e44167d71b>@@@?$__crt_seh_guarded_call@X@@QAEX$$QAV<lambda_2866be3712abc81a800a822484c830d8>@@AAV<lambda_39ca0ed439415581b5b15c265174cece>@@$$QAV<lambda_2b24c74d71094a6cd0cb82e44167d71b>@@@Z 004507d0     libucrt:fflush.obj
 0002:000117f0       __sehtable$??$?RV<lambda_2cc53f568c5a2bb6f192f930a45d44ea>@@AAV<lambda_ab61a845afdef5b7c387490eaf3616ee>@@V<lambda_c2ffc0b7726aa6be21d5f0026187e748>@@@?$__crt_seh_guarded_call@X@@QAEX$$QAV<lambda_2cc53f568c5a2bb6f192f930a45d44ea>@@AAV<lambda_ab61a845afdef5b7c387490eaf3616ee>@@$$QAV<lambda_c2ffc0b7726aa6be21d5f0026187e748>@@@Z 004507f0     libucrt:fflush.obj
 0002:00011810       __sehtable$??$?RV<lambda_6d20deecaf4856105ebacbad442d1079>@@AAV<lambda_9a32fed5bf61b6b509b2d3f6003082a1>@@V<lambda_63ea2239ed67c638ddbae41947fdf875>@@@?$__crt_seh_guarded_call@H@@QAEH$$QAV<lambda_6d20deecaf4856105ebacbad442d1079>@@AAV<lambda_9a32fed5bf61b6b509b2d3f6003082a1>@@$$QAV<lambda_63ea2239ed67c638ddbae41947fdf875>@@@Z 00450810     libucrt:fflush.obj
 0002:00011830       __sehtable$_fgetc          00450830     libucrt:fgetc.obj
 0002:00011850       __sehtable$?_fputc_internal@@YAHHQAU_iobuf@@AAV__crt_cached_ptd_host@@@Z 00450850     libucrt:fputc.obj
 0002:00011870       __sehtable$_fread_s        00450870     libucrt:fread.obj
 0002:00011890       __sehtable$?common_fseek@@YAHV__crt_stdio_stream@@_JHAAV__crt_cached_ptd_host@@@Z 00450890     libucrt:fseek.obj
 0002:000118b0       __sehtable$??$?RV<lambda_76055cf4b68c1f980da8b7496a3ae623>@@AAV<lambda_26974eb511f701c600fccfa2a97a8e1b>@@V<lambda_0062726809bb3c529c0733aa37379daf>@@@?$__crt_seh_guarded_call@I@@QAEI$$QAV<lambda_76055cf4b68c1f980da8b7496a3ae623>@@AAV<lambda_26974eb511f701c600fccfa2a97a8e1b>@@$$QAV<lambda_0062726809bb3c529c0733aa37379daf>@@@Z 004508b0     libucrt:fwrite.obj
 0002:000118d0       __sehtable$??$?RV<lambda_c390c0748f48a7db46f6ce5cc3c796da>@@AAV<lambda_703a5c3f7c88128b7f5f7a8861b0a6e0>@@V<lambda_c16a91f8771b304e2b1164fb4c043437>@@@?$__crt_seh_guarded_call@H@@QAEH$$QAV<lambda_c390c0748f48a7db46f6ce5cc3c796da>@@AAV<lambda_703a5c3f7c88128b7f5f7a8861b0a6e0>@@$$QAV<lambda_c16a91f8771b304e2b1164fb4c043437>@@@Z 004508d0     libucrt:setvbuf.obj
 0002:000118f0       __sehtable$_ungetc         004508f0     libucrt:ungetc.obj
 0002:00011910       __sehtable$_terminate      00450910     libucrt:terminate.obj
 0002:00011930       __sehtable$??$?RV<lambda_9fd0146d8887c94a05b904783845dbe3>@@AAV<lambda_6adc7e3a23ba0bcf2ed85f63d6332a84>@@V<lambda_263a6ae15fc668da2ea63694c172d2eb>@@@?$__crt_seh_guarded_call@H@@QAEH$$QAV<lambda_9fd0146d8887c94a05b904783845dbe3>@@AAV<lambda_6adc7e3a23ba0bcf2ed85f63d6332a84>@@$$QAV<lambda_263a6ae15fc668da2ea63694c172d2eb>@@@Z 00450930     libucrt:puts.obj
 0002:00011950       __sehtable$??$common_fsopen@D@@YAPAU_iobuf@@QBD0H@Z 00450950     libucrt:fopen.obj
 0002:00011970       __sehtable$??$common_ftell@J@@YAJV__crt_stdio_stream@@AAV__crt_cached_ptd_host@@@Z 00450970     libucrt:ftell.obj
 0002:00011990       __sehtable$??$common_ftell@_J@@YA_JV__crt_stdio_stream@@AAV__crt_cached_ptd_host@@@Z 00450990     libucrt:ftell.obj
 0002:000119b0       __sehtable$??$?RV<lambda_f5952838e36297a1e2e9d6c748429792>@@AAV<lambda_2116bde18c9e5f34230805ea4a4660ed>@@V<lambda_3c7107de1cc98bf330a3031f42c322a3>@@@?$__crt_seh_guarded_call@PAD@@QAEPAD$$QAV<lambda_f5952838e36297a1e2e9d6c748429792>@@AAV<lambda_2116bde18c9e5f34230805ea4a4660ed>@@$$QAV<lambda_3c7107de1cc98bf330a3031f42c322a3>@@@Z 004509b0     libucrt:setlocale.obj
 0002:000119d0       __sehtable$__query_new_handler 004509d0     libucrt:new_handler.obj
 0002:000119f0       __sehtable$??R<lambda_6e4b09c48022b2350581041d5f6b0c4c>@@QBE@XZ 004509f0     libucrt:exit.obj
 0002:00011a10       __sehtable$??$?RV<lambda_03b1d95aef87969028cfba75ccab2455>@@AAV<lambda_6e4b09c48022b2350581041d5f6b0c4c>@@V<lambda_22bdf7517842c4b3e53723af5aa32b9e>@@@?$__crt_seh_guarded_call@X@@QAEX$$QAV<lambda_03b1d95aef87969028cfba75ccab2455>@@AAV<lambda_6e4b09c48022b2350581041d5f6b0c4c>@@$$QAV<lambda_22bdf7517842c4b3e53723af5aa32b9e>@@@Z 00450a10     libucrt:exit.obj
 0002:00011a2c       __unwindtable$___dcrt_uninitialize_environments_nolock 00450a2c     libucrt:environment_initialization.obj
 0002:00011a3c       __ehfuncinfo$___dcrt_uninitialize_environments_nolock 00450a3c     libucrt:environment_initialization.obj
 0002:00011a60       __sehtable$??$?RV<lambda_8e746cf0007f6ed984d6f78af1fec997>@@AAV<lambda_22ebabd17bc4fa466a2aca6d8deb888d>@@V<lambda_18ed0c0b38a6dc0daf1e7ac6d6adf05e>@@@?$__crt_seh_guarded_call@H@@QAEH$$QAV<lambda_8e746cf0007f6ed984d6f78af1fec997>@@AAV<lambda_22ebabd17bc4fa466a2aca6d8deb888d>@@$$QAV<lambda_18ed0c0b38a6dc0daf1e7ac6d6adf05e>@@@Z 00450a60     libucrt:onexit.obj
 0002:00011a80       __sehtable$??$?RV<lambda_69a2805e680e0e292e8ba93315fe43a8>@@AAV<lambda_f03950bc5685219e0bcd2087efbe011e>@@V<lambda_03fcd07e894ec930e3f35da366ca99d6>@@@?$__crt_seh_guarded_call@H@@QAEH$$QAV<lambda_69a2805e680e0e292e8ba93315fe43a8>@@AAV<lambda_f03950bc5685219e0bcd2087efbe011e>@@$$QAV<lambda_03fcd07e894ec930e3f35da366ca99d6>@@@Z 00450a80     libucrt:onexit.obj
 0002:00011aa0       __sehtable$??$?RV<lambda_e5124f882df8998aaf41531e079ba474>@@AAV<lambda_3e16ef9562a7dcce91392c22ab16ea36>@@V<lambda_e25ca0880e6ef98be67edffd8c599615>@@@?$__crt_seh_guarded_call@X@@QAEX$$QAV<lambda_e5124f882df8998aaf41531e079ba474>@@AAV<lambda_3e16ef9562a7dcce91392c22ab16ea36>@@$$QAV<lambda_e25ca0880e6ef98be67edffd8c599615>@@@Z 00450aa0     libucrt:wsetlocale.obj
 0002:00011ac0       __sehtable$??$?RV<lambda_4fdada1b837b2abbf20876fac97688ad>@@AAV<lambda_b57350f2640456a0859d250846f69caf>@@V<lambda_eed5e4f92b5b7d55fa22c48c484aaa54>@@@?$__crt_seh_guarded_call@X@@QAEX$$QAV<lambda_4fdada1b837b2abbf20876fac97688ad>@@AAV<lambda_b57350f2640456a0859d250846f69caf>@@$$QAV<lambda_eed5e4f92b5b7d55fa22c48c484aaa54>@@@Z 00450ac0     libucrt:wsetlocale.obj
 0002:00011ae0       __sehtable$??$?RV<lambda_ac03c5d59bd18b09cb88b28331f6bfed>@@AAV<lambda_2a444430fde8c29194d880d93eed5e8f>@@AAV<lambda_02db5278e8aef8b5e4976579d73f5304>@@@?$__crt_seh_guarded_call@X@@QAEX$$QAV<lambda_ac03c5d59bd18b09cb88b28331f6bfed>@@AAV<lambda_2a444430fde8c29194d880d93eed5e8f>@@AAV<lambda_02db5278e8aef8b5e4976579d73f5304>@@@Z 00450ae0     libucrt:wsetlocale.obj
 0002:00011b00       __sehtable$??$?RV<lambda_15ade71b0218206bbe3333a0c9b79046>@@AAV<lambda_da44e0f8b0f19ba52fefafb335991732>@@V<lambda_207f2d024fc103971653565357d6cd41>@@@?$__crt_seh_guarded_call@X@@QAEX$$QAV<lambda_15ade71b0218206bbe3333a0c9b79046>@@AAV<lambda_da44e0f8b0f19ba52fefafb335991732>@@$$QAV<lambda_207f2d024fc103971653565357d6cd41>@@@Z 00450b00     libucrt:per_thread_data.obj
 0002:00011b20       __sehtable$??$?RV<lambda_a7e850c220f1c8d1e6efeecdedd162c6>@@AAV<lambda_46720907175c18b6c9d2717bc0d2d362>@@V<lambda_9048902d66e8d99359bc9897bbb930a8>@@@?$__crt_seh_guarded_call@X@@QAEX$$QAV<lambda_a7e850c220f1c8d1e6efeecdedd162c6>@@AAV<lambda_46720907175c18b6c9d2717bc0d2d362>@@$$QAV<lambda_9048902d66e8d99359bc9897bbb930a8>@@@Z 00450b20     libucrt:per_thread_data.obj
 0002:00011b40       __sehtable$??$?RV<lambda_38edbb1296d33220d7e4dd0ed76b244a>@@AAV<lambda_5ce1d447e08cb34b2473517608e21441>@@V<lambda_fb385d3da700c9147fc39e65dd577a8c>@@@?$__crt_seh_guarded_call@X@@QAEX$$QAV<lambda_38edbb1296d33220d7e4dd0ed76b244a>@@AAV<lambda_5ce1d447e08cb34b2473517608e21441>@@$$QAV<lambda_fb385d3da700c9147fc39e65dd577a8c>@@@Z 00450b40     libucrt:per_thread_data.obj
 0002:00011b60       __sehtable$??$?RV<lambda_6affb1475c98b40b75cdec977db92e3c>@@AAV<lambda_b8d4b9c228a6ecc3f80208dbb4b4a104>@@V<lambda_608742c3c92a14382c1684fc64f96c88>@@@?$__crt_seh_guarded_call@X@@QAEX$$QAV<lambda_6affb1475c98b40b75cdec977db92e3c>@@AAV<lambda_b8d4b9c228a6ecc3f80208dbb4b4a104>@@$$QAV<lambda_608742c3c92a14382c1684fc64f96c88>@@@Z 00450b60     libucrt:per_thread_data.obj
 0002:00011b80       __sehtable$??$?RV<lambda_6b4b7855443974f2b4b77000ea21c99c>@@AAV<lambda_8f7d3b162ab39427f4fa9995c67a7986>@@V<lambda_cc9a5ba8a5d8428b9634eab82665e5dc>@@@?$__crt_seh_guarded_call@H@@QAEH$$QAV<lambda_6b4b7855443974f2b4b77000ea21c99c>@@AAV<lambda_8f7d3b162ab39427f4fa9995c67a7986>@@$$QAV<lambda_cc9a5ba8a5d8428b9634eab82665e5dc>@@@Z 00450b80     libucrt:winapi_thunks.obj
 0002:00011ba0       __sehtable$___acrt_initialize_lowio 00450ba0     libucrt:ioinit.obj
 0002:00011bc0       __sehtable$__fcloseall     00450bc0     libucrt:closeall.obj
 0002:00011be0       __sehtable$??$?RV<lambda_d422a76eb4c3bf3ad751449ab71a6ea4>@@AAV<lambda_c9ba49e555ba839a7b07aa3fbecb7617>@@V<lambda_9476263c8ee91a25d21c55370bdb50de>@@@?$__crt_seh_guarded_call@H@@QAEH$$QAV<lambda_d422a76eb4c3bf3ad751449ab71a6ea4>@@AAV<lambda_c9ba49e555ba839a7b07aa3fbecb7617>@@$$QAV<lambda_9476263c8ee91a25d21c55370bdb50de>@@@Z 00450be0     libucrt:close.obj
 0002:00011c00       __sehtable$?__acrt_stdio_allocate_stream@@YA?AV__crt_stdio_stream@@XZ 00450c00     libucrt:stream.obj
 0002:00011c20       __sehtable$??$?RV<lambda_9e9de3de5fa147e2223d7db92bc10aa6>@@AAV<lambda_38ce7e780aa69e748d6df282ebc68efe>@@V<lambda_8ca6da459f0f6780f1cff60fdc3d00e5>@@@?$__crt_seh_guarded_call@H@@QAEH$$QAV<lambda_9e9de3de5fa147e2223d7db92bc10aa6>@@AAV<lambda_38ce7e780aa69e748d6df282ebc68efe>@@$$QAV<lambda_8ca6da459f0f6780f1cff60fdc3d00e5>@@@Z 00450c20     libucrt:commit.obj
 0002:00011c40       __sehtable$__write_internal 00450c40     libucrt:write.obj
 0002:00011c60       __sehtable$__read          00450c60     libucrt:read.obj
 0002:00011c80       __sehtable$??$common_lseek@_J@@YA_JH_JHAAV__crt_cached_ptd_host@@@Z 00450c80     libucrt:lseek.obj
 0002:00011ca0       __sehtable$__isindst       00450ca0     libucrt:tzset.obj
 0002:00011cc0       __sehtable$___tzset        00450cc0     libucrt:tzset.obj
 0002:00011ce0       __sehtable$___set_fpsr_sse2 00450ce0     libucrt:fpctrl.obj
 0002:00011d00       __sehtable$_raise          00450d00     libucrt:signal.obj
 0002:00011d20       __sehtable$??$?RV<lambda_cbab9ec6f41b0180b23cc171c22676b0>@@AAV<lambda_44731a7d0e6d81c3e6aa82d741081786>@@V<lambda_4b292cb8dd18144e164572427af410ab>@@@?$__crt_seh_guarded_call@P6AXH@Z@@QAEP6AXH@Z$$QAV<lambda_cbab9ec6f41b0180b23cc171c22676b0>@@AAV<lambda_44731a7d0e6d81c3e6aa82d741081786>@@$$QAV<lambda_4b292cb8dd18144e164572427af410ab>@@@Z 00450d20     libucrt:signal.obj
 0002:00011d40       __sehtable$?update_thread_multibyte_data_internal@@YAPAU__crt_multibyte_data@@QAU__acrt_ptd@@QAPAU1@@Z 00450d40     libucrt:mbctype.obj
 0002:00011d60       __sehtable$??$?RV<lambda_ceb1ee4838e85a9d631eb091e2fbe199>@@AAV<lambda_ae742caa10f662c28703da3d2ea5e57e>@@V<lambda_cd08b5d6af4937fe54fc07d0c9bf6b37>@@@?$__crt_seh_guarded_call@X@@QAEX$$QAV<lambda_ceb1ee4838e85a9d631eb091e2fbe199>@@AAV<lambda_ae742caa10f662c28703da3d2ea5e57e>@@$$QAV<lambda_cd08b5d6af4937fe54fc07d0c9bf6b37>@@@Z 00450d60     libucrt:mbctype.obj
 0002:00011d80       __sehtable$__alloc_osfhnd  00450d80     libucrt:osfinfo.obj
 0002:00011da0       __sehtable$___acrt_lowio_ensure_fh_exists 00450da0     libucrt:osfinfo.obj
 0002:00011dc0       __sehtable$___acrt_update_thread_locale_data 00450dc0     libucrt:locale_refcounting.obj
 0002:00011de0       __sehtable$??$common_getenv_s@_W@@YAHQAIQA_WIQB_W@Z 00450de0     libucrt:getenv.obj
 0002:00011e00       __sehtable$??$common_sopen_dispatch@D@@YAHQBDHHHQAHH@Z 00450e00     libucrt:open.obj
 0002:00011e20       __sehtable$__IsNonwritableInCurrentImage 00450e20     LIBCMT:pesect.obj
 0002:0001223c       .idata$6                   0045123c     ws2_32:WS2_32.dll
 0002:00012254       .idata$6                   00451254     mswsock:MSWSOCK.dll
 0002:000125bc       .idata$6                   004515bc     kernel32:KERNEL32.dll
 0002:000125ee       .idata$6                   004515ee     user32:USER32.dll
 0002:000126d2       .idata$6                   004516d2     advapi32:ADVAPI32.dll
 0002:00012726       .idata$6                   00451726     ole32:ole32.dll
 0002:00012730       .idata$6                   00451730     odbc32:ODBC32.dll
 0003:00000038       ?init@std@@3JA             00452038     libcpmt:xlock.obj
 0003:00000094       ?atcount_cdecl@@3IA        00452094     libcpmt:iosptrs.obj
 0003:000000e0       ?__vcrt_flsindex@@3KA      004520e0     libvcruntime:per_thread_data.obj
 0003:00000100       ?errno_no_memory@@3HA      00452100     libucrt:errno.obj
 0003:00000104       ?doserrno_no_memory@@3KA   00452104     libucrt:errno.obj
 0003:00000224       __ctype_loc_style          00452224     libucrt:wsetlocale.obj
 0003:00000230       ?__acrt_flsindex@@3KA      00452230     libucrt:per_thread_data.obj
 0003:00000438       ?tzstd_program@@3PADA      00452438     libucrt:timeset.obj
 0003:00000478       ?tzdst_program@@3PADA      00452478     libucrt:timeset.obj
 0003:000004b8       ?w_tzstd_program@@3PA_WA   004524b8     libucrt:timeset.obj
 0003:00000538       ?w_tzdst_program@@3PA_WA   00452538     libucrt:timeset.obj
 0003:000005b8       ?tzname_states@@3PAY01PADA 004525b8     libucrt:timeset.obj
 0003:000005c0       ?w_tzname_states@@3PAY01PA_WA 004525c0     libucrt:timeset.obj
 0003:000005c8       ?dststart@@3Utransitiondate@?A0x7639d0b4@@A 004525c8     libucrt:tzset.obj
 0003:000005d4       ?dstend@@3Utransitiondate@?A0x7639d0b4@@A 004525d4     libucrt:tzset.obj
 0003:000005e0       ?__DAZ_ENABLED@?1??__set_fpsr_sse2@@9@9 004525e0     libucrt:fpctrl.obj
 0003:00000810       __mbctypes                 00452810     libucrt:mbctype.obj
 0003:00000918       __mbcasemaps               00452918     libucrt:mbctype.obj
 0003:00000a18       ?__rgctypeflag@@3PADA      00452a18     libucrt:mbctype.obj
 0003:00000a20       ?__rgcode_page_info@@3PAUcode_page_info@@A 00452a20     libucrt:mbctype.obj
 0003:00000b10       ?__dcrt_lowio_console_output_handle@@3PAXA 00452b10     libucrt:initcon.obj
 0003:00000b20       ?bPresent@?1???0TServerSystem@@QAE@V?$basic_string@DU?$char_traits@D@std@@V?$allocator@D@2@@std@@0@Z@4_NA 00452b20     TServerSystem:TServerSystem.obj
 0003:00001638       ?tick@?1??OnCT_SERVICEMONITOR_ACK@CTLoginSvrModule@@IAEKPAVCSqlDatabase@@PAV?$map@EPAUtagTGROUP@@U?$less@E@std@@V?$allocator@U?$pair@$$CBEPAUtagTGROUP@@@std@@@3@@std@@PAVCTUser@@AAVCPacket@@@Z@4KA 00453638     CSHandler.obj
 0003:0000163c       ?$TSS0@?1??OnCT_SERVICEMONITOR_ACK@CTLoginSvrModule@@IAEKPAVCSqlDatabase@@PAV?$map@EPAUtagTGROUP@@U?$less@E@std@@V?$allocator@U?$pair@$$CBEPAUtagTGROUP@@@std@@@3@@std@@PAVCTUser@@AAVCPacket@@@Z@4HA 0045363c     CSHandler.obj
 0003:00011e90       ?Initialized@?1??main@@9@4_NA 00463e90     TLoginSvr.obj
 0003:00011e94       ?strFileName@?1??LogExecCheck@CTLoginSvrModule@@IAEXKKV?$CStringT@DV?$StrTraitATL@DV?$ChTraitsCRT@D@ATL@@@ATL@@@ATL@@@Z@4V34@A 00463e94     TLoginSvr.obj
 0003:00011e98       ?$TSS0@?1??LogExecCheck@CTLoginSvrModule@@IAEXKKV?$CStringT@DV?$StrTraitATL@DV?$ChTraitsCRT@D@ATL@@@ATL@@@ATL@@@Z@4HA 00463e98     TLoginSvr.obj
 0003:00011ee0       ?initlocks@std@@3V_Init_locks@1@A 00463ee0     libcpmt:xlock.obj
 0003:00011ee8       ?mtx@std@@3PAU_RTL_CRITICAL_SECTION@@A 00463ee8     libcpmt:xlock.obj
 0003:00011fc4       ?classic_locale@std@@3Vlocale@1@A 00463fc4     libcpmt:locale0.obj
 0003:00011fcc       ?_Fac_tidy_reg@std@@3U_Fac_tidy_reg_t@1@B 00463fcc     libcpmt:locale0.obj
 0003:00011fd0       ?_Fac_head@std@@3PAU_Fac_node@1@A 00463fd0     libcpmt:locale0.obj
 0003:00011fd4       _global_locale             00463fd4     libcpmt:locale0.obj
 0003:00011fd8       ?registered@?1??_Setgloballocale@locale@std@@CAXPAX@Z@4_NA 00463fd8     libcpmt:locale0.obj
 0003:00011fe0       ?stdstr@std@@3PAPAVios_base@1@A 00463fe0     libcpmt:ios.obj
 0003:00012008       ?stdopens@std@@3PADA       00464008     libcpmt:ios.obj
 0003:00012018       ?initlocks@@3V_Init_locks@std@@A 00464018     libcpmt:cin.obj
 0003:00012019       ?init_cin@std@@3U_Init_cin@1@A 00464019     libcpmt:cin.obj
 0003:00012020       ?fin@std@@3V?$basic_filebuf@DU?$char_traits@D@std@@@1@A 00464020     libcpmt:cin.obj
 0003:000120d8       ?initlocks@@3V_Init_locks@std@@A 004640d8     libcpmt:cout.obj
 0003:000120d9       ?init_cout@std@@3U_Init_cout@1@A 004640d9     libcpmt:cout.obj
 0003:00012130       ?fout@std@@3V?$basic_filebuf@DU?$char_traits@D@std@@@1@A 00464130     libcpmt:cout.obj
 0003:000121ac       ?initlocks@std@@3V_Init_locks@1@A 004641ac     libcpmt:iosptrs.obj
 0003:000121ad       ?init_atexit@@3U_Init_atexit@@A 004641ad     libcpmt:iosptrs.obj
 0003:000121b0       ?atfuns_cdecl@@3PAP6AXXZA  004641b0     libcpmt:iosptrs.obj
 0003:000122f8       ?is_initialized_as_dll@@3_NA 004642f8     LIBCMT:utility.obj
 0003:000122f9       ?module_local_atexit_table_initialized@@3_NA 004642f9     LIBCMT:utility.obj
 0003:000122fc       ?module_local_atexit_table@@3U_onexit_table_t@@A 004642fc     LIBCMT:utility.obj
 0003:00012308       ?module_local_at_quick_exit_table@@3U_onexit_table_t@@A 00464308     LIBCMT:utility.obj
 0003:00012314       ?_Tss_mutex@@3U_RTL_CRITICAL_SECTION@@A 00464314     LIBCMT:thread_safe_statics.obj
 0003:0001232c       ?_Tss_cv@@3U_RTL_CONDITION_VARIABLE@@A 0046432c     LIBCMT:thread_safe_statics.obj
 0003:00012330       ?_Tss_event@@3PAXA         00464330     LIBCMT:thread_safe_statics.obj
 0003:00012334       ?encoded_sleep_condition_variable_cs@@3P6GHPAU_RTL_CONDITION_VARIABLE@@PAU_RTL_CRITICAL_SECTION@@K@ZA 00464334     LIBCMT:thread_safe_statics.obj
 0003:00012338       ?encoded_wake_all_condition_variable@@3P6GXPAU_RTL_CONDITION_VARIABLE@@@ZA 00464338     LIBCMT:thread_safe_statics.obj
 0003:00012340       _GS_ExceptionRecord        00464340     LIBCMT:gs_report.obj
 0003:00012390       _GS_ContextRecord          00464390     LIBCMT:gs_report.obj
 0003:0001267c       ?__vcrt_startup_thread_ptd@@3U__vcrt_ptd@@A 0046467c     libvcruntime:per_thread_data.obj
 0003:000126a8       ___vcrt_lock_table         004646a8     libvcruntime:locks.obj
 0003:000126c0       ___vcrt_locks_initialized  004646c0     libvcruntime:locks.obj
 0003:000126c4       ?module_handles@@3PAPAUHINSTANCE__@@A 004646c4     libvcruntime:winapi_downlevel.obj
 0003:000126d0       ?encoded_function_pointers@@3PAPAXA 004646d0     libvcruntime:winapi_downlevel.obj
 0003:0001270c       ?heap@@3V_HeapManager@@A   0046470c     libvcruntime:undname.obj
 0003:00012720       ?__acrt_invalid_parameter_handler@@3V?$dual_state_global@P6AXPB_W00II@Z@__crt_state_management@@A 00464720     libucrt:invalid_parameter.obj
 0003:00012738       ?__acrt_lock_table@@3PAU_RTL_CRITICAL_SECTION@@A 00464738     libucrt:locks.obj
 0003:00012888       ?__acrt_locks_initialized@@3IA 00464888     libucrt:locks.obj
 0003:0001288c       ?__acrt_new_handler@@3V?$dual_state_global@P6AHI@Z@__crt_state_management@@A 0046488c     libucrt:new_handler.obj
 0003:00012890       ?c_termination_complete@@3JA 00464890     libucrt:exit.obj
 0003:00012894       ?thread_local_exit_callback_func@@3P6GXPAXK0@ZA 00464894     libucrt:exit.obj
 0003:00012898       ?c_exit_complete@?1???R<lambda_6e4b09c48022b2350581041d5f6b0c4c>@@QBE@XZ@4_NA 00464898     libucrt:exit.obj
 0003:000128a0       ?program_name@?1???$common_configure_argv@D@@YAHW4_crt_argv_mode@@@Z@4PADA 004648a0     libucrt:argv_parsing.obj
 0003:000129d0       ?__acrt_app_type@@3W4_crt_app_type@@A 004649d0     libucrt:report_runtime_error.obj
 0003:000129d4       ?user_matherr@@3V?$dual_state_global@P6AHPAU_exception@@@Z@__crt_state_management@@A 004649d4     libucrt:matherr.obj
 0003:000129f4       ?__acrt_global_new_mode@@3V?$dual_state_global@J@__crt_state_management@@A 004649f4     libucrt:new_mode.obj
 0003:00012a00       ?module_handles@@3PAPAUHINSTANCE__@@A 00464a00     libucrt:winapi_thunks.obj
 0003:00012a58       ?encoded_function_pointers@@3PAPAXA 00464a58     libucrt:winapi_thunks.obj
 0003:00012ae4       ?static_enum_proc@?1??enum_system_locales_ex_nolock@@YAHQ6GHPA_WKJ@Z@Z@4P6GH0KJ@ZA 00464ae4     libucrt:winapi_thunks.obj
 0003:00012ae8       ?internal_state@?1??_mbtowc_internal@@9@4U_Mbstatet@@A 00464ae8     libucrt:mbtowc.obj
 0003:00012af0       ?enable_percent_n@@3IA     00464af0     libucrt:printf_count_output.obj
 0003:00012d10       ?_tzname@@3V?$dual_state_global@PAPAD@__crt_state_management@@A 00464d10     libucrt:timeset.obj
 0003:00012d14       ?w_tzname@@3V?$dual_state_global@PAPA_W@__crt_state_management@@A 00464d14     libucrt:timeset.obj
 0003:00012d18       ?last_wide_tz@@3PA_WA      00464d18     libucrt:tzset.obj
 0003:00012d20       ?tz_api_used@@3HA          00464d20     libucrt:tzset.obj
 0003:00012d24       ?tzset_init_state@@3V?$dual_state_global@J@__crt_state_management@@A 00464d24     libucrt:tzset.obj
 0003:00012d28       ?tz_info@@3U_TIME_ZONE_INFORMATION@@A 00464d28     libucrt:tzset.obj
 0003:00012dd8       ?ctrlc_action@@3V?$dual_state_global@P6AXH@Z@__crt_state_management@@A 00464dd8     libucrt:signal.obj
 0003:00012ddc       ?ctrlbreak_action@@3V?$dual_state_global@P6AXH@Z@__crt_state_management@@A 00464ddc     libucrt:signal.obj
 0003:00012de0       ?abort_action@@3V?$dual_state_global@P6AXH@Z@__crt_state_management@@A 00464de0     libucrt:signal.obj
 0003:00012de4       ?term_action@@3V?$dual_state_global@P6AXH@Z@__crt_state_management@@A 00464de4     libucrt:signal.obj
 0003:00012df4       ?fSystemSet@@3HA           00464df4     libucrt:mbctype.obj
 0003:00012df8       ?initialized@?1??__acrt_initialize_multibyte@@9@4_NA 00464df8     libucrt:mbctype.obj
 0003:00012e04       __pmatherr_set             00464e04     libucrt:libm_error.obj
 0003:00012e08       ?internal_pst@?1??__mbrtoc32_utf8@__crt_mbstring@@YAIPA_UPBDIPAU_Mbstatet@@AAV__crt_cached_ptd_host@@@Z@4U3@A 00464e08     libucrt:mbrtoc32.obj
 0003:00012e14       ?internal_pst@?1??__c16rtomb_utf8@__crt_mbstring@@YAIPAD_SPAU_Mbstatet@@AAV__crt_cached_ptd_host@@@Z@4U3@A 00464e14     libucrt:c16rtomb.obj
 0004:000001a0       $R000000                   004651a0     TLoginSvr.res
 0004:00000460       $R0002C0                   00465460     TLoginSvr.res
 0004:000004e0       $R000340                   004654e0     TLoginSvr.res
 0004:000009b8       $R000818                   004659b8     TLoginSvr.res
 0004:000009f0       $R000850                   004659f0     TLoginSvr.res
